
MiniOS.elf:     file format elf32-littlearm

Sections:
Idx Name          Size      VMA       LMA       File off  Algn
  0 .text         0000a69c  00400000  00400000  00010000  2**6
                  CONTENTS, ALLOC, LOAD, READONLY, CODE
  1 .ARM.exidx    00000008  0040a69c  0040a69c  0001a69c  2**2
                  CONTENTS, ALLOC, LOAD, READONLY, DATA
  2 .relocate     00000df8  20000000  0040a6a4  00020000  2**3
                  CONTENTS, ALLOC, LOAD, CODE
  3 .bss          000053b0  20000df8  0040b49c  00020df8  2**2
                  ALLOC
  4 .stack        00003000  200061a8  0041084c  00020df8  2**0
                  ALLOC
  5 .ARM.attributes 0000002a  00000000  00000000  00020df8  2**0
                  CONTENTS, READONLY
  6 .comment      00000059  00000000  00000000  00020e22  2**0
                  CONTENTS, READONLY
  7 .debug_info   0002f8bc  00000000  00000000  00020e7b  2**0
                  CONTENTS, READONLY, DEBUGGING
  8 .debug_abbrev 00006ada  00000000  00000000  00050737  2**0
                  CONTENTS, READONLY, DEBUGGING
  9 .debug_loc    00011fc9  00000000  00000000  00057211  2**0
                  CONTENTS, READONLY, DEBUGGING
 10 .debug_aranges 00001500  00000000  00000000  000691e0  2**3
                  CONTENTS, READONLY, DEBUGGING
 11 .debug_ranges 000016a0  00000000  00000000  0006a6e0  2**0
                  CONTENTS, READONLY, DEBUGGING
 12 .debug_macro  0001d33f  00000000  00000000  0006bd80  2**0
                  CONTENTS, READONLY, DEBUGGING
 13 .debug_line   0001b653  00000000  00000000  000890bf  2**0
                  CONTENTS, READONLY, DEBUGGING
 14 .debug_str    0005f27b  00000000  00000000  000a4712  2**0
                  CONTENTS, READONLY, DEBUGGING
 15 .debug_frame  00003f2c  00000000  00000000  00103990  2**2
                  CONTENTS, READONLY, DEBUGGING

Disassembly of section .text:

00400000 <exception_table>:
  400000:	a8 91 00 20 d9 2f 40 00 d5 2f 40 00 d5 2f 40 00     ... ./@../@../@.
  400010:	d5 2f 40 00 d5 2f 40 00 d5 2f 40 00 00 00 00 00     ./@../@../@.....
	...
  40002c:	41 05 40 00 d5 2f 40 00 00 00 00 00 d5 2f 40 00     A.@../@....../@.
  40003c:	f5 04 40 00 d5 2f 40 00 d5 2f 40 00 d5 2f 40 00     ..@../@../@../@.
  40004c:	b5 06 40 00 d5 2f 40 00 d5 2f 40 00 d5 2f 40 00     ..@../@../@../@.
  40005c:	d5 2f 40 00 d5 2f 40 00 ad 0a 40 00 00 00 00 00     ./@../@...@.....
  40006c:	41 28 40 00 55 28 40 00 69 28 40 00 d5 2f 40 00     A(@.U(@.i(@../@.
  40007c:	e9 0a 40 00 00 00 00 00 00 00 00 00 d5 2f 40 00     ..@........../@.
  40008c:	d5 2f 40 00 d5 2f 40 00 d5 2f 40 00 d5 2f 40 00     ./@../@../@../@.
  40009c:	d5 2f 40 00 d5 2f 40 00 d5 2f 40 00 d5 2f 40 00     ./@../@../@../@.
  4000ac:	d5 2f 40 00 d5 2f 40 00 d5 2f 40 00 d5 2f 40 00     ./@../@../@../@.
  4000bc:	d5 2f 40 00 d5 2f 40 00 d5 2f 40 00 d5 2f 40 00     ./@../@../@../@.

004000cc <__do_global_dtors_aux>:
  4000cc:	b510      	push	{r4, lr}
  4000ce:	4c05      	ldr	r4, [pc, #20]	; (4000e4 <__do_global_dtors_aux+0x18>)
  4000d0:	7823      	ldrb	r3, [r4, #0]
  4000d2:	b933      	cbnz	r3, 4000e2 <__do_global_dtors_aux+0x16>
  4000d4:	4b04      	ldr	r3, [pc, #16]	; (4000e8 <__do_global_dtors_aux+0x1c>)
  4000d6:	b113      	cbz	r3, 4000de <__do_global_dtors_aux+0x12>
  4000d8:	4804      	ldr	r0, [pc, #16]	; (4000ec <__do_global_dtors_aux+0x20>)
  4000da:	f3af 8000 	nop.w
  4000de:	2301      	movs	r3, #1
  4000e0:	7023      	strb	r3, [r4, #0]
  4000e2:	bd10      	pop	{r4, pc}
  4000e4:	20000df8 	.word	0x20000df8
  4000e8:	00000000 	.word	0x00000000
  4000ec:	0040a6a4 	.word	0x0040a6a4

004000f0 <frame_dummy>:
  4000f0:	4b0c      	ldr	r3, [pc, #48]	; (400124 <frame_dummy+0x34>)
  4000f2:	b143      	cbz	r3, 400106 <frame_dummy+0x16>
  4000f4:	480c      	ldr	r0, [pc, #48]	; (400128 <frame_dummy+0x38>)
  4000f6:	490d      	ldr	r1, [pc, #52]	; (40012c <frame_dummy+0x3c>)
  4000f8:	b510      	push	{r4, lr}
  4000fa:	f3af 8000 	nop.w
  4000fe:	480c      	ldr	r0, [pc, #48]	; (400130 <frame_dummy+0x40>)
  400100:	6803      	ldr	r3, [r0, #0]
  400102:	b923      	cbnz	r3, 40010e <frame_dummy+0x1e>
  400104:	bd10      	pop	{r4, pc}
  400106:	480a      	ldr	r0, [pc, #40]	; (400130 <frame_dummy+0x40>)
  400108:	6803      	ldr	r3, [r0, #0]
  40010a:	b933      	cbnz	r3, 40011a <frame_dummy+0x2a>
  40010c:	4770      	bx	lr
  40010e:	4b09      	ldr	r3, [pc, #36]	; (400134 <frame_dummy+0x44>)
  400110:	2b00      	cmp	r3, #0
  400112:	d0f7      	beq.n	400104 <frame_dummy+0x14>
  400114:	e8bd 4010 	ldmia.w	sp!, {r4, lr}
  400118:	4718      	bx	r3
  40011a:	4b06      	ldr	r3, [pc, #24]	; (400134 <frame_dummy+0x44>)
  40011c:	2b00      	cmp	r3, #0
  40011e:	d0f5      	beq.n	40010c <frame_dummy+0x1c>
  400120:	4718      	bx	r3
  400122:	bf00      	nop
  400124:	00000000 	.word	0x00000000
  400128:	0040a6a4 	.word	0x0040a6a4
  40012c:	20000dfc 	.word	0x20000dfc
  400130:	0040a6a4 	.word	0x0040a6a4
  400134:	00000000 	.word	0x00000000

00400138 <rtt_get_status>:
  400138:	68c0      	ldr	r0, [r0, #12]
  40013a:	4770      	bx	lr

0040013c <println>:
static void print( uint8_t* string ){
	while( *string ) 
		hal_serial_putc( SerialA, *string++ );
}

static void println( uint8_t* string ){
  40013c:	b570      	push	{r4, r5, r6, lr}
	while( *string ) 
  40013e:	7801      	ldrb	r1, [r0, #0]
  400140:	b141      	cbz	r1, 400154 <println+0x18>
  400142:	4604      	mov	r4, r0
		hal_serial_putc( SerialA, *string++ );
  400144:	2600      	movs	r6, #0
  400146:	4d0a      	ldr	r5, [pc, #40]	; (400170 <println+0x34>)
  400148:	4630      	mov	r0, r6
  40014a:	47a8      	blx	r5
	while( *string ) 
  40014c:	f814 1f01 	ldrb.w	r1, [r4, #1]!
  400150:	2900      	cmp	r1, #0
  400152:	d1f9      	bne.n	400148 <println+0xc>
	print( string );
	print( console_newline_in_use() );
  400154:	4b07      	ldr	r3, [pc, #28]	; (400174 <println+0x38>)
  400156:	4798      	blx	r3
  400158:	4604      	mov	r4, r0
	while( *string ) 
  40015a:	7801      	ldrb	r1, [r0, #0]
  40015c:	b139      	cbz	r1, 40016e <println+0x32>
		hal_serial_putc( SerialA, *string++ );
  40015e:	2600      	movs	r6, #0
  400160:	4d03      	ldr	r5, [pc, #12]	; (400170 <println+0x34>)
  400162:	4630      	mov	r0, r6
  400164:	47a8      	blx	r5
	while( *string ) 
  400166:	f814 1f01 	ldrb.w	r1, [r4, #1]!
  40016a:	2900      	cmp	r1, #0
  40016c:	d1f9      	bne.n	400162 <println+0x26>
  40016e:	bd70      	pop	{r4, r5, r6, pc}
  400170:	00400a09 	.word	0x00400a09
  400174:	00400309 	.word	0x00400309

00400178 <commands_ls>:
void commands_ls( uint8_t* param, uint32_t num_params ){
  400178:	e92d 47f0 	stmdb	sp!, {r4, r5, r6, r7, r8, r9, sl, lr}
  40017c:	f5ad 7d2c 	sub.w	sp, sp, #688	; 0x2b0
	if( ( num_files = hal_nvmem_fat_file_list( file_list, NUM_OF_FILES_TO_READ ) ) > 0 ){
  400180:	2114      	movs	r1, #20
  400182:	a811      	add	r0, sp, #68	; 0x44
  400184:	4b14      	ldr	r3, [pc, #80]	; (4001d8 <commands_ls+0x60>)
  400186:	4798      	blx	r3
  400188:	b310      	cbz	r0, 4001d0 <commands_ls+0x58>
  40018a:	ac11      	add	r4, sp, #68	; 0x44
  40018c:	ebc0 1540 	rsb	r5, r0, r0, lsl #5
  400190:	4425      	add	r5, r4
			size_of_file = hal_nvmem_fat_file_size( file_list[i] );
  400192:	4f12      	ldr	r7, [pc, #72]	; (4001dc <commands_ls+0x64>)
  400194:	4e12      	ldr	r6, [pc, #72]	; (4001e0 <commands_ls+0x68>)
			size_of_file /= 1024;
  400196:	f04f 0800 	mov.w	r8, #0
  40019a:	f8df 9058 	ldr.w	r9, [pc, #88]	; 4001f4 <commands_ls+0x7c>
			size_of_file = hal_nvmem_fat_file_size( file_list[i] );
  40019e:	4620      	mov	r0, r4
  4001a0:	47b8      	blx	r7
  4001a2:	47b0      	blx	r6
			size_of_file /= 1024;
  4001a4:	4642      	mov	r2, r8
  4001a6:	464b      	mov	r3, r9
  4001a8:	f8df a04c 	ldr.w	sl, [pc, #76]	; 4001f8 <commands_ls+0x80>
  4001ac:	47d0      	blx	sl
			sprintf( line_to_print, "%s       %2.1f KB", file_list[i], size_of_file );
  4001ae:	e9cd 0100 	strd	r0, r1, [sp]
  4001b2:	4622      	mov	r2, r4
  4001b4:	490b      	ldr	r1, [pc, #44]	; (4001e4 <commands_ls+0x6c>)
  4001b6:	a803      	add	r0, sp, #12
  4001b8:	4b0b      	ldr	r3, [pc, #44]	; (4001e8 <commands_ls+0x70>)
  4001ba:	4798      	blx	r3
			println( line_to_print );
  4001bc:	a803      	add	r0, sp, #12
  4001be:	4b0b      	ldr	r3, [pc, #44]	; (4001ec <commands_ls+0x74>)
  4001c0:	4798      	blx	r3
  4001c2:	341f      	adds	r4, #31
		for( uint32_t i=0; i<num_files; i++ ){
  4001c4:	42ac      	cmp	r4, r5
  4001c6:	d1ea      	bne.n	40019e <commands_ls+0x26>
}
  4001c8:	f50d 7d2c 	add.w	sp, sp, #688	; 0x2b0
  4001cc:	e8bd 87f0 	ldmia.w	sp!, {r4, r5, r6, r7, r8, r9, sl, pc}
		println( "No files found" );
  4001d0:	4807      	ldr	r0, [pc, #28]	; (4001f0 <commands_ls+0x78>)
  4001d2:	4b06      	ldr	r3, [pc, #24]	; (4001ec <commands_ls+0x74>)
  4001d4:	4798      	blx	r3
}
  4001d6:	e7f7      	b.n	4001c8 <commands_ls+0x50>
  4001d8:	00400c81 	.word	0x00400c81
  4001dc:	00400bed 	.word	0x00400bed
  4001e0:	004051f1 	.word	0x004051f1
  4001e4:	00409c6c 	.word	0x00409c6c
  4001e8:	00405afd 	.word	0x00405afd
  4001ec:	0040013d 	.word	0x0040013d
  4001f0:	00409c80 	.word	0x00409c80
  4001f4:	3f500000 	.word	0x3f500000
  4001f8:	004052dd 	.word	0x004052dd

004001fc <commands_cat>:
void commands_cat( uint8_t* param, uint32_t num_params ){
  4001fc:	b500      	push	{lr}
  4001fe:	f6ad 0d04 	subw	sp, sp, #2052	; 0x804
	if( num_params == 0){
  400202:	b179      	cbz	r1, 400224 <commands_cat+0x28>
	uint32_t bytes_read =  hal_nvmem_fat_file_read( param, buffer, MAX_CHARS_IN_FILE );
  400204:	f44f 6200 	mov.w	r2, #2048	; 0x800
  400208:	4669      	mov	r1, sp
  40020a:	4b08      	ldr	r3, [pc, #32]	; (40022c <commands_cat+0x30>)
  40020c:	4798      	blx	r3
	buffer[bytes_read-1] = '\0';
  40020e:	4468      	add	r0, sp
  400210:	2300      	movs	r3, #0
  400212:	f800 3c01 	strb.w	r3, [r0, #-1]
	println( buffer );
  400216:	4668      	mov	r0, sp
  400218:	4b05      	ldr	r3, [pc, #20]	; (400230 <commands_cat+0x34>)
  40021a:	4798      	blx	r3
}
  40021c:	f60d 0d04 	addw	sp, sp, #2052	; 0x804
  400220:	f85d fb04 	ldr.w	pc, [sp], #4
		println( "Specify file" );
  400224:	4803      	ldr	r0, [pc, #12]	; (400234 <commands_cat+0x38>)
  400226:	4b02      	ldr	r3, [pc, #8]	; (400230 <commands_cat+0x34>)
  400228:	4798      	blx	r3
  40022a:	e7f7      	b.n	40021c <commands_cat+0x20>
  40022c:	00400c19 	.word	0x00400c19
  400230:	0040013d 	.word	0x0040013d
  400234:	00409c40 	.word	0x00409c40

00400238 <commands_date>:
void commands_date( uint8_t* param, uint32_t num_params  ){
  400238:	b530      	push	{r4, r5, lr}
  40023a:	b09f      	sub	sp, #124	; 0x7c
	uint8_t* months[] = {	"January", "February", "March", "April", "May",
  40023c:	ac0c      	add	r4, sp, #48	; 0x30
  40023e:	4d12      	ldr	r5, [pc, #72]	; (400288 <commands_date+0x50>)
  400240:	cd0f      	ldmia	r5!, {r0, r1, r2, r3}
  400242:	c40f      	stmia	r4!, {r0, r1, r2, r3}
  400244:	cd0f      	ldmia	r5!, {r0, r1, r2, r3}
  400246:	c40f      	stmia	r4!, {r0, r1, r2, r3}
  400248:	e895 000f 	ldmia.w	r5, {r0, r1, r2, r3}
  40024c:	e884 000f 	stmia.w	r4, {r0, r1, r2, r3}
	hal_clock_read(&t);
  400250:	a818      	add	r0, sp, #96	; 0x60
  400252:	4b0e      	ldr	r3, [pc, #56]	; (40028c <commands_date+0x54>)
  400254:	4798      	blx	r3
	sprintf( line, "%s %d, %d %02d:%02d:%02d", months[t.month-1], t.day, t.year, t.hours, t.minutes, t.seconds );
  400256:	9b1c      	ldr	r3, [sp, #112]	; 0x70
  400258:	aa1e      	add	r2, sp, #120	; 0x78
  40025a:	eb02 0383 	add.w	r3, r2, r3, lsl #2
  40025e:	f853 2c4c 	ldr.w	r2, [r3, #-76]
  400262:	9b18      	ldr	r3, [sp, #96]	; 0x60
  400264:	9303      	str	r3, [sp, #12]
  400266:	9b19      	ldr	r3, [sp, #100]	; 0x64
  400268:	9302      	str	r3, [sp, #8]
  40026a:	9b1a      	ldr	r3, [sp, #104]	; 0x68
  40026c:	9301      	str	r3, [sp, #4]
  40026e:	9b1d      	ldr	r3, [sp, #116]	; 0x74
  400270:	9300      	str	r3, [sp, #0]
  400272:	9b1b      	ldr	r3, [sp, #108]	; 0x6c
  400274:	4906      	ldr	r1, [pc, #24]	; (400290 <commands_date+0x58>)
  400276:	a805      	add	r0, sp, #20
  400278:	4c06      	ldr	r4, [pc, #24]	; (400294 <commands_date+0x5c>)
  40027a:	47a0      	blx	r4
	println( line );
  40027c:	a805      	add	r0, sp, #20
  40027e:	4b06      	ldr	r3, [pc, #24]	; (400298 <commands_date+0x60>)
  400280:	4798      	blx	r3
}
  400282:	b01f      	add	sp, #124	; 0x7c
  400284:	bd30      	pop	{r4, r5, pc}
  400286:	bf00      	nop
  400288:	00409c10 	.word	0x00409c10
  40028c:	004007cd 	.word	0x004007cd
  400290:	00409c50 	.word	0x00409c50
  400294:	00405afd 	.word	0x00405afd
  400298:	0040013d 	.word	0x0040013d

0040029c <commands_sysinfo>:
void commands_sysinfo( uint8_t* param, uint32_t num_params  ){
  40029c:	b510      	push	{r4, lr}
  40029e:	b084      	sub	sp, #16
	sprintf( line, "%sv%s", SYS_NAME, SYS_VERSION );
  4002a0:	4b05      	ldr	r3, [pc, #20]	; (4002b8 <commands_sysinfo+0x1c>)
  4002a2:	4a06      	ldr	r2, [pc, #24]	; (4002bc <commands_sysinfo+0x20>)
  4002a4:	4906      	ldr	r1, [pc, #24]	; (4002c0 <commands_sysinfo+0x24>)
  4002a6:	4668      	mov	r0, sp
  4002a8:	4c06      	ldr	r4, [pc, #24]	; (4002c4 <commands_sysinfo+0x28>)
  4002aa:	47a0      	blx	r4
	println( line );
  4002ac:	4668      	mov	r0, sp
  4002ae:	4b06      	ldr	r3, [pc, #24]	; (4002c8 <commands_sysinfo+0x2c>)
  4002b0:	4798      	blx	r3
}
  4002b2:	b004      	add	sp, #16
  4002b4:	bd10      	pop	{r4, pc}
  4002b6:	bf00      	nop
  4002b8:	00409c90 	.word	0x00409c90
  4002bc:	00409c94 	.word	0x00409c94
  4002c0:	00409c9c 	.word	0x00409c9c
  4002c4:	00405afd 	.word	0x00405afd
  4002c8:	0040013d 	.word	0x0040013d

004002cc <print>:
static bool is_number(uint8_t c){
	return c >= '0' && c<='9';
}

static void print( uint8_t* string ){
	while( *string )
  4002cc:	7801      	ldrb	r1, [r0, #0]
  4002ce:	b151      	cbz	r1, 4002e6 <print+0x1a>
static void print( uint8_t* string ){
  4002d0:	b570      	push	{r4, r5, r6, lr}
  4002d2:	4604      	mov	r4, r0
		hal_serial_putc( SerialA, *string++ );
  4002d4:	2600      	movs	r6, #0
  4002d6:	4d04      	ldr	r5, [pc, #16]	; (4002e8 <print+0x1c>)
  4002d8:	4630      	mov	r0, r6
  4002da:	47a8      	blx	r5
	while( *string )
  4002dc:	f814 1f01 	ldrb.w	r1, [r4, #1]!
  4002e0:	2900      	cmp	r1, #0
  4002e2:	d1f9      	bne.n	4002d8 <print+0xc>
  4002e4:	bd70      	pop	{r4, r5, r6, pc}
  4002e6:	4770      	bx	lr
  4002e8:	00400a09 	.word	0x00400a09

004002ec <println>:
}

static void println( uint8_t* string ){
  4002ec:	b510      	push	{r4, lr}
	print( string );
  4002ee:	4c03      	ldr	r4, [pc, #12]	; (4002fc <println+0x10>)
  4002f0:	47a0      	blx	r4
	print( newline );
  4002f2:	4b03      	ldr	r3, [pc, #12]	; (400300 <println+0x14>)
  4002f4:	6818      	ldr	r0, [r3, #0]
  4002f6:	47a0      	blx	r4
  4002f8:	bd10      	pop	{r4, pc}
  4002fa:	bf00      	nop
  4002fc:	004002cd 	.word	0x004002cd
  400300:	20000e14 	.word	0x20000e14

00400304 <console_init>:
void console_init( ){
  400304:	4770      	bx	lr
	...

00400308 <console_newline_in_use>:
}
  400308:	4b01      	ldr	r3, [pc, #4]	; (400310 <console_newline_in_use+0x8>)
  40030a:	6818      	ldr	r0, [r3, #0]
  40030c:	4770      	bx	lr
  40030e:	bf00      	nop
  400310:	20000e14 	.word	0x20000e14

00400314 <console_begin>:
void console_begin( uint8_t* nl ){
  400314:	e92d 4ff0 	stmdb	sp!, {r4, r5, r6, r7, r8, r9, sl, fp, lr}
  400318:	b0a9      	sub	sp, #164	; 0xa4
  40031a:	af02      	add	r7, sp, #8
	newline = nl;
  40031c:	4b59      	ldr	r3, [pc, #356]	; (400484 <console_begin+0x170>)
  40031e:	6018      	str	r0, [r3, #0]
	sprintf( prompt_message, "%s@%s:%s%s ", DUMMY_USER, SYS_NAME, DEFAULT_PATH, CONSOLE_SYMBOL );
  400320:	4b59      	ldr	r3, [pc, #356]	; (400488 <console_begin+0x174>)
  400322:	9301      	str	r3, [sp, #4]
  400324:	4b59      	ldr	r3, [pc, #356]	; (40048c <console_begin+0x178>)
  400326:	9300      	str	r3, [sp, #0]
  400328:	4b59      	ldr	r3, [pc, #356]	; (400490 <console_begin+0x17c>)
  40032a:	4a5a      	ldr	r2, [pc, #360]	; (400494 <console_begin+0x180>)
  40032c:	495a      	ldr	r1, [pc, #360]	; (400498 <console_begin+0x184>)
  40032e:	f107 0080 	add.w	r0, r7, #128	; 0x80
  400332:	4c5a      	ldr	r4, [pc, #360]	; (40049c <console_begin+0x188>)
  400334:	47a0      	blx	r4
	hal_serial_getc(SerialA); //accounts for spurious 0x00 character received
  400336:	2000      	movs	r0, #0
  400338:	4b59      	ldr	r3, [pc, #356]	; (4004a0 <console_begin+0x18c>)
  40033a:	4798      	blx	r3
		if( is_alpha(c) || is_number(c) || c == '\n' || c == ' ' || c == '.'  ){
  40033c:	f8df b194 	ldr.w	fp, [pc, #404]	; 4004d4 <console_begin+0x1c0>
			hal_serial_putc( SerialA, c ); //transmits most chars for visual feedback
  400340:	f8df a194 	ldr.w	sl, [pc, #404]	; 4004d8 <console_begin+0x1c4>
		c = hal_serial_getc(SerialA); 
  400344:	f04f 0900 	mov.w	r9, #0
  400348:	e04a      	b.n	4003e0 <console_begin+0xcc>
		if( is_alpha(c) || is_number(c) || c == '\n' || c == ' ' || c == '.'  ){
  40034a:	2c0a      	cmp	r4, #10
  40034c:	d07a      	beq.n	400444 <console_begin+0x130>
  40034e:	f1a4 0320 	sub.w	r3, r4, #32
  400352:	b2db      	uxtb	r3, r3
  400354:	2b19      	cmp	r3, #25
  400356:	d806      	bhi.n	400366 <console_begin+0x52>
  400358:	fa2b f303 	lsr.w	r3, fp, r3
  40035c:	f013 0f01 	tst.w	r3, #1
  400360:	d001      	beq.n	400366 <console_begin+0x52>
			 *buffer++ = c;
  400362:	702c      	strb	r4, [r5, #0]
  400364:	3501      	adds	r5, #1
		c = hal_serial_getc(SerialA); 
  400366:	4648      	mov	r0, r9
  400368:	47b0      	blx	r6
  40036a:	4604      	mov	r4, r0
		if( c != '\n' && c!= '\r')
  40036c:	280a      	cmp	r0, #10
  40036e:	d063      	beq.n	400438 <console_begin+0x124>
  400370:	280d      	cmp	r0, #13
  400372:	d0ec      	beq.n	40034e <console_begin+0x3a>
			hal_serial_putc( SerialA, c ); //transmits most chars for visual feedback
  400374:	4601      	mov	r1, r0
  400376:	4648      	mov	r0, r9
  400378:	47d0      	blx	sl
	return ( c >= 'A' && c<='Z' ) || ( c>= 'a' && c<= 'z' );
  40037a:	f1a4 0341 	sub.w	r3, r4, #65	; 0x41
  40037e:	b2db      	uxtb	r3, r3
  400380:	2b19      	cmp	r3, #25
  400382:	d9ee      	bls.n	400362 <console_begin+0x4e>
  400384:	f1a4 0361 	sub.w	r3, r4, #97	; 0x61
		if( is_alpha(c) || is_number(c) || c == '\n' || c == ' ' || c == '.'  ){
  400388:	b2db      	uxtb	r3, r3
  40038a:	2b19      	cmp	r3, #25
  40038c:	d8dd      	bhi.n	40034a <console_begin+0x36>
			 *buffer++ = c;
  40038e:	702c      	strb	r4, [r5, #0]
  400390:	3501      	adds	r5, #1
  400392:	e7e8      	b.n	400366 <console_begin+0x52>
  400394:	f107 0110 	add.w	r1, r7, #16
	while( *param++ = *line++ );
  400398:	f813 2b01 	ldrb.w	r2, [r3], #1
  40039c:	f801 2b01 	strb.w	r2, [r1], #1
  4003a0:	2a00      	cmp	r2, #0
  4003a2:	d1f9      	bne.n	400398 <console_begin+0x84>
	return 1; 
  4003a4:	2301      	movs	r3, #1
  4003a6:	607b      	str	r3, [r7, #4]
  4003a8:	4d3e      	ldr	r5, [pc, #248]	; (4004a4 <console_begin+0x190>)
	int32_t index = 0;
  4003aa:	f04f 0800 	mov.w	r8, #0
	while( strcmp( *all_cmds, SENTINEL_CMD ) != EQUAL ){
  4003ae:	4e3e      	ldr	r6, [pc, #248]	; (4004a8 <console_begin+0x194>)
  4003b0:	f855 4b04 	ldr.w	r4, [r5], #4
  4003b4:	493d      	ldr	r1, [pc, #244]	; (4004ac <console_begin+0x198>)
  4003b6:	4620      	mov	r0, r4
  4003b8:	47b0      	blx	r6
  4003ba:	b1c8      	cbz	r0, 4003f0 <console_begin+0xdc>
		if( strcmp( *all_cmds, cmd ) == EQUAL ){
  4003bc:	f107 0128 	add.w	r1, r7, #40	; 0x28
  4003c0:	4620      	mov	r0, r4
  4003c2:	47b0      	blx	r6
  4003c4:	b110      	cbz	r0, 4003cc <console_begin+0xb8>
		index++;
  4003c6:	f108 0801 	add.w	r8, r8, #1
  4003ca:	e7f1      	b.n	4003b0 <console_begin+0x9c>
		if( cmd_index != INVALID_CMD ){
  4003cc:	f1b8 3fff 	cmp.w	r8, #4294967295
  4003d0:	d00e      	beq.n	4003f0 <console_begin+0xdc>
			((void(*)(uint8_t*, uint32_t))(cmd_ptrs[cmd_index]))( param, num_params ); 
  4003d2:	4b37      	ldr	r3, [pc, #220]	; (4004b0 <console_begin+0x19c>)
  4003d4:	f853 3028 	ldr.w	r3, [r3, r8, lsl #2]
  4003d8:	6879      	ldr	r1, [r7, #4]
  4003da:	f107 0010 	add.w	r0, r7, #16
  4003de:	4798      	blx	r3
		print( prompt_message );
  4003e0:	f107 0080 	add.w	r0, r7, #128	; 0x80
  4003e4:	4b33      	ldr	r3, [pc, #204]	; (4004b4 <console_begin+0x1a0>)
  4003e6:	4798      	blx	r3
  4003e8:	f107 0540 	add.w	r5, r7, #64	; 0x40
		c = hal_serial_getc(SerialA); 
  4003ec:	4e2c      	ldr	r6, [pc, #176]	; (4004a0 <console_begin+0x18c>)
  4003ee:	e7ba      	b.n	400366 <console_begin+0x52>
			retval = loader_exec_app( cmd, param, num_params, &retcode ); 
  4003f0:	f107 030c 	add.w	r3, r7, #12
  4003f4:	687a      	ldr	r2, [r7, #4]
  4003f6:	f107 0110 	add.w	r1, r7, #16
  4003fa:	f107 0028 	add.w	r0, r7, #40	; 0x28
  4003fe:	4c2e      	ldr	r4, [pc, #184]	; (4004b8 <console_begin+0x1a4>)
  400400:	47a0      	blx	r4
			if( retval == LOADER_NO_APP_FOUND) 			println( "Command not recognized" );
  400402:	b188      	cbz	r0, 400428 <console_begin+0x114>
			else if( retval == LOADER_APP_TOO_LARGE )	println( "Application is too large" );
  400404:	2801      	cmp	r0, #1
  400406:	d013      	beq.n	400430 <console_begin+0x11c>
			else if( retcode != 0 ){
  400408:	68fb      	ldr	r3, [r7, #12]
  40040a:	2b00      	cmp	r3, #0
  40040c:	d0e8      	beq.n	4003e0 <console_begin+0xcc>
  40040e:	466d      	mov	r5, sp
				uint8_t buf[ strlen(base_msg) + MAX_DIGITS_IN_UINT ];
  400410:	b08a      	sub	sp, #40	; 0x28
  400412:	ac02      	add	r4, sp, #8
				sprintf( buf, "%s %d", base_msg, retcode );
  400414:	4a29      	ldr	r2, [pc, #164]	; (4004bc <console_begin+0x1a8>)
  400416:	492a      	ldr	r1, [pc, #168]	; (4004c0 <console_begin+0x1ac>)
  400418:	4620      	mov	r0, r4
  40041a:	4e20      	ldr	r6, [pc, #128]	; (40049c <console_begin+0x188>)
  40041c:	47b0      	blx	r6
				println( buf );
  40041e:	4620      	mov	r0, r4
  400420:	4b28      	ldr	r3, [pc, #160]	; (4004c4 <console_begin+0x1b0>)
  400422:	4798      	blx	r3
  400424:	46ad      	mov	sp, r5
  400426:	e7db      	b.n	4003e0 <console_begin+0xcc>
			if( retval == LOADER_NO_APP_FOUND) 			println( "Command not recognized" );
  400428:	4827      	ldr	r0, [pc, #156]	; (4004c8 <console_begin+0x1b4>)
  40042a:	4b26      	ldr	r3, [pc, #152]	; (4004c4 <console_begin+0x1b0>)
  40042c:	4798      	blx	r3
  40042e:	e7d7      	b.n	4003e0 <console_begin+0xcc>
			else if( retval == LOADER_APP_TOO_LARGE )	println( "Application is too large" );
  400430:	4826      	ldr	r0, [pc, #152]	; (4004cc <console_begin+0x1b8>)
  400432:	4b24      	ldr	r3, [pc, #144]	; (4004c4 <console_begin+0x1b0>)
  400434:	4798      	blx	r3
  400436:	e7d3      	b.n	4003e0 <console_begin+0xcc>
			 *buffer++ = c;
  400438:	1c6b      	adds	r3, r5, #1
  40043a:	7028      	strb	r0, [r5, #0]
	}while( c != '\n' );
  40043c:	280a      	cmp	r0, #10
  40043e:	d003      	beq.n	400448 <console_begin+0x134>
			 *buffer++ = c;
  400440:	461d      	mov	r5, r3
  400442:	e790      	b.n	400366 <console_begin+0x52>
  400444:	1c6b      	adds	r3, r5, #1
  400446:	702c      	strb	r4, [r5, #0]
	buffer[-1] = '\0';
  400448:	f803 9c01 	strb.w	r9, [r3, #-1]
	println("");
  40044c:	4820      	ldr	r0, [pc, #128]	; (4004d0 <console_begin+0x1bc>)
  40044e:	4b1d      	ldr	r3, [pc, #116]	; (4004c4 <console_begin+0x1b0>)
  400450:	4798      	blx	r3
  400452:	f107 0228 	add.w	r2, r7, #40	; 0x28
  400456:	f107 0140 	add.w	r1, r7, #64	; 0x40
		c = *cmd++ = *line++;
  40045a:	f811 3b01 	ldrb.w	r3, [r1], #1
  40045e:	f802 3b01 	strb.w	r3, [r2], #1
	}while( c != ' ' && c != '\0' );
  400462:	f013 0fdf 	tst.w	r3, #223	; 0xdf
  400466:	d1f8      	bne.n	40045a <console_begin+0x146>
	cmd[-1] = '\0';
  400468:	f802 9c01 	strb.w	r9, [r2, #-1]
  40046c:	f107 0340 	add.w	r3, r7, #64	; 0x40
		c = *line++;
  400470:	f813 2b01 	ldrb.w	r2, [r3], #1
	}while( c != ' ' && c != '\0' );		
  400474:	2a20      	cmp	r2, #32
  400476:	d08d      	beq.n	400394 <console_begin+0x80>
  400478:	2a00      	cmp	r2, #0
  40047a:	d1f9      	bne.n	400470 <console_begin+0x15c>
		return 0; //no parameters found
  40047c:	f8c7 9004 	str.w	r9, [r7, #4]
  400480:	e792      	b.n	4003a8 <console_begin+0x94>
  400482:	bf00      	nop
  400484:	20000e14 	.word	0x20000e14
  400488:	00409d34 	.word	0x00409d34
  40048c:	00409d38 	.word	0x00409d38
  400490:	00409c94 	.word	0x00409c94
  400494:	00409d20 	.word	0x00409d20
  400498:	00409d28 	.word	0x00409d28
  40049c:	00405afd 	.word	0x00405afd
  4004a0:	00400a49 	.word	0x00400a49
  4004a4:	2000000c 	.word	0x2000000c
  4004a8:	00405b69 	.word	0x00405b69
  4004ac:	00409d3c 	.word	0x00409d3c
  4004b0:	00409d10 	.word	0x00409d10
  4004b4:	004002cd 	.word	0x004002cd
  4004b8:	00400d25 	.word	0x00400d25
  4004bc:	00409d78 	.word	0x00409d78
  4004c0:	00409d98 	.word	0x00409d98
  4004c4:	004002ed 	.word	0x004002ed
  4004c8:	00409d44 	.word	0x00409d44
  4004cc:	00409d5c 	.word	0x00409d5c
  4004d0:	0040a410 	.word	0x0040a410
  4004d4:	03ff4001 	.word	0x03ff4001
  4004d8:	00400a09 	.word	0x00400a09

004004dc <hal_cpu_init>:
  4004dc:	b508      	push	{r3, lr}
  4004de:	4b01      	ldr	r3, [pc, #4]	; (4004e4 <hal_cpu_init+0x8>)
  4004e0:	4798      	blx	r3
  4004e2:	bd08      	pop	{r3, pc}
  4004e4:	00402061 	.word	0x00402061

004004e8 <hal_svc_start>:
  4004e8:	4b01      	ldr	r3, [pc, #4]	; (4004f0 <hal_svc_start+0x8>)
  4004ea:	6018      	str	r0, [r3, #0]
  4004ec:	4770      	bx	lr
  4004ee:	bf00      	nop
  4004f0:	2000114c 	.word	0x2000114c

004004f4 <SysTick_Handler>:
  4004f4:	b508      	push	{r3, lr}
  4004f6:	4b02      	ldr	r3, [pc, #8]	; (400500 <SysTick_Handler+0xc>)
  4004f8:	681b      	ldr	r3, [r3, #0]
  4004fa:	4798      	blx	r3
  4004fc:	bd08      	pop	{r3, pc}
  4004fe:	bf00      	nop
  400500:	20001148 	.word	0x20001148

00400504 <hal_delay>:
  400504:	b538      	push	{r3, r4, r5, lr}
  400506:	b918      	cbnz	r0, 400510 <hal_delay+0xc>
  400508:	2009      	movs	r0, #9
  40050a:	4b0a      	ldr	r3, [pc, #40]	; (400534 <hal_delay+0x30>)
  40050c:	4798      	blx	r3
  40050e:	bd38      	pop	{r3, r4, r5, pc}
  400510:	4601      	mov	r1, r0
  400512:	f243 62b0 	movw	r2, #14000	; 0x36b0
  400516:	2300      	movs	r3, #0
  400518:	f243 64af 	movw	r4, #13999	; 0x36af
  40051c:	2500      	movs	r5, #0
  40051e:	4806      	ldr	r0, [pc, #24]	; (400538 <hal_delay+0x34>)
  400520:	fbe0 4501 	umlal	r4, r5, r0, r1
  400524:	4620      	mov	r0, r4
  400526:	4629      	mov	r1, r5
  400528:	4c04      	ldr	r4, [pc, #16]	; (40053c <hal_delay+0x38>)
  40052a:	47a0      	blx	r4
  40052c:	4b01      	ldr	r3, [pc, #4]	; (400534 <hal_delay+0x30>)
  40052e:	4798      	blx	r3
  400530:	bd38      	pop	{r3, r4, r5, pc}
  400532:	bf00      	nop
  400534:	20000001 	.word	0x20000001
  400538:	07270e00 	.word	0x07270e00
  40053c:	00405701 	.word	0x00405701

00400540 <SVC_Handler>:
  400540:	4b0d      	ldr	r3, [pc, #52]	; (400578 <hal_cpu_set_psp+0x8>)
  400542:	681b      	ldr	r3, [r3, #0]
  400544:	4718      	bx	r3

00400546 <hal_cpu_get_psp>:
  400546:	f3ef 8009 	mrs	r0, PSP
  40054a:	4770      	bx	lr

0040054c <hal_cpu_set_unprivileged>:
  40054c:	f3ef 8314 	mrs	r3, CONTROL
  400550:	f043 0301 	orr.w	r3, r3, #1
  400554:	f383 8814 	msr	CONTROL, r3
  400558:	f3bf 8f6f 	isb	sy
  40055c:	4770      	bx	lr

0040055e <hal_cpu_set_psp_active>:
  40055e:	f3ef 8314 	mrs	r3, CONTROL
  400562:	f043 0302 	orr.w	r3, r3, #2
  400566:	f383 8814 	msr	CONTROL, r3
  40056a:	f3bf 8f6f 	isb	sy
  40056e:	4770      	bx	lr

00400570 <hal_cpu_set_psp>:
  400570:	f380 8809 	msr	PSP, r0
  400574:	4770      	bx	lr
  400576:	0000      	.short	0x0000
  400578:	2000114c 	.word	0x2000114c

0040057c <ssd1306_write_command>:
  40057c:	b570      	push	{r4, r5, r6, lr}
  40057e:	b082      	sub	sp, #8
  400580:	4606      	mov	r6, r0
  400582:	ac02      	add	r4, sp, #8
  400584:	2302      	movs	r3, #2
  400586:	f844 3d04 	str.w	r3, [r4, #-4]!
  40058a:	4d09      	ldr	r5, [pc, #36]	; (4005b0 <ssd1306_write_command+0x34>)
  40058c:	4621      	mov	r1, r4
  40058e:	4628      	mov	r0, r5
  400590:	4b08      	ldr	r3, [pc, #32]	; (4005b4 <ssd1306_write_command+0x38>)
  400592:	4798      	blx	r3
  400594:	f44f 1200 	mov.w	r2, #2097152	; 0x200000
  400598:	4b07      	ldr	r3, [pc, #28]	; (4005b8 <ssd1306_write_command+0x3c>)
  40059a:	635a      	str	r2, [r3, #52]	; 0x34
  40059c:	60ee      	str	r6, [r5, #12]
  40059e:	2056      	movs	r0, #86	; 0x56
  4005a0:	4b06      	ldr	r3, [pc, #24]	; (4005bc <ssd1306_write_command+0x40>)
  4005a2:	4798      	blx	r3
  4005a4:	4621      	mov	r1, r4
  4005a6:	4628      	mov	r0, r5
  4005a8:	4b05      	ldr	r3, [pc, #20]	; (4005c0 <ssd1306_write_command+0x44>)
  4005aa:	4798      	blx	r3
  4005ac:	b002      	add	sp, #8
  4005ae:	bd70      	pop	{r4, r5, r6, pc}
  4005b0:	40008000 	.word	0x40008000
  4005b4:	00402199 	.word	0x00402199
  4005b8:	400e1200 	.word	0x400e1200
  4005bc:	20000001 	.word	0x20000001
  4005c0:	004021c9 	.word	0x004021c9

004005c4 <configure_uart1>:
  4005c4:	b530      	push	{r4, r5, lr}
  4005c6:	b085      	sub	sp, #20
  4005c8:	4604      	mov	r4, r0
  4005ca:	2300      	movs	r3, #0
  4005cc:	220c      	movs	r2, #12
  4005ce:	f04f 6100 	mov.w	r1, #134217728	; 0x8000000
  4005d2:	480c      	ldr	r0, [pc, #48]	; (400604 <configure_uart1+0x40>)
  4005d4:	4d0c      	ldr	r5, [pc, #48]	; (400608 <configure_uart1+0x44>)
  4005d6:	47a8      	blx	r5
  4005d8:	2009      	movs	r0, #9
  4005da:	4b0c      	ldr	r3, [pc, #48]	; (40060c <configure_uart1+0x48>)
  4005dc:	4798      	blx	r3
  4005de:	4b0c      	ldr	r3, [pc, #48]	; (400610 <configure_uart1+0x4c>)
  4005e0:	9301      	str	r3, [sp, #4]
  4005e2:	9402      	str	r4, [sp, #8]
  4005e4:	f44f 6300 	mov.w	r3, #2048	; 0x800
  4005e8:	9303      	str	r3, [sp, #12]
  4005ea:	4c0a      	ldr	r4, [pc, #40]	; (400614 <configure_uart1+0x50>)
  4005ec:	a901      	add	r1, sp, #4
  4005ee:	4620      	mov	r0, r4
  4005f0:	4b09      	ldr	r3, [pc, #36]	; (400618 <configure_uart1+0x54>)
  4005f2:	4798      	blx	r3
  4005f4:	4620      	mov	r0, r4
  4005f6:	4b09      	ldr	r3, [pc, #36]	; (40061c <configure_uart1+0x58>)
  4005f8:	4798      	blx	r3
  4005fa:	4620      	mov	r0, r4
  4005fc:	4b08      	ldr	r3, [pc, #32]	; (400620 <configure_uart1+0x5c>)
  4005fe:	4798      	blx	r3
  400600:	b005      	add	sp, #20
  400602:	bd30      	pop	{r4, r5, pc}
  400604:	400e1000 	.word	0x400e1000
  400608:	00402531 	.word	0x00402531
  40060c:	004029a9 	.word	0x004029a9
  400610:	07270e00 	.word	0x07270e00
  400614:	400e0800 	.word	0x400e0800
  400618:	00402e4d 	.word	0x00402e4d
  40061c:	00402e83 	.word	0x00402e83
  400620:	00402e89 	.word	0x00402e89

00400624 <configure_usart1>:
  400624:	b530      	push	{r4, r5, lr}
  400626:	b087      	sub	sp, #28
  400628:	4605      	mov	r5, r0
  40062a:	2300      	movs	r3, #0
  40062c:	f44f 02c0 	mov.w	r2, #6291456	; 0x600000
  400630:	f04f 6100 	mov.w	r1, #134217728	; 0x8000000
  400634:	480f      	ldr	r0, [pc, #60]	; (400674 <configure_usart1+0x50>)
  400636:	4c10      	ldr	r4, [pc, #64]	; (400678 <configure_usart1+0x54>)
  400638:	47a0      	blx	r4
  40063a:	200f      	movs	r0, #15
  40063c:	4c0f      	ldr	r4, [pc, #60]	; (40067c <configure_usart1+0x58>)
  40063e:	47a0      	blx	r4
  400640:	2300      	movs	r3, #0
  400642:	9303      	str	r3, [sp, #12]
  400644:	9304      	str	r3, [sp, #16]
  400646:	9305      	str	r3, [sp, #20]
  400648:	9500      	str	r5, [sp, #0]
  40064a:	23c0      	movs	r3, #192	; 0xc0
  40064c:	9301      	str	r3, [sp, #4]
  40064e:	f44f 6300 	mov.w	r3, #2048	; 0x800
  400652:	9302      	str	r3, [sp, #8]
  400654:	200f      	movs	r0, #15
  400656:	47a0      	blx	r4
  400658:	4c09      	ldr	r4, [pc, #36]	; (400680 <configure_usart1+0x5c>)
  40065a:	4a0a      	ldr	r2, [pc, #40]	; (400684 <configure_usart1+0x60>)
  40065c:	4669      	mov	r1, sp
  40065e:	4620      	mov	r0, r4
  400660:	4b09      	ldr	r3, [pc, #36]	; (400688 <configure_usart1+0x64>)
  400662:	4798      	blx	r3
  400664:	4620      	mov	r0, r4
  400666:	4b09      	ldr	r3, [pc, #36]	; (40068c <configure_usart1+0x68>)
  400668:	4798      	blx	r3
  40066a:	4620      	mov	r0, r4
  40066c:	4b08      	ldr	r3, [pc, #32]	; (400690 <configure_usart1+0x6c>)
  40066e:	4798      	blx	r3
  400670:	b007      	add	sp, #28
  400672:	bd30      	pop	{r4, r5, pc}
  400674:	400e0e00 	.word	0x400e0e00
  400678:	00402531 	.word	0x00402531
  40067c:	004029a9 	.word	0x004029a9
  400680:	40028000 	.word	0x40028000
  400684:	07270e00 	.word	0x07270e00
  400688:	00402f3d 	.word	0x00402f3d
  40068c:	00402f91 	.word	0x00402f91
  400690:	00402f97 	.word	0x00402f97

00400694 <hal_io_init>:
  400694:	b510      	push	{r4, lr}
  400696:	4b05      	ldr	r3, [pc, #20]	; (4006ac <hal_io_init+0x18>)
  400698:	4798      	blx	r3
  40069a:	200b      	movs	r0, #11
  40069c:	4c04      	ldr	r4, [pc, #16]	; (4006b0 <hal_io_init+0x1c>)
  40069e:	47a0      	blx	r4
  4006a0:	200c      	movs	r0, #12
  4006a2:	47a0      	blx	r4
  4006a4:	200d      	movs	r0, #13
  4006a6:	47a0      	blx	r4
  4006a8:	bd10      	pop	{r4, pc}
  4006aa:	bf00      	nop
  4006ac:	004022e5 	.word	0x004022e5
  4006b0:	004029a9 	.word	0x004029a9

004006b4 <RTT_Handler>:
  4006b4:	b508      	push	{r3, lr}
  4006b6:	4805      	ldr	r0, [pc, #20]	; (4006cc <RTT_Handler+0x18>)
  4006b8:	4b05      	ldr	r3, [pc, #20]	; (4006d0 <RTT_Handler+0x1c>)
  4006ba:	4798      	blx	r3
  4006bc:	f010 0f02 	tst.w	r0, #2
  4006c0:	d100      	bne.n	4006c4 <RTT_Handler+0x10>
  4006c2:	bd08      	pop	{r3, pc}
  4006c4:	4b03      	ldr	r3, [pc, #12]	; (4006d4 <RTT_Handler+0x20>)
  4006c6:	681b      	ldr	r3, [r3, #0]
  4006c8:	4798      	blx	r3
  4006ca:	e7fa      	b.n	4006c2 <RTT_Handler+0xe>
  4006cc:	400e1430 	.word	0x400e1430
  4006d0:	00400139 	.word	0x00400139
  4006d4:	20000e18 	.word	0x20000e18

004006d8 <hal_led_start>:
  4006d8:	4b0f      	ldr	r3, [pc, #60]	; (400718 <hal_led_start+0x40>)
  4006da:	f44f 0200 	mov.w	r2, #8388608	; 0x800000
  4006de:	611a      	str	r2, [r3, #16]
  4006e0:	f8c3 20a0 	str.w	r2, [r3, #160]	; 0xa0
  4006e4:	f44f 1280 	mov.w	r2, #1048576	; 0x100000
  4006e8:	611a      	str	r2, [r3, #16]
  4006ea:	f8c3 20a0 	str.w	r2, [r3, #160]	; 0xa0
  4006ee:	f102 4280 	add.w	r2, r2, #1073741824	; 0x40000000
  4006f2:	f5a2 32f9 	sub.w	r2, r2, #127488	; 0x1f200
  4006f6:	f44f 3180 	mov.w	r1, #65536	; 0x10000
  4006fa:	6111      	str	r1, [r2, #16]
  4006fc:	f8c2 10a0 	str.w	r1, [r2, #160]	; 0xa0
  400700:	f44f 0280 	mov.w	r2, #4194304	; 0x400000
  400704:	611a      	str	r2, [r3, #16]
  400706:	f8c3 20a0 	str.w	r2, [r3, #160]	; 0xa0
  40070a:	f44f 2200 	mov.w	r2, #524288	; 0x80000
  40070e:	611a      	str	r2, [r3, #16]
  400710:	f8c3 20a0 	str.w	r2, [r3, #160]	; 0xa0
  400714:	4770      	bx	lr
  400716:	bf00      	nop
  400718:	400e1200 	.word	0x400e1200

0040071c <hal_led_write>:
  40071c:	2804      	cmp	r0, #4
  40071e:	d81b      	bhi.n	400758 <hal_led_write+0x3c>
  400720:	e8df f000 	tbb	[pc, r0]
  400724:	16141203 	.word	0x16141203
  400728:	18          	.byte	0x18
  400729:	00          	.byte	0x00
  40072a:	2257      	movs	r2, #87	; 0x57
  40072c:	0953      	lsrs	r3, r2, #5
  40072e:	f503 1300 	add.w	r3, r3, #2097152	; 0x200000
  400732:	f203 7307 	addw	r3, r3, #1799	; 0x707
  400736:	025b      	lsls	r3, r3, #9
  400738:	b181      	cbz	r1, 40075c <hal_led_write+0x40>
  40073a:	f002 021f 	and.w	r2, r2, #31
  40073e:	2101      	movs	r1, #1
  400740:	fa01 f202 	lsl.w	r2, r1, r2
  400744:	635a      	str	r2, [r3, #52]	; 0x34
  400746:	4770      	bx	lr
  400748:	2254      	movs	r2, #84	; 0x54
  40074a:	e7ef      	b.n	40072c <hal_led_write+0x10>
  40074c:	2210      	movs	r2, #16
  40074e:	e7ed      	b.n	40072c <hal_led_write+0x10>
  400750:	2256      	movs	r2, #86	; 0x56
  400752:	e7eb      	b.n	40072c <hal_led_write+0x10>
  400754:	2253      	movs	r2, #83	; 0x53
  400756:	e7e9      	b.n	40072c <hal_led_write+0x10>
  400758:	2200      	movs	r2, #0
  40075a:	e7e7      	b.n	40072c <hal_led_write+0x10>
  40075c:	f002 021f 	and.w	r2, r2, #31
  400760:	2101      	movs	r1, #1
  400762:	fa01 f202 	lsl.w	r2, r1, r2
  400766:	631a      	str	r2, [r3, #48]	; 0x30
  400768:	4770      	bx	lr
	...

0040076c <hal_clock_start>:
  40076c:	b510      	push	{r4, lr}
  40076e:	2000      	movs	r0, #0
  400770:	4b05      	ldr	r3, [pc, #20]	; (400788 <hal_clock_start+0x1c>)
  400772:	4798      	blx	r3
  400774:	4c05      	ldr	r4, [pc, #20]	; (40078c <hal_clock_start+0x20>)
  400776:	47a0      	blx	r4
  400778:	2800      	cmp	r0, #0
  40077a:	d0fc      	beq.n	400776 <hal_clock_start+0xa>
  40077c:	2100      	movs	r1, #0
  40077e:	4804      	ldr	r0, [pc, #16]	; (400790 <hal_clock_start+0x24>)
  400780:	4b04      	ldr	r3, [pc, #16]	; (400794 <hal_clock_start+0x28>)
  400782:	4798      	blx	r3
  400784:	bd10      	pop	{r4, pc}
  400786:	bf00      	nop
  400788:	004028e1 	.word	0x004028e1
  40078c:	00402905 	.word	0x00402905
  400790:	400e1460 	.word	0x400e1460
  400794:	004029fd 	.word	0x004029fd

00400798 <hal_clock_write>:
  400798:	b570      	push	{r4, r5, r6, lr}
  40079a:	b082      	sub	sp, #8
  40079c:	4604      	mov	r4, r0
  40079e:	4d08      	ldr	r5, [pc, #32]	; (4007c0 <hal_clock_write+0x28>)
  4007a0:	2301      	movs	r3, #1
  4007a2:	9300      	str	r3, [sp, #0]
  4007a4:	68c3      	ldr	r3, [r0, #12]
  4007a6:	6902      	ldr	r2, [r0, #16]
  4007a8:	6941      	ldr	r1, [r0, #20]
  4007aa:	4628      	mov	r0, r5
  4007ac:	4e05      	ldr	r6, [pc, #20]	; (4007c4 <hal_clock_write+0x2c>)
  4007ae:	47b0      	blx	r6
  4007b0:	6823      	ldr	r3, [r4, #0]
  4007b2:	6862      	ldr	r2, [r4, #4]
  4007b4:	68a1      	ldr	r1, [r4, #8]
  4007b6:	4628      	mov	r0, r5
  4007b8:	4c03      	ldr	r4, [pc, #12]	; (4007c8 <hal_clock_write+0x30>)
  4007ba:	47a0      	blx	r4
  4007bc:	b002      	add	sp, #8
  4007be:	bd70      	pop	{r4, r5, r6, pc}
  4007c0:	400e1460 	.word	0x400e1460
  4007c4:	00402b75 	.word	0x00402b75
  4007c8:	00402a6d 	.word	0x00402a6d

004007cc <hal_clock_read>:
  4007cc:	b5f0      	push	{r4, r5, r6, r7, lr}
  4007ce:	b085      	sub	sp, #20
  4007d0:	4604      	mov	r4, r0
  4007d2:	ad04      	add	r5, sp, #16
  4007d4:	2300      	movs	r3, #0
  4007d6:	f845 3d04 	str.w	r3, [r5, #-4]!
  4007da:	4e0a      	ldr	r6, [pc, #40]	; (400804 <hal_clock_read+0x38>)
  4007dc:	4603      	mov	r3, r0
  4007de:	1d02      	adds	r2, r0, #4
  4007e0:	f100 0108 	add.w	r1, r0, #8
  4007e4:	4630      	mov	r0, r6
  4007e6:	4f08      	ldr	r7, [pc, #32]	; (400808 <hal_clock_read+0x3c>)
  4007e8:	47b8      	blx	r7
  4007ea:	9500      	str	r5, [sp, #0]
  4007ec:	f104 030c 	add.w	r3, r4, #12
  4007f0:	f104 0210 	add.w	r2, r4, #16
  4007f4:	f104 0114 	add.w	r1, r4, #20
  4007f8:	4630      	mov	r0, r6
  4007fa:	4c04      	ldr	r4, [pc, #16]	; (40080c <hal_clock_read+0x40>)
  4007fc:	47a0      	blx	r4
  4007fe:	b005      	add	sp, #20
  400800:	bdf0      	pop	{r4, r5, r6, r7, pc}
  400802:	bf00      	nop
  400804:	400e1460 	.word	0x400e1460
  400808:	00402a13 	.word	0x00402a13
  40080c:	00402b01 	.word	0x00402b01

00400810 <hal_display_start>:
  400810:	b508      	push	{r3, lr}
  400812:	4b01      	ldr	r3, [pc, #4]	; (400818 <hal_display_start+0x8>)
  400814:	4798      	blx	r3
  400816:	bd08      	pop	{r3, pc}
  400818:	00400f7d 	.word	0x00400f7d

0040081c <hal_display_putc>:
  40081c:	e92d 47f0 	stmdb	sp!, {r4, r5, r6, r7, r8, r9, sl, lr}
  400820:	b082      	sub	sp, #8
  400822:	3820      	subs	r0, #32
  400824:	4b1f      	ldr	r3, [pc, #124]	; (4008a4 <hal_display_putc+0x88>)
  400826:	f853 7020 	ldr.w	r7, [r3, r0, lsl #2]
  40082a:	783b      	ldrb	r3, [r7, #0]
  40082c:	b303      	cbz	r3, 400870 <hal_display_putc+0x54>
  40082e:	2401      	movs	r4, #1
  400830:	4e1d      	ldr	r6, [pc, #116]	; (4008a8 <hal_display_putc+0x8c>)
  400832:	f8df 9080 	ldr.w	r9, [pc, #128]	; 4008b4 <hal_display_putc+0x98>
  400836:	f8df 8080 	ldr.w	r8, [pc, #128]	; 4008b8 <hal_display_putc+0x9c>
  40083a:	f817 a004 	ldrb.w	sl, [r7, r4]
  40083e:	ad02      	add	r5, sp, #8
  400840:	2302      	movs	r3, #2
  400842:	f845 3d04 	str.w	r3, [r5, #-4]!
  400846:	4629      	mov	r1, r5
  400848:	4630      	mov	r0, r6
  40084a:	47c8      	blx	r9
  40084c:	f44f 1300 	mov.w	r3, #2097152	; 0x200000
  400850:	f8c8 3030 	str.w	r3, [r8, #48]	; 0x30
  400854:	f8c6 a00c 	str.w	sl, [r6, #12]
  400858:	2056      	movs	r0, #86	; 0x56
  40085a:	4b14      	ldr	r3, [pc, #80]	; (4008ac <hal_display_putc+0x90>)
  40085c:	4798      	blx	r3
  40085e:	4629      	mov	r1, r5
  400860:	4630      	mov	r0, r6
  400862:	4b13      	ldr	r3, [pc, #76]	; (4008b0 <hal_display_putc+0x94>)
  400864:	4798      	blx	r3
  400866:	3401      	adds	r4, #1
  400868:	b2e4      	uxtb	r4, r4
  40086a:	783b      	ldrb	r3, [r7, #0]
  40086c:	42a3      	cmp	r3, r4
  40086e:	d2e4      	bcs.n	40083a <hal_display_putc+0x1e>
  400870:	ac02      	add	r4, sp, #8
  400872:	2302      	movs	r3, #2
  400874:	f844 3d04 	str.w	r3, [r4, #-4]!
  400878:	4d0b      	ldr	r5, [pc, #44]	; (4008a8 <hal_display_putc+0x8c>)
  40087a:	4621      	mov	r1, r4
  40087c:	4628      	mov	r0, r5
  40087e:	4b0d      	ldr	r3, [pc, #52]	; (4008b4 <hal_display_putc+0x98>)
  400880:	4798      	blx	r3
  400882:	f44f 1200 	mov.w	r2, #2097152	; 0x200000
  400886:	4b0c      	ldr	r3, [pc, #48]	; (4008b8 <hal_display_putc+0x9c>)
  400888:	631a      	str	r2, [r3, #48]	; 0x30
  40088a:	2300      	movs	r3, #0
  40088c:	60eb      	str	r3, [r5, #12]
  40088e:	2056      	movs	r0, #86	; 0x56
  400890:	4b06      	ldr	r3, [pc, #24]	; (4008ac <hal_display_putc+0x90>)
  400892:	4798      	blx	r3
  400894:	4621      	mov	r1, r4
  400896:	4628      	mov	r0, r5
  400898:	4b05      	ldr	r3, [pc, #20]	; (4008b0 <hal_display_putc+0x94>)
  40089a:	4798      	blx	r3
  40089c:	b002      	add	sp, #8
  40089e:	e8bd 87f0 	ldmia.w	sp!, {r4, r5, r6, r7, r8, r9, sl, pc}
  4008a2:	bf00      	nop
  4008a4:	200002a0 	.word	0x200002a0
  4008a8:	40008000 	.word	0x40008000
  4008ac:	20000001 	.word	0x20000001
  4008b0:	004021c9 	.word	0x004021c9
  4008b4:	00402199 	.word	0x00402199
  4008b8:	400e1200 	.word	0x400e1200

004008bc <hal_display_cls>:
  4008bc:	e92d 4ff0 	stmdb	sp!, {r4, r5, r6, r7, r8, r9, sl, fp, lr}
  4008c0:	b083      	sub	sp, #12
  4008c2:	f04f 0a00 	mov.w	sl, #0
  4008c6:	f8df b078 	ldr.w	fp, [pc, #120]	; 400940 <hal_display_cls+0x84>
  4008ca:	4657      	mov	r7, sl
  4008cc:	f8df 9074 	ldr.w	r9, [pc, #116]	; 400944 <hal_display_cls+0x88>
  4008d0:	f00a 0007 	and.w	r0, sl, #7
  4008d4:	f040 00b0 	orr.w	r0, r0, #176	; 0xb0
  4008d8:	47d8      	blx	fp
  4008da:	2010      	movs	r0, #16
  4008dc:	47d8      	blx	fp
  4008de:	4638      	mov	r0, r7
  4008e0:	47d8      	blx	fp
  4008e2:	2680      	movs	r6, #128	; 0x80
  4008e4:	4d13      	ldr	r5, [pc, #76]	; (400934 <hal_display_cls+0x78>)
  4008e6:	f8df 8060 	ldr.w	r8, [pc, #96]	; 400948 <hal_display_cls+0x8c>
  4008ea:	ac02      	add	r4, sp, #8
  4008ec:	2302      	movs	r3, #2
  4008ee:	f844 3d04 	str.w	r3, [r4, #-4]!
  4008f2:	4621      	mov	r1, r4
  4008f4:	4628      	mov	r0, r5
  4008f6:	47c0      	blx	r8
  4008f8:	f44f 1300 	mov.w	r3, #2097152	; 0x200000
  4008fc:	f8c9 3030 	str.w	r3, [r9, #48]	; 0x30
  400900:	60ef      	str	r7, [r5, #12]
  400902:	2056      	movs	r0, #86	; 0x56
  400904:	4b0c      	ldr	r3, [pc, #48]	; (400938 <hal_display_cls+0x7c>)
  400906:	4798      	blx	r3
  400908:	4621      	mov	r1, r4
  40090a:	4628      	mov	r0, r5
  40090c:	4b0b      	ldr	r3, [pc, #44]	; (40093c <hal_display_cls+0x80>)
  40090e:	4798      	blx	r3
  400910:	3e01      	subs	r6, #1
  400912:	d1ea      	bne.n	4008ea <hal_display_cls+0x2e>
  400914:	f10a 0a01 	add.w	sl, sl, #1
  400918:	f1ba 0f04 	cmp.w	sl, #4
  40091c:	d1d8      	bne.n	4008d0 <hal_display_cls+0x14>
  40091e:	20b0      	movs	r0, #176	; 0xb0
  400920:	4c07      	ldr	r4, [pc, #28]	; (400940 <hal_display_cls+0x84>)
  400922:	47a0      	blx	r4
  400924:	2010      	movs	r0, #16
  400926:	47a0      	blx	r4
  400928:	2000      	movs	r0, #0
  40092a:	47a0      	blx	r4
  40092c:	b003      	add	sp, #12
  40092e:	e8bd 8ff0 	ldmia.w	sp!, {r4, r5, r6, r7, r8, r9, sl, fp, pc}
  400932:	bf00      	nop
  400934:	40008000 	.word	0x40008000
  400938:	20000001 	.word	0x20000001
  40093c:	004021c9 	.word	0x004021c9
  400940:	0040057d 	.word	0x0040057d
  400944:	400e1200 	.word	0x400e1200
  400948:	00402199 	.word	0x00402199

0040094c <hal_display_gotoxy>:
  40094c:	b570      	push	{r4, r5, r6, lr}
  40094e:	460d      	mov	r5, r1
  400950:	b2c6      	uxtb	r6, r0
  400952:	f3c6 1002 	ubfx	r0, r6, #4, #3
  400956:	f040 0010 	orr.w	r0, r0, #16
  40095a:	4c05      	ldr	r4, [pc, #20]	; (400970 <hal_display_gotoxy+0x24>)
  40095c:	47a0      	blx	r4
  40095e:	f006 000f 	and.w	r0, r6, #15
  400962:	47a0      	blx	r4
  400964:	f005 0007 	and.w	r0, r5, #7
  400968:	f040 00b0 	orr.w	r0, r0, #176	; 0xb0
  40096c:	47a0      	blx	r4
  40096e:	bd70      	pop	{r4, r5, r6, pc}
  400970:	0040057d 	.word	0x0040057d

00400974 <hal_sensor_start>:
  400974:	b538      	push	{r3, r4, r5, lr}
  400976:	b110      	cbz	r0, 40097e <hal_sensor_start+0xa>
  400978:	2801      	cmp	r0, #1
  40097a:	d01c      	beq.n	4009b6 <hal_sensor_start+0x42>
  40097c:	bd38      	pop	{r3, r4, r5, pc}
  40097e:	f04f 5120 	mov.w	r1, #671088640	; 0x28000000
  400982:	2020      	movs	r0, #32
  400984:	4b0d      	ldr	r3, [pc, #52]	; (4009bc <hal_sensor_start+0x48>)
  400986:	4798      	blx	r3
  400988:	201d      	movs	r0, #29
  40098a:	4b0d      	ldr	r3, [pc, #52]	; (4009c0 <hal_sensor_start+0x4c>)
  40098c:	4798      	blx	r3
  40098e:	4c0d      	ldr	r4, [pc, #52]	; (4009c4 <hal_sensor_start+0x50>)
  400990:	2300      	movs	r3, #0
  400992:	4a0d      	ldr	r2, [pc, #52]	; (4009c8 <hal_sensor_start+0x54>)
  400994:	490d      	ldr	r1, [pc, #52]	; (4009cc <hal_sensor_start+0x58>)
  400996:	4620      	mov	r0, r4
  400998:	4d0d      	ldr	r5, [pc, #52]	; (4009d0 <hal_sensor_start+0x5c>)
  40099a:	47a8      	blx	r5
  40099c:	2104      	movs	r1, #4
  40099e:	4620      	mov	r0, r4
  4009a0:	4b0c      	ldr	r3, [pc, #48]	; (4009d4 <hal_sensor_start+0x60>)
  4009a2:	4798      	blx	r3
  4009a4:	2201      	movs	r2, #1
  4009a6:	2100      	movs	r1, #0
  4009a8:	4620      	mov	r0, r4
  4009aa:	4b0b      	ldr	r3, [pc, #44]	; (4009d8 <hal_sensor_start+0x64>)
  4009ac:	4798      	blx	r3
  4009ae:	4620      	mov	r0, r4
  4009b0:	4b0a      	ldr	r3, [pc, #40]	; (4009dc <hal_sensor_start+0x68>)
  4009b2:	4798      	blx	r3
  4009b4:	bd38      	pop	{r3, r4, r5, pc}
  4009b6:	4b0a      	ldr	r3, [pc, #40]	; (4009e0 <hal_sensor_start+0x6c>)
  4009b8:	4798      	blx	r3
  4009ba:	bd38      	pop	{r3, r4, r5, pc}
  4009bc:	004025e1 	.word	0x004025e1
  4009c0:	004029a9 	.word	0x004029a9
  4009c4:	40038000 	.word	0x40038000
  4009c8:	000f4240 	.word	0x000f4240
  4009cc:	07270e00 	.word	0x07270e00
  4009d0:	004023f5 	.word	0x004023f5
  4009d4:	0040243d 	.word	0x0040243d
  4009d8:	00402429 	.word	0x00402429
  4009dc:	00402437 	.word	0x00402437
  4009e0:	00401035 	.word	0x00401035

004009e4 <hal_serial_start>:
  4009e4:	b508      	push	{r3, lr}
  4009e6:	b110      	cbz	r0, 4009ee <hal_serial_start+0xa>
  4009e8:	2801      	cmp	r0, #1
  4009ea:	d004      	beq.n	4009f6 <hal_serial_start+0x12>
  4009ec:	bd08      	pop	{r3, pc}
  4009ee:	4608      	mov	r0, r1
  4009f0:	4b03      	ldr	r3, [pc, #12]	; (400a00 <hal_serial_start+0x1c>)
  4009f2:	4798      	blx	r3
  4009f4:	bd08      	pop	{r3, pc}
  4009f6:	4608      	mov	r0, r1
  4009f8:	4b02      	ldr	r3, [pc, #8]	; (400a04 <hal_serial_start+0x20>)
  4009fa:	4798      	blx	r3
  4009fc:	bd08      	pop	{r3, pc}
  4009fe:	bf00      	nop
  400a00:	004005c5 	.word	0x004005c5
  400a04:	00400625 	.word	0x00400625

00400a08 <hal_serial_putc>:
  400a08:	b508      	push	{r3, lr}
  400a0a:	b110      	cbz	r0, 400a12 <hal_serial_putc+0xa>
  400a0c:	2801      	cmp	r0, #1
  400a0e:	d009      	beq.n	400a24 <hal_serial_putc+0x1c>
  400a10:	bd08      	pop	{r3, pc}
  400a12:	4a09      	ldr	r2, [pc, #36]	; (400a38 <hal_serial_putc+0x30>)
  400a14:	6953      	ldr	r3, [r2, #20]
  400a16:	f013 0f02 	tst.w	r3, #2
  400a1a:	d0fb      	beq.n	400a14 <hal_serial_putc+0xc>
  400a1c:	4806      	ldr	r0, [pc, #24]	; (400a38 <hal_serial_putc+0x30>)
  400a1e:	4b07      	ldr	r3, [pc, #28]	; (400a3c <hal_serial_putc+0x34>)
  400a20:	4798      	blx	r3
  400a22:	bd08      	pop	{r3, pc}
  400a24:	4a06      	ldr	r2, [pc, #24]	; (400a40 <hal_serial_putc+0x38>)
  400a26:	6953      	ldr	r3, [r2, #20]
  400a28:	f013 0f02 	tst.w	r3, #2
  400a2c:	d0fb      	beq.n	400a26 <hal_serial_putc+0x1e>
  400a2e:	4804      	ldr	r0, [pc, #16]	; (400a40 <hal_serial_putc+0x38>)
  400a30:	4b04      	ldr	r3, [pc, #16]	; (400a44 <hal_serial_putc+0x3c>)
  400a32:	4798      	blx	r3
  400a34:	bd08      	pop	{r3, pc}
  400a36:	bf00      	nop
  400a38:	400e0800 	.word	0x400e0800
  400a3c:	00402e93 	.word	0x00402e93
  400a40:	40028000 	.word	0x40028000
  400a44:	00402fa1 	.word	0x00402fa1

00400a48 <hal_serial_getc>:
  400a48:	b530      	push	{r4, r5, lr}
  400a4a:	b083      	sub	sp, #12
  400a4c:	2300      	movs	r3, #0
  400a4e:	f88d 3007 	strb.w	r3, [sp, #7]
  400a52:	b128      	cbz	r0, 400a60 <hal_serial_getc+0x18>
  400a54:	2801      	cmp	r0, #1
  400a56:	d010      	beq.n	400a7a <hal_serial_getc+0x32>
  400a58:	f89d 0007 	ldrb.w	r0, [sp, #7]
  400a5c:	b003      	add	sp, #12
  400a5e:	bd30      	pop	{r4, r5, pc}
  400a60:	4d0c      	ldr	r5, [pc, #48]	; (400a94 <hal_serial_getc+0x4c>)
  400a62:	4c0d      	ldr	r4, [pc, #52]	; (400a98 <hal_serial_getc+0x50>)
  400a64:	4628      	mov	r0, r5
  400a66:	47a0      	blx	r4
  400a68:	f010 0f01 	tst.w	r0, #1
  400a6c:	d0fa      	beq.n	400a64 <hal_serial_getc+0x1c>
  400a6e:	f10d 0107 	add.w	r1, sp, #7
  400a72:	4808      	ldr	r0, [pc, #32]	; (400a94 <hal_serial_getc+0x4c>)
  400a74:	4b09      	ldr	r3, [pc, #36]	; (400a9c <hal_serial_getc+0x54>)
  400a76:	4798      	blx	r3
  400a78:	e7ee      	b.n	400a58 <hal_serial_getc+0x10>
  400a7a:	4d09      	ldr	r5, [pc, #36]	; (400aa0 <hal_serial_getc+0x58>)
  400a7c:	4c09      	ldr	r4, [pc, #36]	; (400aa4 <hal_serial_getc+0x5c>)
  400a7e:	4628      	mov	r0, r5
  400a80:	47a0      	blx	r4
  400a82:	f010 0f01 	tst.w	r0, #1
  400a86:	d0fa      	beq.n	400a7e <hal_serial_getc+0x36>
  400a88:	f10d 0107 	add.w	r1, sp, #7
  400a8c:	4804      	ldr	r0, [pc, #16]	; (400aa0 <hal_serial_getc+0x58>)
  400a8e:	4b06      	ldr	r3, [pc, #24]	; (400aa8 <hal_serial_getc+0x60>)
  400a90:	4798      	blx	r3
  400a92:	e7e1      	b.n	400a58 <hal_serial_getc+0x10>
  400a94:	400e0800 	.word	0x400e0800
  400a98:	00402e8f 	.word	0x00402e8f
  400a9c:	00402ea3 	.word	0x00402ea3
  400aa0:	40028000 	.word	0x40028000
  400aa4:	00402f9d 	.word	0x00402f9d
  400aa8:	00402fb5 	.word	0x00402fb5

00400aac <UART1_Handler>:
  400aac:	b500      	push	{lr}
  400aae:	b083      	sub	sp, #12
  400ab0:	4809      	ldr	r0, [pc, #36]	; (400ad8 <UART1_Handler+0x2c>)
  400ab2:	4b0a      	ldr	r3, [pc, #40]	; (400adc <UART1_Handler+0x30>)
  400ab4:	4798      	blx	r3
  400ab6:	f010 0f01 	tst.w	r0, #1
  400aba:	d102      	bne.n	400ac2 <UART1_Handler+0x16>
  400abc:	b003      	add	sp, #12
  400abe:	f85d fb04 	ldr.w	pc, [sp], #4
  400ac2:	f10d 0107 	add.w	r1, sp, #7
  400ac6:	4804      	ldr	r0, [pc, #16]	; (400ad8 <UART1_Handler+0x2c>)
  400ac8:	4b05      	ldr	r3, [pc, #20]	; (400ae0 <UART1_Handler+0x34>)
  400aca:	4798      	blx	r3
  400acc:	4b05      	ldr	r3, [pc, #20]	; (400ae4 <UART1_Handler+0x38>)
  400ace:	681b      	ldr	r3, [r3, #0]
  400ad0:	f89d 0007 	ldrb.w	r0, [sp, #7]
  400ad4:	4798      	blx	r3
  400ad6:	e7f1      	b.n	400abc <UART1_Handler+0x10>
  400ad8:	400e0800 	.word	0x400e0800
  400adc:	00402e8f 	.word	0x00402e8f
  400ae0:	00402ea3 	.word	0x00402ea3
  400ae4:	20000e1c 	.word	0x20000e1c

00400ae8 <USART1_Handler>:
  400ae8:	b500      	push	{lr}
  400aea:	b083      	sub	sp, #12
  400aec:	4809      	ldr	r0, [pc, #36]	; (400b14 <USART1_Handler+0x2c>)
  400aee:	4b0a      	ldr	r3, [pc, #40]	; (400b18 <USART1_Handler+0x30>)
  400af0:	4798      	blx	r3
  400af2:	f010 0f01 	tst.w	r0, #1
  400af6:	d102      	bne.n	400afe <USART1_Handler+0x16>
  400af8:	b003      	add	sp, #12
  400afa:	f85d fb04 	ldr.w	pc, [sp], #4
  400afe:	f10d 0107 	add.w	r1, sp, #7
  400b02:	4804      	ldr	r0, [pc, #16]	; (400b14 <USART1_Handler+0x2c>)
  400b04:	4b05      	ldr	r3, [pc, #20]	; (400b1c <USART1_Handler+0x34>)
  400b06:	4798      	blx	r3
  400b08:	4b05      	ldr	r3, [pc, #20]	; (400b20 <USART1_Handler+0x38>)
  400b0a:	681b      	ldr	r3, [r3, #0]
  400b0c:	f89d 0007 	ldrb.w	r0, [sp, #7]
  400b10:	4798      	blx	r3
  400b12:	e7f1      	b.n	400af8 <USART1_Handler+0x10>
  400b14:	40028000 	.word	0x40028000
  400b18:	00402f9d 	.word	0x00402f9d
  400b1c:	00402fb5 	.word	0x00402fb5
  400b20:	20000e20 	.word	0x20000e20

00400b24 <hal_memreg_init>:
  400b24:	4770      	bx	lr
	...

00400b28 <hal_memreg_read>:
  400b28:	b1b1      	cbz	r1, 400b58 <hal_memreg_read+0x30>
  400b2a:	6008      	str	r0, [r1, #0]
  400b2c:	2801      	cmp	r0, #1
  400b2e:	d00a      	beq.n	400b46 <hal_memreg_read+0x1e>
  400b30:	b110      	cbz	r0, 400b38 <hal_memreg_read+0x10>
  400b32:	2802      	cmp	r0, #2
  400b34:	d00c      	beq.n	400b50 <hal_memreg_read+0x28>
  400b36:	4770      	bx	lr
  400b38:	f04f 5200 	mov.w	r2, #536870912	; 0x20000000
  400b3c:	604a      	str	r2, [r1, #4]
  400b3e:	f44f 32a0 	mov.w	r2, #81920	; 0x14000
  400b42:	608a      	str	r2, [r1, #8]
  400b44:	4770      	bx	lr
  400b46:	4a05      	ldr	r2, [pc, #20]	; (400b5c <hal_memreg_read+0x34>)
  400b48:	604a      	str	r2, [r1, #4]
  400b4a:	4a05      	ldr	r2, [pc, #20]	; (400b60 <hal_memreg_read+0x38>)
  400b4c:	608a      	str	r2, [r1, #8]
  400b4e:	4770      	bx	lr
  400b50:	4a04      	ldr	r2, [pc, #16]	; (400b64 <hal_memreg_read+0x3c>)
  400b52:	604a      	str	r2, [r1, #4]
  400b54:	4a04      	ldr	r2, [pc, #16]	; (400b68 <hal_memreg_read+0x40>)
  400b56:	608a      	str	r2, [r1, #8]
  400b58:	4770      	bx	lr
  400b5a:	bf00      	nop
  400b5c:	20014004 	.word	0x20014004
  400b60:	00013ffc 	.word	0x00013ffc
  400b64:	200091a8 	.word	0x200091a8
  400b68:	00003000 	.word	0x00003000

00400b6c <hal_nvmem_init>:
  400b6c:	4770      	bx	lr
	...

00400b70 <hal_nvmem_start>:
  400b70:	2801      	cmp	r0, #1
  400b72:	d117      	bne.n	400ba4 <hal_nvmem_start+0x34>
  400b74:	b5f8      	push	{r3, r4, r5, r6, r7, lr}
  400b76:	2201      	movs	r2, #1
  400b78:	4b13      	ldr	r3, [pc, #76]	; (400bc8 <hal_nvmem_start+0x58>)
  400b7a:	701a      	strb	r2, [r3, #0]
  400b7c:	204c      	movs	r0, #76	; 0x4c
  400b7e:	4b13      	ldr	r3, [pc, #76]	; (400bcc <hal_nvmem_start+0x5c>)
  400b80:	4798      	blx	r3
  400b82:	b108      	cbz	r0, 400b88 <hal_nvmem_start+0x18>
  400b84:	2000      	movs	r0, #0
  400b86:	bdf8      	pop	{r3, r4, r5, r6, r7, pc}
  400b88:	4b11      	ldr	r3, [pc, #68]	; (400bd0 <hal_nvmem_start+0x60>)
  400b8a:	4798      	blx	r3
  400b8c:	240b      	movs	r4, #11
  400b8e:	4d11      	ldr	r5, [pc, #68]	; (400bd4 <hal_nvmem_start+0x64>)
  400b90:	4f11      	ldr	r7, [pc, #68]	; (400bd8 <hal_nvmem_start+0x68>)
  400b92:	4e12      	ldr	r6, [pc, #72]	; (400bdc <hal_nvmem_start+0x6c>)
  400b94:	2000      	movs	r0, #0
  400b96:	47a8      	blx	r5
  400b98:	b130      	cbz	r0, 400ba8 <hal_nvmem_start+0x38>
  400b9a:	3c01      	subs	r4, #1
  400b9c:	d0f2      	beq.n	400b84 <hal_nvmem_start+0x14>
  400b9e:	4638      	mov	r0, r7
  400ba0:	47b0      	blx	r6
  400ba2:	e7f7      	b.n	400b94 <hal_nvmem_start+0x24>
  400ba4:	2000      	movs	r0, #0
  400ba6:	4770      	bx	lr
  400ba8:	4c0d      	ldr	r4, [pc, #52]	; (400be0 <hal_nvmem_start+0x70>)
  400baa:	f44f 720c 	mov.w	r2, #560	; 0x230
  400bae:	2100      	movs	r1, #0
  400bb0:	4620      	mov	r0, r4
  400bb2:	4b0c      	ldr	r3, [pc, #48]	; (400be4 <hal_nvmem_start+0x74>)
  400bb4:	4798      	blx	r3
  400bb6:	4621      	mov	r1, r4
  400bb8:	2000      	movs	r0, #0
  400bba:	4b0b      	ldr	r3, [pc, #44]	; (400be8 <hal_nvmem_start+0x78>)
  400bbc:	4798      	blx	r3
  400bbe:	fab0 f080 	clz	r0, r0
  400bc2:	0940      	lsrs	r0, r0, #5
  400bc4:	bdf8      	pop	{r3, r4, r5, r6, r7, pc}
  400bc6:	bf00      	nop
  400bc8:	20001054 	.word	0x20001054
  400bcc:	004025c5 	.word	0x004025c5
  400bd0:	00401239 	.word	0x00401239
  400bd4:	00401265 	.word	0x00401265
  400bd8:	001a286e 	.word	0x001a286e
  400bdc:	20000001 	.word	0x20000001
  400be0:	20000e24 	.word	0x20000e24
  400be4:	00405a61 	.word	0x00405a61
  400be8:	0040498d 	.word	0x0040498d

00400bec <hal_nvmem_fat_file_size>:
  400bec:	b508      	push	{r3, lr}
  400bee:	4b07      	ldr	r3, [pc, #28]	; (400c0c <hal_nvmem_fat_file_size+0x20>)
  400bf0:	781b      	ldrb	r3, [r3, #0]
  400bf2:	b90b      	cbnz	r3, 400bf8 <hal_nvmem_fat_file_size+0xc>
  400bf4:	2000      	movs	r0, #0
  400bf6:	bd08      	pop	{r3, pc}
  400bf8:	4905      	ldr	r1, [pc, #20]	; (400c10 <hal_nvmem_fat_file_size+0x24>)
  400bfa:	4b06      	ldr	r3, [pc, #24]	; (400c14 <hal_nvmem_fat_file_size+0x28>)
  400bfc:	4798      	blx	r3
  400bfe:	b910      	cbnz	r0, 400c06 <hal_nvmem_fat_file_size+0x1a>
  400c00:	4b03      	ldr	r3, [pc, #12]	; (400c10 <hal_nvmem_fat_file_size+0x24>)
  400c02:	6818      	ldr	r0, [r3, #0]
  400c04:	bd08      	pop	{r3, pc}
  400c06:	2000      	movs	r0, #0
  400c08:	bd08      	pop	{r3, pc}
  400c0a:	bf00      	nop
  400c0c:	20001054 	.word	0x20001054
  400c10:	20001150 	.word	0x20001150
  400c14:	00404e89 	.word	0x00404e89

00400c18 <hal_nvmem_fat_file_read>:
  400c18:	b5f0      	push	{r4, r5, r6, r7, lr}
  400c1a:	b08d      	sub	sp, #52	; 0x34
  400c1c:	4b14      	ldr	r3, [pc, #80]	; (400c70 <hal_nvmem_fat_file_read+0x58>)
  400c1e:	781b      	ldrb	r3, [r3, #0]
  400c20:	b91b      	cbnz	r3, 400c2a <hal_nvmem_fat_file_read+0x12>
  400c22:	2400      	movs	r4, #0
  400c24:	4620      	mov	r0, r4
  400c26:	b00d      	add	sp, #52	; 0x34
  400c28:	bdf0      	pop	{r4, r5, r6, r7, pc}
  400c2a:	460d      	mov	r5, r1
  400c2c:	4616      	mov	r6, r2
  400c2e:	2201      	movs	r2, #1
  400c30:	4601      	mov	r1, r0
  400c32:	a803      	add	r0, sp, #12
  400c34:	4b0f      	ldr	r3, [pc, #60]	; (400c74 <hal_nvmem_fat_file_read+0x5c>)
  400c36:	4798      	blx	r3
  400c38:	b9b8      	cbnz	r0, 400c6a <hal_nvmem_fat_file_read+0x52>
  400c3a:	b1a6      	cbz	r6, 400c66 <hal_nvmem_fat_file_read+0x4e>
  400c3c:	2400      	movs	r4, #0
  400c3e:	4f0e      	ldr	r7, [pc, #56]	; (400c78 <hal_nvmem_fat_file_read+0x60>)
  400c40:	ab02      	add	r3, sp, #8
  400c42:	2201      	movs	r2, #1
  400c44:	a901      	add	r1, sp, #4
  400c46:	a803      	add	r0, sp, #12
  400c48:	47b8      	blx	r7
  400c4a:	9b02      	ldr	r3, [sp, #8]
  400c4c:	2b01      	cmp	r3, #1
  400c4e:	d106      	bne.n	400c5e <hal_nvmem_fat_file_read+0x46>
  400c50:	f89d 3004 	ldrb.w	r3, [sp, #4]
  400c54:	f805 3b01 	strb.w	r3, [r5], #1
  400c58:	3401      	adds	r4, #1
  400c5a:	42a6      	cmp	r6, r4
  400c5c:	d1f0      	bne.n	400c40 <hal_nvmem_fat_file_read+0x28>
  400c5e:	a803      	add	r0, sp, #12
  400c60:	4b06      	ldr	r3, [pc, #24]	; (400c7c <hal_nvmem_fat_file_read+0x64>)
  400c62:	4798      	blx	r3
  400c64:	e7de      	b.n	400c24 <hal_nvmem_fat_file_read+0xc>
  400c66:	4634      	mov	r4, r6
  400c68:	e7f9      	b.n	400c5e <hal_nvmem_fat_file_read+0x46>
  400c6a:	2400      	movs	r4, #0
  400c6c:	e7da      	b.n	400c24 <hal_nvmem_fat_file_read+0xc>
  400c6e:	bf00      	nop
  400c70:	20001054 	.word	0x20001054
  400c74:	004049b5 	.word	0x004049b5
  400c78:	00404b4d 	.word	0x00404b4d
  400c7c:	00404d79 	.word	0x00404d79

00400c80 <hal_nvmem_fat_file_list>:
  400c80:	e92d 4ff0 	stmdb	sp!, {r4, r5, r6, r7, r8, r9, sl, fp, lr}
  400c84:	b0d3      	sub	sp, #332	; 0x14c
  400c86:	4b20      	ldr	r3, [pc, #128]	; (400d08 <hal_nvmem_fat_file_list+0x88>)
  400c88:	781b      	ldrb	r3, [r3, #0]
  400c8a:	b923      	cbnz	r3, 400c96 <hal_nvmem_fat_file_list+0x16>
  400c8c:	2500      	movs	r5, #0
  400c8e:	4628      	mov	r0, r5
  400c90:	b053      	add	sp, #332	; 0x14c
  400c92:	e8bd 8ff0 	ldmia.w	sp!, {r4, r5, r6, r7, r8, r9, sl, fp, pc}
  400c96:	460f      	mov	r7, r1
  400c98:	4606      	mov	r6, r0
  400c9a:	ab01      	add	r3, sp, #4
  400c9c:	9350      	str	r3, [sp, #320]	; 0x140
  400c9e:	f44f 7380 	mov.w	r3, #256	; 0x100
  400ca2:	9351      	str	r3, [sp, #324]	; 0x144
  400ca4:	4919      	ldr	r1, [pc, #100]	; (400d0c <hal_nvmem_fat_file_list+0x8c>)
  400ca6:	a841      	add	r0, sp, #260	; 0x104
  400ca8:	4b19      	ldr	r3, [pc, #100]	; (400d10 <hal_nvmem_fat_file_list+0x90>)
  400caa:	4798      	blx	r3
  400cac:	bb50      	cbnz	r0, 400d04 <hal_nvmem_fat_file_list+0x84>
  400cae:	2500      	movs	r5, #0
  400cb0:	f8df 8064 	ldr.w	r8, [pc, #100]	; 400d18 <hal_nvmem_fat_file_list+0x98>
  400cb4:	f8df a064 	ldr.w	sl, [pc, #100]	; 400d1c <hal_nvmem_fat_file_list+0x9c>
  400cb8:	f8df 9064 	ldr.w	r9, [pc, #100]	; 400d20 <hal_nvmem_fat_file_list+0xa0>
  400cbc:	42bd      	cmp	r5, r7
  400cbe:	d0e6      	beq.n	400c8e <hal_nvmem_fat_file_list+0xe>
  400cc0:	a94a      	add	r1, sp, #296	; 0x128
  400cc2:	a841      	add	r0, sp, #260	; 0x104
  400cc4:	47c0      	blx	r8
  400cc6:	2800      	cmp	r0, #0
  400cc8:	d1e1      	bne.n	400c8e <hal_nvmem_fat_file_list+0xe>
  400cca:	f89d 3131 	ldrb.w	r3, [sp, #305]	; 0x131
  400cce:	2b00      	cmp	r3, #0
  400cd0:	d0dd      	beq.n	400c8e <hal_nvmem_fat_file_list+0xe>
  400cd2:	9c50      	ldr	r4, [sp, #320]	; 0x140
  400cd4:	7823      	ldrb	r3, [r4, #0]
  400cd6:	b90b      	cbnz	r3, 400cdc <hal_nvmem_fat_file_list+0x5c>
  400cd8:	f20d 1431 	addw	r4, sp, #305	; 0x131
  400cdc:	f89d 3130 	ldrb.w	r3, [sp, #304]	; 0x130
  400ce0:	f013 0f10 	tst.w	r3, #16
  400ce4:	d10b      	bne.n	400cfe <hal_nvmem_fat_file_list+0x7e>
  400ce6:	3501      	adds	r5, #1
  400ce8:	4620      	mov	r0, r4
  400cea:	47d0      	blx	sl
  400cec:	281d      	cmp	r0, #29
  400cee:	bf94      	ite	ls
  400cf0:	4621      	movls	r1, r4
  400cf2:	4649      	movhi	r1, r9
  400cf4:	4630      	mov	r0, r6
  400cf6:	4b07      	ldr	r3, [pc, #28]	; (400d14 <hal_nvmem_fat_file_list+0x94>)
  400cf8:	4798      	blx	r3
  400cfa:	361f      	adds	r6, #31
  400cfc:	e7de      	b.n	400cbc <hal_nvmem_fat_file_list+0x3c>
  400cfe:	42bd      	cmp	r5, r7
  400d00:	d3de      	bcc.n	400cc0 <hal_nvmem_fat_file_list+0x40>
  400d02:	e7c4      	b.n	400c8e <hal_nvmem_fat_file_list+0xe>
  400d04:	2500      	movs	r5, #0
  400d06:	e7c2      	b.n	400c8e <hal_nvmem_fat_file_list+0xe>
  400d08:	20001054 	.word	0x20001054
  400d0c:	00409dcc 	.word	0x00409dcc
  400d10:	00404d91 	.word	0x00404d91
  400d14:	00405e3d 	.word	0x00405e3d
  400d18:	00404e11 	.word	0x00404e11
  400d1c:	00405f01 	.word	0x00405f01
  400d20:	00409db8 	.word	0x00409db8

00400d24 <loader_exec_app>:
  400d24:	e92d 41f0 	stmdb	sp!, {r4, r5, r6, r7, r8, lr}
  400d28:	4607      	mov	r7, r0
  400d2a:	460d      	mov	r5, r1
  400d2c:	4616      	mov	r6, r2
  400d2e:	461c      	mov	r4, r3
  400d30:	491b      	ldr	r1, [pc, #108]	; (400da0 <loader_exec_app+0x7c>)
  400d32:	2001      	movs	r0, #1
  400d34:	4b1b      	ldr	r3, [pc, #108]	; (400da4 <loader_exec_app+0x80>)
  400d36:	4798      	blx	r3
  400d38:	4638      	mov	r0, r7
  400d3a:	4b1b      	ldr	r3, [pc, #108]	; (400da8 <loader_exec_app+0x84>)
  400d3c:	4798      	blx	r3
  400d3e:	4603      	mov	r3, r0
  400d40:	b118      	cbz	r0, 400d4a <loader_exec_app+0x26>
  400d42:	f5b0 4fa0 	cmp.w	r0, #20480	; 0x5000
  400d46:	d903      	bls.n	400d50 <loader_exec_app+0x2c>
  400d48:	2301      	movs	r3, #1
  400d4a:	4618      	mov	r0, r3
  400d4c:	e8bd 81f0 	ldmia.w	sp!, {r4, r5, r6, r7, r8, pc}
  400d50:	f8df 8068 	ldr.w	r8, [pc, #104]	; 400dbc <loader_exec_app+0x98>
  400d54:	f44f 42a0 	mov.w	r2, #20480	; 0x5000
  400d58:	4641      	mov	r1, r8
  400d5a:	4638      	mov	r0, r7
  400d5c:	4b13      	ldr	r3, [pc, #76]	; (400dac <loader_exec_app+0x88>)
  400d5e:	4798      	blx	r3
  400d60:	f8d8 7000 	ldr.w	r7, [r8]
  400d64:	4b0e      	ldr	r3, [pc, #56]	; (400da0 <loader_exec_app+0x7c>)
  400d66:	6859      	ldr	r1, [r3, #4]
  400d68:	b148      	cbz	r0, 400d7e <loader_exec_app+0x5a>
  400d6a:	f108 0203 	add.w	r2, r8, #3
  400d6e:	460b      	mov	r3, r1
  400d70:	1808      	adds	r0, r1, r0
  400d72:	f812 1f01 	ldrb.w	r1, [r2, #1]!
  400d76:	f803 1b01 	strb.w	r1, [r3], #1
  400d7a:	4283      	cmp	r3, r0
  400d7c:	d1f9      	bne.n	400d72 <loader_exec_app+0x4e>
  400d7e:	4638      	mov	r0, r7
  400d80:	4b0b      	ldr	r3, [pc, #44]	; (400db0 <loader_exec_app+0x8c>)
  400d82:	4798      	blx	r3
  400d84:	4b0b      	ldr	r3, [pc, #44]	; (400db4 <loader_exec_app+0x90>)
  400d86:	4798      	blx	r3
  400d88:	4b0b      	ldr	r3, [pc, #44]	; (400db8 <loader_exec_app+0x94>)
  400d8a:	4798      	blx	r3
  400d8c:	4b04      	ldr	r3, [pc, #16]	; (400da0 <loader_exec_app+0x7c>)
  400d8e:	685b      	ldr	r3, [r3, #4]
  400d90:	3301      	adds	r3, #1
  400d92:	4631      	mov	r1, r6
  400d94:	4628      	mov	r0, r5
  400d96:	4798      	blx	r3
  400d98:	6020      	str	r0, [r4, #0]
  400d9a:	2302      	movs	r3, #2
  400d9c:	e7d5      	b.n	400d4a <loader_exec_app+0x26>
  400d9e:	bf00      	nop
  400da0:	20001170 	.word	0x20001170
  400da4:	00400b29 	.word	0x00400b29
  400da8:	00400bed 	.word	0x00400bed
  400dac:	00400c19 	.word	0x00400c19
  400db0:	00400571 	.word	0x00400571
  400db4:	0040055f 	.word	0x0040055f
  400db8:	0040054d 	.word	0x0040054d
  400dbc:	2000117c 	.word	0x2000117c

00400dc0 <syscalls_entry_point>:
  400dc0:	b508      	push	{r3, lr}
  400dc2:	4b07      	ldr	r3, [pc, #28]	; (400de0 <syscalls_entry_point+0x20>)
  400dc4:	4798      	blx	r3
  400dc6:	6983      	ldr	r3, [r0, #24]
  400dc8:	f813 3c02 	ldrb.w	r3, [r3, #-2]
  400dcc:	b103      	cbz	r3, 400dd0 <syscalls_entry_point+0x10>
  400dce:	bd08      	pop	{r3, pc}
  400dd0:	6841      	ldr	r1, [r0, #4]
  400dd2:	3100      	adds	r1, #0
  400dd4:	bf18      	it	ne
  400dd6:	2101      	movne	r1, #1
  400dd8:	6800      	ldr	r0, [r0, #0]
  400dda:	4b02      	ldr	r3, [pc, #8]	; (400de4 <syscalls_entry_point+0x24>)
  400ddc:	4798      	blx	r3
  400dde:	e7f6      	b.n	400dce <syscalls_entry_point+0xe>
  400de0:	00400547 	.word	0x00400547
  400de4:	0040071d 	.word	0x0040071d

00400de8 <syscalls_init>:
  400de8:	b508      	push	{r3, lr}
  400dea:	4802      	ldr	r0, [pc, #8]	; (400df4 <syscalls_init+0xc>)
  400dec:	4b02      	ldr	r3, [pc, #8]	; (400df8 <syscalls_init+0x10>)
  400dee:	4798      	blx	r3
  400df0:	bd08      	pop	{r3, pc}
  400df2:	bf00      	nop
  400df4:	00400dc1 	.word	0x00400dc1
  400df8:	004004e9 	.word	0x004004e9

00400dfc <init_sequence>:
	//but first they blink momentarily
	init_sequence();

}

void init_sequence(void){
  400dfc:	e92d 43f8 	stmdb	sp!, {r3, r4, r5, r6, r7, r8, r9, lr}
		
	//All LEDs On
	hal_led_write(Led0, LedOn);
  400e00:	2101      	movs	r1, #1
  400e02:	2000      	movs	r0, #0
  400e04:	4c1a      	ldr	r4, [pc, #104]	; (400e70 <init_sequence+0x74>)
  400e06:	47a0      	blx	r4
	hal_led_write(Led1, LedOn);
  400e08:	2101      	movs	r1, #1
  400e0a:	4608      	mov	r0, r1
  400e0c:	47a0      	blx	r4
	hal_led_write(Led2, LedOn);
  400e0e:	2101      	movs	r1, #1
  400e10:	2002      	movs	r0, #2
  400e12:	47a0      	blx	r4
	hal_led_write(Led3, LedOn);
  400e14:	2101      	movs	r1, #1
  400e16:	2003      	movs	r0, #3
  400e18:	47a0      	blx	r4
	hal_led_write(Led4, LedOn);
  400e1a:	2101      	movs	r1, #1
  400e1c:	2004      	movs	r0, #4
  400e1e:	47a0      	blx	r4
		
	//Screen "on"
	for(uint32_t i=0; i<4; i++){	 //rows
  400e20:	2700      	movs	r7, #0
		hal_display_gotoxy(0, i);
  400e22:	46b9      	mov	r9, r7
  400e24:	f8df 8058 	ldr.w	r8, [pc, #88]	; 400e80 <init_sequence+0x84>
		for(uint32_t j=0; j<95; j++) //columns
		hal_display_putc('|');
  400e28:	4e12      	ldr	r6, [pc, #72]	; (400e74 <init_sequence+0x78>)
		hal_display_gotoxy(0, i);
  400e2a:	4639      	mov	r1, r7
  400e2c:	4648      	mov	r0, r9
  400e2e:	47c0      	blx	r8
  400e30:	245f      	movs	r4, #95	; 0x5f
		hal_display_putc('|');
  400e32:	257c      	movs	r5, #124	; 0x7c
  400e34:	4628      	mov	r0, r5
  400e36:	47b0      	blx	r6
		for(uint32_t j=0; j<95; j++) //columns
  400e38:	3c01      	subs	r4, #1
  400e3a:	d1fb      	bne.n	400e34 <init_sequence+0x38>
	for(uint32_t i=0; i<4; i++){	 //rows
  400e3c:	3701      	adds	r7, #1
  400e3e:	2f04      	cmp	r7, #4
  400e40:	d1f3      	bne.n	400e2a <init_sequence+0x2e>
	}

	//Wait...
	hal_delay(200);
  400e42:	20c8      	movs	r0, #200	; 0xc8
  400e44:	4b0c      	ldr	r3, [pc, #48]	; (400e78 <init_sequence+0x7c>)
  400e46:	4798      	blx	r3
	
	//All LEDs Off
	hal_led_write(Led0, LedOff);
  400e48:	2100      	movs	r1, #0
  400e4a:	4608      	mov	r0, r1
  400e4c:	4c08      	ldr	r4, [pc, #32]	; (400e70 <init_sequence+0x74>)
  400e4e:	47a0      	blx	r4
	hal_led_write(Led1, LedOff);
  400e50:	2100      	movs	r1, #0
  400e52:	2001      	movs	r0, #1
  400e54:	47a0      	blx	r4
	hal_led_write(Led2, LedOff);
  400e56:	2100      	movs	r1, #0
  400e58:	2002      	movs	r0, #2
  400e5a:	47a0      	blx	r4
	hal_led_write(Led3, LedOff);
  400e5c:	2100      	movs	r1, #0
  400e5e:	2003      	movs	r0, #3
  400e60:	47a0      	blx	r4
	hal_led_write(Led4, LedOff);
  400e62:	2100      	movs	r1, #0
  400e64:	2004      	movs	r0, #4
  400e66:	47a0      	blx	r4
		
	//clear screen
	hal_display_cls();
  400e68:	4b04      	ldr	r3, [pc, #16]	; (400e7c <init_sequence+0x80>)
  400e6a:	4798      	blx	r3
  400e6c:	e8bd 83f8 	ldmia.w	sp!, {r3, r4, r5, r6, r7, r8, r9, pc}
  400e70:	0040071d 	.word	0x0040071d
  400e74:	0040081d 	.word	0x0040081d
  400e78:	00400505 	.word	0x00400505
  400e7c:	004008bd 	.word	0x004008bd
  400e80:	0040094d 	.word	0x0040094d

00400e84 <io_init>:
void io_init(void){
  400e84:	b530      	push	{r4, r5, lr}
  400e86:	b087      	sub	sp, #28
	hal_sensor_start( SensorLight );
  400e88:	2000      	movs	r0, #0
  400e8a:	4c12      	ldr	r4, [pc, #72]	; (400ed4 <io_init+0x50>)
  400e8c:	47a0      	blx	r4
	hal_sensor_start( SensorTemp );
  400e8e:	2001      	movs	r0, #1
  400e90:	47a0      	blx	r4
	hal_clock_start();
  400e92:	4b11      	ldr	r3, [pc, #68]	; (400ed8 <io_init+0x54>)
  400e94:	4798      	blx	r3
	hal_display_start();
  400e96:	4b11      	ldr	r3, [pc, #68]	; (400edc <io_init+0x58>)
  400e98:	4798      	blx	r3
	hal_serial_start( SerialA, SYS_CONF_SERIAL_A_BAUDRATE );
  400e9a:	f44f 31e1 	mov.w	r1, #115200	; 0x1c200
  400e9e:	2000      	movs	r0, #0
  400ea0:	4c0f      	ldr	r4, [pc, #60]	; (400ee0 <io_init+0x5c>)
  400ea2:	47a0      	blx	r4
	hal_serial_start( SerialB, SYS_CONF_SERIAL_A_BAUDRATE );
  400ea4:	f44f 31e1 	mov.w	r1, #115200	; 0x1c200
  400ea8:	2001      	movs	r0, #1
  400eaa:	47a0      	blx	r4
	hal_led_start();
  400eac:	4b0d      	ldr	r3, [pc, #52]	; (400ee4 <io_init+0x60>)
  400eae:	4798      	blx	r3
	hal_nvmem_start( NVMemSDCardFAT );
  400eb0:	2001      	movs	r0, #1
  400eb2:	4b0d      	ldr	r3, [pc, #52]	; (400ee8 <io_init+0x64>)
  400eb4:	4798      	blx	r3
	tTime time = {
  400eb6:	466c      	mov	r4, sp
  400eb8:	4d0c      	ldr	r5, [pc, #48]	; (400eec <io_init+0x68>)
  400eba:	cd0f      	ldmia	r5!, {r0, r1, r2, r3}
  400ebc:	c40f      	stmia	r4!, {r0, r1, r2, r3}
  400ebe:	e895 0003 	ldmia.w	r5, {r0, r1}
  400ec2:	e884 0003 	stmia.w	r4, {r0, r1}
	hal_clock_write(&time);
  400ec6:	4668      	mov	r0, sp
  400ec8:	4b09      	ldr	r3, [pc, #36]	; (400ef0 <io_init+0x6c>)
  400eca:	4798      	blx	r3
	init_sequence();
  400ecc:	4b09      	ldr	r3, [pc, #36]	; (400ef4 <io_init+0x70>)
  400ece:	4798      	blx	r3
}
  400ed0:	b007      	add	sp, #28
  400ed2:	bd30      	pop	{r4, r5, pc}
  400ed4:	00400975 	.word	0x00400975
  400ed8:	0040076d 	.word	0x0040076d
  400edc:	00400811 	.word	0x00400811
  400ee0:	004009e5 	.word	0x004009e5
  400ee4:	004006d9 	.word	0x004006d9
  400ee8:	00400b71 	.word	0x00400b71
  400eec:	00409dd0 	.word	0x00409dd0
  400ef0:	00400799 	.word	0x00400799
  400ef4:	00400dfd 	.word	0x00400dfd

00400ef8 <system_init>:
void system_init(void){
  400ef8:	b508      	push	{r3, lr}
	hal_cpu_init();			
  400efa:	4b07      	ldr	r3, [pc, #28]	; (400f18 <system_init+0x20>)
  400efc:	4798      	blx	r3
	hal_io_init();		
  400efe:	4b07      	ldr	r3, [pc, #28]	; (400f1c <system_init+0x24>)
  400f00:	4798      	blx	r3
	hal_nvmem_init();
  400f02:	4b07      	ldr	r3, [pc, #28]	; (400f20 <system_init+0x28>)
  400f04:	4798      	blx	r3
	hal_memreg_init();
  400f06:	4b07      	ldr	r3, [pc, #28]	; (400f24 <system_init+0x2c>)
  400f08:	4798      	blx	r3
	io_init();
  400f0a:	4b07      	ldr	r3, [pc, #28]	; (400f28 <system_init+0x30>)
  400f0c:	4798      	blx	r3
	console_init();
  400f0e:	4b07      	ldr	r3, [pc, #28]	; (400f2c <system_init+0x34>)
  400f10:	4798      	blx	r3
	syscalls_init();
  400f12:	4b07      	ldr	r3, [pc, #28]	; (400f30 <system_init+0x38>)
  400f14:	4798      	blx	r3
  400f16:	bd08      	pop	{r3, pc}
  400f18:	004004dd 	.word	0x004004dd
  400f1c:	00400695 	.word	0x00400695
  400f20:	00400b6d 	.word	0x00400b6d
  400f24:	00400b25 	.word	0x00400b25
  400f28:	00400e85 	.word	0x00400e85
  400f2c:	00400305 	.word	0x00400305
  400f30:	00400de9 	.word	0x00400de9

00400f34 <ssd1306_write_command>:
  400f34:	b570      	push	{r4, r5, r6, lr}
  400f36:	b082      	sub	sp, #8
  400f38:	4606      	mov	r6, r0
  400f3a:	ac02      	add	r4, sp, #8
  400f3c:	2302      	movs	r3, #2
  400f3e:	f844 3d04 	str.w	r3, [r4, #-4]!
  400f42:	4d09      	ldr	r5, [pc, #36]	; (400f68 <ssd1306_write_command+0x34>)
  400f44:	4621      	mov	r1, r4
  400f46:	4628      	mov	r0, r5
  400f48:	4b08      	ldr	r3, [pc, #32]	; (400f6c <ssd1306_write_command+0x38>)
  400f4a:	4798      	blx	r3
  400f4c:	f44f 1200 	mov.w	r2, #2097152	; 0x200000
  400f50:	4b07      	ldr	r3, [pc, #28]	; (400f70 <ssd1306_write_command+0x3c>)
  400f52:	635a      	str	r2, [r3, #52]	; 0x34
  400f54:	60ee      	str	r6, [r5, #12]
  400f56:	2056      	movs	r0, #86	; 0x56
  400f58:	4b06      	ldr	r3, [pc, #24]	; (400f74 <ssd1306_write_command+0x40>)
  400f5a:	4798      	blx	r3
  400f5c:	4621      	mov	r1, r4
  400f5e:	4628      	mov	r0, r5
  400f60:	4b05      	ldr	r3, [pc, #20]	; (400f78 <ssd1306_write_command+0x44>)
  400f62:	4798      	blx	r3
  400f64:	b002      	add	sp, #8
  400f66:	bd70      	pop	{r4, r5, r6, pc}
  400f68:	40008000 	.word	0x40008000
  400f6c:	00402199 	.word	0x00402199
  400f70:	400e1200 	.word	0x400e1200
  400f74:	20000001 	.word	0x20000001
  400f78:	004021c9 	.word	0x004021c9

00400f7c <ssd1306_init>:
  400f7c:	b5f0      	push	{r4, r5, r6, r7, lr}
  400f7e:	b085      	sub	sp, #20
  400f80:	4d25      	ldr	r5, [pc, #148]	; (401018 <ssd1306_init+0x9c>)
  400f82:	f04f 4600 	mov.w	r6, #2147483648	; 0x80000000
  400f86:	636e      	str	r6, [r5, #52]	; 0x34
  400f88:	2056      	movs	r0, #86	; 0x56
  400f8a:	4c24      	ldr	r4, [pc, #144]	; (40101c <ssd1306_init+0xa0>)
  400f8c:	47a0      	blx	r4
  400f8e:	632e      	str	r6, [r5, #48]	; 0x30
  400f90:	2056      	movs	r0, #86	; 0x56
  400f92:	47a0      	blx	r4
  400f94:	2702      	movs	r7, #2
  400f96:	ae04      	add	r6, sp, #16
  400f98:	f846 7d04 	str.w	r7, [r6, #-4]!
  400f9c:	4c20      	ldr	r4, [pc, #128]	; (401020 <ssd1306_init+0xa4>)
  400f9e:	4620      	mov	r0, r4
  400fa0:	4b20      	ldr	r3, [pc, #128]	; (401024 <ssd1306_init+0xa8>)
  400fa2:	4798      	blx	r3
  400fa4:	2500      	movs	r5, #0
  400fa6:	9500      	str	r5, [sp, #0]
  400fa8:	4b1f      	ldr	r3, [pc, #124]	; (401028 <ssd1306_init+0xac>)
  400faa:	462a      	mov	r2, r5
  400fac:	4631      	mov	r1, r6
  400fae:	4620      	mov	r0, r4
  400fb0:	4e1e      	ldr	r6, [pc, #120]	; (40102c <ssd1306_init+0xb0>)
  400fb2:	47b0      	blx	r6
  400fb4:	2301      	movs	r3, #1
  400fb6:	6023      	str	r3, [r4, #0]
  400fb8:	20a8      	movs	r0, #168	; 0xa8
  400fba:	4c1d      	ldr	r4, [pc, #116]	; (401030 <ssd1306_init+0xb4>)
  400fbc:	47a0      	blx	r4
  400fbe:	201f      	movs	r0, #31
  400fc0:	47a0      	blx	r4
  400fc2:	20d3      	movs	r0, #211	; 0xd3
  400fc4:	47a0      	blx	r4
  400fc6:	4628      	mov	r0, r5
  400fc8:	47a0      	blx	r4
  400fca:	2040      	movs	r0, #64	; 0x40
  400fcc:	47a0      	blx	r4
  400fce:	20a1      	movs	r0, #161	; 0xa1
  400fd0:	47a0      	blx	r4
  400fd2:	20c8      	movs	r0, #200	; 0xc8
  400fd4:	47a0      	blx	r4
  400fd6:	20da      	movs	r0, #218	; 0xda
  400fd8:	47a0      	blx	r4
  400fda:	4638      	mov	r0, r7
  400fdc:	47a0      	blx	r4
  400fde:	2081      	movs	r0, #129	; 0x81
  400fe0:	47a0      	blx	r4
  400fe2:	208f      	movs	r0, #143	; 0x8f
  400fe4:	47a0      	blx	r4
  400fe6:	20a4      	movs	r0, #164	; 0xa4
  400fe8:	47a0      	blx	r4
  400fea:	20a6      	movs	r0, #166	; 0xa6
  400fec:	47a0      	blx	r4
  400fee:	20d5      	movs	r0, #213	; 0xd5
  400ff0:	47a0      	blx	r4
  400ff2:	2080      	movs	r0, #128	; 0x80
  400ff4:	47a0      	blx	r4
  400ff6:	208d      	movs	r0, #141	; 0x8d
  400ff8:	47a0      	blx	r4
  400ffa:	2014      	movs	r0, #20
  400ffc:	47a0      	blx	r4
  400ffe:	20db      	movs	r0, #219	; 0xdb
  401000:	47a0      	blx	r4
  401002:	2040      	movs	r0, #64	; 0x40
  401004:	47a0      	blx	r4
  401006:	20d9      	movs	r0, #217	; 0xd9
  401008:	47a0      	blx	r4
  40100a:	20f1      	movs	r0, #241	; 0xf1
  40100c:	47a0      	blx	r4
  40100e:	20af      	movs	r0, #175	; 0xaf
  401010:	47a0      	blx	r4
  401012:	b005      	add	sp, #20
  401014:	bdf0      	pop	{r4, r5, r6, r7, pc}
  401016:	bf00      	nop
  401018:	400e1200 	.word	0x400e1200
  40101c:	20000001 	.word	0x20000001
  401020:	40008000 	.word	0x40008000
  401024:	004020c5 	.word	0x004020c5
  401028:	004c4b40 	.word	0x004c4b40
  40102c:	00402119 	.word	0x00402119
  401030:	00400f35 	.word	0x00400f35

00401034 <at30tse_init>:
  401034:	b500      	push	{lr}
  401036:	b085      	sub	sp, #20
  401038:	2300      	movs	r3, #0
  40103a:	9303      	str	r3, [sp, #12]
  40103c:	4b07      	ldr	r3, [pc, #28]	; (40105c <at30tse_init+0x28>)
  40103e:	9301      	str	r3, [sp, #4]
  401040:	f242 7310 	movw	r3, #10000	; 0x2710
  401044:	9302      	str	r3, [sp, #8]
  401046:	2013      	movs	r0, #19
  401048:	4b05      	ldr	r3, [pc, #20]	; (401060 <at30tse_init+0x2c>)
  40104a:	4798      	blx	r3
  40104c:	a901      	add	r1, sp, #4
  40104e:	4805      	ldr	r0, [pc, #20]	; (401064 <at30tse_init+0x30>)
  401050:	4b05      	ldr	r3, [pc, #20]	; (401068 <at30tse_init+0x34>)
  401052:	4798      	blx	r3
  401054:	b005      	add	sp, #20
  401056:	f85d fb04 	ldr.w	pc, [sp], #4
  40105a:	bf00      	nop
  40105c:	07270e00 	.word	0x07270e00
  401060:	004029a9 	.word	0x004029a9
  401064:	40018000 	.word	0x40018000
  401068:	00402e0d 	.word	0x00402e0d

0040106c <sd_mmc_configure_slot>:
  40106c:	b510      	push	{r4, lr}
  40106e:	4b07      	ldr	r3, [pc, #28]	; (40108c <sd_mmc_configure_slot+0x20>)
  401070:	6819      	ldr	r1, [r3, #0]
  401072:	f891 3022 	ldrb.w	r3, [r1, #34]	; 0x22
  401076:	3300      	adds	r3, #0
  401078:	bf18      	it	ne
  40107a:	2301      	movne	r3, #1
  40107c:	7c4a      	ldrb	r2, [r1, #17]
  40107e:	6809      	ldr	r1, [r1, #0]
  401080:	4803      	ldr	r0, [pc, #12]	; (401090 <sd_mmc_configure_slot+0x24>)
  401082:	7800      	ldrb	r0, [r0, #0]
  401084:	4c03      	ldr	r4, [pc, #12]	; (401094 <sd_mmc_configure_slot+0x28>)
  401086:	47a0      	blx	r4
  401088:	bd10      	pop	{r4, pc}
  40108a:	bf00      	nop
  40108c:	20001058 	.word	0x20001058
  401090:	20001061 	.word	0x20001061
  401094:	00401c79 	.word	0x00401c79

00401098 <sd_mmc_select_slot>:
  401098:	b108      	cbz	r0, 40109e <sd_mmc_select_slot+0x6>
  40109a:	2004      	movs	r0, #4
  40109c:	4770      	bx	lr
  40109e:	4b33      	ldr	r3, [pc, #204]	; (40116c <sd_mmc_select_slot+0xd4>)
  4010a0:	689a      	ldr	r2, [r3, #8]
  4010a2:	0953      	lsrs	r3, r2, #5
  4010a4:	f503 1300 	add.w	r3, r3, #2097152	; 0x200000
  4010a8:	f203 7307 	addw	r3, r3, #1799	; 0x707
  4010ac:	025b      	lsls	r3, r3, #9
  4010ae:	6bd9      	ldr	r1, [r3, #60]	; 0x3c
  4010b0:	f002 021f 	and.w	r2, r2, #31
  4010b4:	2301      	movs	r3, #1
  4010b6:	fa03 f202 	lsl.w	r2, r3, r2
  4010ba:	420a      	tst	r2, r1
  4010bc:	d010      	beq.n	4010e0 <sd_mmc_select_slot+0x48>
  4010be:	4b2b      	ldr	r3, [pc, #172]	; (40116c <sd_mmc_select_slot+0xd4>)
  4010c0:	7b9b      	ldrb	r3, [r3, #14]
  4010c2:	2b01      	cmp	r3, #1
  4010c4:	d004      	beq.n	4010d0 <sd_mmc_select_slot+0x38>
  4010c6:	2204      	movs	r2, #4
  4010c8:	4b28      	ldr	r3, [pc, #160]	; (40116c <sd_mmc_select_slot+0xd4>)
  4010ca:	739a      	strb	r2, [r3, #14]
  4010cc:	2002      	movs	r0, #2
  4010ce:	4770      	bx	lr
  4010d0:	4b27      	ldr	r3, [pc, #156]	; (401170 <sd_mmc_select_slot+0xd8>)
  4010d2:	781b      	ldrb	r3, [r3, #0]
  4010d4:	2b00      	cmp	r3, #0
  4010d6:	d0f6      	beq.n	4010c6 <sd_mmc_select_slot+0x2e>
  4010d8:	2200      	movs	r2, #0
  4010da:	4b26      	ldr	r3, [pc, #152]	; (401174 <sd_mmc_select_slot+0xdc>)
  4010dc:	601a      	str	r2, [r3, #0]
  4010de:	e7f2      	b.n	4010c6 <sd_mmc_select_slot+0x2e>
  4010e0:	b510      	push	{r4, lr}
  4010e2:	4b22      	ldr	r3, [pc, #136]	; (40116c <sd_mmc_select_slot+0xd4>)
  4010e4:	7b9b      	ldrb	r3, [r3, #14]
  4010e6:	2b04      	cmp	r3, #4
  4010e8:	d005      	beq.n	4010f6 <sd_mmc_select_slot+0x5e>
  4010ea:	2b01      	cmp	r3, #1
  4010ec:	d019      	beq.n	401122 <sd_mmc_select_slot+0x8a>
  4010ee:	2b03      	cmp	r3, #3
  4010f0:	d12c      	bne.n	40114c <sd_mmc_select_slot+0xb4>
  4010f2:	2003      	movs	r0, #3
  4010f4:	bd10      	pop	{r4, pc}
  4010f6:	2201      	movs	r2, #1
  4010f8:	4b1c      	ldr	r3, [pc, #112]	; (40116c <sd_mmc_select_slot+0xd4>)
  4010fa:	739a      	strb	r2, [r3, #14]
  4010fc:	4b1d      	ldr	r3, [pc, #116]	; (401174 <sd_mmc_select_slot+0xdc>)
  4010fe:	681b      	ldr	r3, [r3, #0]
  401100:	b93b      	cbnz	r3, 401112 <sd_mmc_select_slot+0x7a>
  401102:	4b1b      	ldr	r3, [pc, #108]	; (401170 <sd_mmc_select_slot+0xd8>)
  401104:	701a      	strb	r2, [r3, #0]
  401106:	4b1b      	ldr	r3, [pc, #108]	; (401174 <sd_mmc_select_slot+0xdc>)
  401108:	491b      	ldr	r1, [pc, #108]	; (401178 <sd_mmc_select_slot+0xe0>)
  40110a:	6059      	str	r1, [r3, #4]
  40110c:	601a      	str	r2, [r3, #0]
  40110e:	2002      	movs	r0, #2
  401110:	bd10      	pop	{r4, pc}
  401112:	2200      	movs	r2, #0
  401114:	4b16      	ldr	r3, [pc, #88]	; (401170 <sd_mmc_select_slot+0xd8>)
  401116:	701a      	strb	r2, [r3, #0]
  401118:	4818      	ldr	r0, [pc, #96]	; (40117c <sd_mmc_select_slot+0xe4>)
  40111a:	4b19      	ldr	r3, [pc, #100]	; (401180 <sd_mmc_select_slot+0xe8>)
  40111c:	4798      	blx	r3
  40111e:	2002      	movs	r0, #2
  401120:	bd10      	pop	{r4, pc}
  401122:	4b13      	ldr	r3, [pc, #76]	; (401170 <sd_mmc_select_slot+0xd8>)
  401124:	781b      	ldrb	r3, [r3, #0]
  401126:	b13b      	cbz	r3, 401138 <sd_mmc_select_slot+0xa0>
  401128:	4b12      	ldr	r3, [pc, #72]	; (401174 <sd_mmc_select_slot+0xdc>)
  40112a:	681b      	ldr	r3, [r3, #0]
  40112c:	f413 3f80 	tst.w	r3, #65536	; 0x10000
  401130:	d01a      	beq.n	401168 <sd_mmc_select_slot+0xd0>
  401132:	2200      	movs	r2, #0
  401134:	4b0f      	ldr	r3, [pc, #60]	; (401174 <sd_mmc_select_slot+0xdc>)
  401136:	601a      	str	r2, [r3, #0]
  401138:	4b0c      	ldr	r3, [pc, #48]	; (40116c <sd_mmc_select_slot+0xd4>)
  40113a:	2202      	movs	r2, #2
  40113c:	739a      	strb	r2, [r3, #14]
  40113e:	4a11      	ldr	r2, [pc, #68]	; (401184 <sd_mmc_select_slot+0xec>)
  401140:	601a      	str	r2, [r3, #0]
  401142:	2201      	movs	r2, #1
  401144:	745a      	strb	r2, [r3, #17]
  401146:	2200      	movs	r2, #0
  401148:	f883 2022 	strb.w	r2, [r3, #34]	; 0x22
  40114c:	2200      	movs	r2, #0
  40114e:	4b0e      	ldr	r3, [pc, #56]	; (401188 <sd_mmc_select_slot+0xf0>)
  401150:	701a      	strb	r2, [r3, #0]
  401152:	4c06      	ldr	r4, [pc, #24]	; (40116c <sd_mmc_select_slot+0xd4>)
  401154:	4b0d      	ldr	r3, [pc, #52]	; (40118c <sd_mmc_select_slot+0xf4>)
  401156:	601c      	str	r4, [r3, #0]
  401158:	4b0d      	ldr	r3, [pc, #52]	; (401190 <sd_mmc_select_slot+0xf8>)
  40115a:	4798      	blx	r3
  40115c:	7ba0      	ldrb	r0, [r4, #14]
  40115e:	2802      	cmp	r0, #2
  401160:	bf14      	ite	ne
  401162:	2000      	movne	r0, #0
  401164:	2001      	moveq	r0, #1
  401166:	bd10      	pop	{r4, pc}
  401168:	2002      	movs	r0, #2
  40116a:	bd10      	pop	{r4, pc}
  40116c:	2000041c 	.word	0x2000041c
  401170:	20001060 	.word	0x20001060
  401174:	e000e010 	.word	0xe000e010
  401178:	00e4e1c0 	.word	0x00e4e1c0
  40117c:	0082ca25 	.word	0x0082ca25
  401180:	20000001 	.word	0x20000001
  401184:	00061a80 	.word	0x00061a80
  401188:	20001061 	.word	0x20001061
  40118c:	20001058 	.word	0x20001058
  401190:	0040106d 	.word	0x0040106d

00401194 <sd_mmc_cmd13>:
  401194:	e92d 41f0 	stmdb	sp!, {r4, r5, r6, r7, r8, lr}
  401198:	4c09      	ldr	r4, [pc, #36]	; (4011c0 <sd_mmc_cmd13+0x2c>)
  40119a:	2700      	movs	r7, #0
  40119c:	4e09      	ldr	r6, [pc, #36]	; (4011c4 <sd_mmc_cmd13+0x30>)
  40119e:	4d0a      	ldr	r5, [pc, #40]	; (4011c8 <sd_mmc_cmd13+0x34>)
  4011a0:	4639      	mov	r1, r7
  4011a2:	f641 300d 	movw	r0, #6925	; 0x1b0d
  4011a6:	47b0      	blx	r6
  4011a8:	4680      	mov	r8, r0
  4011aa:	b130      	cbz	r0, 4011ba <sd_mmc_cmd13+0x26>
  4011ac:	47a8      	blx	r5
  4011ae:	b2c0      	uxtb	r0, r0
  4011b0:	b118      	cbz	r0, 4011ba <sd_mmc_cmd13+0x26>
  4011b2:	3c01      	subs	r4, #1
  4011b4:	d1f4      	bne.n	4011a0 <sd_mmc_cmd13+0xc>
  4011b6:	f04f 0800 	mov.w	r8, #0
  4011ba:	4640      	mov	r0, r8
  4011bc:	e8bd 81f0 	ldmia.w	sp!, {r4, r5, r6, r7, r8, pc}
  4011c0:	00030d41 	.word	0x00030d41
  4011c4:	00401ea1 	.word	0x00401ea1
  4011c8:	00401eb9 	.word	0x00401eb9

004011cc <sd_mmc_cmd9_spi>:
  4011cc:	b510      	push	{r4, lr}
  4011ce:	b082      	sub	sp, #8
  4011d0:	4b0d      	ldr	r3, [pc, #52]	; (401208 <sd_mmc_cmd9_spi+0x3c>)
  4011d2:	681b      	ldr	r3, [r3, #0]
  4011d4:	8999      	ldrh	r1, [r3, #12]
  4011d6:	2301      	movs	r3, #1
  4011d8:	9300      	str	r3, [sp, #0]
  4011da:	2210      	movs	r2, #16
  4011dc:	4091      	lsls	r1, r2
  4011de:	480b      	ldr	r0, [pc, #44]	; (40120c <sd_mmc_cmd9_spi+0x40>)
  4011e0:	4c0b      	ldr	r4, [pc, #44]	; (401210 <sd_mmc_cmd9_spi+0x44>)
  4011e2:	47a0      	blx	r4
  4011e4:	4603      	mov	r3, r0
  4011e6:	b910      	cbnz	r0, 4011ee <sd_mmc_cmd9_spi+0x22>
  4011e8:	4618      	mov	r0, r3
  4011ea:	b002      	add	sp, #8
  4011ec:	bd10      	pop	{r4, pc}
  4011ee:	4b06      	ldr	r3, [pc, #24]	; (401208 <sd_mmc_cmd9_spi+0x3c>)
  4011f0:	6818      	ldr	r0, [r3, #0]
  4011f2:	2101      	movs	r1, #1
  4011f4:	3012      	adds	r0, #18
  4011f6:	4b07      	ldr	r3, [pc, #28]	; (401214 <sd_mmc_cmd9_spi+0x48>)
  4011f8:	4798      	blx	r3
  4011fa:	4603      	mov	r3, r0
  4011fc:	2800      	cmp	r0, #0
  4011fe:	d0f3      	beq.n	4011e8 <sd_mmc_cmd9_spi+0x1c>
  401200:	4b05      	ldr	r3, [pc, #20]	; (401218 <sd_mmc_cmd9_spi+0x4c>)
  401202:	4798      	blx	r3
  401204:	4603      	mov	r3, r0
  401206:	e7ef      	b.n	4011e8 <sd_mmc_cmd9_spi+0x1c>
  401208:	20001058 	.word	0x20001058
  40120c:	00081109 	.word	0x00081109
  401210:	00401d19 	.word	0x00401d19
  401214:	00401f39 	.word	0x00401f39
  401218:	00401fb5 	.word	0x00401fb5

0040121c <sd_mmc_deselect_slot>:
  40121c:	b508      	push	{r3, lr}
  40121e:	4b04      	ldr	r3, [pc, #16]	; (401230 <sd_mmc_deselect_slot+0x14>)
  401220:	781b      	ldrb	r3, [r3, #0]
  401222:	b103      	cbz	r3, 401226 <sd_mmc_deselect_slot+0xa>
  401224:	bd08      	pop	{r3, pc}
  401226:	2000      	movs	r0, #0
  401228:	4b02      	ldr	r3, [pc, #8]	; (401234 <sd_mmc_deselect_slot+0x18>)
  40122a:	4798      	blx	r3
  40122c:	e7fa      	b.n	401224 <sd_mmc_deselect_slot+0x8>
  40122e:	bf00      	nop
  401230:	20001061 	.word	0x20001061
  401234:	00401cb9 	.word	0x00401cb9

00401238 <sd_mmc_init>:
  401238:	b508      	push	{r3, lr}
  40123a:	200d      	movs	r0, #13
  40123c:	4b05      	ldr	r3, [pc, #20]	; (401254 <sd_mmc_init+0x1c>)
  40123e:	4798      	blx	r3
  401240:	2204      	movs	r2, #4
  401242:	4b05      	ldr	r3, [pc, #20]	; (401258 <sd_mmc_init+0x20>)
  401244:	739a      	strb	r2, [r3, #14]
  401246:	22ff      	movs	r2, #255	; 0xff
  401248:	4b04      	ldr	r3, [pc, #16]	; (40125c <sd_mmc_init+0x24>)
  40124a:	701a      	strb	r2, [r3, #0]
  40124c:	4b04      	ldr	r3, [pc, #16]	; (401260 <sd_mmc_init+0x28>)
  40124e:	4798      	blx	r3
  401250:	bd08      	pop	{r3, pc}
  401252:	bf00      	nop
  401254:	004029a9 	.word	0x004029a9
  401258:	2000041c 	.word	0x2000041c
  40125c:	20001061 	.word	0x20001061
  401260:	00401c49 	.word	0x00401c49

00401264 <sd_mmc_check>:
  401264:	e92d 43f0 	stmdb	sp!, {r4, r5, r6, r7, r8, r9, lr}
  401268:	b087      	sub	sp, #28
  40126a:	4b9a      	ldr	r3, [pc, #616]	; (4014d4 <sd_mmc_check+0x270>)
  40126c:	4798      	blx	r3
  40126e:	4604      	mov	r4, r0
  401270:	2801      	cmp	r0, #1
  401272:	d005      	beq.n	401280 <sd_mmc_check+0x1c>
  401274:	4b98      	ldr	r3, [pc, #608]	; (4014d8 <sd_mmc_check+0x274>)
  401276:	4798      	blx	r3
  401278:	4620      	mov	r0, r4
  40127a:	b007      	add	sp, #28
  40127c:	e8bd 83f0 	ldmia.w	sp!, {r4, r5, r6, r7, r8, r9, pc}
  401280:	4b96      	ldr	r3, [pc, #600]	; (4014dc <sd_mmc_check+0x278>)
  401282:	681b      	ldr	r3, [r3, #0]
  401284:	2201      	movs	r2, #1
  401286:	73da      	strb	r2, [r3, #15]
  401288:	2500      	movs	r5, #0
  40128a:	741d      	strb	r5, [r3, #16]
  40128c:	819d      	strh	r5, [r3, #12]
  40128e:	4b94      	ldr	r3, [pc, #592]	; (4014e0 <sd_mmc_check+0x27c>)
  401290:	4798      	blx	r3
  401292:	4629      	mov	r1, r5
  401294:	f44f 5088 	mov.w	r0, #4352	; 0x1100
  401298:	4b92      	ldr	r3, [pc, #584]	; (4014e4 <sd_mmc_check+0x280>)
  40129a:	4798      	blx	r3
  40129c:	b930      	cbnz	r0, 4012ac <sd_mmc_check+0x48>
  40129e:	4b8f      	ldr	r3, [pc, #572]	; (4014dc <sd_mmc_check+0x278>)
  4012a0:	681b      	ldr	r3, [r3, #0]
  4012a2:	2403      	movs	r4, #3
  4012a4:	739c      	strb	r4, [r3, #14]
  4012a6:	4b8c      	ldr	r3, [pc, #560]	; (4014d8 <sd_mmc_check+0x274>)
  4012a8:	4798      	blx	r3
  4012aa:	e7e5      	b.n	401278 <sd_mmc_check+0x14>
  4012ac:	f44f 71d5 	mov.w	r1, #426	; 0x1aa
  4012b0:	f245 5008 	movw	r0, #21768	; 0x5508
  4012b4:	4b8b      	ldr	r3, [pc, #556]	; (4014e4 <sd_mmc_check+0x280>)
  4012b6:	4798      	blx	r3
  4012b8:	2800      	cmp	r0, #0
  4012ba:	d129      	bne.n	401310 <sd_mmc_check+0xac>
  4012bc:	2700      	movs	r7, #0
  4012be:	4b87      	ldr	r3, [pc, #540]	; (4014dc <sd_mmc_check+0x278>)
  4012c0:	681b      	ldr	r3, [r3, #0]
  4012c2:	7bdb      	ldrb	r3, [r3, #15]
  4012c4:	f013 0f01 	tst.w	r3, #1
  4012c8:	f040 81df 	bne.w	40168a <sd_mmc_check+0x426>
  4012cc:	4b83      	ldr	r3, [pc, #524]	; (4014dc <sd_mmc_check+0x278>)
  4012ce:	681b      	ldr	r3, [r3, #0]
  4012d0:	7bdb      	ldrb	r3, [r3, #15]
  4012d2:	f003 0309 	and.w	r3, r3, #9
  4012d6:	2b01      	cmp	r3, #1
  4012d8:	d111      	bne.n	4012fe <sd_mmc_check+0x9a>
  4012da:	f44f 7100 	mov.w	r1, #512	; 0x200
  4012de:	f241 1010 	movw	r0, #4368	; 0x1110
  4012e2:	4b80      	ldr	r3, [pc, #512]	; (4014e4 <sd_mmc_check+0x280>)
  4012e4:	4798      	blx	r3
  4012e6:	2800      	cmp	r0, #0
  4012e8:	d0d9      	beq.n	40129e <sd_mmc_check+0x3a>
  4012ea:	4b7c      	ldr	r3, [pc, #496]	; (4014dc <sd_mmc_check+0x278>)
  4012ec:	681b      	ldr	r3, [r3, #0]
  4012ee:	7bdb      	ldrb	r3, [r3, #15]
  4012f0:	f013 0f01 	tst.w	r3, #1
  4012f4:	d003      	beq.n	4012fe <sd_mmc_check+0x9a>
  4012f6:	4b7c      	ldr	r3, [pc, #496]	; (4014e8 <sd_mmc_check+0x284>)
  4012f8:	4798      	blx	r3
  4012fa:	2800      	cmp	r0, #0
  4012fc:	d0cf      	beq.n	40129e <sd_mmc_check+0x3a>
  4012fe:	4b7b      	ldr	r3, [pc, #492]	; (4014ec <sd_mmc_check+0x288>)
  401300:	4798      	blx	r3
  401302:	4b76      	ldr	r3, [pc, #472]	; (4014dc <sd_mmc_check+0x278>)
  401304:	681b      	ldr	r3, [r3, #0]
  401306:	2200      	movs	r2, #0
  401308:	739a      	strb	r2, [r3, #14]
  40130a:	4b73      	ldr	r3, [pc, #460]	; (4014d8 <sd_mmc_check+0x274>)
  40130c:	4798      	blx	r3
  40130e:	e7b3      	b.n	401278 <sd_mmc_check+0x14>
  401310:	4b77      	ldr	r3, [pc, #476]	; (4014f0 <sd_mmc_check+0x28c>)
  401312:	4798      	blx	r3
  401314:	f1b0 3fff 	cmp.w	r0, #4294967295
  401318:	f000 81b5 	beq.w	401686 <sd_mmc_check+0x422>
  40131c:	f3c0 000b 	ubfx	r0, r0, #0, #12
  401320:	f5b0 7fd5 	cmp.w	r0, #426	; 0x1aa
  401324:	d1bb      	bne.n	40129e <sd_mmc_check+0x3a>
  401326:	2701      	movs	r7, #1
  401328:	e7c9      	b.n	4012be <sd_mmc_check+0x5a>
  40132a:	2100      	movs	r1, #0
  40132c:	f240 503a 	movw	r0, #1338	; 0x53a
  401330:	4b6c      	ldr	r3, [pc, #432]	; (4014e4 <sd_mmc_check+0x280>)
  401332:	4798      	blx	r3
  401334:	b9f0      	cbnz	r0, 401374 <sd_mmc_check+0x110>
  401336:	4b69      	ldr	r3, [pc, #420]	; (4014dc <sd_mmc_check+0x278>)
  401338:	681b      	ldr	r3, [r3, #0]
  40133a:	2202      	movs	r2, #2
  40133c:	73da      	strb	r2, [r3, #15]
  40133e:	2100      	movs	r1, #0
  401340:	f44f 5088 	mov.w	r0, #4352	; 0x1100
  401344:	4b67      	ldr	r3, [pc, #412]	; (4014e4 <sd_mmc_check+0x280>)
  401346:	4798      	blx	r3
  401348:	2800      	cmp	r0, #0
  40134a:	d0a8      	beq.n	40129e <sd_mmc_check+0x3a>
  40134c:	f641 35ef 	movw	r5, #7151	; 0x1bef
  401350:	f04f 0800 	mov.w	r8, #0
  401354:	4e63      	ldr	r6, [pc, #396]	; (4014e4 <sd_mmc_check+0x280>)
  401356:	4f66      	ldr	r7, [pc, #408]	; (4014f0 <sd_mmc_check+0x28c>)
  401358:	4641      	mov	r1, r8
  40135a:	f241 1001 	movw	r0, #4353	; 0x1101
  40135e:	47b0      	blx	r6
  401360:	2800      	cmp	r0, #0
  401362:	d09c      	beq.n	40129e <sd_mmc_check+0x3a>
  401364:	47b8      	blx	r7
  401366:	f010 0f01 	tst.w	r0, #1
  40136a:	f000 8084 	beq.w	401476 <sd_mmc_check+0x212>
  40136e:	3d01      	subs	r5, #1
  401370:	d1f2      	bne.n	401358 <sd_mmc_check+0xf4>
  401372:	e794      	b.n	40129e <sd_mmc_check+0x3a>
  401374:	4b5e      	ldr	r3, [pc, #376]	; (4014f0 <sd_mmc_check+0x28c>)
  401376:	4798      	blx	r3
  401378:	f010 4f80 	tst.w	r0, #1073741824	; 0x40000000
  40137c:	d005      	beq.n	40138a <sd_mmc_check+0x126>
  40137e:	4b57      	ldr	r3, [pc, #348]	; (4014dc <sd_mmc_check+0x278>)
  401380:	681a      	ldr	r2, [r3, #0]
  401382:	7bd3      	ldrb	r3, [r2, #15]
  401384:	f043 0308 	orr.w	r3, r3, #8
  401388:	73d3      	strb	r3, [r2, #15]
  40138a:	2100      	movs	r1, #0
  40138c:	f241 103b 	movw	r0, #4411	; 0x113b
  401390:	4b54      	ldr	r3, [pc, #336]	; (4014e4 <sd_mmc_check+0x280>)
  401392:	4798      	blx	r3
  401394:	2800      	cmp	r0, #0
  401396:	d082      	beq.n	40129e <sd_mmc_check+0x3a>
  401398:	4b50      	ldr	r3, [pc, #320]	; (4014dc <sd_mmc_check+0x278>)
  40139a:	681b      	ldr	r3, [r3, #0]
  40139c:	7bdb      	ldrb	r3, [r3, #15]
  40139e:	f013 0f01 	tst.w	r3, #1
  4013a2:	f000 8190 	beq.w	4016c6 <sd_mmc_check+0x462>
  4013a6:	4b53      	ldr	r3, [pc, #332]	; (4014f4 <sd_mmc_check+0x290>)
  4013a8:	4798      	blx	r3
  4013aa:	2800      	cmp	r0, #0
  4013ac:	f43f af77 	beq.w	40129e <sd_mmc_check+0x3a>
  4013b0:	4b4a      	ldr	r3, [pc, #296]	; (4014dc <sd_mmc_check+0x278>)
  4013b2:	681b      	ldr	r3, [r3, #0]
  4013b4:	7d5a      	ldrb	r2, [r3, #21]
  4013b6:	f002 0007 	and.w	r0, r2, #7
  4013ba:	494f      	ldr	r1, [pc, #316]	; (4014f8 <sd_mmc_check+0x294>)
  4013bc:	f851 0020 	ldr.w	r0, [r1, r0, lsl #2]
  4013c0:	f44f 717a 	mov.w	r1, #1000	; 0x3e8
  4013c4:	fb01 f100 	mul.w	r1, r1, r0
  4013c8:	f3c2 02c3 	ubfx	r2, r2, #3, #4
  4013cc:	484b      	ldr	r0, [pc, #300]	; (4014fc <sd_mmc_check+0x298>)
  4013ce:	f850 2022 	ldr.w	r2, [r0, r2, lsl #2]
  4013d2:	fb02 f201 	mul.w	r2, r2, r1
  4013d6:	601a      	str	r2, [r3, #0]
  4013d8:	7c9a      	ldrb	r2, [r3, #18]
  4013da:	0992      	lsrs	r2, r2, #6
  4013dc:	f040 812a 	bne.w	401634 <sd_mmc_check+0x3d0>
  4013e0:	7e99      	ldrb	r1, [r3, #26]
  4013e2:	7e58      	ldrb	r0, [r3, #25]
  4013e4:	7e1a      	ldrb	r2, [r3, #24]
  4013e6:	0292      	lsls	r2, r2, #10
  4013e8:	ea42 0280 	orr.w	r2, r2, r0, lsl #2
  4013ec:	ea42 12a1 	orr.w	r2, r2, r1, asr #6
  4013f0:	7f18      	ldrb	r0, [r3, #28]
  4013f2:	7ed9      	ldrb	r1, [r3, #27]
  4013f4:	0049      	lsls	r1, r1, #1
  4013f6:	ea41 11e0 	orr.w	r1, r1, r0, asr #7
  4013fa:	f3c2 020b 	ubfx	r2, r2, #0, #12
  4013fe:	3201      	adds	r2, #1
  401400:	f001 0107 	and.w	r1, r1, #7
  401404:	3102      	adds	r1, #2
  401406:	408a      	lsls	r2, r1
  401408:	7dd9      	ldrb	r1, [r3, #23]
  40140a:	f001 010f 	and.w	r1, r1, #15
  40140e:	408a      	lsls	r2, r1
  401410:	0a92      	lsrs	r2, r2, #10
  401412:	605a      	str	r2, [r3, #4]
  401414:	8999      	ldrh	r1, [r3, #12]
  401416:	0409      	lsls	r1, r1, #16
  401418:	f241 1037 	movw	r0, #4407	; 0x1137
  40141c:	4b31      	ldr	r3, [pc, #196]	; (4014e4 <sd_mmc_check+0x280>)
  40141e:	4798      	blx	r3
  401420:	2800      	cmp	r0, #0
  401422:	f43f af3c 	beq.w	40129e <sd_mmc_check+0x3a>
  401426:	2301      	movs	r3, #1
  401428:	9300      	str	r3, [sp, #0]
  40142a:	2208      	movs	r2, #8
  40142c:	2100      	movs	r1, #0
  40142e:	4834      	ldr	r0, [pc, #208]	; (401500 <sd_mmc_check+0x29c>)
  401430:	4d34      	ldr	r5, [pc, #208]	; (401504 <sd_mmc_check+0x2a0>)
  401432:	47a8      	blx	r5
  401434:	2800      	cmp	r0, #0
  401436:	f43f af32 	beq.w	40129e <sd_mmc_check+0x3a>
  40143a:	2101      	movs	r1, #1
  40143c:	a804      	add	r0, sp, #16
  40143e:	4b32      	ldr	r3, [pc, #200]	; (401508 <sd_mmc_check+0x2a4>)
  401440:	4798      	blx	r3
  401442:	2800      	cmp	r0, #0
  401444:	f43f af2b 	beq.w	40129e <sd_mmc_check+0x3a>
  401448:	4b30      	ldr	r3, [pc, #192]	; (40150c <sd_mmc_check+0x2a8>)
  40144a:	4798      	blx	r3
  40144c:	2800      	cmp	r0, #0
  40144e:	f43f af26 	beq.w	40129e <sd_mmc_check+0x3a>
  401452:	f89d 3010 	ldrb.w	r3, [sp, #16]
  401456:	f003 030f 	and.w	r3, r3, #15
  40145a:	2b01      	cmp	r3, #1
  40145c:	f000 8104 	beq.w	401668 <sd_mmc_check+0x404>
  401460:	2b00      	cmp	r3, #0
  401462:	f000 80f4 	beq.w	40164e <sd_mmc_check+0x3ea>
  401466:	2b02      	cmp	r3, #2
  401468:	f000 8103 	beq.w	401672 <sd_mmc_check+0x40e>
  40146c:	4b1b      	ldr	r3, [pc, #108]	; (4014dc <sd_mmc_check+0x278>)
  40146e:	681b      	ldr	r3, [r3, #0]
  401470:	2210      	movs	r2, #16
  401472:	741a      	strb	r2, [r3, #16]
  401474:	e0ef      	b.n	401656 <sd_mmc_check+0x3f2>
  401476:	2100      	movs	r1, #0
  401478:	f240 503a 	movw	r0, #1338	; 0x53a
  40147c:	4b19      	ldr	r3, [pc, #100]	; (4014e4 <sd_mmc_check+0x280>)
  40147e:	4798      	blx	r3
  401480:	2800      	cmp	r0, #0
  401482:	f43f af0c 	beq.w	40129e <sd_mmc_check+0x3a>
  401486:	4b1a      	ldr	r3, [pc, #104]	; (4014f0 <sd_mmc_check+0x28c>)
  401488:	4798      	blx	r3
  40148a:	f000 40c0 	and.w	r0, r0, #1610612736	; 0x60000000
  40148e:	f1b0 4f80 	cmp.w	r0, #1073741824	; 0x40000000
  401492:	d105      	bne.n	4014a0 <sd_mmc_check+0x23c>
  401494:	4b11      	ldr	r3, [pc, #68]	; (4014dc <sd_mmc_check+0x278>)
  401496:	681a      	ldr	r2, [r3, #0]
  401498:	7bd3      	ldrb	r3, [r2, #15]
  40149a:	f043 0308 	orr.w	r3, r3, #8
  40149e:	73d3      	strb	r3, [r2, #15]
  4014a0:	2100      	movs	r1, #0
  4014a2:	f241 103b 	movw	r0, #4411	; 0x113b
  4014a6:	4b0f      	ldr	r3, [pc, #60]	; (4014e4 <sd_mmc_check+0x280>)
  4014a8:	4798      	blx	r3
  4014aa:	2800      	cmp	r0, #0
  4014ac:	f43f aef7 	beq.w	40129e <sd_mmc_check+0x3a>
  4014b0:	4b10      	ldr	r3, [pc, #64]	; (4014f4 <sd_mmc_check+0x290>)
  4014b2:	4798      	blx	r3
  4014b4:	2800      	cmp	r0, #0
  4014b6:	f43f aef2 	beq.w	40129e <sd_mmc_check+0x3a>
  4014ba:	4b08      	ldr	r3, [pc, #32]	; (4014dc <sd_mmc_check+0x278>)
  4014bc:	681a      	ldr	r2, [r3, #0]
  4014be:	7c93      	ldrb	r3, [r2, #18]
  4014c0:	f3c3 0383 	ubfx	r3, r3, #2, #4
  4014c4:	3b01      	subs	r3, #1
  4014c6:	2b03      	cmp	r3, #3
  4014c8:	d822      	bhi.n	401510 <sd_mmc_check+0x2ac>
  4014ca:	e8df f003 	tbb	[pc, r3]
  4014ce:	908d      	.short	0x908d
  4014d0:	9693      	.short	0x9693
  4014d2:	bf00      	nop
  4014d4:	00401099 	.word	0x00401099
  4014d8:	0040121d 	.word	0x0040121d
  4014dc:	20001058 	.word	0x20001058
  4014e0:	00401ce1 	.word	0x00401ce1
  4014e4:	00401ea1 	.word	0x00401ea1
  4014e8:	00401195 	.word	0x00401195
  4014ec:	0040106d 	.word	0x0040106d
  4014f0:	00401eb9 	.word	0x00401eb9
  4014f4:	004011cd 	.word	0x004011cd
  4014f8:	00409e28 	.word	0x00409e28
  4014fc:	00409e44 	.word	0x00409e44
  401500:	00081133 	.word	0x00081133
  401504:	00401d19 	.word	0x00401d19
  401508:	00401f39 	.word	0x00401f39
  40150c:	00401fb5 	.word	0x00401fb5
  401510:	2312      	movs	r3, #18
  401512:	7413      	strb	r3, [r2, #16]
  401514:	7d53      	ldrb	r3, [r2, #21]
  401516:	f3c3 00c3 	ubfx	r0, r3, #3, #4
  40151a:	f003 0307 	and.w	r3, r3, #7
  40151e:	496d      	ldr	r1, [pc, #436]	; (4016d4 <sd_mmc_check+0x470>)
  401520:	f851 1023 	ldr.w	r1, [r1, r3, lsl #2]
  401524:	f44f 737a 	mov.w	r3, #1000	; 0x3e8
  401528:	fb03 f301 	mul.w	r3, r3, r1
  40152c:	496a      	ldr	r1, [pc, #424]	; (4016d8 <sd_mmc_check+0x474>)
  40152e:	f851 1020 	ldr.w	r1, [r1, r0, lsl #2]
  401532:	fb03 f301 	mul.w	r3, r3, r1
  401536:	6013      	str	r3, [r2, #0]
  401538:	7e91      	ldrb	r1, [r2, #26]
  40153a:	7e50      	ldrb	r0, [r2, #25]
  40153c:	7e13      	ldrb	r3, [r2, #24]
  40153e:	029b      	lsls	r3, r3, #10
  401540:	ea43 0380 	orr.w	r3, r3, r0, lsl #2
  401544:	ea43 13a1 	orr.w	r3, r3, r1, asr #6
  401548:	f3c3 030b 	ubfx	r3, r3, #0, #12
  40154c:	f640 71ff 	movw	r1, #4095	; 0xfff
  401550:	428b      	cmp	r3, r1
  401552:	d00f      	beq.n	401574 <sd_mmc_check+0x310>
  401554:	7f10      	ldrb	r0, [r2, #28]
  401556:	7ed1      	ldrb	r1, [r2, #27]
  401558:	0049      	lsls	r1, r1, #1
  40155a:	ea41 11e0 	orr.w	r1, r1, r0, asr #7
  40155e:	3301      	adds	r3, #1
  401560:	f001 0107 	and.w	r1, r1, #7
  401564:	3102      	adds	r1, #2
  401566:	408b      	lsls	r3, r1
  401568:	7dd1      	ldrb	r1, [r2, #23]
  40156a:	f001 010f 	and.w	r1, r1, #15
  40156e:	408b      	lsls	r3, r1
  401570:	0a9b      	lsrs	r3, r3, #10
  401572:	6053      	str	r3, [r2, #4]
  401574:	7c13      	ldrb	r3, [r2, #16]
  401576:	2b3f      	cmp	r3, #63	; 0x3f
  401578:	d94b      	bls.n	401612 <sd_mmc_check+0x3ae>
  40157a:	2100      	movs	r1, #0
  40157c:	9100      	str	r1, [sp, #0]
  40157e:	2301      	movs	r3, #1
  401580:	f44f 7200 	mov.w	r2, #512	; 0x200
  401584:	4855      	ldr	r0, [pc, #340]	; (4016dc <sd_mmc_check+0x478>)
  401586:	4d56      	ldr	r5, [pc, #344]	; (4016e0 <sd_mmc_check+0x47c>)
  401588:	47a8      	blx	r5
  40158a:	2800      	cmp	r0, #0
  40158c:	f43f ae87 	beq.w	40129e <sd_mmc_check+0x3a>
  401590:	2500      	movs	r5, #0
  401592:	4e54      	ldr	r6, [pc, #336]	; (4016e4 <sd_mmc_check+0x480>)
  401594:	a803      	add	r0, sp, #12
  401596:	47b0      	blx	r6
  401598:	2800      	cmp	r0, #0
  40159a:	f43f ae80 	beq.w	40129e <sd_mmc_check+0x3a>
  40159e:	3501      	adds	r5, #1
  4015a0:	b2ad      	uxth	r5, r5
  4015a2:	2d32      	cmp	r5, #50	; 0x32
  4015a4:	d1f6      	bne.n	401594 <sd_mmc_check+0x330>
  4015a6:	4b50      	ldr	r3, [pc, #320]	; (4016e8 <sd_mmc_check+0x484>)
  4015a8:	681b      	ldr	r3, [r3, #0]
  4015aa:	7e9a      	ldrb	r2, [r3, #26]
  4015ac:	7e59      	ldrb	r1, [r3, #25]
  4015ae:	7e1b      	ldrb	r3, [r3, #24]
  4015b0:	029b      	lsls	r3, r3, #10
  4015b2:	ea43 0381 	orr.w	r3, r3, r1, lsl #2
  4015b6:	ea43 13a2 	orr.w	r3, r3, r2, asr #6
  4015ba:	f3c3 030b 	ubfx	r3, r3, #0, #12
  4015be:	f640 72ff 	movw	r2, #4095	; 0xfff
  4015c2:	4293      	cmp	r3, r2
  4015c4:	d10e      	bne.n	4015e4 <sd_mmc_check+0x380>
  4015c6:	4e47      	ldr	r6, [pc, #284]	; (4016e4 <sd_mmc_check+0x480>)
  4015c8:	a804      	add	r0, sp, #16
  4015ca:	47b0      	blx	r6
  4015cc:	2800      	cmp	r0, #0
  4015ce:	f43f ae66 	beq.w	40129e <sd_mmc_check+0x3a>
  4015d2:	3501      	adds	r5, #1
  4015d4:	b2ad      	uxth	r5, r5
  4015d6:	2d35      	cmp	r5, #53	; 0x35
  4015d8:	d9f6      	bls.n	4015c8 <sd_mmc_check+0x364>
  4015da:	4b43      	ldr	r3, [pc, #268]	; (4016e8 <sd_mmc_check+0x484>)
  4015dc:	681a      	ldr	r2, [r3, #0]
  4015de:	9b04      	ldr	r3, [sp, #16]
  4015e0:	085b      	lsrs	r3, r3, #1
  4015e2:	6053      	str	r3, [r2, #4]
  4015e4:	4e3f      	ldr	r6, [pc, #252]	; (4016e4 <sd_mmc_check+0x480>)
  4015e6:	e012      	b.n	40160e <sd_mmc_check+0x3aa>
  4015e8:	2314      	movs	r3, #20
  4015ea:	7413      	strb	r3, [r2, #16]
  4015ec:	e792      	b.n	401514 <sd_mmc_check+0x2b0>
  4015ee:	2322      	movs	r3, #34	; 0x22
  4015f0:	7413      	strb	r3, [r2, #16]
  4015f2:	e78f      	b.n	401514 <sd_mmc_check+0x2b0>
  4015f4:	2330      	movs	r3, #48	; 0x30
  4015f6:	7413      	strb	r3, [r2, #16]
  4015f8:	e78c      	b.n	401514 <sd_mmc_check+0x2b0>
  4015fa:	2340      	movs	r3, #64	; 0x40
  4015fc:	7413      	strb	r3, [r2, #16]
  4015fe:	e789      	b.n	401514 <sd_mmc_check+0x2b0>
  401600:	a804      	add	r0, sp, #16
  401602:	47b0      	blx	r6
  401604:	2800      	cmp	r0, #0
  401606:	f43f ae4a 	beq.w	40129e <sd_mmc_check+0x3a>
  40160a:	3501      	adds	r5, #1
  40160c:	b2ad      	uxth	r5, r5
  40160e:	2d7f      	cmp	r5, #127	; 0x7f
  401610:	d9f6      	bls.n	401600 <sd_mmc_check+0x39c>
  401612:	f44f 7100 	mov.w	r1, #512	; 0x200
  401616:	f241 1010 	movw	r0, #4368	; 0x1110
  40161a:	4b34      	ldr	r3, [pc, #208]	; (4016ec <sd_mmc_check+0x488>)
  40161c:	4798      	blx	r3
  40161e:	2800      	cmp	r0, #0
  401620:	f43f ae3d 	beq.w	40129e <sd_mmc_check+0x3a>
  401624:	4b32      	ldr	r3, [pc, #200]	; (4016f0 <sd_mmc_check+0x48c>)
  401626:	4798      	blx	r3
  401628:	2800      	cmp	r0, #0
  40162a:	f43f ae38 	beq.w	40129e <sd_mmc_check+0x3a>
  40162e:	4b31      	ldr	r3, [pc, #196]	; (4016f4 <sd_mmc_check+0x490>)
  401630:	4798      	blx	r3
  401632:	e666      	b.n	401302 <sd_mmc_check+0x9e>
  401634:	7ed9      	ldrb	r1, [r3, #27]
  401636:	7e98      	ldrb	r0, [r3, #26]
  401638:	7e5a      	ldrb	r2, [r3, #25]
  40163a:	0412      	lsls	r2, r2, #16
  40163c:	ea42 2200 	orr.w	r2, r2, r0, lsl #8
  401640:	430a      	orrs	r2, r1
  401642:	f3c2 0215 	ubfx	r2, r2, #0, #22
  401646:	3201      	adds	r2, #1
  401648:	0252      	lsls	r2, r2, #9
  40164a:	605a      	str	r2, [r3, #4]
  40164c:	e6e2      	b.n	401414 <sd_mmc_check+0x1b0>
  40164e:	4b26      	ldr	r3, [pc, #152]	; (4016e8 <sd_mmc_check+0x484>)
  401650:	681b      	ldr	r3, [r3, #0]
  401652:	2210      	movs	r2, #16
  401654:	741a      	strb	r2, [r3, #16]
  401656:	4b24      	ldr	r3, [pc, #144]	; (4016e8 <sd_mmc_check+0x484>)
  401658:	681b      	ldr	r3, [r3, #0]
  40165a:	7bdb      	ldrb	r3, [r3, #15]
  40165c:	f003 0309 	and.w	r3, r3, #9
  401660:	2b01      	cmp	r3, #1
  401662:	f47f ae42 	bne.w	4012ea <sd_mmc_check+0x86>
  401666:	e638      	b.n	4012da <sd_mmc_check+0x76>
  401668:	4b1f      	ldr	r3, [pc, #124]	; (4016e8 <sd_mmc_check+0x484>)
  40166a:	681b      	ldr	r3, [r3, #0]
  40166c:	221a      	movs	r2, #26
  40166e:	741a      	strb	r2, [r3, #16]
  401670:	e7f1      	b.n	401656 <sd_mmc_check+0x3f2>
  401672:	f89d 3012 	ldrb.w	r3, [sp, #18]
  401676:	09db      	lsrs	r3, r3, #7
  401678:	4b1b      	ldr	r3, [pc, #108]	; (4016e8 <sd_mmc_check+0x484>)
  40167a:	681b      	ldr	r3, [r3, #0]
  40167c:	bf14      	ite	ne
  40167e:	2230      	movne	r2, #48	; 0x30
  401680:	2220      	moveq	r2, #32
  401682:	741a      	strb	r2, [r3, #16]
  401684:	e7e7      	b.n	401656 <sd_mmc_check+0x3f2>
  401686:	2700      	movs	r7, #0
  401688:	e619      	b.n	4012be <sd_mmc_check+0x5a>
  40168a:	07bf      	lsls	r7, r7, #30
  40168c:	f641 35ef 	movw	r5, #7151	; 0x1bef
  401690:	f04f 0800 	mov.w	r8, #0
  401694:	4e15      	ldr	r6, [pc, #84]	; (4016ec <sd_mmc_check+0x488>)
  401696:	f8df 9060 	ldr.w	r9, [pc, #96]	; 4016f8 <sd_mmc_check+0x494>
  40169a:	4641      	mov	r1, r8
  40169c:	f241 1037 	movw	r0, #4407	; 0x1137
  4016a0:	47b0      	blx	r6
  4016a2:	2800      	cmp	r0, #0
  4016a4:	f43f ae47 	beq.w	401336 <sd_mmc_check+0xd2>
  4016a8:	4639      	mov	r1, r7
  4016aa:	f241 1029 	movw	r0, #4393	; 0x1129
  4016ae:	47b0      	blx	r6
  4016b0:	2800      	cmp	r0, #0
  4016b2:	f43f ae40 	beq.w	401336 <sd_mmc_check+0xd2>
  4016b6:	47c8      	blx	r9
  4016b8:	f010 0f01 	tst.w	r0, #1
  4016bc:	f43f ae35 	beq.w	40132a <sd_mmc_check+0xc6>
  4016c0:	3d01      	subs	r5, #1
  4016c2:	d1ea      	bne.n	40169a <sd_mmc_check+0x436>
  4016c4:	e637      	b.n	401336 <sd_mmc_check+0xd2>
  4016c6:	f003 0309 	and.w	r3, r3, #9
  4016ca:	2b01      	cmp	r3, #1
  4016cc:	f47f ae17 	bne.w	4012fe <sd_mmc_check+0x9a>
  4016d0:	e603      	b.n	4012da <sd_mmc_check+0x76>
  4016d2:	bf00      	nop
  4016d4:	00409e28 	.word	0x00409e28
  4016d8:	00409de8 	.word	0x00409de8
  4016dc:	00081108 	.word	0x00081108
  4016e0:	00401d19 	.word	0x00401d19
  4016e4:	00401ec5 	.word	0x00401ec5
  4016e8:	20001058 	.word	0x20001058
  4016ec:	00401ea1 	.word	0x00401ea1
  4016f0:	00401195 	.word	0x00401195
  4016f4:	0040106d 	.word	0x0040106d
  4016f8:	00401eb9 	.word	0x00401eb9

004016fc <sd_mmc_get_type>:
  4016fc:	b508      	push	{r3, lr}
  4016fe:	4b05      	ldr	r3, [pc, #20]	; (401714 <sd_mmc_get_type+0x18>)
  401700:	4798      	blx	r3
  401702:	b108      	cbz	r0, 401708 <sd_mmc_get_type+0xc>
  401704:	2000      	movs	r0, #0
  401706:	bd08      	pop	{r3, pc}
  401708:	4b03      	ldr	r3, [pc, #12]	; (401718 <sd_mmc_get_type+0x1c>)
  40170a:	4798      	blx	r3
  40170c:	4b03      	ldr	r3, [pc, #12]	; (40171c <sd_mmc_get_type+0x20>)
  40170e:	681b      	ldr	r3, [r3, #0]
  401710:	7bd8      	ldrb	r0, [r3, #15]
  401712:	bd08      	pop	{r3, pc}
  401714:	00401099 	.word	0x00401099
  401718:	0040121d 	.word	0x0040121d
  40171c:	20001058 	.word	0x20001058

00401720 <sd_mmc_get_capacity>:
  401720:	b508      	push	{r3, lr}
  401722:	4b05      	ldr	r3, [pc, #20]	; (401738 <sd_mmc_get_capacity+0x18>)
  401724:	4798      	blx	r3
  401726:	b108      	cbz	r0, 40172c <sd_mmc_get_capacity+0xc>
  401728:	2000      	movs	r0, #0
  40172a:	bd08      	pop	{r3, pc}
  40172c:	4b03      	ldr	r3, [pc, #12]	; (40173c <sd_mmc_get_capacity+0x1c>)
  40172e:	4798      	blx	r3
  401730:	4b03      	ldr	r3, [pc, #12]	; (401740 <sd_mmc_get_capacity+0x20>)
  401732:	681b      	ldr	r3, [r3, #0]
  401734:	6858      	ldr	r0, [r3, #4]
  401736:	bd08      	pop	{r3, pc}
  401738:	00401099 	.word	0x00401099
  40173c:	0040121d 	.word	0x0040121d
  401740:	20001058 	.word	0x20001058

00401744 <sd_mmc_is_write_protected>:
  401744:	2000      	movs	r0, #0
  401746:	4770      	bx	lr

00401748 <sd_mmc_init_read_blocks>:
  401748:	b570      	push	{r4, r5, r6, lr}
  40174a:	b082      	sub	sp, #8
  40174c:	460e      	mov	r6, r1
  40174e:	4615      	mov	r5, r2
  401750:	4b15      	ldr	r3, [pc, #84]	; (4017a8 <sd_mmc_init_read_blocks+0x60>)
  401752:	4798      	blx	r3
  401754:	4604      	mov	r4, r0
  401756:	b110      	cbz	r0, 40175e <sd_mmc_init_read_blocks+0x16>
  401758:	4620      	mov	r0, r4
  40175a:	b002      	add	sp, #8
  40175c:	bd70      	pop	{r4, r5, r6, pc}
  40175e:	4b13      	ldr	r3, [pc, #76]	; (4017ac <sd_mmc_init_read_blocks+0x64>)
  401760:	4798      	blx	r3
  401762:	b1c8      	cbz	r0, 401798 <sd_mmc_init_read_blocks+0x50>
  401764:	4b12      	ldr	r3, [pc, #72]	; (4017b0 <sd_mmc_init_read_blocks+0x68>)
  401766:	4813      	ldr	r0, [pc, #76]	; (4017b4 <sd_mmc_init_read_blocks+0x6c>)
  401768:	2d01      	cmp	r5, #1
  40176a:	bf98      	it	ls
  40176c:	4618      	movls	r0, r3
  40176e:	4b12      	ldr	r3, [pc, #72]	; (4017b8 <sd_mmc_init_read_blocks+0x70>)
  401770:	681b      	ldr	r3, [r3, #0]
  401772:	7bdb      	ldrb	r3, [r3, #15]
  401774:	f013 0f08 	tst.w	r3, #8
  401778:	bf08      	it	eq
  40177a:	0276      	lsleq	r6, r6, #9
  40177c:	2301      	movs	r3, #1
  40177e:	9300      	str	r3, [sp, #0]
  401780:	462b      	mov	r3, r5
  401782:	f44f 7200 	mov.w	r2, #512	; 0x200
  401786:	4631      	mov	r1, r6
  401788:	4e0c      	ldr	r6, [pc, #48]	; (4017bc <sd_mmc_init_read_blocks+0x74>)
  40178a:	47b0      	blx	r6
  40178c:	b140      	cbz	r0, 4017a0 <sd_mmc_init_read_blocks+0x58>
  40178e:	4b0c      	ldr	r3, [pc, #48]	; (4017c0 <sd_mmc_init_read_blocks+0x78>)
  401790:	801d      	strh	r5, [r3, #0]
  401792:	4b0c      	ldr	r3, [pc, #48]	; (4017c4 <sd_mmc_init_read_blocks+0x7c>)
  401794:	801d      	strh	r5, [r3, #0]
  401796:	e7df      	b.n	401758 <sd_mmc_init_read_blocks+0x10>
  401798:	4b0b      	ldr	r3, [pc, #44]	; (4017c8 <sd_mmc_init_read_blocks+0x80>)
  40179a:	4798      	blx	r3
  40179c:	2405      	movs	r4, #5
  40179e:	e7db      	b.n	401758 <sd_mmc_init_read_blocks+0x10>
  4017a0:	4b09      	ldr	r3, [pc, #36]	; (4017c8 <sd_mmc_init_read_blocks+0x80>)
  4017a2:	4798      	blx	r3
  4017a4:	2405      	movs	r4, #5
  4017a6:	e7d7      	b.n	401758 <sd_mmc_init_read_blocks+0x10>
  4017a8:	00401099 	.word	0x00401099
  4017ac:	00401195 	.word	0x00401195
  4017b0:	00081111 	.word	0x00081111
  4017b4:	00101112 	.word	0x00101112
  4017b8:	20001058 	.word	0x20001058
  4017bc:	00401d19 	.word	0x00401d19
  4017c0:	2000105c 	.word	0x2000105c
  4017c4:	2000105e 	.word	0x2000105e
  4017c8:	0040121d 	.word	0x0040121d

004017cc <sd_mmc_start_read_blocks>:
  4017cc:	b510      	push	{r4, lr}
  4017ce:	460c      	mov	r4, r1
  4017d0:	4b06      	ldr	r3, [pc, #24]	; (4017ec <sd_mmc_start_read_blocks+0x20>)
  4017d2:	4798      	blx	r3
  4017d4:	b920      	cbnz	r0, 4017e0 <sd_mmc_start_read_blocks+0x14>
  4017d6:	2200      	movs	r2, #0
  4017d8:	4b05      	ldr	r3, [pc, #20]	; (4017f0 <sd_mmc_start_read_blocks+0x24>)
  4017da:	801a      	strh	r2, [r3, #0]
  4017dc:	2005      	movs	r0, #5
  4017de:	bd10      	pop	{r4, pc}
  4017e0:	4a03      	ldr	r2, [pc, #12]	; (4017f0 <sd_mmc_start_read_blocks+0x24>)
  4017e2:	8813      	ldrh	r3, [r2, #0]
  4017e4:	1b1c      	subs	r4, r3, r4
  4017e6:	8014      	strh	r4, [r2, #0]
  4017e8:	2000      	movs	r0, #0
  4017ea:	bd10      	pop	{r4, pc}
  4017ec:	00401f39 	.word	0x00401f39
  4017f0:	2000105c 	.word	0x2000105c

004017f4 <sd_mmc_wait_end_of_read_blocks>:
  4017f4:	b510      	push	{r4, lr}
  4017f6:	4604      	mov	r4, r0
  4017f8:	4b13      	ldr	r3, [pc, #76]	; (401848 <sd_mmc_wait_end_of_read_blocks+0x54>)
  4017fa:	4798      	blx	r3
  4017fc:	b908      	cbnz	r0, 401802 <sd_mmc_wait_end_of_read_blocks+0xe>
  4017fe:	2005      	movs	r0, #5
  401800:	bd10      	pop	{r4, pc}
  401802:	b184      	cbz	r4, 401826 <sd_mmc_wait_end_of_read_blocks+0x32>
  401804:	2200      	movs	r2, #0
  401806:	4b11      	ldr	r3, [pc, #68]	; (40184c <sd_mmc_wait_end_of_read_blocks+0x58>)
  401808:	801a      	strh	r2, [r3, #0]
  40180a:	4b11      	ldr	r3, [pc, #68]	; (401850 <sd_mmc_wait_end_of_read_blocks+0x5c>)
  40180c:	881b      	ldrh	r3, [r3, #0]
  40180e:	2b01      	cmp	r3, #1
  401810:	d00f      	beq.n	401832 <sd_mmc_wait_end_of_read_blocks+0x3e>
  401812:	2100      	movs	r1, #0
  401814:	f243 100c 	movw	r0, #12556	; 0x310c
  401818:	4b0e      	ldr	r3, [pc, #56]	; (401854 <sd_mmc_wait_end_of_read_blocks+0x60>)
  40181a:	4798      	blx	r3
  40181c:	b168      	cbz	r0, 40183a <sd_mmc_wait_end_of_read_blocks+0x46>
  40181e:	4b0e      	ldr	r3, [pc, #56]	; (401858 <sd_mmc_wait_end_of_read_blocks+0x64>)
  401820:	4798      	blx	r3
  401822:	2000      	movs	r0, #0
  401824:	bd10      	pop	{r4, pc}
  401826:	4b09      	ldr	r3, [pc, #36]	; (40184c <sd_mmc_wait_end_of_read_blocks+0x58>)
  401828:	881b      	ldrh	r3, [r3, #0]
  40182a:	2b00      	cmp	r3, #0
  40182c:	d0ed      	beq.n	40180a <sd_mmc_wait_end_of_read_blocks+0x16>
  40182e:	2000      	movs	r0, #0
  401830:	bd10      	pop	{r4, pc}
  401832:	4b09      	ldr	r3, [pc, #36]	; (401858 <sd_mmc_wait_end_of_read_blocks+0x64>)
  401834:	4798      	blx	r3
  401836:	2000      	movs	r0, #0
  401838:	bd10      	pop	{r4, pc}
  40183a:	2100      	movs	r1, #0
  40183c:	f243 100c 	movw	r0, #12556	; 0x310c
  401840:	4b04      	ldr	r3, [pc, #16]	; (401854 <sd_mmc_wait_end_of_read_blocks+0x60>)
  401842:	4798      	blx	r3
  401844:	e7eb      	b.n	40181e <sd_mmc_wait_end_of_read_blocks+0x2a>
  401846:	bf00      	nop
  401848:	00401fb5 	.word	0x00401fb5
  40184c:	2000105c 	.word	0x2000105c
  401850:	2000105e 	.word	0x2000105e
  401854:	00401ea1 	.word	0x00401ea1
  401858:	0040121d 	.word	0x0040121d

0040185c <sd_mmc_init_write_blocks>:
  40185c:	b570      	push	{r4, r5, r6, lr}
  40185e:	b082      	sub	sp, #8
  401860:	460e      	mov	r6, r1
  401862:	4615      	mov	r5, r2
  401864:	4b11      	ldr	r3, [pc, #68]	; (4018ac <sd_mmc_init_write_blocks+0x50>)
  401866:	4798      	blx	r3
  401868:	4604      	mov	r4, r0
  40186a:	b9c0      	cbnz	r0, 40189e <sd_mmc_init_write_blocks+0x42>
  40186c:	4b10      	ldr	r3, [pc, #64]	; (4018b0 <sd_mmc_init_write_blocks+0x54>)
  40186e:	4811      	ldr	r0, [pc, #68]	; (4018b4 <sd_mmc_init_write_blocks+0x58>)
  401870:	2d01      	cmp	r5, #1
  401872:	bf98      	it	ls
  401874:	4618      	movls	r0, r3
  401876:	4b10      	ldr	r3, [pc, #64]	; (4018b8 <sd_mmc_init_write_blocks+0x5c>)
  401878:	681b      	ldr	r3, [r3, #0]
  40187a:	7bdb      	ldrb	r3, [r3, #15]
  40187c:	f013 0f08 	tst.w	r3, #8
  401880:	bf08      	it	eq
  401882:	0276      	lsleq	r6, r6, #9
  401884:	2301      	movs	r3, #1
  401886:	9300      	str	r3, [sp, #0]
  401888:	462b      	mov	r3, r5
  40188a:	f44f 7200 	mov.w	r2, #512	; 0x200
  40188e:	4631      	mov	r1, r6
  401890:	4e0a      	ldr	r6, [pc, #40]	; (4018bc <sd_mmc_init_write_blocks+0x60>)
  401892:	47b0      	blx	r6
  401894:	b130      	cbz	r0, 4018a4 <sd_mmc_init_write_blocks+0x48>
  401896:	4b0a      	ldr	r3, [pc, #40]	; (4018c0 <sd_mmc_init_write_blocks+0x64>)
  401898:	801d      	strh	r5, [r3, #0]
  40189a:	4b0a      	ldr	r3, [pc, #40]	; (4018c4 <sd_mmc_init_write_blocks+0x68>)
  40189c:	801d      	strh	r5, [r3, #0]
  40189e:	4620      	mov	r0, r4
  4018a0:	b002      	add	sp, #8
  4018a2:	bd70      	pop	{r4, r5, r6, pc}
  4018a4:	4b08      	ldr	r3, [pc, #32]	; (4018c8 <sd_mmc_init_write_blocks+0x6c>)
  4018a6:	4798      	blx	r3
  4018a8:	2405      	movs	r4, #5
  4018aa:	e7f8      	b.n	40189e <sd_mmc_init_write_blocks+0x42>
  4018ac:	00401099 	.word	0x00401099
  4018b0:	00089118 	.word	0x00089118
  4018b4:	00109119 	.word	0x00109119
  4018b8:	20001058 	.word	0x20001058
  4018bc:	00401d19 	.word	0x00401d19
  4018c0:	2000105c 	.word	0x2000105c
  4018c4:	2000105e 	.word	0x2000105e
  4018c8:	0040121d 	.word	0x0040121d

004018cc <sd_mmc_start_write_blocks>:
  4018cc:	b510      	push	{r4, lr}
  4018ce:	460c      	mov	r4, r1
  4018d0:	4b06      	ldr	r3, [pc, #24]	; (4018ec <sd_mmc_start_write_blocks+0x20>)
  4018d2:	4798      	blx	r3
  4018d4:	b920      	cbnz	r0, 4018e0 <sd_mmc_start_write_blocks+0x14>
  4018d6:	2200      	movs	r2, #0
  4018d8:	4b05      	ldr	r3, [pc, #20]	; (4018f0 <sd_mmc_start_write_blocks+0x24>)
  4018da:	801a      	strh	r2, [r3, #0]
  4018dc:	2005      	movs	r0, #5
  4018de:	bd10      	pop	{r4, pc}
  4018e0:	4a03      	ldr	r2, [pc, #12]	; (4018f0 <sd_mmc_start_write_blocks+0x24>)
  4018e2:	8813      	ldrh	r3, [r2, #0]
  4018e4:	1b1c      	subs	r4, r3, r4
  4018e6:	8014      	strh	r4, [r2, #0]
  4018e8:	2000      	movs	r0, #0
  4018ea:	bd10      	pop	{r4, pc}
  4018ec:	00401fb9 	.word	0x00401fb9
  4018f0:	2000105c 	.word	0x2000105c

004018f4 <sd_mmc_wait_end_of_write_blocks>:
  4018f4:	b510      	push	{r4, lr}
  4018f6:	4604      	mov	r4, r0
  4018f8:	4b09      	ldr	r3, [pc, #36]	; (401920 <sd_mmc_wait_end_of_write_blocks+0x2c>)
  4018fa:	4798      	blx	r3
  4018fc:	b908      	cbnz	r0, 401902 <sd_mmc_wait_end_of_write_blocks+0xe>
  4018fe:	2005      	movs	r0, #5
  401900:	bd10      	pop	{r4, pc}
  401902:	b134      	cbz	r4, 401912 <sd_mmc_wait_end_of_write_blocks+0x1e>
  401904:	2200      	movs	r2, #0
  401906:	4b07      	ldr	r3, [pc, #28]	; (401924 <sd_mmc_wait_end_of_write_blocks+0x30>)
  401908:	801a      	strh	r2, [r3, #0]
  40190a:	4b07      	ldr	r3, [pc, #28]	; (401928 <sd_mmc_wait_end_of_write_blocks+0x34>)
  40190c:	4798      	blx	r3
  40190e:	2000      	movs	r0, #0
  401910:	bd10      	pop	{r4, pc}
  401912:	4b04      	ldr	r3, [pc, #16]	; (401924 <sd_mmc_wait_end_of_write_blocks+0x30>)
  401914:	881b      	ldrh	r3, [r3, #0]
  401916:	2b00      	cmp	r3, #0
  401918:	d0f7      	beq.n	40190a <sd_mmc_wait_end_of_write_blocks+0x16>
  40191a:	2000      	movs	r0, #0
  40191c:	bd10      	pop	{r4, pc}
  40191e:	bf00      	nop
  401920:	00402039 	.word	0x00402039
  401924:	2000105c 	.word	0x2000105c
  401928:	0040121d 	.word	0x0040121d

0040192c <sd_mmc_test_unit_ready>:
  40192c:	b510      	push	{r4, lr}
  40192e:	4604      	mov	r4, r0
  401930:	4b0f      	ldr	r3, [pc, #60]	; (401970 <sd_mmc_test_unit_ready+0x44>)
  401932:	4798      	blx	r3
  401934:	2801      	cmp	r0, #1
  401936:	d018      	beq.n	40196a <sd_mmc_test_unit_ready+0x3e>
  401938:	b118      	cbz	r0, 401942 <sd_mmc_test_unit_ready+0x16>
  40193a:	2802      	cmp	r0, #2
  40193c:	d010      	beq.n	401960 <sd_mmc_test_unit_ready+0x34>
  40193e:	2001      	movs	r0, #1
  401940:	bd10      	pop	{r4, pc}
  401942:	4b0c      	ldr	r3, [pc, #48]	; (401974 <sd_mmc_test_unit_ready+0x48>)
  401944:	5d1b      	ldrb	r3, [r3, r4]
  401946:	b10b      	cbz	r3, 40194c <sd_mmc_test_unit_ready+0x20>
  401948:	2002      	movs	r0, #2
  40194a:	bd10      	pop	{r4, pc}
  40194c:	4620      	mov	r0, r4
  40194e:	4b0a      	ldr	r3, [pc, #40]	; (401978 <sd_mmc_test_unit_ready+0x4c>)
  401950:	4798      	blx	r3
  401952:	f000 0003 	and.w	r0, r0, #3
  401956:	2800      	cmp	r0, #0
  401958:	bf14      	ite	ne
  40195a:	2000      	movne	r0, #0
  40195c:	2002      	moveq	r0, #2
  40195e:	bd10      	pop	{r4, pc}
  401960:	2200      	movs	r2, #0
  401962:	4b04      	ldr	r3, [pc, #16]	; (401974 <sd_mmc_test_unit_ready+0x48>)
  401964:	551a      	strb	r2, [r3, r4]
  401966:	2002      	movs	r0, #2
  401968:	bd10      	pop	{r4, pc}
  40196a:	2003      	movs	r0, #3
  40196c:	bd10      	pop	{r4, pc}
  40196e:	bf00      	nop
  401970:	00401265 	.word	0x00401265
  401974:	20001064 	.word	0x20001064
  401978:	004016fd 	.word	0x004016fd

0040197c <sd_mmc_test_unit_ready_0>:
  40197c:	b508      	push	{r3, lr}
  40197e:	2000      	movs	r0, #0
  401980:	4b01      	ldr	r3, [pc, #4]	; (401988 <sd_mmc_test_unit_ready_0+0xc>)
  401982:	4798      	blx	r3
  401984:	bd08      	pop	{r3, pc}
  401986:	bf00      	nop
  401988:	0040192d 	.word	0x0040192d

0040198c <sd_mmc_read_capacity>:
  40198c:	b538      	push	{r3, r4, r5, lr}
  40198e:	4604      	mov	r4, r0
  401990:	460d      	mov	r5, r1
  401992:	4b04      	ldr	r3, [pc, #16]	; (4019a4 <sd_mmc_read_capacity+0x18>)
  401994:	4798      	blx	r3
  401996:	0040      	lsls	r0, r0, #1
  401998:	3801      	subs	r0, #1
  40199a:	6028      	str	r0, [r5, #0]
  40199c:	4620      	mov	r0, r4
  40199e:	4b02      	ldr	r3, [pc, #8]	; (4019a8 <sd_mmc_read_capacity+0x1c>)
  4019a0:	4798      	blx	r3
  4019a2:	bd38      	pop	{r3, r4, r5, pc}
  4019a4:	00401721 	.word	0x00401721
  4019a8:	0040192d 	.word	0x0040192d

004019ac <sd_mmc_read_capacity_0>:
  4019ac:	b508      	push	{r3, lr}
  4019ae:	4601      	mov	r1, r0
  4019b0:	2000      	movs	r0, #0
  4019b2:	4b01      	ldr	r3, [pc, #4]	; (4019b8 <sd_mmc_read_capacity_0+0xc>)
  4019b4:	4798      	blx	r3
  4019b6:	bd08      	pop	{r3, pc}
  4019b8:	0040198d 	.word	0x0040198d

004019bc <sd_mmc_wr_protect_0>:
  4019bc:	b508      	push	{r3, lr}
  4019be:	2000      	movs	r0, #0
  4019c0:	4b01      	ldr	r3, [pc, #4]	; (4019c8 <sd_mmc_wr_protect_0+0xc>)
  4019c2:	4798      	blx	r3
  4019c4:	bd08      	pop	{r3, pc}
  4019c6:	bf00      	nop
  4019c8:	00401745 	.word	0x00401745

004019cc <sd_mmc_mem_2_ram>:
  4019cc:	b510      	push	{r4, lr}
  4019ce:	4614      	mov	r4, r2
  4019d0:	2201      	movs	r2, #1
  4019d2:	4b0a      	ldr	r3, [pc, #40]	; (4019fc <sd_mmc_mem_2_ram+0x30>)
  4019d4:	4798      	blx	r3
  4019d6:	b120      	cbz	r0, 4019e2 <sd_mmc_mem_2_ram+0x16>
  4019d8:	2802      	cmp	r0, #2
  4019da:	bf0c      	ite	eq
  4019dc:	2002      	moveq	r0, #2
  4019de:	2001      	movne	r0, #1
  4019e0:	bd10      	pop	{r4, pc}
  4019e2:	2101      	movs	r1, #1
  4019e4:	4620      	mov	r0, r4
  4019e6:	4b06      	ldr	r3, [pc, #24]	; (401a00 <sd_mmc_mem_2_ram+0x34>)
  4019e8:	4798      	blx	r3
  4019ea:	b108      	cbz	r0, 4019f0 <sd_mmc_mem_2_ram+0x24>
  4019ec:	2001      	movs	r0, #1
  4019ee:	bd10      	pop	{r4, pc}
  4019f0:	4b04      	ldr	r3, [pc, #16]	; (401a04 <sd_mmc_mem_2_ram+0x38>)
  4019f2:	4798      	blx	r3
  4019f4:	3000      	adds	r0, #0
  4019f6:	bf18      	it	ne
  4019f8:	2001      	movne	r0, #1
  4019fa:	bd10      	pop	{r4, pc}
  4019fc:	00401749 	.word	0x00401749
  401a00:	004017cd 	.word	0x004017cd
  401a04:	004017f5 	.word	0x004017f5

00401a08 <sd_mmc_mem_2_ram_0>:
  401a08:	b508      	push	{r3, lr}
  401a0a:	460a      	mov	r2, r1
  401a0c:	4601      	mov	r1, r0
  401a0e:	2000      	movs	r0, #0
  401a10:	4b01      	ldr	r3, [pc, #4]	; (401a18 <sd_mmc_mem_2_ram_0+0x10>)
  401a12:	4798      	blx	r3
  401a14:	bd08      	pop	{r3, pc}
  401a16:	bf00      	nop
  401a18:	004019cd 	.word	0x004019cd

00401a1c <sd_mmc_ram_2_mem>:
  401a1c:	b510      	push	{r4, lr}
  401a1e:	4614      	mov	r4, r2
  401a20:	2201      	movs	r2, #1
  401a22:	4b0a      	ldr	r3, [pc, #40]	; (401a4c <sd_mmc_ram_2_mem+0x30>)
  401a24:	4798      	blx	r3
  401a26:	b120      	cbz	r0, 401a32 <sd_mmc_ram_2_mem+0x16>
  401a28:	2802      	cmp	r0, #2
  401a2a:	bf0c      	ite	eq
  401a2c:	2002      	moveq	r0, #2
  401a2e:	2001      	movne	r0, #1
  401a30:	bd10      	pop	{r4, pc}
  401a32:	2101      	movs	r1, #1
  401a34:	4620      	mov	r0, r4
  401a36:	4b06      	ldr	r3, [pc, #24]	; (401a50 <sd_mmc_ram_2_mem+0x34>)
  401a38:	4798      	blx	r3
  401a3a:	b108      	cbz	r0, 401a40 <sd_mmc_ram_2_mem+0x24>
  401a3c:	2001      	movs	r0, #1
  401a3e:	bd10      	pop	{r4, pc}
  401a40:	4b04      	ldr	r3, [pc, #16]	; (401a54 <sd_mmc_ram_2_mem+0x38>)
  401a42:	4798      	blx	r3
  401a44:	3000      	adds	r0, #0
  401a46:	bf18      	it	ne
  401a48:	2001      	movne	r0, #1
  401a4a:	bd10      	pop	{r4, pc}
  401a4c:	0040185d 	.word	0x0040185d
  401a50:	004018cd 	.word	0x004018cd
  401a54:	004018f5 	.word	0x004018f5

00401a58 <sd_mmc_ram_2_mem_0>:
  401a58:	b508      	push	{r3, lr}
  401a5a:	460a      	mov	r2, r1
  401a5c:	4601      	mov	r1, r0
  401a5e:	2000      	movs	r0, #0
  401a60:	4b01      	ldr	r3, [pc, #4]	; (401a68 <sd_mmc_ram_2_mem_0+0x10>)
  401a62:	4798      	blx	r3
  401a64:	bd08      	pop	{r3, pc}
  401a66:	bf00      	nop
  401a68:	00401a1d 	.word	0x00401a1d

00401a6c <sd_mmc_spi_start_write_block>:
  401a6c:	b500      	push	{lr}
  401a6e:	b083      	sub	sp, #12
  401a70:	a902      	add	r1, sp, #8
  401a72:	23ff      	movs	r3, #255	; 0xff
  401a74:	f801 3d01 	strb.w	r3, [r1, #-1]!
  401a78:	2201      	movs	r2, #1
  401a7a:	480a      	ldr	r0, [pc, #40]	; (401aa4 <sd_mmc_spi_start_write_block+0x38>)
  401a7c:	4b0a      	ldr	r3, [pc, #40]	; (401aa8 <sd_mmc_spi_start_write_block+0x3c>)
  401a7e:	4798      	blx	r3
  401a80:	4b0a      	ldr	r3, [pc, #40]	; (401aac <sd_mmc_spi_start_write_block+0x40>)
  401a82:	881b      	ldrh	r3, [r3, #0]
  401a84:	2b01      	cmp	r3, #1
  401a86:	bf0c      	ite	eq
  401a88:	23fe      	moveq	r3, #254	; 0xfe
  401a8a:	23fc      	movne	r3, #252	; 0xfc
  401a8c:	f88d 3006 	strb.w	r3, [sp, #6]
  401a90:	2201      	movs	r2, #1
  401a92:	f10d 0106 	add.w	r1, sp, #6
  401a96:	4803      	ldr	r0, [pc, #12]	; (401aa4 <sd_mmc_spi_start_write_block+0x38>)
  401a98:	4b03      	ldr	r3, [pc, #12]	; (401aa8 <sd_mmc_spi_start_write_block+0x3c>)
  401a9a:	4798      	blx	r3
  401a9c:	b003      	add	sp, #12
  401a9e:	f85d fb04 	ldr.w	pc, [sp], #4
  401aa2:	bf00      	nop
  401aa4:	40008000 	.word	0x40008000
  401aa8:	004021e9 	.word	0x004021e9
  401aac:	2000106a 	.word	0x2000106a

00401ab0 <sd_mmc_spi_wait_busy>:
  401ab0:	b570      	push	{r4, r5, r6, lr}
  401ab2:	b082      	sub	sp, #8
  401ab4:	ac02      	add	r4, sp, #8
  401ab6:	23ff      	movs	r3, #255	; 0xff
  401ab8:	f804 3d01 	strb.w	r3, [r4, #-1]!
  401abc:	4e0f      	ldr	r6, [pc, #60]	; (401afc <sd_mmc_spi_wait_busy+0x4c>)
  401abe:	2201      	movs	r2, #1
  401ac0:	4621      	mov	r1, r4
  401ac2:	4630      	mov	r0, r6
  401ac4:	4d0e      	ldr	r5, [pc, #56]	; (401b00 <sd_mmc_spi_wait_busy+0x50>)
  401ac6:	47a8      	blx	r5
  401ac8:	2201      	movs	r2, #1
  401aca:	4621      	mov	r1, r4
  401acc:	4630      	mov	r0, r6
  401ace:	47a8      	blx	r5
  401ad0:	2201      	movs	r2, #1
  401ad2:	4621      	mov	r1, r4
  401ad4:	4630      	mov	r0, r6
  401ad6:	47a8      	blx	r5
  401ad8:	4c0a      	ldr	r4, [pc, #40]	; (401b04 <sd_mmc_spi_wait_busy+0x54>)
  401ada:	f89d 3007 	ldrb.w	r3, [sp, #7]
  401ade:	2bff      	cmp	r3, #255	; 0xff
  401ae0:	d008      	beq.n	401af4 <sd_mmc_spi_wait_busy+0x44>
  401ae2:	2201      	movs	r2, #1
  401ae4:	f10d 0107 	add.w	r1, sp, #7
  401ae8:	4630      	mov	r0, r6
  401aea:	47a8      	blx	r5
  401aec:	3c01      	subs	r4, #1
  401aee:	d1f4      	bne.n	401ada <sd_mmc_spi_wait_busy+0x2a>
  401af0:	2000      	movs	r0, #0
  401af2:	e000      	b.n	401af6 <sd_mmc_spi_wait_busy+0x46>
  401af4:	2001      	movs	r0, #1
  401af6:	b002      	add	sp, #8
  401af8:	bd70      	pop	{r4, r5, r6, pc}
  401afa:	bf00      	nop
  401afc:	40008000 	.word	0x40008000
  401b00:	0040221d 	.word	0x0040221d
  401b04:	00030d40 	.word	0x00030d40

00401b08 <sd_mmc_spi_stop_multiwrite_block>:
  401b08:	4b16      	ldr	r3, [pc, #88]	; (401b64 <sd_mmc_spi_stop_multiwrite_block+0x5c>)
  401b0a:	881a      	ldrh	r2, [r3, #0]
  401b0c:	2a01      	cmp	r2, #1
  401b0e:	d027      	beq.n	401b60 <sd_mmc_spi_stop_multiwrite_block+0x58>
  401b10:	4b15      	ldr	r3, [pc, #84]	; (401b68 <sd_mmc_spi_stop_multiwrite_block+0x60>)
  401b12:	8819      	ldrh	r1, [r3, #0]
  401b14:	4b15      	ldr	r3, [pc, #84]	; (401b6c <sd_mmc_spi_stop_multiwrite_block+0x64>)
  401b16:	681b      	ldr	r3, [r3, #0]
  401b18:	fbb3 f3f1 	udiv	r3, r3, r1
  401b1c:	429a      	cmp	r2, r3
  401b1e:	d902      	bls.n	401b26 <sd_mmc_spi_stop_multiwrite_block+0x1e>
  401b20:	2301      	movs	r3, #1
  401b22:	4618      	mov	r0, r3
  401b24:	4770      	bx	lr
  401b26:	b570      	push	{r4, r5, r6, lr}
  401b28:	b082      	sub	sp, #8
  401b2a:	ac02      	add	r4, sp, #8
  401b2c:	23ff      	movs	r3, #255	; 0xff
  401b2e:	f804 3d01 	strb.w	r3, [r4, #-1]!
  401b32:	4e0f      	ldr	r6, [pc, #60]	; (401b70 <sd_mmc_spi_stop_multiwrite_block+0x68>)
  401b34:	2201      	movs	r2, #1
  401b36:	4621      	mov	r1, r4
  401b38:	4630      	mov	r0, r6
  401b3a:	4d0e      	ldr	r5, [pc, #56]	; (401b74 <sd_mmc_spi_stop_multiwrite_block+0x6c>)
  401b3c:	47a8      	blx	r5
  401b3e:	23fd      	movs	r3, #253	; 0xfd
  401b40:	f88d 3007 	strb.w	r3, [sp, #7]
  401b44:	2201      	movs	r2, #1
  401b46:	4621      	mov	r1, r4
  401b48:	4630      	mov	r0, r6
  401b4a:	47a8      	blx	r5
  401b4c:	4b0a      	ldr	r3, [pc, #40]	; (401b78 <sd_mmc_spi_stop_multiwrite_block+0x70>)
  401b4e:	4798      	blx	r3
  401b50:	4603      	mov	r3, r0
  401b52:	b910      	cbnz	r0, 401b5a <sd_mmc_spi_stop_multiwrite_block+0x52>
  401b54:	2105      	movs	r1, #5
  401b56:	4a09      	ldr	r2, [pc, #36]	; (401b7c <sd_mmc_spi_stop_multiwrite_block+0x74>)
  401b58:	7011      	strb	r1, [r2, #0]
  401b5a:	4618      	mov	r0, r3
  401b5c:	b002      	add	sp, #8
  401b5e:	bd70      	pop	{r4, r5, r6, pc}
  401b60:	2301      	movs	r3, #1
  401b62:	e7de      	b.n	401b22 <sd_mmc_spi_stop_multiwrite_block+0x1a>
  401b64:	2000106a 	.word	0x2000106a
  401b68:	20001066 	.word	0x20001066
  401b6c:	20001070 	.word	0x20001070
  401b70:	40008000 	.word	0x40008000
  401b74:	004021e9 	.word	0x004021e9
  401b78:	00401ab1 	.word	0x00401ab1
  401b7c:	20001068 	.word	0x20001068

00401b80 <sd_mmc_spi_start_read_block>:
  401b80:	b5f0      	push	{r4, r5, r6, r7, lr}
  401b82:	b083      	sub	sp, #12
  401b84:	ad02      	add	r5, sp, #8
  401b86:	2300      	movs	r3, #0
  401b88:	f805 3d01 	strb.w	r3, [r5, #-1]!
  401b8c:	4c10      	ldr	r4, [pc, #64]	; (401bd0 <sd_mmc_spi_start_read_block+0x50>)
  401b8e:	4f11      	ldr	r7, [pc, #68]	; (401bd4 <sd_mmc_spi_start_read_block+0x54>)
  401b90:	4e11      	ldr	r6, [pc, #68]	; (401bd8 <sd_mmc_spi_start_read_block+0x58>)
  401b92:	2201      	movs	r2, #1
  401b94:	4629      	mov	r1, r5
  401b96:	4638      	mov	r0, r7
  401b98:	47b0      	blx	r6
  401b9a:	f89d 3007 	ldrb.w	r3, [sp, #7]
  401b9e:	f013 0ff0 	tst.w	r3, #240	; 0xf0
  401ba2:	d008      	beq.n	401bb6 <sd_mmc_spi_start_read_block+0x36>
  401ba4:	2bfe      	cmp	r3, #254	; 0xfe
  401ba6:	d010      	beq.n	401bca <sd_mmc_spi_start_read_block+0x4a>
  401ba8:	3c01      	subs	r4, #1
  401baa:	d1f2      	bne.n	401b92 <sd_mmc_spi_start_read_block+0x12>
  401bac:	2204      	movs	r2, #4
  401bae:	4b0b      	ldr	r3, [pc, #44]	; (401bdc <sd_mmc_spi_start_read_block+0x5c>)
  401bb0:	701a      	strb	r2, [r3, #0]
  401bb2:	2000      	movs	r0, #0
  401bb4:	e007      	b.n	401bc6 <sd_mmc_spi_start_read_block+0x46>
  401bb6:	f013 0f07 	tst.w	r3, #7
  401bba:	bf14      	ite	ne
  401bbc:	2207      	movne	r2, #7
  401bbe:	220b      	moveq	r2, #11
  401bc0:	4b06      	ldr	r3, [pc, #24]	; (401bdc <sd_mmc_spi_start_read_block+0x5c>)
  401bc2:	701a      	strb	r2, [r3, #0]
  401bc4:	2000      	movs	r0, #0
  401bc6:	b003      	add	sp, #12
  401bc8:	bdf0      	pop	{r4, r5, r6, r7, pc}
  401bca:	2001      	movs	r0, #1
  401bcc:	e7fb      	b.n	401bc6 <sd_mmc_spi_start_read_block+0x46>
  401bce:	bf00      	nop
  401bd0:	0007a120 	.word	0x0007a120
  401bd4:	40008000 	.word	0x40008000
  401bd8:	0040221d 	.word	0x0040221d
  401bdc:	20001068 	.word	0x20001068

00401be0 <sd_mmc_spi_stop_write_block>:
  401be0:	b510      	push	{r4, lr}
  401be2:	b082      	sub	sp, #8
  401be4:	a902      	add	r1, sp, #8
  401be6:	f64f 73ff 	movw	r3, #65535	; 0xffff
  401bea:	f821 3d04 	strh.w	r3, [r1, #-4]!
  401bee:	4c12      	ldr	r4, [pc, #72]	; (401c38 <sd_mmc_spi_stop_write_block+0x58>)
  401bf0:	2202      	movs	r2, #2
  401bf2:	4620      	mov	r0, r4
  401bf4:	4b11      	ldr	r3, [pc, #68]	; (401c3c <sd_mmc_spi_stop_write_block+0x5c>)
  401bf6:	4798      	blx	r3
  401bf8:	2201      	movs	r2, #1
  401bfa:	f10d 0107 	add.w	r1, sp, #7
  401bfe:	4620      	mov	r0, r4
  401c00:	4b0f      	ldr	r3, [pc, #60]	; (401c40 <sd_mmc_spi_stop_write_block+0x60>)
  401c02:	4798      	blx	r3
  401c04:	f89d 3007 	ldrb.w	r3, [sp, #7]
  401c08:	f003 0211 	and.w	r2, r3, #17
  401c0c:	2a01      	cmp	r2, #1
  401c0e:	d005      	beq.n	401c1c <sd_mmc_spi_stop_write_block+0x3c>
  401c10:	2201      	movs	r2, #1
  401c12:	4b0c      	ldr	r3, [pc, #48]	; (401c44 <sd_mmc_spi_stop_write_block+0x64>)
  401c14:	701a      	strb	r2, [r3, #0]
  401c16:	2000      	movs	r0, #0
  401c18:	b002      	add	sp, #8
  401c1a:	bd10      	pop	{r4, pc}
  401c1c:	f003 031e 	and.w	r3, r3, #30
  401c20:	2b04      	cmp	r3, #4
  401c22:	d007      	beq.n	401c34 <sd_mmc_spi_stop_write_block+0x54>
  401c24:	2b0a      	cmp	r3, #10
  401c26:	bf0c      	ite	eq
  401c28:	2208      	moveq	r2, #8
  401c2a:	220a      	movne	r2, #10
  401c2c:	4b05      	ldr	r3, [pc, #20]	; (401c44 <sd_mmc_spi_stop_write_block+0x64>)
  401c2e:	701a      	strb	r2, [r3, #0]
  401c30:	2000      	movs	r0, #0
  401c32:	e7f1      	b.n	401c18 <sd_mmc_spi_stop_write_block+0x38>
  401c34:	2001      	movs	r0, #1
  401c36:	e7ef      	b.n	401c18 <sd_mmc_spi_stop_write_block+0x38>
  401c38:	40008000 	.word	0x40008000
  401c3c:	004021e9 	.word	0x004021e9
  401c40:	0040221d 	.word	0x0040221d
  401c44:	20001068 	.word	0x20001068

00401c48 <sd_mmc_spi_init>:
  401c48:	2200      	movs	r2, #0
  401c4a:	4b08      	ldr	r3, [pc, #32]	; (401c6c <sd_mmc_spi_init+0x24>)
  401c4c:	701a      	strb	r2, [r3, #0]
  401c4e:	4b08      	ldr	r3, [pc, #32]	; (401c70 <sd_mmc_spi_init+0x28>)
  401c50:	691b      	ldr	r3, [r3, #16]
  401c52:	f413 3f80 	tst.w	r3, #65536	; 0x10000
  401c56:	d000      	beq.n	401c5a <sd_mmc_spi_init+0x12>
  401c58:	4770      	bx	lr
  401c5a:	b510      	push	{r4, lr}
  401c5c:	4c04      	ldr	r4, [pc, #16]	; (401c70 <sd_mmc_spi_init+0x28>)
  401c5e:	4620      	mov	r0, r4
  401c60:	4b04      	ldr	r3, [pc, #16]	; (401c74 <sd_mmc_spi_init+0x2c>)
  401c62:	4798      	blx	r3
  401c64:	2301      	movs	r3, #1
  401c66:	6023      	str	r3, [r4, #0]
  401c68:	bd10      	pop	{r4, pc}
  401c6a:	bf00      	nop
  401c6c:	20001068 	.word	0x20001068
  401c70:	40008000 	.word	0x40008000
  401c74:	004020c5 	.word	0x004020c5

00401c78 <sd_mmc_spi_select_device>:
  401c78:	b570      	push	{r4, r5, r6, lr}
  401c7a:	b082      	sub	sp, #8
  401c7c:	2200      	movs	r2, #0
  401c7e:	4b09      	ldr	r3, [pc, #36]	; (401ca4 <sd_mmc_spi_select_device+0x2c>)
  401c80:	701a      	strb	r2, [r3, #0]
  401c82:	4c09      	ldr	r4, [pc, #36]	; (401ca8 <sd_mmc_spi_select_device+0x30>)
  401c84:	eb04 0480 	add.w	r4, r4, r0, lsl #2
  401c88:	4d08      	ldr	r5, [pc, #32]	; (401cac <sd_mmc_spi_select_device+0x34>)
  401c8a:	9200      	str	r2, [sp, #0]
  401c8c:	460b      	mov	r3, r1
  401c8e:	4621      	mov	r1, r4
  401c90:	4628      	mov	r0, r5
  401c92:	4e07      	ldr	r6, [pc, #28]	; (401cb0 <sd_mmc_spi_select_device+0x38>)
  401c94:	47b0      	blx	r6
  401c96:	4621      	mov	r1, r4
  401c98:	4628      	mov	r0, r5
  401c9a:	4b06      	ldr	r3, [pc, #24]	; (401cb4 <sd_mmc_spi_select_device+0x3c>)
  401c9c:	4798      	blx	r3
  401c9e:	b002      	add	sp, #8
  401ca0:	bd70      	pop	{r4, r5, r6, pc}
  401ca2:	bf00      	nop
  401ca4:	20001068 	.word	0x20001068
  401ca8:	20000440 	.word	0x20000440
  401cac:	40008000 	.word	0x40008000
  401cb0:	00402119 	.word	0x00402119
  401cb4:	00402199 	.word	0x00402199

00401cb8 <sd_mmc_spi_deselect_device>:
  401cb8:	b508      	push	{r3, lr}
  401cba:	2200      	movs	r2, #0
  401cbc:	4b04      	ldr	r3, [pc, #16]	; (401cd0 <sd_mmc_spi_deselect_device+0x18>)
  401cbe:	701a      	strb	r2, [r3, #0]
  401cc0:	4904      	ldr	r1, [pc, #16]	; (401cd4 <sd_mmc_spi_deselect_device+0x1c>)
  401cc2:	eb01 0180 	add.w	r1, r1, r0, lsl #2
  401cc6:	4804      	ldr	r0, [pc, #16]	; (401cd8 <sd_mmc_spi_deselect_device+0x20>)
  401cc8:	4b04      	ldr	r3, [pc, #16]	; (401cdc <sd_mmc_spi_deselect_device+0x24>)
  401cca:	4798      	blx	r3
  401ccc:	bd08      	pop	{r3, pc}
  401cce:	bf00      	nop
  401cd0:	20001068 	.word	0x20001068
  401cd4:	20000440 	.word	0x20000440
  401cd8:	40008000 	.word	0x40008000
  401cdc:	004021c9 	.word	0x004021c9

00401ce0 <sd_mmc_spi_send_clock>:
  401ce0:	b5f0      	push	{r4, r5, r6, r7, lr}
  401ce2:	b083      	sub	sp, #12
  401ce4:	ad02      	add	r5, sp, #8
  401ce6:	23ff      	movs	r3, #255	; 0xff
  401ce8:	f805 3d01 	strb.w	r3, [r5, #-1]!
  401cec:	2200      	movs	r2, #0
  401cee:	4b07      	ldr	r3, [pc, #28]	; (401d0c <sd_mmc_spi_send_clock+0x2c>)
  401cf0:	701a      	strb	r2, [r3, #0]
  401cf2:	240a      	movs	r4, #10
  401cf4:	4f06      	ldr	r7, [pc, #24]	; (401d10 <sd_mmc_spi_send_clock+0x30>)
  401cf6:	4e07      	ldr	r6, [pc, #28]	; (401d14 <sd_mmc_spi_send_clock+0x34>)
  401cf8:	2201      	movs	r2, #1
  401cfa:	4629      	mov	r1, r5
  401cfc:	4638      	mov	r0, r7
  401cfe:	47b0      	blx	r6
  401d00:	1e63      	subs	r3, r4, #1
  401d02:	f013 04ff 	ands.w	r4, r3, #255	; 0xff
  401d06:	d1f7      	bne.n	401cf8 <sd_mmc_spi_send_clock+0x18>
  401d08:	b003      	add	sp, #12
  401d0a:	bdf0      	pop	{r4, r5, r6, r7, pc}
  401d0c:	20001068 	.word	0x20001068
  401d10:	40008000 	.word	0x40008000
  401d14:	004021e9 	.word	0x004021e9

00401d18 <sd_mmc_spi_adtc_start>:
  401d18:	e92d 43f0 	stmdb	sp!, {r4, r5, r6, r7, r8, r9, lr}
  401d1c:	b085      	sub	sp, #20
  401d1e:	4604      	mov	r4, r0
  401d20:	4691      	mov	r9, r2
  401d22:	4698      	mov	r8, r3
  401d24:	23ff      	movs	r3, #255	; 0xff
  401d26:	f88d 300f 	strb.w	r3, [sp, #15]
  401d2a:	2300      	movs	r3, #0
  401d2c:	4a53      	ldr	r2, [pc, #332]	; (401e7c <sd_mmc_spi_adtc_start+0x164>)
  401d2e:	7013      	strb	r3, [r2, #0]
  401d30:	f000 023f 	and.w	r2, r0, #63	; 0x3f
  401d34:	f042 0240 	orr.w	r2, r2, #64	; 0x40
  401d38:	f88d 2008 	strb.w	r2, [sp, #8]
  401d3c:	0e0a      	lsrs	r2, r1, #24
  401d3e:	f88d 2009 	strb.w	r2, [sp, #9]
  401d42:	0c0a      	lsrs	r2, r1, #16
  401d44:	f88d 200a 	strb.w	r2, [sp, #10]
  401d48:	0a0a      	lsrs	r2, r1, #8
  401d4a:	f88d 200b 	strb.w	r2, [sp, #11]
  401d4e:	f88d 100c 	strb.w	r1, [sp, #12]
  401d52:	af02      	add	r7, sp, #8
  401d54:	f04f 0c08 	mov.w	ip, #8
  401d58:	f10d 0e0d 	add.w	lr, sp, #13
  401d5c:	e001      	b.n	401d62 <sd_mmc_spi_adtc_start+0x4a>
  401d5e:	4577      	cmp	r7, lr
  401d60:	d012      	beq.n	401d88 <sd_mmc_spi_adtc_start+0x70>
  401d62:	f817 1b01 	ldrb.w	r1, [r7], #1
  401d66:	4662      	mov	r2, ip
  401d68:	005b      	lsls	r3, r3, #1
  401d6a:	b2db      	uxtb	r3, r3
  401d6c:	ea83 0001 	eor.w	r0, r3, r1
  401d70:	f010 0f80 	tst.w	r0, #128	; 0x80
  401d74:	bf18      	it	ne
  401d76:	f083 0309 	eorne.w	r3, r3, #9
  401d7a:	0049      	lsls	r1, r1, #1
  401d7c:	b2c9      	uxtb	r1, r1
  401d7e:	3a01      	subs	r2, #1
  401d80:	f012 02ff 	ands.w	r2, r2, #255	; 0xff
  401d84:	d1f0      	bne.n	401d68 <sd_mmc_spi_adtc_start+0x50>
  401d86:	e7ea      	b.n	401d5e <sd_mmc_spi_adtc_start+0x46>
  401d88:	005b      	lsls	r3, r3, #1
  401d8a:	f043 0301 	orr.w	r3, r3, #1
  401d8e:	f88d 300d 	strb.w	r3, [sp, #13]
  401d92:	4f3b      	ldr	r7, [pc, #236]	; (401e80 <sd_mmc_spi_adtc_start+0x168>)
  401d94:	2201      	movs	r2, #1
  401d96:	f10d 010f 	add.w	r1, sp, #15
  401d9a:	4638      	mov	r0, r7
  401d9c:	4d39      	ldr	r5, [pc, #228]	; (401e84 <sd_mmc_spi_adtc_start+0x16c>)
  401d9e:	47a8      	blx	r5
  401da0:	2206      	movs	r2, #6
  401da2:	a902      	add	r1, sp, #8
  401da4:	4638      	mov	r0, r7
  401da6:	47a8      	blx	r5
  401da8:	a904      	add	r1, sp, #16
  401daa:	23ff      	movs	r3, #255	; 0xff
  401dac:	f801 3d09 	strb.w	r3, [r1, #-9]!
  401db0:	2201      	movs	r2, #1
  401db2:	4638      	mov	r0, r7
  401db4:	4b34      	ldr	r3, [pc, #208]	; (401e88 <sd_mmc_spi_adtc_start+0x170>)
  401db6:	4798      	blx	r3
  401db8:	2707      	movs	r7, #7
  401dba:	4e31      	ldr	r6, [pc, #196]	; (401e80 <sd_mmc_spi_adtc_start+0x168>)
  401dbc:	4d32      	ldr	r5, [pc, #200]	; (401e88 <sd_mmc_spi_adtc_start+0x170>)
  401dbe:	2201      	movs	r2, #1
  401dc0:	f10d 0107 	add.w	r1, sp, #7
  401dc4:	4630      	mov	r0, r6
  401dc6:	47a8      	blx	r5
  401dc8:	f89d 3007 	ldrb.w	r3, [sp, #7]
  401dcc:	f013 0f80 	tst.w	r3, #128	; 0x80
  401dd0:	d00b      	beq.n	401dea <sd_mmc_spi_adtc_start+0xd2>
  401dd2:	1e7b      	subs	r3, r7, #1
  401dd4:	f013 07ff 	ands.w	r7, r3, #255	; 0xff
  401dd8:	d1f1      	bne.n	401dbe <sd_mmc_spi_adtc_start+0xa6>
  401dda:	2202      	movs	r2, #2
  401ddc:	4b27      	ldr	r3, [pc, #156]	; (401e7c <sd_mmc_spi_adtc_start+0x164>)
  401dde:	701a      	strb	r2, [r3, #0]
  401de0:	2300      	movs	r3, #0
  401de2:	4618      	mov	r0, r3
  401de4:	b005      	add	sp, #20
  401de6:	e8bd 83f0 	ldmia.w	sp!, {r4, r5, r6, r7, r8, r9, pc}
  401dea:	4a28      	ldr	r2, [pc, #160]	; (401e8c <sd_mmc_spi_adtc_start+0x174>)
  401dec:	6013      	str	r3, [r2, #0]
  401dee:	f013 0f08 	tst.w	r3, #8
  401df2:	d119      	bne.n	401e28 <sd_mmc_spi_adtc_start+0x110>
  401df4:	f013 0f04 	tst.w	r3, #4
  401df8:	d11b      	bne.n	401e32 <sd_mmc_spi_adtc_start+0x11a>
  401dfa:	f033 0301 	bics.w	r3, r3, #1
  401dfe:	d11d      	bne.n	401e3c <sd_mmc_spi_adtc_start+0x124>
  401e00:	f414 5f00 	tst.w	r4, #8192	; 0x2000
  401e04:	d11f      	bne.n	401e46 <sd_mmc_spi_adtc_start+0x12e>
  401e06:	f414 7f00 	tst.w	r4, #512	; 0x200
  401e0a:	d125      	bne.n	401e58 <sd_mmc_spi_adtc_start+0x140>
  401e0c:	f414 6f80 	tst.w	r4, #1024	; 0x400
  401e10:	d12a      	bne.n	401e68 <sd_mmc_spi_adtc_start+0x150>
  401e12:	4b1f      	ldr	r3, [pc, #124]	; (401e90 <sd_mmc_spi_adtc_start+0x178>)
  401e14:	f8a3 9000 	strh.w	r9, [r3]
  401e18:	4b1e      	ldr	r3, [pc, #120]	; (401e94 <sd_mmc_spi_adtc_start+0x17c>)
  401e1a:	f8a3 8000 	strh.w	r8, [r3]
  401e1e:	2200      	movs	r2, #0
  401e20:	4b1d      	ldr	r3, [pc, #116]	; (401e98 <sd_mmc_spi_adtc_start+0x180>)
  401e22:	601a      	str	r2, [r3, #0]
  401e24:	2301      	movs	r3, #1
  401e26:	e7dc      	b.n	401de2 <sd_mmc_spi_adtc_start+0xca>
  401e28:	2206      	movs	r2, #6
  401e2a:	4b14      	ldr	r3, [pc, #80]	; (401e7c <sd_mmc_spi_adtc_start+0x164>)
  401e2c:	701a      	strb	r2, [r3, #0]
  401e2e:	2300      	movs	r3, #0
  401e30:	e7d7      	b.n	401de2 <sd_mmc_spi_adtc_start+0xca>
  401e32:	2209      	movs	r2, #9
  401e34:	4b11      	ldr	r3, [pc, #68]	; (401e7c <sd_mmc_spi_adtc_start+0x164>)
  401e36:	701a      	strb	r2, [r3, #0]
  401e38:	2300      	movs	r3, #0
  401e3a:	e7d2      	b.n	401de2 <sd_mmc_spi_adtc_start+0xca>
  401e3c:	2201      	movs	r2, #1
  401e3e:	4b0f      	ldr	r3, [pc, #60]	; (401e7c <sd_mmc_spi_adtc_start+0x164>)
  401e40:	701a      	strb	r2, [r3, #0]
  401e42:	2300      	movs	r3, #0
  401e44:	e7cd      	b.n	401de2 <sd_mmc_spi_adtc_start+0xca>
  401e46:	4b15      	ldr	r3, [pc, #84]	; (401e9c <sd_mmc_spi_adtc_start+0x184>)
  401e48:	4798      	blx	r3
  401e4a:	4603      	mov	r3, r0
  401e4c:	2800      	cmp	r0, #0
  401e4e:	d1da      	bne.n	401e06 <sd_mmc_spi_adtc_start+0xee>
  401e50:	2103      	movs	r1, #3
  401e52:	4a0a      	ldr	r2, [pc, #40]	; (401e7c <sd_mmc_spi_adtc_start+0x164>)
  401e54:	7011      	strb	r1, [r2, #0]
  401e56:	e7c4      	b.n	401de2 <sd_mmc_spi_adtc_start+0xca>
  401e58:	490c      	ldr	r1, [pc, #48]	; (401e8c <sd_mmc_spi_adtc_start+0x174>)
  401e5a:	2300      	movs	r3, #0
  401e5c:	600b      	str	r3, [r1, #0]
  401e5e:	2201      	movs	r2, #1
  401e60:	4807      	ldr	r0, [pc, #28]	; (401e80 <sd_mmc_spi_adtc_start+0x168>)
  401e62:	4b09      	ldr	r3, [pc, #36]	; (401e88 <sd_mmc_spi_adtc_start+0x170>)
  401e64:	4798      	blx	r3
  401e66:	e7d1      	b.n	401e0c <sd_mmc_spi_adtc_start+0xf4>
  401e68:	4c08      	ldr	r4, [pc, #32]	; (401e8c <sd_mmc_spi_adtc_start+0x174>)
  401e6a:	2204      	movs	r2, #4
  401e6c:	4621      	mov	r1, r4
  401e6e:	4804      	ldr	r0, [pc, #16]	; (401e80 <sd_mmc_spi_adtc_start+0x168>)
  401e70:	4b05      	ldr	r3, [pc, #20]	; (401e88 <sd_mmc_spi_adtc_start+0x170>)
  401e72:	4798      	blx	r3
  401e74:	6823      	ldr	r3, [r4, #0]
  401e76:	ba1b      	rev	r3, r3
  401e78:	6023      	str	r3, [r4, #0]
  401e7a:	e7ca      	b.n	401e12 <sd_mmc_spi_adtc_start+0xfa>
  401e7c:	20001068 	.word	0x20001068
  401e80:	40008000 	.word	0x40008000
  401e84:	004021e9 	.word	0x004021e9
  401e88:	0040221d 	.word	0x0040221d
  401e8c:	2000106c 	.word	0x2000106c
  401e90:	20001066 	.word	0x20001066
  401e94:	2000106a 	.word	0x2000106a
  401e98:	20001070 	.word	0x20001070
  401e9c:	00401ab1 	.word	0x00401ab1

00401ea0 <sd_mmc_spi_send_cmd>:
  401ea0:	b510      	push	{r4, lr}
  401ea2:	b082      	sub	sp, #8
  401ea4:	2200      	movs	r2, #0
  401ea6:	9200      	str	r2, [sp, #0]
  401ea8:	4613      	mov	r3, r2
  401eaa:	4c02      	ldr	r4, [pc, #8]	; (401eb4 <sd_mmc_spi_send_cmd+0x14>)
  401eac:	47a0      	blx	r4
  401eae:	b002      	add	sp, #8
  401eb0:	bd10      	pop	{r4, pc}
  401eb2:	bf00      	nop
  401eb4:	00401d19 	.word	0x00401d19

00401eb8 <sd_mmc_spi_get_response>:
  401eb8:	4b01      	ldr	r3, [pc, #4]	; (401ec0 <sd_mmc_spi_get_response+0x8>)
  401eba:	6818      	ldr	r0, [r3, #0]
  401ebc:	4770      	bx	lr
  401ebe:	bf00      	nop
  401ec0:	2000106c 	.word	0x2000106c

00401ec4 <sd_mmc_spi_read_word>:
  401ec4:	b510      	push	{r4, lr}
  401ec6:	b082      	sub	sp, #8
  401ec8:	4604      	mov	r4, r0
  401eca:	2200      	movs	r2, #0
  401ecc:	4b14      	ldr	r3, [pc, #80]	; (401f20 <sd_mmc_spi_read_word+0x5c>)
  401ece:	701a      	strb	r2, [r3, #0]
  401ed0:	4b14      	ldr	r3, [pc, #80]	; (401f24 <sd_mmc_spi_read_word+0x60>)
  401ed2:	881a      	ldrh	r2, [r3, #0]
  401ed4:	4b14      	ldr	r3, [pc, #80]	; (401f28 <sd_mmc_spi_read_word+0x64>)
  401ed6:	6819      	ldr	r1, [r3, #0]
  401ed8:	fbb1 f3f2 	udiv	r3, r1, r2
  401edc:	fb02 1313 	mls	r3, r2, r3, r1
  401ee0:	b91b      	cbnz	r3, 401eea <sd_mmc_spi_read_word+0x26>
  401ee2:	4b12      	ldr	r3, [pc, #72]	; (401f2c <sd_mmc_spi_read_word+0x68>)
  401ee4:	4798      	blx	r3
  401ee6:	4603      	mov	r3, r0
  401ee8:	b180      	cbz	r0, 401f0c <sd_mmc_spi_read_word+0x48>
  401eea:	2204      	movs	r2, #4
  401eec:	4621      	mov	r1, r4
  401eee:	4810      	ldr	r0, [pc, #64]	; (401f30 <sd_mmc_spi_read_word+0x6c>)
  401ef0:	4b10      	ldr	r3, [pc, #64]	; (401f34 <sd_mmc_spi_read_word+0x70>)
  401ef2:	4798      	blx	r3
  401ef4:	4a0c      	ldr	r2, [pc, #48]	; (401f28 <sd_mmc_spi_read_word+0x64>)
  401ef6:	6813      	ldr	r3, [r2, #0]
  401ef8:	3304      	adds	r3, #4
  401efa:	6013      	str	r3, [r2, #0]
  401efc:	4a09      	ldr	r2, [pc, #36]	; (401f24 <sd_mmc_spi_read_word+0x60>)
  401efe:	8811      	ldrh	r1, [r2, #0]
  401f00:	fbb3 f2f1 	udiv	r2, r3, r1
  401f04:	fb01 3312 	mls	r3, r1, r2, r3
  401f08:	b11b      	cbz	r3, 401f12 <sd_mmc_spi_read_word+0x4e>
  401f0a:	2301      	movs	r3, #1
  401f0c:	4618      	mov	r0, r3
  401f0e:	b002      	add	sp, #8
  401f10:	bd10      	pop	{r4, pc}
  401f12:	2202      	movs	r2, #2
  401f14:	a901      	add	r1, sp, #4
  401f16:	4806      	ldr	r0, [pc, #24]	; (401f30 <sd_mmc_spi_read_word+0x6c>)
  401f18:	4b06      	ldr	r3, [pc, #24]	; (401f34 <sd_mmc_spi_read_word+0x70>)
  401f1a:	4798      	blx	r3
  401f1c:	2301      	movs	r3, #1
  401f1e:	e7f5      	b.n	401f0c <sd_mmc_spi_read_word+0x48>
  401f20:	20001068 	.word	0x20001068
  401f24:	20001066 	.word	0x20001066
  401f28:	20001070 	.word	0x20001070
  401f2c:	00401b81 	.word	0x00401b81
  401f30:	40008000 	.word	0x40008000
  401f34:	0040221d 	.word	0x0040221d

00401f38 <sd_mmc_spi_start_read_blocks>:
  401f38:	e92d 4ff0 	stmdb	sp!, {r4, r5, r6, r7, r8, r9, sl, fp, lr}
  401f3c:	b083      	sub	sp, #12
  401f3e:	2200      	movs	r2, #0
  401f40:	4b16      	ldr	r3, [pc, #88]	; (401f9c <sd_mmc_spi_start_read_blocks+0x64>)
  401f42:	701a      	strb	r2, [r3, #0]
  401f44:	b339      	cbz	r1, 401f96 <sd_mmc_spi_start_read_blocks+0x5e>
  401f46:	1e4c      	subs	r4, r1, #1
  401f48:	b2a4      	uxth	r4, r4
  401f4a:	4681      	mov	r9, r0
  401f4c:	4615      	mov	r5, r2
  401f4e:	f8df b05c 	ldr.w	fp, [pc, #92]	; 401fac <sd_mmc_spi_start_read_blocks+0x74>
  401f52:	f8df 805c 	ldr.w	r8, [pc, #92]	; 401fb0 <sd_mmc_spi_start_read_blocks+0x78>
  401f56:	4f12      	ldr	r7, [pc, #72]	; (401fa0 <sd_mmc_spi_start_read_blocks+0x68>)
  401f58:	47d8      	blx	fp
  401f5a:	4682      	mov	sl, r0
  401f5c:	b1b8      	cbz	r0, 401f8e <sd_mmc_spi_start_read_blocks+0x56>
  401f5e:	f8b8 2000 	ldrh.w	r2, [r8]
  401f62:	eb09 0105 	add.w	r1, r9, r5
  401f66:	4638      	mov	r0, r7
  401f68:	4e0e      	ldr	r6, [pc, #56]	; (401fa4 <sd_mmc_spi_start_read_blocks+0x6c>)
  401f6a:	47b0      	blx	r6
  401f6c:	f8b8 1000 	ldrh.w	r1, [r8]
  401f70:	440d      	add	r5, r1
  401f72:	4a0d      	ldr	r2, [pc, #52]	; (401fa8 <sd_mmc_spi_start_read_blocks+0x70>)
  401f74:	6813      	ldr	r3, [r2, #0]
  401f76:	440b      	add	r3, r1
  401f78:	6013      	str	r3, [r2, #0]
  401f7a:	2202      	movs	r2, #2
  401f7c:	a901      	add	r1, sp, #4
  401f7e:	4638      	mov	r0, r7
  401f80:	47b0      	blx	r6
  401f82:	3c01      	subs	r4, #1
  401f84:	b2a4      	uxth	r4, r4
  401f86:	f64f 73ff 	movw	r3, #65535	; 0xffff
  401f8a:	429c      	cmp	r4, r3
  401f8c:	d1e4      	bne.n	401f58 <sd_mmc_spi_start_read_blocks+0x20>
  401f8e:	4650      	mov	r0, sl
  401f90:	b003      	add	sp, #12
  401f92:	e8bd 8ff0 	ldmia.w	sp!, {r4, r5, r6, r7, r8, r9, sl, fp, pc}
  401f96:	f04f 0a01 	mov.w	sl, #1
  401f9a:	e7f8      	b.n	401f8e <sd_mmc_spi_start_read_blocks+0x56>
  401f9c:	20001068 	.word	0x20001068
  401fa0:	40008000 	.word	0x40008000
  401fa4:	0040221d 	.word	0x0040221d
  401fa8:	20001070 	.word	0x20001070
  401fac:	00401b81 	.word	0x00401b81
  401fb0:	20001066 	.word	0x20001066

00401fb4 <sd_mmc_spi_wait_end_of_read_blocks>:
  401fb4:	2001      	movs	r0, #1
  401fb6:	4770      	bx	lr

00401fb8 <sd_mmc_spi_start_write_blocks>:
  401fb8:	e92d 43f8 	stmdb	sp!, {r3, r4, r5, r6, r7, r8, r9, lr}
  401fbc:	4681      	mov	r9, r0
  401fbe:	2500      	movs	r5, #0
  401fc0:	4b15      	ldr	r3, [pc, #84]	; (402018 <sd_mmc_spi_start_write_blocks+0x60>)
  401fc2:	701d      	strb	r5, [r3, #0]
  401fc4:	f8df 806c 	ldr.w	r8, [pc, #108]	; 402034 <sd_mmc_spi_start_write_blocks+0x7c>
  401fc8:	4e14      	ldr	r6, [pc, #80]	; (40201c <sd_mmc_spi_start_write_blocks+0x64>)
  401fca:	4f15      	ldr	r7, [pc, #84]	; (402020 <sd_mmc_spi_start_write_blocks+0x68>)
  401fcc:	e000      	b.n	401fd0 <sd_mmc_spi_start_write_blocks+0x18>
  401fce:	4621      	mov	r1, r4
  401fd0:	1e4c      	subs	r4, r1, #1
  401fd2:	b2a4      	uxth	r4, r4
  401fd4:	b1d9      	cbz	r1, 40200e <sd_mmc_spi_start_write_blocks+0x56>
  401fd6:	47c0      	blx	r8
  401fd8:	8832      	ldrh	r2, [r6, #0]
  401fda:	eb09 0105 	add.w	r1, r9, r5
  401fde:	4638      	mov	r0, r7
  401fe0:	4b10      	ldr	r3, [pc, #64]	; (402024 <sd_mmc_spi_start_write_blocks+0x6c>)
  401fe2:	4798      	blx	r3
  401fe4:	8831      	ldrh	r1, [r6, #0]
  401fe6:	440d      	add	r5, r1
  401fe8:	4a0f      	ldr	r2, [pc, #60]	; (402028 <sd_mmc_spi_start_write_blocks+0x70>)
  401fea:	6813      	ldr	r3, [r2, #0]
  401fec:	440b      	add	r3, r1
  401fee:	6013      	str	r3, [r2, #0]
  401ff0:	4b0e      	ldr	r3, [pc, #56]	; (40202c <sd_mmc_spi_start_write_blocks+0x74>)
  401ff2:	4798      	blx	r3
  401ff4:	4603      	mov	r3, r0
  401ff6:	b158      	cbz	r0, 402010 <sd_mmc_spi_start_write_blocks+0x58>
  401ff8:	2c00      	cmp	r4, #0
  401ffa:	d0e8      	beq.n	401fce <sd_mmc_spi_start_write_blocks+0x16>
  401ffc:	4b0c      	ldr	r3, [pc, #48]	; (402030 <sd_mmc_spi_start_write_blocks+0x78>)
  401ffe:	4798      	blx	r3
  402000:	4603      	mov	r3, r0
  402002:	2800      	cmp	r0, #0
  402004:	d1e3      	bne.n	401fce <sd_mmc_spi_start_write_blocks+0x16>
  402006:	2105      	movs	r1, #5
  402008:	4a03      	ldr	r2, [pc, #12]	; (402018 <sd_mmc_spi_start_write_blocks+0x60>)
  40200a:	7011      	strb	r1, [r2, #0]
  40200c:	e000      	b.n	402010 <sd_mmc_spi_start_write_blocks+0x58>
  40200e:	2301      	movs	r3, #1
  402010:	4618      	mov	r0, r3
  402012:	e8bd 83f8 	ldmia.w	sp!, {r3, r4, r5, r6, r7, r8, r9, pc}
  402016:	bf00      	nop
  402018:	20001068 	.word	0x20001068
  40201c:	20001066 	.word	0x20001066
  402020:	40008000 	.word	0x40008000
  402024:	004021e9 	.word	0x004021e9
  402028:	20001070 	.word	0x20001070
  40202c:	00401be1 	.word	0x00401be1
  402030:	00401ab1 	.word	0x00401ab1
  402034:	00401a6d 	.word	0x00401a6d

00402038 <sd_mmc_spi_wait_end_of_write_blocks>:
  402038:	b508      	push	{r3, lr}
  40203a:	4b06      	ldr	r3, [pc, #24]	; (402054 <sd_mmc_spi_wait_end_of_write_blocks+0x1c>)
  40203c:	4798      	blx	r3
  40203e:	b928      	cbnz	r0, 40204c <sd_mmc_spi_wait_end_of_write_blocks+0x14>
  402040:	4603      	mov	r3, r0
  402042:	2105      	movs	r1, #5
  402044:	4a04      	ldr	r2, [pc, #16]	; (402058 <sd_mmc_spi_wait_end_of_write_blocks+0x20>)
  402046:	7011      	strb	r1, [r2, #0]
  402048:	4618      	mov	r0, r3
  40204a:	bd08      	pop	{r3, pc}
  40204c:	4b03      	ldr	r3, [pc, #12]	; (40205c <sd_mmc_spi_wait_end_of_write_blocks+0x24>)
  40204e:	4798      	blx	r3
  402050:	4603      	mov	r3, r0
  402052:	e7f9      	b.n	402048 <sd_mmc_spi_wait_end_of_write_blocks+0x10>
  402054:	00401ab1 	.word	0x00401ab1
  402058:	20001068 	.word	0x20001068
  40205c:	00401b09 	.word	0x00401b09

00402060 <sysclk_init>:
  402060:	b510      	push	{r4, lr}
  402062:	480e      	ldr	r0, [pc, #56]	; (40209c <sysclk_init+0x3c>)
  402064:	4b0e      	ldr	r3, [pc, #56]	; (4020a0 <sysclk_init+0x40>)
  402066:	4798      	blx	r3
  402068:	213e      	movs	r1, #62	; 0x3e
  40206a:	2000      	movs	r0, #0
  40206c:	4b0d      	ldr	r3, [pc, #52]	; (4020a4 <sysclk_init+0x44>)
  40206e:	4798      	blx	r3
  402070:	4c0d      	ldr	r4, [pc, #52]	; (4020a8 <sysclk_init+0x48>)
  402072:	47a0      	blx	r4
  402074:	2800      	cmp	r0, #0
  402076:	d0fc      	beq.n	402072 <sysclk_init+0x12>
  402078:	4b0c      	ldr	r3, [pc, #48]	; (4020ac <sysclk_init+0x4c>)
  40207a:	4798      	blx	r3
  40207c:	4a0c      	ldr	r2, [pc, #48]	; (4020b0 <sysclk_init+0x50>)
  40207e:	4b0d      	ldr	r3, [pc, #52]	; (4020b4 <sysclk_init+0x54>)
  402080:	629a      	str	r2, [r3, #40]	; 0x28
  402082:	4c0d      	ldr	r4, [pc, #52]	; (4020b8 <sysclk_init+0x58>)
  402084:	47a0      	blx	r4
  402086:	2800      	cmp	r0, #0
  402088:	d0fc      	beq.n	402084 <sysclk_init+0x24>
  40208a:	2010      	movs	r0, #16
  40208c:	4b0b      	ldr	r3, [pc, #44]	; (4020bc <sysclk_init+0x5c>)
  40208e:	4798      	blx	r3
  402090:	4b0b      	ldr	r3, [pc, #44]	; (4020c0 <sysclk_init+0x60>)
  402092:	4798      	blx	r3
  402094:	4801      	ldr	r0, [pc, #4]	; (40209c <sysclk_init+0x3c>)
  402096:	4b02      	ldr	r3, [pc, #8]	; (4020a0 <sysclk_init+0x40>)
  402098:	4798      	blx	r3
  40209a:	bd10      	pop	{r4, pc}
  40209c:	07270e00 	.word	0x07270e00
  4020a0:	00403195 	.word	0x00403195
  4020a4:	00402925 	.word	0x00402925
  4020a8:	00402979 	.word	0x00402979
  4020ac:	00402989 	.word	0x00402989
  4020b0:	20133f01 	.word	0x20133f01
  4020b4:	400e0400 	.word	0x400e0400
  4020b8:	00402999 	.word	0x00402999
  4020bc:	0040287d 	.word	0x0040287d
  4020c0:	00403085 	.word	0x00403085

004020c4 <spi_master_init>:
  4020c4:	b510      	push	{r4, lr}
  4020c6:	4604      	mov	r4, r0
  4020c8:	4b10      	ldr	r3, [pc, #64]	; (40210c <spi_master_init+0x48>)
  4020ca:	4798      	blx	r3
  4020cc:	2380      	movs	r3, #128	; 0x80
  4020ce:	6023      	str	r3, [r4, #0]
  4020d0:	6863      	ldr	r3, [r4, #4]
  4020d2:	f043 0301 	orr.w	r3, r3, #1
  4020d6:	6063      	str	r3, [r4, #4]
  4020d8:	6863      	ldr	r3, [r4, #4]
  4020da:	f043 0310 	orr.w	r3, r3, #16
  4020de:	6063      	str	r3, [r4, #4]
  4020e0:	6863      	ldr	r3, [r4, #4]
  4020e2:	f023 0380 	bic.w	r3, r3, #128	; 0x80
  4020e6:	6063      	str	r3, [r4, #4]
  4020e8:	2100      	movs	r1, #0
  4020ea:	4620      	mov	r0, r4
  4020ec:	4b08      	ldr	r3, [pc, #32]	; (402110 <spi_master_init+0x4c>)
  4020ee:	4798      	blx	r3
  4020f0:	6863      	ldr	r3, [r4, #4]
  4020f2:	f023 0302 	bic.w	r3, r3, #2
  4020f6:	6063      	str	r3, [r4, #4]
  4020f8:	6863      	ldr	r3, [r4, #4]
  4020fa:	f023 0304 	bic.w	r3, r3, #4
  4020fe:	6063      	str	r3, [r4, #4]
  402100:	2100      	movs	r1, #0
  402102:	4620      	mov	r0, r4
  402104:	4b03      	ldr	r3, [pc, #12]	; (402114 <spi_master_init+0x50>)
  402106:	4798      	blx	r3
  402108:	bd10      	pop	{r4, pc}
  40210a:	bf00      	nop
  40210c:	00402c2d 	.word	0x00402c2d
  402110:	00402c3d 	.word	0x00402c3d
  402114:	00402c53 	.word	0x00402c53

00402118 <spi_master_setup_device>:
  402118:	e92d 41f0 	stmdb	sp!, {r4, r5, r6, r7, r8, lr}
  40211c:	4604      	mov	r4, r0
  40211e:	460d      	mov	r5, r1
  402120:	4616      	mov	r6, r2
  402122:	4915      	ldr	r1, [pc, #84]	; (402178 <spi_master_setup_device+0x60>)
  402124:	4618      	mov	r0, r3
  402126:	4b15      	ldr	r3, [pc, #84]	; (40217c <spi_master_setup_device+0x64>)
  402128:	4798      	blx	r3
  40212a:	4607      	mov	r7, r0
  40212c:	2300      	movs	r3, #0
  40212e:	461a      	mov	r2, r3
  402130:	6829      	ldr	r1, [r5, #0]
  402132:	4620      	mov	r0, r4
  402134:	f8df 805c 	ldr.w	r8, [pc, #92]	; 402194 <spi_master_setup_device+0x7c>
  402138:	47c0      	blx	r8
  40213a:	2208      	movs	r2, #8
  40213c:	6829      	ldr	r1, [r5, #0]
  40213e:	4620      	mov	r0, r4
  402140:	4b0f      	ldr	r3, [pc, #60]	; (402180 <spi_master_setup_device+0x68>)
  402142:	4798      	blx	r3
  402144:	b2fa      	uxtb	r2, r7
  402146:	6829      	ldr	r1, [r5, #0]
  402148:	4620      	mov	r0, r4
  40214a:	4b0e      	ldr	r3, [pc, #56]	; (402184 <spi_master_setup_device+0x6c>)
  40214c:	4798      	blx	r3
  40214e:	2208      	movs	r2, #8
  402150:	6829      	ldr	r1, [r5, #0]
  402152:	4620      	mov	r0, r4
  402154:	4b0c      	ldr	r3, [pc, #48]	; (402188 <spi_master_setup_device+0x70>)
  402156:	4798      	blx	r3
  402158:	0872      	lsrs	r2, r6, #1
  40215a:	6829      	ldr	r1, [r5, #0]
  40215c:	4620      	mov	r0, r4
  40215e:	4b0b      	ldr	r3, [pc, #44]	; (40218c <spi_master_setup_device+0x74>)
  402160:	4798      	blx	r3
  402162:	f086 0201 	eor.w	r2, r6, #1
  402166:	f002 0201 	and.w	r2, r2, #1
  40216a:	6829      	ldr	r1, [r5, #0]
  40216c:	4620      	mov	r0, r4
  40216e:	4b08      	ldr	r3, [pc, #32]	; (402190 <spi_master_setup_device+0x78>)
  402170:	4798      	blx	r3
  402172:	e8bd 81f0 	ldmia.w	sp!, {r4, r5, r6, r7, r8, pc}
  402176:	bf00      	nop
  402178:	07270e00 	.word	0x07270e00
  40217c:	00402cfb 	.word	0x00402cfb
  402180:	00402ce7 	.word	0x00402ce7
  402184:	00402d11 	.word	0x00402d11
  402188:	00402ca1 	.word	0x00402ca1
  40218c:	00402c65 	.word	0x00402c65
  402190:	00402c83 	.word	0x00402c83
  402194:	00402d37 	.word	0x00402d37

00402198 <spi_select_device>:
  402198:	b508      	push	{r3, lr}
  40219a:	6843      	ldr	r3, [r0, #4]
  40219c:	f013 0f04 	tst.w	r3, #4
  4021a0:	d006      	beq.n	4021b0 <spi_select_device+0x18>
  4021a2:	6809      	ldr	r1, [r1, #0]
  4021a4:	290f      	cmp	r1, #15
  4021a6:	d900      	bls.n	4021aa <spi_select_device+0x12>
  4021a8:	bd08      	pop	{r3, pc}
  4021aa:	4b06      	ldr	r3, [pc, #24]	; (4021c4 <spi_select_device+0x2c>)
  4021ac:	4798      	blx	r3
  4021ae:	bd08      	pop	{r3, pc}
  4021b0:	6809      	ldr	r1, [r1, #0]
  4021b2:	2903      	cmp	r1, #3
  4021b4:	d8f8      	bhi.n	4021a8 <spi_select_device+0x10>
  4021b6:	2301      	movs	r3, #1
  4021b8:	fa03 f101 	lsl.w	r1, r3, r1
  4021bc:	43c9      	mvns	r1, r1
  4021be:	4b01      	ldr	r3, [pc, #4]	; (4021c4 <spi_select_device+0x2c>)
  4021c0:	4798      	blx	r3
  4021c2:	e7f1      	b.n	4021a8 <spi_select_device+0x10>
  4021c4:	00402c3d 	.word	0x00402c3d

004021c8 <spi_deselect_device>:
  4021c8:	b510      	push	{r4, lr}
  4021ca:	4604      	mov	r4, r0
  4021cc:	6923      	ldr	r3, [r4, #16]
  4021ce:	f413 7f00 	tst.w	r3, #512	; 0x200
  4021d2:	d0fb      	beq.n	4021cc <spi_deselect_device+0x4>
  4021d4:	210f      	movs	r1, #15
  4021d6:	4620      	mov	r0, r4
  4021d8:	4b02      	ldr	r3, [pc, #8]	; (4021e4 <spi_deselect_device+0x1c>)
  4021da:	4798      	blx	r3
  4021dc:	f04f 7380 	mov.w	r3, #16777216	; 0x1000000
  4021e0:	6023      	str	r3, [r4, #0]
  4021e2:	bd10      	pop	{r4, pc}
  4021e4:	00402c3d 	.word	0x00402c3d

004021e8 <spi_write_packet>:
  4021e8:	b11a      	cbz	r2, 4021f2 <spi_write_packet+0xa>
  4021ea:	b410      	push	{r4}
  4021ec:	460c      	mov	r4, r1
  4021ee:	4411      	add	r1, r2
  4021f0:	e006      	b.n	402200 <spi_write_packet+0x18>
  4021f2:	2000      	movs	r0, #0
  4021f4:	4770      	bx	lr
  4021f6:	f814 3b01 	ldrb.w	r3, [r4], #1
  4021fa:	60c3      	str	r3, [r0, #12]
  4021fc:	42a1      	cmp	r1, r4
  4021fe:	d00b      	beq.n	402218 <spi_write_packet+0x30>
  402200:	f643 2399 	movw	r3, #15001	; 0x3a99
  402204:	6902      	ldr	r2, [r0, #16]
  402206:	f012 0f02 	tst.w	r2, #2
  40220a:	d1f4      	bne.n	4021f6 <spi_write_packet+0xe>
  40220c:	3b01      	subs	r3, #1
  40220e:	d1f9      	bne.n	402204 <spi_write_packet+0x1c>
  402210:	f06f 0002 	mvn.w	r0, #2
  402214:	bc10      	pop	{r4}
  402216:	4770      	bx	lr
  402218:	2000      	movs	r0, #0
  40221a:	e7fb      	b.n	402214 <spi_write_packet+0x2c>

0040221c <spi_read_packet>:
  40221c:	b13a      	cbz	r2, 40222e <spi_read_packet+0x12>
  40221e:	b470      	push	{r4, r5, r6}
  402220:	4615      	mov	r5, r2
  402222:	460c      	mov	r4, r1
  402224:	440d      	add	r5, r1
  402226:	26ff      	movs	r6, #255	; 0xff
  402228:	f240 2101 	movw	r1, #513	; 0x201
  40222c:	e012      	b.n	402254 <spi_read_packet+0x38>
  40222e:	2000      	movs	r0, #0
  402230:	4770      	bx	lr
  402232:	60c6      	str	r6, [r0, #12]
  402234:	f643 2399 	movw	r3, #15001	; 0x3a99
  402238:	6902      	ldr	r2, [r0, #16]
  40223a:	ea31 0202 	bics.w	r2, r1, r2
  40223e:	d004      	beq.n	40224a <spi_read_packet+0x2e>
  402240:	3b01      	subs	r3, #1
  402242:	d1f9      	bne.n	402238 <spi_read_packet+0x1c>
  402244:	f06f 0002 	mvn.w	r0, #2
  402248:	e00e      	b.n	402268 <spi_read_packet+0x4c>
  40224a:	6883      	ldr	r3, [r0, #8]
  40224c:	f804 3b01 	strb.w	r3, [r4], #1
  402250:	42a5      	cmp	r5, r4
  402252:	d00b      	beq.n	40226c <spi_read_packet+0x50>
  402254:	f643 2399 	movw	r3, #15001	; 0x3a99
  402258:	6902      	ldr	r2, [r0, #16]
  40225a:	f012 0f02 	tst.w	r2, #2
  40225e:	d1e8      	bne.n	402232 <spi_read_packet+0x16>
  402260:	3b01      	subs	r3, #1
  402262:	d1f9      	bne.n	402258 <spi_read_packet+0x3c>
  402264:	f06f 0002 	mvn.w	r0, #2
  402268:	bc70      	pop	{r4, r5, r6}
  40226a:	4770      	bx	lr
  40226c:	2000      	movs	r0, #0
  40226e:	e7fb      	b.n	402268 <spi_read_packet+0x4c>

00402270 <mem_test_unit_ready>:
  402270:	b108      	cbz	r0, 402276 <mem_test_unit_ready+0x6>
  402272:	2001      	movs	r0, #1
  402274:	4770      	bx	lr
  402276:	b508      	push	{r3, lr}
  402278:	4b01      	ldr	r3, [pc, #4]	; (402280 <mem_test_unit_ready+0x10>)
  40227a:	4798      	blx	r3
  40227c:	bd08      	pop	{r3, pc}
  40227e:	bf00      	nop
  402280:	0040197d 	.word	0x0040197d

00402284 <mem_read_capacity>:
  402284:	b108      	cbz	r0, 40228a <mem_read_capacity+0x6>
  402286:	2001      	movs	r0, #1
  402288:	4770      	bx	lr
  40228a:	b508      	push	{r3, lr}
  40228c:	4608      	mov	r0, r1
  40228e:	4b01      	ldr	r3, [pc, #4]	; (402294 <mem_read_capacity+0x10>)
  402290:	4798      	blx	r3
  402292:	bd08      	pop	{r3, pc}
  402294:	004019ad 	.word	0x004019ad

00402298 <mem_sector_size>:
  402298:	fab0 f080 	clz	r0, r0
  40229c:	0940      	lsrs	r0, r0, #5
  40229e:	4770      	bx	lr

004022a0 <mem_wr_protect>:
  4022a0:	b108      	cbz	r0, 4022a6 <mem_wr_protect+0x6>
  4022a2:	2001      	movs	r0, #1
  4022a4:	4770      	bx	lr
  4022a6:	b508      	push	{r3, lr}
  4022a8:	4b01      	ldr	r3, [pc, #4]	; (4022b0 <mem_wr_protect+0x10>)
  4022aa:	4798      	blx	r3
  4022ac:	bd08      	pop	{r3, pc}
  4022ae:	bf00      	nop
  4022b0:	004019bd 	.word	0x004019bd

004022b4 <memory_2_ram>:
  4022b4:	b108      	cbz	r0, 4022ba <memory_2_ram+0x6>
  4022b6:	2001      	movs	r0, #1
  4022b8:	4770      	bx	lr
  4022ba:	b508      	push	{r3, lr}
  4022bc:	4608      	mov	r0, r1
  4022be:	4611      	mov	r1, r2
  4022c0:	4b01      	ldr	r3, [pc, #4]	; (4022c8 <memory_2_ram+0x14>)
  4022c2:	4798      	blx	r3
  4022c4:	bd08      	pop	{r3, pc}
  4022c6:	bf00      	nop
  4022c8:	00401a09 	.word	0x00401a09

004022cc <ram_2_memory>:
  4022cc:	b108      	cbz	r0, 4022d2 <ram_2_memory+0x6>
  4022ce:	2001      	movs	r0, #1
  4022d0:	4770      	bx	lr
  4022d2:	b508      	push	{r3, lr}
  4022d4:	4608      	mov	r0, r1
  4022d6:	4611      	mov	r1, r2
  4022d8:	4b01      	ldr	r3, [pc, #4]	; (4022e0 <ram_2_memory+0x14>)
  4022da:	4798      	blx	r3
  4022dc:	bd08      	pop	{r3, pc}
  4022de:	bf00      	nop
  4022e0:	00401a59 	.word	0x00401a59

004022e4 <board_init>:
  4022e4:	b5f8      	push	{r3, r4, r5, r6, r7, lr}
  4022e6:	4838      	ldr	r0, [pc, #224]	; (4023c8 <board_init+0xe4>)
  4022e8:	4b38      	ldr	r3, [pc, #224]	; (4023cc <board_init+0xe8>)
  4022ea:	4798      	blx	r3
  4022ec:	200b      	movs	r0, #11
  4022ee:	4c38      	ldr	r4, [pc, #224]	; (4023d0 <board_init+0xec>)
  4022f0:	47a0      	blx	r4
  4022f2:	200c      	movs	r0, #12
  4022f4:	47a0      	blx	r4
  4022f6:	200d      	movs	r0, #13
  4022f8:	47a0      	blx	r4
  4022fa:	4b36      	ldr	r3, [pc, #216]	; (4023d4 <board_init+0xf0>)
  4022fc:	f44f 0200 	mov.w	r2, #8388608	; 0x800000
  402300:	631a      	str	r2, [r3, #48]	; 0x30
  402302:	611a      	str	r2, [r3, #16]
  402304:	f8c3 20a0 	str.w	r2, [r3, #160]	; 0xa0
  402308:	4c33      	ldr	r4, [pc, #204]	; (4023d8 <board_init+0xf4>)
  40230a:	2504      	movs	r5, #4
  40230c:	6165      	str	r5, [r4, #20]
  40230e:	f8c4 50a0 	str.w	r5, [r4, #160]	; 0xa0
  402312:	6665      	str	r5, [r4, #100]	; 0x64
  402314:	f8c4 5090 	str.w	r5, [r4, #144]	; 0x90
  402318:	6565      	str	r5, [r4, #84]	; 0x54
  40231a:	6265      	str	r5, [r4, #36]	; 0x24
  40231c:	f8c4 5080 	str.w	r5, [r4, #128]	; 0x80
  402320:	6f22      	ldr	r2, [r4, #112]	; 0x70
  402322:	f022 0204 	bic.w	r2, r2, #4
  402326:	6722      	str	r2, [r4, #112]	; 0x70
  402328:	6f62      	ldr	r2, [r4, #116]	; 0x74
  40232a:	f022 0204 	bic.w	r2, r2, #4
  40232e:	6762      	str	r2, [r4, #116]	; 0x74
  402330:	f44f 1280 	mov.w	r2, #1048576	; 0x100000
  402334:	631a      	str	r2, [r3, #48]	; 0x30
  402336:	611a      	str	r2, [r3, #16]
  402338:	f8c3 20a0 	str.w	r2, [r3, #160]	; 0xa0
  40233c:	f44f 3280 	mov.w	r2, #65536	; 0x10000
  402340:	6322      	str	r2, [r4, #48]	; 0x30
  402342:	6122      	str	r2, [r4, #16]
  402344:	f8c4 20a0 	str.w	r2, [r4, #160]	; 0xa0
  402348:	f44f 0280 	mov.w	r2, #4194304	; 0x400000
  40234c:	631a      	str	r2, [r3, #48]	; 0x30
  40234e:	611a      	str	r2, [r3, #16]
  402350:	f8c3 20a0 	str.w	r2, [r3, #160]	; 0xa0
  402354:	f04f 6200 	mov.w	r2, #134217728	; 0x8000000
  402358:	210c      	movs	r1, #12
  40235a:	4820      	ldr	r0, [pc, #128]	; (4023dc <board_init+0xf8>)
  40235c:	4b20      	ldr	r3, [pc, #128]	; (4023e0 <board_init+0xfc>)
  40235e:	4798      	blx	r3
  402360:	4f20      	ldr	r7, [pc, #128]	; (4023e4 <board_init+0x100>)
  402362:	4639      	mov	r1, r7
  402364:	2003      	movs	r0, #3
  402366:	4e20      	ldr	r6, [pc, #128]	; (4023e8 <board_init+0x104>)
  402368:	47b0      	blx	r6
  40236a:	4639      	mov	r1, r7
  40236c:	4628      	mov	r0, r5
  40236e:	47b0      	blx	r6
  402370:	4639      	mov	r1, r7
  402372:	200c      	movs	r0, #12
  402374:	47b0      	blx	r6
  402376:	4639      	mov	r1, r7
  402378:	200d      	movs	r0, #13
  40237a:	47b0      	blx	r6
  40237c:	4639      	mov	r1, r7
  40237e:	200e      	movs	r0, #14
  402380:	47b0      	blx	r6
  402382:	f04f 5180 	mov.w	r1, #268435456	; 0x10000000
  402386:	2009      	movs	r0, #9
  402388:	47b0      	blx	r6
  40238a:	4918      	ldr	r1, [pc, #96]	; (4023ec <board_init+0x108>)
  40238c:	200a      	movs	r0, #10
  40238e:	47b0      	blx	r6
  402390:	f107 5740 	add.w	r7, r7, #805306368	; 0x30000000
  402394:	4639      	mov	r1, r7
  402396:	2055      	movs	r0, #85	; 0x55
  402398:	47b0      	blx	r6
  40239a:	4639      	mov	r1, r7
  40239c:	205f      	movs	r0, #95	; 0x5f
  40239e:	47b0      	blx	r6
  4023a0:	4913      	ldr	r1, [pc, #76]	; (4023f0 <board_init+0x10c>)
  4023a2:	204c      	movs	r0, #76	; 0x4c
  4023a4:	47b0      	blx	r6
  4023a6:	6665      	str	r5, [r4, #100]	; 0x64
  4023a8:	f8c4 5090 	str.w	r5, [r4, #144]	; 0x90
  4023ac:	6565      	str	r5, [r4, #84]	; 0x54
  4023ae:	6265      	str	r5, [r4, #36]	; 0x24
  4023b0:	f8c4 5080 	str.w	r5, [r4, #128]	; 0x80
  4023b4:	6f23      	ldr	r3, [r4, #112]	; 0x70
  4023b6:	f023 0304 	bic.w	r3, r3, #4
  4023ba:	6723      	str	r3, [r4, #112]	; 0x70
  4023bc:	6f63      	ldr	r3, [r4, #116]	; 0x74
  4023be:	f023 0304 	bic.w	r3, r3, #4
  4023c2:	6763      	str	r3, [r4, #116]	; 0x74
  4023c4:	bdf8      	pop	{r3, r4, r5, r6, r7, pc}
  4023c6:	bf00      	nop
  4023c8:	400e1450 	.word	0x400e1450
  4023cc:	00402fcd 	.word	0x00402fcd
  4023d0:	004029a9 	.word	0x004029a9
  4023d4:	400e1200 	.word	0x400e1200
  4023d8:	400e0e00 	.word	0x400e0e00
  4023dc:	400e1000 	.word	0x400e1000
  4023e0:	00402701 	.word	0x00402701
  4023e4:	08000001 	.word	0x08000001
  4023e8:	004025e1 	.word	0x004025e1
  4023ec:	10000001 	.word	0x10000001
  4023f0:	28000001 	.word	0x28000001

004023f4 <adc_init>:
  4023f4:	b430      	push	{r4, r5}
  4023f6:	2401      	movs	r4, #1
  4023f8:	6004      	str	r4, [r0, #0]
  4023fa:	2400      	movs	r4, #0
  4023fc:	6044      	str	r4, [r0, #4]
  4023fe:	f240 2502 	movw	r5, #514	; 0x202
  402402:	f8c0 5120 	str.w	r5, [r0, #288]	; 0x120
  402406:	f8c0 4104 	str.w	r4, [r0, #260]	; 0x104
  40240a:	f8c0 4114 	str.w	r4, [r0, #276]	; 0x114
  40240e:	6845      	ldr	r5, [r0, #4]
  402410:	0052      	lsls	r2, r2, #1
  402412:	fbb1 f2f2 	udiv	r2, r1, r2
  402416:	3a01      	subs	r2, #1
  402418:	0212      	lsls	r2, r2, #8
  40241a:	b292      	uxth	r2, r2
  40241c:	432b      	orrs	r3, r5
  40241e:	431a      	orrs	r2, r3
  402420:	6042      	str	r2, [r0, #4]
  402422:	4620      	mov	r0, r4
  402424:	bc30      	pop	{r4, r5}
  402426:	4770      	bx	lr

00402428 <adc_configure_trigger>:
  402428:	6843      	ldr	r3, [r0, #4]
  40242a:	01d2      	lsls	r2, r2, #7
  40242c:	b2d2      	uxtb	r2, r2
  40242e:	4319      	orrs	r1, r3
  402430:	430a      	orrs	r2, r1
  402432:	6042      	str	r2, [r0, #4]
  402434:	4770      	bx	lr

00402436 <adc_start>:
  402436:	2302      	movs	r3, #2
  402438:	6003      	str	r3, [r0, #0]
  40243a:	4770      	bx	lr

0040243c <adc_enable_channel>:
  40243c:	2301      	movs	r3, #1
  40243e:	fa03 f101 	lsl.w	r1, r3, r1
  402442:	6101      	str	r1, [r0, #16]
  402444:	4770      	bx	lr

00402446 <pio_set_peripheral>:
  402446:	6442      	str	r2, [r0, #68]	; 0x44
  402448:	f1b1 5fc0 	cmp.w	r1, #402653184	; 0x18000000
  40244c:	d039      	beq.n	4024c2 <pio_set_peripheral+0x7c>
  40244e:	d813      	bhi.n	402478 <pio_set_peripheral+0x32>
  402450:	f1b1 6f00 	cmp.w	r1, #134217728	; 0x8000000
  402454:	d025      	beq.n	4024a2 <pio_set_peripheral+0x5c>
  402456:	f1b1 5f80 	cmp.w	r1, #268435456	; 0x10000000
  40245a:	d10a      	bne.n	402472 <pio_set_peripheral+0x2c>
  40245c:	6f03      	ldr	r3, [r0, #112]	; 0x70
  40245e:	4313      	orrs	r3, r2
  402460:	6703      	str	r3, [r0, #112]	; 0x70
  402462:	6f43      	ldr	r3, [r0, #116]	; 0x74
  402464:	6f41      	ldr	r1, [r0, #116]	; 0x74
  402466:	400b      	ands	r3, r1
  402468:	ea23 0302 	bic.w	r3, r3, r2
  40246c:	6743      	str	r3, [r0, #116]	; 0x74
  40246e:	6042      	str	r2, [r0, #4]
  402470:	4770      	bx	lr
  402472:	2900      	cmp	r1, #0
  402474:	d1fb      	bne.n	40246e <pio_set_peripheral+0x28>
  402476:	4770      	bx	lr
  402478:	f1b1 5f20 	cmp.w	r1, #671088640	; 0x28000000
  40247c:	d020      	beq.n	4024c0 <pio_set_peripheral+0x7a>
  40247e:	d809      	bhi.n	402494 <pio_set_peripheral+0x4e>
  402480:	f1b1 5f00 	cmp.w	r1, #536870912	; 0x20000000
  402484:	d1f3      	bne.n	40246e <pio_set_peripheral+0x28>
  402486:	6f03      	ldr	r3, [r0, #112]	; 0x70
  402488:	4313      	orrs	r3, r2
  40248a:	6703      	str	r3, [r0, #112]	; 0x70
  40248c:	6f43      	ldr	r3, [r0, #116]	; 0x74
  40248e:	4313      	orrs	r3, r2
  402490:	6743      	str	r3, [r0, #116]	; 0x74
  402492:	e7ec      	b.n	40246e <pio_set_peripheral+0x28>
  402494:	f1b1 5f40 	cmp.w	r1, #805306368	; 0x30000000
  402498:	d012      	beq.n	4024c0 <pio_set_peripheral+0x7a>
  40249a:	f1b1 5f60 	cmp.w	r1, #939524096	; 0x38000000
  40249e:	d00f      	beq.n	4024c0 <pio_set_peripheral+0x7a>
  4024a0:	e7e5      	b.n	40246e <pio_set_peripheral+0x28>
  4024a2:	b410      	push	{r4}
  4024a4:	6f01      	ldr	r1, [r0, #112]	; 0x70
  4024a6:	6f04      	ldr	r4, [r0, #112]	; 0x70
  4024a8:	43d3      	mvns	r3, r2
  4024aa:	4021      	ands	r1, r4
  4024ac:	461c      	mov	r4, r3
  4024ae:	4019      	ands	r1, r3
  4024b0:	6701      	str	r1, [r0, #112]	; 0x70
  4024b2:	6f43      	ldr	r3, [r0, #116]	; 0x74
  4024b4:	6f41      	ldr	r1, [r0, #116]	; 0x74
  4024b6:	400b      	ands	r3, r1
  4024b8:	4023      	ands	r3, r4
  4024ba:	6743      	str	r3, [r0, #116]	; 0x74
  4024bc:	6042      	str	r2, [r0, #4]
  4024be:	bc10      	pop	{r4}
  4024c0:	4770      	bx	lr
  4024c2:	6f03      	ldr	r3, [r0, #112]	; 0x70
  4024c4:	6f01      	ldr	r1, [r0, #112]	; 0x70
  4024c6:	400b      	ands	r3, r1
  4024c8:	ea23 0302 	bic.w	r3, r3, r2
  4024cc:	6703      	str	r3, [r0, #112]	; 0x70
  4024ce:	6f43      	ldr	r3, [r0, #116]	; 0x74
  4024d0:	4313      	orrs	r3, r2
  4024d2:	6743      	str	r3, [r0, #116]	; 0x74
  4024d4:	e7cb      	b.n	40246e <pio_set_peripheral+0x28>

004024d6 <pio_set_input>:
  4024d6:	6441      	str	r1, [r0, #68]	; 0x44
  4024d8:	f012 0f01 	tst.w	r2, #1
  4024dc:	bf14      	ite	ne
  4024de:	6641      	strne	r1, [r0, #100]	; 0x64
  4024e0:	6601      	streq	r1, [r0, #96]	; 0x60
  4024e2:	f012 0f0a 	tst.w	r2, #10
  4024e6:	bf14      	ite	ne
  4024e8:	6201      	strne	r1, [r0, #32]
  4024ea:	6241      	streq	r1, [r0, #36]	; 0x24
  4024ec:	f012 0f02 	tst.w	r2, #2
  4024f0:	d107      	bne.n	402502 <pio_set_input+0x2c>
  4024f2:	f012 0f08 	tst.w	r2, #8
  4024f6:	bf18      	it	ne
  4024f8:	f8c0 1084 	strne.w	r1, [r0, #132]	; 0x84
  4024fc:	6141      	str	r1, [r0, #20]
  4024fe:	6001      	str	r1, [r0, #0]
  402500:	4770      	bx	lr
  402502:	f8c0 1080 	str.w	r1, [r0, #128]	; 0x80
  402506:	e7f9      	b.n	4024fc <pio_set_input+0x26>

00402508 <pio_set_output>:
  402508:	b410      	push	{r4}
  40250a:	9c01      	ldr	r4, [sp, #4]
  40250c:	6441      	str	r1, [r0, #68]	; 0x44
  40250e:	b944      	cbnz	r4, 402522 <pio_set_output+0x1a>
  402510:	6601      	str	r1, [r0, #96]	; 0x60
  402512:	b143      	cbz	r3, 402526 <pio_set_output+0x1e>
  402514:	6501      	str	r1, [r0, #80]	; 0x50
  402516:	b942      	cbnz	r2, 40252a <pio_set_output+0x22>
  402518:	6341      	str	r1, [r0, #52]	; 0x34
  40251a:	6101      	str	r1, [r0, #16]
  40251c:	6001      	str	r1, [r0, #0]
  40251e:	bc10      	pop	{r4}
  402520:	4770      	bx	lr
  402522:	6641      	str	r1, [r0, #100]	; 0x64
  402524:	e7f5      	b.n	402512 <pio_set_output+0xa>
  402526:	6541      	str	r1, [r0, #84]	; 0x54
  402528:	e7f5      	b.n	402516 <pio_set_output+0xe>
  40252a:	6301      	str	r1, [r0, #48]	; 0x30
  40252c:	e7f5      	b.n	40251a <pio_set_output+0x12>
	...

00402530 <pio_configure>:
  402530:	b570      	push	{r4, r5, r6, lr}
  402532:	b082      	sub	sp, #8
  402534:	4605      	mov	r5, r0
  402536:	4616      	mov	r6, r2
  402538:	461c      	mov	r4, r3
  40253a:	f1b1 5f00 	cmp.w	r1, #536870912	; 0x20000000
  40253e:	d014      	beq.n	40256a <pio_configure+0x3a>
  402540:	d90a      	bls.n	402558 <pio_configure+0x28>
  402542:	f1b1 5f40 	cmp.w	r1, #805306368	; 0x30000000
  402546:	d022      	beq.n	40258e <pio_configure+0x5e>
  402548:	f1b1 5f60 	cmp.w	r1, #939524096	; 0x38000000
  40254c:	d01f      	beq.n	40258e <pio_configure+0x5e>
  40254e:	f1b1 5f20 	cmp.w	r1, #671088640	; 0x28000000
  402552:	d016      	beq.n	402582 <pio_configure+0x52>
  402554:	2000      	movs	r0, #0
  402556:	e012      	b.n	40257e <pio_configure+0x4e>
  402558:	f1b1 5f80 	cmp.w	r1, #268435456	; 0x10000000
  40255c:	d005      	beq.n	40256a <pio_configure+0x3a>
  40255e:	f1b1 5fc0 	cmp.w	r1, #402653184	; 0x18000000
  402562:	d002      	beq.n	40256a <pio_configure+0x3a>
  402564:	f1b1 6f00 	cmp.w	r1, #134217728	; 0x8000000
  402568:	d1f4      	bne.n	402554 <pio_configure+0x24>
  40256a:	4632      	mov	r2, r6
  40256c:	4628      	mov	r0, r5
  40256e:	4b10      	ldr	r3, [pc, #64]	; (4025b0 <pio_configure+0x80>)
  402570:	4798      	blx	r3
  402572:	f014 0f01 	tst.w	r4, #1
  402576:	bf14      	ite	ne
  402578:	666e      	strne	r6, [r5, #100]	; 0x64
  40257a:	662e      	streq	r6, [r5, #96]	; 0x60
  40257c:	2001      	movs	r0, #1
  40257e:	b002      	add	sp, #8
  402580:	bd70      	pop	{r4, r5, r6, pc}
  402582:	461a      	mov	r2, r3
  402584:	4631      	mov	r1, r6
  402586:	4b0b      	ldr	r3, [pc, #44]	; (4025b4 <pio_configure+0x84>)
  402588:	4798      	blx	r3
  40258a:	2001      	movs	r0, #1
  40258c:	e7f7      	b.n	40257e <pio_configure+0x4e>
  40258e:	f004 0301 	and.w	r3, r4, #1
  402592:	9300      	str	r3, [sp, #0]
  402594:	f3c4 0380 	ubfx	r3, r4, #2, #1
  402598:	f1b1 5f60 	cmp.w	r1, #939524096	; 0x38000000
  40259c:	bf14      	ite	ne
  40259e:	2200      	movne	r2, #0
  4025a0:	2201      	moveq	r2, #1
  4025a2:	4631      	mov	r1, r6
  4025a4:	4628      	mov	r0, r5
  4025a6:	4c04      	ldr	r4, [pc, #16]	; (4025b8 <pio_configure+0x88>)
  4025a8:	47a0      	blx	r4
  4025aa:	2001      	movs	r0, #1
  4025ac:	e7e7      	b.n	40257e <pio_configure+0x4e>
  4025ae:	bf00      	nop
  4025b0:	00402447 	.word	0x00402447
  4025b4:	004024d7 	.word	0x004024d7
  4025b8:	00402509 	.word	0x00402509

004025bc <pio_get_interrupt_status>:
  4025bc:	6cc0      	ldr	r0, [r0, #76]	; 0x4c
  4025be:	4770      	bx	lr

004025c0 <pio_get_interrupt_mask>:
  4025c0:	6c80      	ldr	r0, [r0, #72]	; 0x48
  4025c2:	4770      	bx	lr

004025c4 <pio_get_pin_value>:
  4025c4:	0943      	lsrs	r3, r0, #5
  4025c6:	f503 1300 	add.w	r3, r3, #2097152	; 0x200000
  4025ca:	f203 7307 	addw	r3, r3, #1799	; 0x707
  4025ce:	025b      	lsls	r3, r3, #9
  4025d0:	6bdb      	ldr	r3, [r3, #60]	; 0x3c
  4025d2:	f000 001f 	and.w	r0, r0, #31
  4025d6:	fa23 f000 	lsr.w	r0, r3, r0
  4025da:	f000 0001 	and.w	r0, r0, #1
  4025de:	4770      	bx	lr

004025e0 <pio_configure_pin>:
  4025e0:	b570      	push	{r4, r5, r6, lr}
  4025e2:	b082      	sub	sp, #8
  4025e4:	460d      	mov	r5, r1
  4025e6:	0943      	lsrs	r3, r0, #5
  4025e8:	f503 1300 	add.w	r3, r3, #2097152	; 0x200000
  4025ec:	f203 7307 	addw	r3, r3, #1799	; 0x707
  4025f0:	025c      	lsls	r4, r3, #9
  4025f2:	f001 43f0 	and.w	r3, r1, #2013265920	; 0x78000000
  4025f6:	f1b3 5f00 	cmp.w	r3, #536870912	; 0x20000000
  4025fa:	d053      	beq.n	4026a4 <pio_configure_pin+0xc4>
  4025fc:	d80a      	bhi.n	402614 <pio_configure_pin+0x34>
  4025fe:	f1b3 5f80 	cmp.w	r3, #268435456	; 0x10000000
  402602:	d02d      	beq.n	402660 <pio_configure_pin+0x80>
  402604:	f1b3 5fc0 	cmp.w	r3, #402653184	; 0x18000000
  402608:	d03b      	beq.n	402682 <pio_configure_pin+0xa2>
  40260a:	f1b3 6f00 	cmp.w	r3, #134217728	; 0x8000000
  40260e:	d015      	beq.n	40263c <pio_configure_pin+0x5c>
  402610:	2000      	movs	r0, #0
  402612:	e023      	b.n	40265c <pio_configure_pin+0x7c>
  402614:	f1b3 5f40 	cmp.w	r3, #805306368	; 0x30000000
  402618:	d055      	beq.n	4026c6 <pio_configure_pin+0xe6>
  40261a:	f1b3 5f60 	cmp.w	r3, #939524096	; 0x38000000
  40261e:	d052      	beq.n	4026c6 <pio_configure_pin+0xe6>
  402620:	f1b3 5f20 	cmp.w	r3, #671088640	; 0x28000000
  402624:	d1f4      	bne.n	402610 <pio_configure_pin+0x30>
  402626:	f000 011f 	and.w	r1, r0, #31
  40262a:	2601      	movs	r6, #1
  40262c:	462a      	mov	r2, r5
  40262e:	fa06 f101 	lsl.w	r1, r6, r1
  402632:	4620      	mov	r0, r4
  402634:	4b2f      	ldr	r3, [pc, #188]	; (4026f4 <pio_configure_pin+0x114>)
  402636:	4798      	blx	r3
  402638:	4630      	mov	r0, r6
  40263a:	e00f      	b.n	40265c <pio_configure_pin+0x7c>
  40263c:	f000 001f 	and.w	r0, r0, #31
  402640:	2601      	movs	r6, #1
  402642:	4086      	lsls	r6, r0
  402644:	4632      	mov	r2, r6
  402646:	f04f 6100 	mov.w	r1, #134217728	; 0x8000000
  40264a:	4620      	mov	r0, r4
  40264c:	4b2a      	ldr	r3, [pc, #168]	; (4026f8 <pio_configure_pin+0x118>)
  40264e:	4798      	blx	r3
  402650:	f015 0f01 	tst.w	r5, #1
  402654:	bf14      	ite	ne
  402656:	6666      	strne	r6, [r4, #100]	; 0x64
  402658:	6626      	streq	r6, [r4, #96]	; 0x60
  40265a:	2001      	movs	r0, #1
  40265c:	b002      	add	sp, #8
  40265e:	bd70      	pop	{r4, r5, r6, pc}
  402660:	f000 001f 	and.w	r0, r0, #31
  402664:	2601      	movs	r6, #1
  402666:	4086      	lsls	r6, r0
  402668:	4632      	mov	r2, r6
  40266a:	f04f 5180 	mov.w	r1, #268435456	; 0x10000000
  40266e:	4620      	mov	r0, r4
  402670:	4b21      	ldr	r3, [pc, #132]	; (4026f8 <pio_configure_pin+0x118>)
  402672:	4798      	blx	r3
  402674:	f015 0f01 	tst.w	r5, #1
  402678:	bf14      	ite	ne
  40267a:	6666      	strne	r6, [r4, #100]	; 0x64
  40267c:	6626      	streq	r6, [r4, #96]	; 0x60
  40267e:	2001      	movs	r0, #1
  402680:	e7ec      	b.n	40265c <pio_configure_pin+0x7c>
  402682:	f000 001f 	and.w	r0, r0, #31
  402686:	2601      	movs	r6, #1
  402688:	4086      	lsls	r6, r0
  40268a:	4632      	mov	r2, r6
  40268c:	f04f 51c0 	mov.w	r1, #402653184	; 0x18000000
  402690:	4620      	mov	r0, r4
  402692:	4b19      	ldr	r3, [pc, #100]	; (4026f8 <pio_configure_pin+0x118>)
  402694:	4798      	blx	r3
  402696:	f015 0f01 	tst.w	r5, #1
  40269a:	bf14      	ite	ne
  40269c:	6666      	strne	r6, [r4, #100]	; 0x64
  40269e:	6626      	streq	r6, [r4, #96]	; 0x60
  4026a0:	2001      	movs	r0, #1
  4026a2:	e7db      	b.n	40265c <pio_configure_pin+0x7c>
  4026a4:	f000 001f 	and.w	r0, r0, #31
  4026a8:	2601      	movs	r6, #1
  4026aa:	4086      	lsls	r6, r0
  4026ac:	4632      	mov	r2, r6
  4026ae:	f04f 5100 	mov.w	r1, #536870912	; 0x20000000
  4026b2:	4620      	mov	r0, r4
  4026b4:	4b10      	ldr	r3, [pc, #64]	; (4026f8 <pio_configure_pin+0x118>)
  4026b6:	4798      	blx	r3
  4026b8:	f015 0f01 	tst.w	r5, #1
  4026bc:	bf14      	ite	ne
  4026be:	6666      	strne	r6, [r4, #100]	; 0x64
  4026c0:	6626      	streq	r6, [r4, #96]	; 0x60
  4026c2:	2001      	movs	r0, #1
  4026c4:	e7ca      	b.n	40265c <pio_configure_pin+0x7c>
  4026c6:	f005 5260 	and.w	r2, r5, #939524096	; 0x38000000
  4026ca:	f000 011f 	and.w	r1, r0, #31
  4026ce:	2601      	movs	r6, #1
  4026d0:	ea05 0306 	and.w	r3, r5, r6
  4026d4:	9300      	str	r3, [sp, #0]
  4026d6:	f3c5 0380 	ubfx	r3, r5, #2, #1
  4026da:	f1b2 5f60 	cmp.w	r2, #939524096	; 0x38000000
  4026de:	bf14      	ite	ne
  4026e0:	2200      	movne	r2, #0
  4026e2:	2201      	moveq	r2, #1
  4026e4:	fa06 f101 	lsl.w	r1, r6, r1
  4026e8:	4620      	mov	r0, r4
  4026ea:	4c04      	ldr	r4, [pc, #16]	; (4026fc <pio_configure_pin+0x11c>)
  4026ec:	47a0      	blx	r4
  4026ee:	4630      	mov	r0, r6
  4026f0:	e7b4      	b.n	40265c <pio_configure_pin+0x7c>
  4026f2:	bf00      	nop
  4026f4:	004024d7 	.word	0x004024d7
  4026f8:	00402447 	.word	0x00402447
  4026fc:	00402509 	.word	0x00402509

00402700 <pio_configure_pin_group>:
  402700:	b570      	push	{r4, r5, r6, lr}
  402702:	b082      	sub	sp, #8
  402704:	4605      	mov	r5, r0
  402706:	460e      	mov	r6, r1
  402708:	4614      	mov	r4, r2
  40270a:	f002 43f0 	and.w	r3, r2, #2013265920	; 0x78000000
  40270e:	f1b3 5f00 	cmp.w	r3, #536870912	; 0x20000000
  402712:	d03d      	beq.n	402790 <pio_configure_pin_group+0x90>
  402714:	d80a      	bhi.n	40272c <pio_configure_pin_group+0x2c>
  402716:	f1b3 5f80 	cmp.w	r3, #268435456	; 0x10000000
  40271a:	d021      	beq.n	402760 <pio_configure_pin_group+0x60>
  40271c:	f1b3 5fc0 	cmp.w	r3, #402653184	; 0x18000000
  402720:	d02a      	beq.n	402778 <pio_configure_pin_group+0x78>
  402722:	f1b3 6f00 	cmp.w	r3, #134217728	; 0x8000000
  402726:	d00e      	beq.n	402746 <pio_configure_pin_group+0x46>
  402728:	2000      	movs	r0, #0
  40272a:	e017      	b.n	40275c <pio_configure_pin_group+0x5c>
  40272c:	f1b3 5f40 	cmp.w	r3, #805306368	; 0x30000000
  402730:	d03a      	beq.n	4027a8 <pio_configure_pin_group+0xa8>
  402732:	f1b3 5f60 	cmp.w	r3, #939524096	; 0x38000000
  402736:	d037      	beq.n	4027a8 <pio_configure_pin_group+0xa8>
  402738:	f1b3 5f20 	cmp.w	r3, #671088640	; 0x28000000
  40273c:	d1f4      	bne.n	402728 <pio_configure_pin_group+0x28>
  40273e:	4b23      	ldr	r3, [pc, #140]	; (4027cc <pio_configure_pin_group+0xcc>)
  402740:	4798      	blx	r3
  402742:	2001      	movs	r0, #1
  402744:	e00a      	b.n	40275c <pio_configure_pin_group+0x5c>
  402746:	460a      	mov	r2, r1
  402748:	f04f 6100 	mov.w	r1, #134217728	; 0x8000000
  40274c:	4b20      	ldr	r3, [pc, #128]	; (4027d0 <pio_configure_pin_group+0xd0>)
  40274e:	4798      	blx	r3
  402750:	f014 0f01 	tst.w	r4, #1
  402754:	bf14      	ite	ne
  402756:	666e      	strne	r6, [r5, #100]	; 0x64
  402758:	662e      	streq	r6, [r5, #96]	; 0x60
  40275a:	2001      	movs	r0, #1
  40275c:	b002      	add	sp, #8
  40275e:	bd70      	pop	{r4, r5, r6, pc}
  402760:	460a      	mov	r2, r1
  402762:	f04f 5180 	mov.w	r1, #268435456	; 0x10000000
  402766:	4b1a      	ldr	r3, [pc, #104]	; (4027d0 <pio_configure_pin_group+0xd0>)
  402768:	4798      	blx	r3
  40276a:	f014 0f01 	tst.w	r4, #1
  40276e:	bf14      	ite	ne
  402770:	666e      	strne	r6, [r5, #100]	; 0x64
  402772:	662e      	streq	r6, [r5, #96]	; 0x60
  402774:	2001      	movs	r0, #1
  402776:	e7f1      	b.n	40275c <pio_configure_pin_group+0x5c>
  402778:	460a      	mov	r2, r1
  40277a:	f04f 51c0 	mov.w	r1, #402653184	; 0x18000000
  40277e:	4b14      	ldr	r3, [pc, #80]	; (4027d0 <pio_configure_pin_group+0xd0>)
  402780:	4798      	blx	r3
  402782:	f014 0f01 	tst.w	r4, #1
  402786:	bf14      	ite	ne
  402788:	666e      	strne	r6, [r5, #100]	; 0x64
  40278a:	662e      	streq	r6, [r5, #96]	; 0x60
  40278c:	2001      	movs	r0, #1
  40278e:	e7e5      	b.n	40275c <pio_configure_pin_group+0x5c>
  402790:	460a      	mov	r2, r1
  402792:	f04f 5100 	mov.w	r1, #536870912	; 0x20000000
  402796:	4b0e      	ldr	r3, [pc, #56]	; (4027d0 <pio_configure_pin_group+0xd0>)
  402798:	4798      	blx	r3
  40279a:	f014 0f01 	tst.w	r4, #1
  40279e:	bf14      	ite	ne
  4027a0:	666e      	strne	r6, [r5, #100]	; 0x64
  4027a2:	662e      	streq	r6, [r5, #96]	; 0x60
  4027a4:	2001      	movs	r0, #1
  4027a6:	e7d9      	b.n	40275c <pio_configure_pin_group+0x5c>
  4027a8:	f004 5260 	and.w	r2, r4, #939524096	; 0x38000000
  4027ac:	f004 0301 	and.w	r3, r4, #1
  4027b0:	9300      	str	r3, [sp, #0]
  4027b2:	f3c4 0380 	ubfx	r3, r4, #2, #1
  4027b6:	f1b2 5f60 	cmp.w	r2, #939524096	; 0x38000000
  4027ba:	bf14      	ite	ne
  4027bc:	2200      	movne	r2, #0
  4027be:	2201      	moveq	r2, #1
  4027c0:	4631      	mov	r1, r6
  4027c2:	4628      	mov	r0, r5
  4027c4:	4c03      	ldr	r4, [pc, #12]	; (4027d4 <pio_configure_pin_group+0xd4>)
  4027c6:	47a0      	blx	r4
  4027c8:	2001      	movs	r0, #1
  4027ca:	e7c7      	b.n	40275c <pio_configure_pin_group+0x5c>
  4027cc:	004024d7 	.word	0x004024d7
  4027d0:	00402447 	.word	0x00402447
  4027d4:	00402509 	.word	0x00402509

004027d8 <pio_handler_process>:
  4027d8:	e92d 43f8 	stmdb	sp!, {r3, r4, r5, r6, r7, r8, r9, lr}
  4027dc:	4681      	mov	r9, r0
  4027de:	460f      	mov	r7, r1
  4027e0:	4b12      	ldr	r3, [pc, #72]	; (40282c <pio_handler_process+0x54>)
  4027e2:	4798      	blx	r3
  4027e4:	4605      	mov	r5, r0
  4027e6:	4648      	mov	r0, r9
  4027e8:	4b11      	ldr	r3, [pc, #68]	; (402830 <pio_handler_process+0x58>)
  4027ea:	4798      	blx	r3
  4027ec:	4005      	ands	r5, r0
  4027ee:	d013      	beq.n	402818 <pio_handler_process+0x40>
  4027f0:	4c10      	ldr	r4, [pc, #64]	; (402834 <pio_handler_process+0x5c>)
  4027f2:	f104 0660 	add.w	r6, r4, #96	; 0x60
  4027f6:	e003      	b.n	402800 <pio_handler_process+0x28>
  4027f8:	42b4      	cmp	r4, r6
  4027fa:	d00d      	beq.n	402818 <pio_handler_process+0x40>
  4027fc:	3410      	adds	r4, #16
  4027fe:	b15d      	cbz	r5, 402818 <pio_handler_process+0x40>
  402800:	6820      	ldr	r0, [r4, #0]
  402802:	42b8      	cmp	r0, r7
  402804:	d1f8      	bne.n	4027f8 <pio_handler_process+0x20>
  402806:	6861      	ldr	r1, [r4, #4]
  402808:	4229      	tst	r1, r5
  40280a:	d0f5      	beq.n	4027f8 <pio_handler_process+0x20>
  40280c:	68e3      	ldr	r3, [r4, #12]
  40280e:	4798      	blx	r3
  402810:	6863      	ldr	r3, [r4, #4]
  402812:	ea25 0503 	bic.w	r5, r5, r3
  402816:	e7ef      	b.n	4027f8 <pio_handler_process+0x20>
  402818:	4b07      	ldr	r3, [pc, #28]	; (402838 <pio_handler_process+0x60>)
  40281a:	681b      	ldr	r3, [r3, #0]
  40281c:	b123      	cbz	r3, 402828 <pio_handler_process+0x50>
  40281e:	4b07      	ldr	r3, [pc, #28]	; (40283c <pio_handler_process+0x64>)
  402820:	681b      	ldr	r3, [r3, #0]
  402822:	b10b      	cbz	r3, 402828 <pio_handler_process+0x50>
  402824:	4648      	mov	r0, r9
  402826:	4798      	blx	r3
  402828:	e8bd 83f8 	ldmia.w	sp!, {r3, r4, r5, r6, r7, r8, r9, pc}
  40282c:	004025bd 	.word	0x004025bd
  402830:	004025c1 	.word	0x004025c1
  402834:	20001074 	.word	0x20001074
  402838:	2000617c 	.word	0x2000617c
  40283c:	200010e4 	.word	0x200010e4

00402840 <PIOA_Handler>:
  402840:	b508      	push	{r3, lr}
  402842:	210b      	movs	r1, #11
  402844:	4801      	ldr	r0, [pc, #4]	; (40284c <PIOA_Handler+0xc>)
  402846:	4b02      	ldr	r3, [pc, #8]	; (402850 <PIOA_Handler+0x10>)
  402848:	4798      	blx	r3
  40284a:	bd08      	pop	{r3, pc}
  40284c:	400e0e00 	.word	0x400e0e00
  402850:	004027d9 	.word	0x004027d9

00402854 <PIOB_Handler>:
  402854:	b508      	push	{r3, lr}
  402856:	210c      	movs	r1, #12
  402858:	4801      	ldr	r0, [pc, #4]	; (402860 <PIOB_Handler+0xc>)
  40285a:	4b02      	ldr	r3, [pc, #8]	; (402864 <PIOB_Handler+0x10>)
  40285c:	4798      	blx	r3
  40285e:	bd08      	pop	{r3, pc}
  402860:	400e1000 	.word	0x400e1000
  402864:	004027d9 	.word	0x004027d9

00402868 <PIOC_Handler>:
  402868:	b508      	push	{r3, lr}
  40286a:	210d      	movs	r1, #13
  40286c:	4801      	ldr	r0, [pc, #4]	; (402874 <PIOC_Handler+0xc>)
  40286e:	4b02      	ldr	r3, [pc, #8]	; (402878 <PIOC_Handler+0x10>)
  402870:	4798      	blx	r3
  402872:	bd08      	pop	{r3, pc}
  402874:	400e1200 	.word	0x400e1200
  402878:	004027d9 	.word	0x004027d9

0040287c <pmc_switch_mck_to_pllack>:
  40287c:	4a17      	ldr	r2, [pc, #92]	; (4028dc <pmc_switch_mck_to_pllack+0x60>)
  40287e:	6b13      	ldr	r3, [r2, #48]	; 0x30
  402880:	f023 0370 	bic.w	r3, r3, #112	; 0x70
  402884:	4318      	orrs	r0, r3
  402886:	6310      	str	r0, [r2, #48]	; 0x30
  402888:	6e93      	ldr	r3, [r2, #104]	; 0x68
  40288a:	f013 0f08 	tst.w	r3, #8
  40288e:	d10a      	bne.n	4028a6 <pmc_switch_mck_to_pllack+0x2a>
  402890:	f44f 6300 	mov.w	r3, #2048	; 0x800
  402894:	4911      	ldr	r1, [pc, #68]	; (4028dc <pmc_switch_mck_to_pllack+0x60>)
  402896:	6e8a      	ldr	r2, [r1, #104]	; 0x68
  402898:	f012 0f08 	tst.w	r2, #8
  40289c:	d103      	bne.n	4028a6 <pmc_switch_mck_to_pllack+0x2a>
  40289e:	3b01      	subs	r3, #1
  4028a0:	d1f9      	bne.n	402896 <pmc_switch_mck_to_pllack+0x1a>
  4028a2:	2001      	movs	r0, #1
  4028a4:	4770      	bx	lr
  4028a6:	4a0d      	ldr	r2, [pc, #52]	; (4028dc <pmc_switch_mck_to_pllack+0x60>)
  4028a8:	6b13      	ldr	r3, [r2, #48]	; 0x30
  4028aa:	f023 0303 	bic.w	r3, r3, #3
  4028ae:	f043 0302 	orr.w	r3, r3, #2
  4028b2:	6313      	str	r3, [r2, #48]	; 0x30
  4028b4:	6e93      	ldr	r3, [r2, #104]	; 0x68
  4028b6:	f013 0f08 	tst.w	r3, #8
  4028ba:	d10a      	bne.n	4028d2 <pmc_switch_mck_to_pllack+0x56>
  4028bc:	f44f 6300 	mov.w	r3, #2048	; 0x800
  4028c0:	4906      	ldr	r1, [pc, #24]	; (4028dc <pmc_switch_mck_to_pllack+0x60>)
  4028c2:	6e8a      	ldr	r2, [r1, #104]	; 0x68
  4028c4:	f012 0f08 	tst.w	r2, #8
  4028c8:	d105      	bne.n	4028d6 <pmc_switch_mck_to_pllack+0x5a>
  4028ca:	3b01      	subs	r3, #1
  4028cc:	d1f9      	bne.n	4028c2 <pmc_switch_mck_to_pllack+0x46>
  4028ce:	2001      	movs	r0, #1
  4028d0:	4770      	bx	lr
  4028d2:	2000      	movs	r0, #0
  4028d4:	4770      	bx	lr
  4028d6:	2000      	movs	r0, #0
  4028d8:	4770      	bx	lr
  4028da:	bf00      	nop
  4028dc:	400e0400 	.word	0x400e0400

004028e0 <pmc_switch_sclk_to_32kxtal>:
  4028e0:	2801      	cmp	r0, #1
  4028e2:	d003      	beq.n	4028ec <pmc_switch_sclk_to_32kxtal+0xc>
  4028e4:	4a05      	ldr	r2, [pc, #20]	; (4028fc <pmc_switch_sclk_to_32kxtal+0x1c>)
  4028e6:	4b06      	ldr	r3, [pc, #24]	; (402900 <pmc_switch_sclk_to_32kxtal+0x20>)
  4028e8:	601a      	str	r2, [r3, #0]
  4028ea:	4770      	bx	lr
  4028ec:	4a04      	ldr	r2, [pc, #16]	; (402900 <pmc_switch_sclk_to_32kxtal+0x20>)
  4028ee:	6893      	ldr	r3, [r2, #8]
  4028f0:	f043 4325 	orr.w	r3, r3, #2768240640	; 0xa5000000
  4028f4:	f443 1380 	orr.w	r3, r3, #1048576	; 0x100000
  4028f8:	6093      	str	r3, [r2, #8]
  4028fa:	e7f3      	b.n	4028e4 <pmc_switch_sclk_to_32kxtal+0x4>
  4028fc:	a5000008 	.word	0xa5000008
  402900:	400e1410 	.word	0x400e1410

00402904 <pmc_osc_is_ready_32kxtal>:
  402904:	4b05      	ldr	r3, [pc, #20]	; (40291c <pmc_osc_is_ready_32kxtal+0x18>)
  402906:	695b      	ldr	r3, [r3, #20]
  402908:	f013 0f80 	tst.w	r3, #128	; 0x80
  40290c:	bf1d      	ittte	ne
  40290e:	4b04      	ldrne	r3, [pc, #16]	; (402920 <pmc_osc_is_ready_32kxtal+0x1c>)
  402910:	6e98      	ldrne	r0, [r3, #104]	; 0x68
  402912:	f3c0 10c0 	ubfxne	r0, r0, #7, #1
  402916:	2000      	moveq	r0, #0
  402918:	4770      	bx	lr
  40291a:	bf00      	nop
  40291c:	400e1410 	.word	0x400e1410
  402920:	400e0400 	.word	0x400e0400

00402924 <pmc_switch_mainck_to_xtal>:
  402924:	b9c8      	cbnz	r0, 40295a <pmc_switch_mainck_to_xtal+0x36>
  402926:	4a11      	ldr	r2, [pc, #68]	; (40296c <pmc_switch_mainck_to_xtal+0x48>)
  402928:	6a13      	ldr	r3, [r2, #32]
  40292a:	0209      	lsls	r1, r1, #8
  40292c:	b289      	uxth	r1, r1
  40292e:	f423 135c 	bic.w	r3, r3, #3604480	; 0x370000
  402932:	f023 0303 	bic.w	r3, r3, #3
  402936:	f443 135c 	orr.w	r3, r3, #3604480	; 0x370000
  40293a:	f043 0301 	orr.w	r3, r3, #1
  40293e:	430b      	orrs	r3, r1
  402940:	6213      	str	r3, [r2, #32]
  402942:	6e93      	ldr	r3, [r2, #104]	; 0x68
  402944:	f013 0f01 	tst.w	r3, #1
  402948:	d0fb      	beq.n	402942 <pmc_switch_mainck_to_xtal+0x1e>
  40294a:	4a08      	ldr	r2, [pc, #32]	; (40296c <pmc_switch_mainck_to_xtal+0x48>)
  40294c:	6a13      	ldr	r3, [r2, #32]
  40294e:	f043 739b 	orr.w	r3, r3, #20316160	; 0x1360000
  402952:	f443 3380 	orr.w	r3, r3, #65536	; 0x10000
  402956:	6213      	str	r3, [r2, #32]
  402958:	4770      	bx	lr
  40295a:	4904      	ldr	r1, [pc, #16]	; (40296c <pmc_switch_mainck_to_xtal+0x48>)
  40295c:	6a0b      	ldr	r3, [r1, #32]
  40295e:	4a04      	ldr	r2, [pc, #16]	; (402970 <pmc_switch_mainck_to_xtal+0x4c>)
  402960:	401a      	ands	r2, r3
  402962:	4b04      	ldr	r3, [pc, #16]	; (402974 <pmc_switch_mainck_to_xtal+0x50>)
  402964:	4313      	orrs	r3, r2
  402966:	620b      	str	r3, [r1, #32]
  402968:	4770      	bx	lr
  40296a:	bf00      	nop
  40296c:	400e0400 	.word	0x400e0400
  402970:	fec8fffc 	.word	0xfec8fffc
  402974:	01370002 	.word	0x01370002

00402978 <pmc_osc_is_ready_mainck>:
  402978:	4b02      	ldr	r3, [pc, #8]	; (402984 <pmc_osc_is_ready_mainck+0xc>)
  40297a:	6e98      	ldr	r0, [r3, #104]	; 0x68
  40297c:	f400 3080 	and.w	r0, r0, #65536	; 0x10000
  402980:	4770      	bx	lr
  402982:	bf00      	nop
  402984:	400e0400 	.word	0x400e0400

00402988 <pmc_disable_pllack>:
  402988:	f04f 5200 	mov.w	r2, #536870912	; 0x20000000
  40298c:	4b01      	ldr	r3, [pc, #4]	; (402994 <pmc_disable_pllack+0xc>)
  40298e:	629a      	str	r2, [r3, #40]	; 0x28
  402990:	4770      	bx	lr
  402992:	bf00      	nop
  402994:	400e0400 	.word	0x400e0400

00402998 <pmc_is_locked_pllack>:
  402998:	4b02      	ldr	r3, [pc, #8]	; (4029a4 <pmc_is_locked_pllack+0xc>)
  40299a:	6e98      	ldr	r0, [r3, #104]	; 0x68
  40299c:	f000 0002 	and.w	r0, r0, #2
  4029a0:	4770      	bx	lr
  4029a2:	bf00      	nop
  4029a4:	400e0400 	.word	0x400e0400

004029a8 <pmc_enable_periph_clk>:
  4029a8:	2822      	cmp	r0, #34	; 0x22
  4029aa:	d81e      	bhi.n	4029ea <pmc_enable_periph_clk+0x42>
  4029ac:	281f      	cmp	r0, #31
  4029ae:	d80c      	bhi.n	4029ca <pmc_enable_periph_clk+0x22>
  4029b0:	4b11      	ldr	r3, [pc, #68]	; (4029f8 <pmc_enable_periph_clk+0x50>)
  4029b2:	699a      	ldr	r2, [r3, #24]
  4029b4:	2301      	movs	r3, #1
  4029b6:	4083      	lsls	r3, r0
  4029b8:	4393      	bics	r3, r2
  4029ba:	d018      	beq.n	4029ee <pmc_enable_periph_clk+0x46>
  4029bc:	2301      	movs	r3, #1
  4029be:	fa03 f000 	lsl.w	r0, r3, r0
  4029c2:	4b0d      	ldr	r3, [pc, #52]	; (4029f8 <pmc_enable_periph_clk+0x50>)
  4029c4:	6118      	str	r0, [r3, #16]
  4029c6:	2000      	movs	r0, #0
  4029c8:	4770      	bx	lr
  4029ca:	3820      	subs	r0, #32
  4029cc:	4b0a      	ldr	r3, [pc, #40]	; (4029f8 <pmc_enable_periph_clk+0x50>)
  4029ce:	f8d3 2108 	ldr.w	r2, [r3, #264]	; 0x108
  4029d2:	2301      	movs	r3, #1
  4029d4:	4083      	lsls	r3, r0
  4029d6:	4393      	bics	r3, r2
  4029d8:	d00b      	beq.n	4029f2 <pmc_enable_periph_clk+0x4a>
  4029da:	2301      	movs	r3, #1
  4029dc:	fa03 f000 	lsl.w	r0, r3, r0
  4029e0:	4b05      	ldr	r3, [pc, #20]	; (4029f8 <pmc_enable_periph_clk+0x50>)
  4029e2:	f8c3 0100 	str.w	r0, [r3, #256]	; 0x100
  4029e6:	2000      	movs	r0, #0
  4029e8:	4770      	bx	lr
  4029ea:	2001      	movs	r0, #1
  4029ec:	4770      	bx	lr
  4029ee:	2000      	movs	r0, #0
  4029f0:	4770      	bx	lr
  4029f2:	2000      	movs	r0, #0
  4029f4:	4770      	bx	lr
  4029f6:	bf00      	nop
  4029f8:	400e0400 	.word	0x400e0400

004029fc <rtc_set_hour_mode>:
  4029fc:	b921      	cbnz	r1, 402a08 <rtc_set_hour_mode+0xc>
  4029fe:	6843      	ldr	r3, [r0, #4]
  402a00:	f023 0301 	bic.w	r3, r3, #1
  402a04:	6043      	str	r3, [r0, #4]
  402a06:	4770      	bx	lr
  402a08:	6843      	ldr	r3, [r0, #4]
  402a0a:	f043 0301 	orr.w	r3, r3, #1
  402a0e:	6043      	str	r3, [r0, #4]
  402a10:	4770      	bx	lr

00402a12 <rtc_get_time>:
  402a12:	b430      	push	{r4, r5}
  402a14:	6885      	ldr	r5, [r0, #8]
  402a16:	6884      	ldr	r4, [r0, #8]
  402a18:	42a5      	cmp	r5, r4
  402a1a:	d003      	beq.n	402a24 <rtc_get_time+0x12>
  402a1c:	6885      	ldr	r5, [r0, #8]
  402a1e:	6884      	ldr	r4, [r0, #8]
  402a20:	42ac      	cmp	r4, r5
  402a22:	d1fb      	bne.n	402a1c <rtc_get_time+0xa>
  402a24:	b161      	cbz	r1, 402a40 <rtc_get_time+0x2e>
  402a26:	f3c4 5001 	ubfx	r0, r4, #20, #2
  402a2a:	eb00 0580 	add.w	r5, r0, r0, lsl #2
  402a2e:	f3c4 4003 	ubfx	r0, r4, #16, #4
  402a32:	eb00 0045 	add.w	r0, r0, r5, lsl #1
  402a36:	f414 0f80 	tst.w	r4, #4194304	; 0x400000
  402a3a:	bf18      	it	ne
  402a3c:	300c      	addne	r0, #12
  402a3e:	6008      	str	r0, [r1, #0]
  402a40:	b142      	cbz	r2, 402a54 <rtc_get_time+0x42>
  402a42:	f3c4 3102 	ubfx	r1, r4, #12, #3
  402a46:	eb01 0181 	add.w	r1, r1, r1, lsl #2
  402a4a:	f3c4 2003 	ubfx	r0, r4, #8, #4
  402a4e:	eb00 0141 	add.w	r1, r0, r1, lsl #1
  402a52:	6011      	str	r1, [r2, #0]
  402a54:	b143      	cbz	r3, 402a68 <rtc_get_time+0x56>
  402a56:	f3c4 1202 	ubfx	r2, r4, #4, #3
  402a5a:	eb02 0282 	add.w	r2, r2, r2, lsl #2
  402a5e:	f004 040f 	and.w	r4, r4, #15
  402a62:	eb04 0442 	add.w	r4, r4, r2, lsl #1
  402a66:	601c      	str	r4, [r3, #0]
  402a68:	bc30      	pop	{r4, r5}
  402a6a:	4770      	bx	lr

00402a6c <rtc_set_time>:
  402a6c:	b4f0      	push	{r4, r5, r6, r7}
  402a6e:	6844      	ldr	r4, [r0, #4]
  402a70:	f014 0f01 	tst.w	r4, #1
  402a74:	d005      	beq.n	402a82 <rtc_set_time+0x16>
  402a76:	290c      	cmp	r1, #12
  402a78:	d93d      	bls.n	402af6 <rtc_set_time+0x8a>
  402a7a:	390c      	subs	r1, #12
  402a7c:	f44f 0780 	mov.w	r7, #4194304	; 0x400000
  402a80:	e000      	b.n	402a84 <rtc_set_time+0x18>
  402a82:	2700      	movs	r7, #0
  402a84:	4c1d      	ldr	r4, [pc, #116]	; (402afc <rtc_set_time+0x90>)
  402a86:	fba4 5603 	umull	r5, r6, r4, r3
  402a8a:	08f6      	lsrs	r6, r6, #3
  402a8c:	eb06 0586 	add.w	r5, r6, r6, lsl #2
  402a90:	eba3 0345 	sub.w	r3, r3, r5, lsl #1
  402a94:	ea43 1306 	orr.w	r3, r3, r6, lsl #4
  402a98:	fba4 6502 	umull	r6, r5, r4, r2
  402a9c:	08ed      	lsrs	r5, r5, #3
  402a9e:	ea43 3305 	orr.w	r3, r3, r5, lsl #12
  402aa2:	eb05 0585 	add.w	r5, r5, r5, lsl #2
  402aa6:	eba2 0545 	sub.w	r5, r2, r5, lsl #1
  402aaa:	ea43 2305 	orr.w	r3, r3, r5, lsl #8
  402aae:	433b      	orrs	r3, r7
  402ab0:	fba4 4201 	umull	r4, r2, r4, r1
  402ab4:	08d2      	lsrs	r2, r2, #3
  402ab6:	ea43 5302 	orr.w	r3, r3, r2, lsl #20
  402aba:	eb02 0282 	add.w	r2, r2, r2, lsl #2
  402abe:	eba1 0142 	sub.w	r1, r1, r2, lsl #1
  402ac2:	ea43 4101 	orr.w	r1, r3, r1, lsl #16
  402ac6:	6983      	ldr	r3, [r0, #24]
  402ac8:	f013 0f04 	tst.w	r3, #4
  402acc:	d0fb      	beq.n	402ac6 <rtc_set_time+0x5a>
  402ace:	6803      	ldr	r3, [r0, #0]
  402ad0:	f043 0301 	orr.w	r3, r3, #1
  402ad4:	6003      	str	r3, [r0, #0]
  402ad6:	6983      	ldr	r3, [r0, #24]
  402ad8:	f013 0f01 	tst.w	r3, #1
  402adc:	d0fb      	beq.n	402ad6 <rtc_set_time+0x6a>
  402ade:	2301      	movs	r3, #1
  402ae0:	61c3      	str	r3, [r0, #28]
  402ae2:	6081      	str	r1, [r0, #8]
  402ae4:	6803      	ldr	r3, [r0, #0]
  402ae6:	f023 0301 	bic.w	r3, r3, #1
  402aea:	6003      	str	r3, [r0, #0]
  402aec:	6ac0      	ldr	r0, [r0, #44]	; 0x2c
  402aee:	f000 0001 	and.w	r0, r0, #1
  402af2:	bcf0      	pop	{r4, r5, r6, r7}
  402af4:	4770      	bx	lr
  402af6:	2700      	movs	r7, #0
  402af8:	e7c4      	b.n	402a84 <rtc_set_time+0x18>
  402afa:	bf00      	nop
  402afc:	cccccccd 	.word	0xcccccccd

00402b00 <rtc_get_date>:
  402b00:	b4f0      	push	{r4, r5, r6, r7}
  402b02:	9e04      	ldr	r6, [sp, #16]
  402b04:	68c5      	ldr	r5, [r0, #12]
  402b06:	68c4      	ldr	r4, [r0, #12]
  402b08:	42a5      	cmp	r5, r4
  402b0a:	d003      	beq.n	402b14 <rtc_get_date+0x14>
  402b0c:	68c5      	ldr	r5, [r0, #12]
  402b0e:	68c4      	ldr	r4, [r0, #12]
  402b10:	42ac      	cmp	r4, r5
  402b12:	d1fb      	bne.n	402b0c <rtc_get_date+0xc>
  402b14:	b199      	cbz	r1, 402b3e <rtc_get_date+0x3e>
  402b16:	f3c4 3003 	ubfx	r0, r4, #12, #4
  402b1a:	eb00 0080 	add.w	r0, r0, r0, lsl #2
  402b1e:	f3c4 2703 	ubfx	r7, r4, #8, #4
  402b22:	eb07 0740 	add.w	r7, r7, r0, lsl #1
  402b26:	f3c4 1002 	ubfx	r0, r4, #4, #3
  402b2a:	eb00 0580 	add.w	r5, r0, r0, lsl #2
  402b2e:	f004 000f 	and.w	r0, r4, #15
  402b32:	eb00 0045 	add.w	r0, r0, r5, lsl #1
  402b36:	2564      	movs	r5, #100	; 0x64
  402b38:	fb05 7000 	mla	r0, r5, r0, r7
  402b3c:	6008      	str	r0, [r1, #0]
  402b3e:	b142      	cbz	r2, 402b52 <rtc_get_date+0x52>
  402b40:	f3c4 5000 	ubfx	r0, r4, #20, #1
  402b44:	0081      	lsls	r1, r0, #2
  402b46:	4408      	add	r0, r1
  402b48:	f3c4 4103 	ubfx	r1, r4, #16, #4
  402b4c:	eb01 0140 	add.w	r1, r1, r0, lsl #1
  402b50:	6011      	str	r1, [r2, #0]
  402b52:	b143      	cbz	r3, 402b66 <rtc_get_date+0x66>
  402b54:	f3c4 7201 	ubfx	r2, r4, #28, #2
  402b58:	eb02 0282 	add.w	r2, r2, r2, lsl #2
  402b5c:	f3c4 6103 	ubfx	r1, r4, #24, #4
  402b60:	eb01 0242 	add.w	r2, r1, r2, lsl #1
  402b64:	601a      	str	r2, [r3, #0]
  402b66:	b116      	cbz	r6, 402b6e <rtc_get_date+0x6e>
  402b68:	f3c4 5442 	ubfx	r4, r4, #21, #3
  402b6c:	6034      	str	r4, [r6, #0]
  402b6e:	bcf0      	pop	{r4, r5, r6, r7}
  402b70:	4770      	bx	lr
	...

00402b74 <rtc_set_date>:
  402b74:	b470      	push	{r4, r5, r6}
  402b76:	4d2a      	ldr	r5, [pc, #168]	; (402c20 <rtc_set_date+0xac>)
  402b78:	fba5 4603 	umull	r4, r6, r5, r3
  402b7c:	08f6      	lsrs	r6, r6, #3
  402b7e:	9c03      	ldr	r4, [sp, #12]
  402b80:	0564      	lsls	r4, r4, #21
  402b82:	ea44 7406 	orr.w	r4, r4, r6, lsl #28
  402b86:	eb06 0686 	add.w	r6, r6, r6, lsl #2
  402b8a:	eba3 0346 	sub.w	r3, r3, r6, lsl #1
  402b8e:	ea44 6303 	orr.w	r3, r4, r3, lsl #24
  402b92:	fba5 6402 	umull	r6, r4, r5, r2
  402b96:	08e4      	lsrs	r4, r4, #3
  402b98:	ea43 5304 	orr.w	r3, r3, r4, lsl #20
  402b9c:	eb04 0484 	add.w	r4, r4, r4, lsl #2
  402ba0:	eba2 0244 	sub.w	r2, r2, r4, lsl #1
  402ba4:	ea43 4202 	orr.w	r2, r3, r2, lsl #16
  402ba8:	4b1e      	ldr	r3, [pc, #120]	; (402c24 <rtc_set_date+0xb0>)
  402baa:	fba3 4301 	umull	r4, r3, r3, r1
  402bae:	099b      	lsrs	r3, r3, #6
  402bb0:	ea42 1203 	orr.w	r2, r2, r3, lsl #4
  402bb4:	4b1c      	ldr	r3, [pc, #112]	; (402c28 <rtc_set_date+0xb4>)
  402bb6:	fba3 4301 	umull	r4, r3, r3, r1
  402bba:	095b      	lsrs	r3, r3, #5
  402bbc:	fba5 6403 	umull	r6, r4, r5, r3
  402bc0:	08e4      	lsrs	r4, r4, #3
  402bc2:	eb04 0484 	add.w	r4, r4, r4, lsl #2
  402bc6:	eba3 0344 	sub.w	r3, r3, r4, lsl #1
  402bca:	431a      	orrs	r2, r3
  402bcc:	fba5 4301 	umull	r4, r3, r5, r1
  402bd0:	08db      	lsrs	r3, r3, #3
  402bd2:	eb03 0483 	add.w	r4, r3, r3, lsl #2
  402bd6:	eba1 0144 	sub.w	r1, r1, r4, lsl #1
  402bda:	ea42 2201 	orr.w	r2, r2, r1, lsl #8
  402bde:	fba5 1503 	umull	r1, r5, r5, r3
  402be2:	08ed      	lsrs	r5, r5, #3
  402be4:	eb05 0585 	add.w	r5, r5, r5, lsl #2
  402be8:	eba3 0545 	sub.w	r5, r3, r5, lsl #1
  402bec:	ea42 3205 	orr.w	r2, r2, r5, lsl #12
  402bf0:	6983      	ldr	r3, [r0, #24]
  402bf2:	f013 0f04 	tst.w	r3, #4
  402bf6:	d0fb      	beq.n	402bf0 <rtc_set_date+0x7c>
  402bf8:	6803      	ldr	r3, [r0, #0]
  402bfa:	f043 0302 	orr.w	r3, r3, #2
  402bfe:	6003      	str	r3, [r0, #0]
  402c00:	6983      	ldr	r3, [r0, #24]
  402c02:	f013 0f01 	tst.w	r3, #1
  402c06:	d0fb      	beq.n	402c00 <rtc_set_date+0x8c>
  402c08:	2301      	movs	r3, #1
  402c0a:	61c3      	str	r3, [r0, #28]
  402c0c:	60c2      	str	r2, [r0, #12]
  402c0e:	6803      	ldr	r3, [r0, #0]
  402c10:	f023 0302 	bic.w	r3, r3, #2
  402c14:	6003      	str	r3, [r0, #0]
  402c16:	6ac0      	ldr	r0, [r0, #44]	; 0x2c
  402c18:	f000 0002 	and.w	r0, r0, #2
  402c1c:	bc70      	pop	{r4, r5, r6}
  402c1e:	4770      	bx	lr
  402c20:	cccccccd 	.word	0xcccccccd
  402c24:	10624dd3 	.word	0x10624dd3
  402c28:	51eb851f 	.word	0x51eb851f

00402c2c <spi_enable_clock>:
  402c2c:	b508      	push	{r3, lr}
  402c2e:	2015      	movs	r0, #21
  402c30:	4b01      	ldr	r3, [pc, #4]	; (402c38 <spi_enable_clock+0xc>)
  402c32:	4798      	blx	r3
  402c34:	bd08      	pop	{r3, pc}
  402c36:	bf00      	nop
  402c38:	004029a9 	.word	0x004029a9

00402c3c <spi_set_peripheral_chip_select_value>:
  402c3c:	6843      	ldr	r3, [r0, #4]
  402c3e:	f423 2370 	bic.w	r3, r3, #983040	; 0xf0000
  402c42:	6043      	str	r3, [r0, #4]
  402c44:	6843      	ldr	r3, [r0, #4]
  402c46:	0409      	lsls	r1, r1, #16
  402c48:	f401 2170 	and.w	r1, r1, #983040	; 0xf0000
  402c4c:	4319      	orrs	r1, r3
  402c4e:	6041      	str	r1, [r0, #4]
  402c50:	4770      	bx	lr

00402c52 <spi_set_delay_between_chip_select>:
  402c52:	6843      	ldr	r3, [r0, #4]
  402c54:	f023 437f 	bic.w	r3, r3, #4278190080	; 0xff000000
  402c58:	6043      	str	r3, [r0, #4]
  402c5a:	6843      	ldr	r3, [r0, #4]
  402c5c:	ea43 6101 	orr.w	r1, r3, r1, lsl #24
  402c60:	6041      	str	r1, [r0, #4]
  402c62:	4770      	bx	lr

00402c64 <spi_set_clock_polarity>:
  402c64:	b932      	cbnz	r2, 402c74 <spi_set_clock_polarity+0x10>
  402c66:	eb00 0081 	add.w	r0, r0, r1, lsl #2
  402c6a:	6b03      	ldr	r3, [r0, #48]	; 0x30
  402c6c:	f023 0301 	bic.w	r3, r3, #1
  402c70:	6303      	str	r3, [r0, #48]	; 0x30
  402c72:	4770      	bx	lr
  402c74:	eb00 0081 	add.w	r0, r0, r1, lsl #2
  402c78:	6b03      	ldr	r3, [r0, #48]	; 0x30
  402c7a:	f043 0301 	orr.w	r3, r3, #1
  402c7e:	6303      	str	r3, [r0, #48]	; 0x30
  402c80:	4770      	bx	lr

00402c82 <spi_set_clock_phase>:
  402c82:	b932      	cbnz	r2, 402c92 <spi_set_clock_phase+0x10>
  402c84:	eb00 0081 	add.w	r0, r0, r1, lsl #2
  402c88:	6b03      	ldr	r3, [r0, #48]	; 0x30
  402c8a:	f023 0302 	bic.w	r3, r3, #2
  402c8e:	6303      	str	r3, [r0, #48]	; 0x30
  402c90:	4770      	bx	lr
  402c92:	eb00 0081 	add.w	r0, r0, r1, lsl #2
  402c96:	6b03      	ldr	r3, [r0, #48]	; 0x30
  402c98:	f043 0302 	orr.w	r3, r3, #2
  402c9c:	6303      	str	r3, [r0, #48]	; 0x30
  402c9e:	4770      	bx	lr

00402ca0 <spi_configure_cs_behavior>:
  402ca0:	2a04      	cmp	r2, #4
  402ca2:	d003      	beq.n	402cac <spi_configure_cs_behavior+0xc>
  402ca4:	b16a      	cbz	r2, 402cc2 <spi_configure_cs_behavior+0x22>
  402ca6:	2a08      	cmp	r2, #8
  402ca8:	d016      	beq.n	402cd8 <spi_configure_cs_behavior+0x38>
  402caa:	4770      	bx	lr
  402cac:	eb00 0081 	add.w	r0, r0, r1, lsl #2
  402cb0:	6b03      	ldr	r3, [r0, #48]	; 0x30
  402cb2:	f023 0308 	bic.w	r3, r3, #8
  402cb6:	6303      	str	r3, [r0, #48]	; 0x30
  402cb8:	6b03      	ldr	r3, [r0, #48]	; 0x30
  402cba:	f043 0304 	orr.w	r3, r3, #4
  402cbe:	6303      	str	r3, [r0, #48]	; 0x30
  402cc0:	4770      	bx	lr
  402cc2:	eb00 0081 	add.w	r0, r0, r1, lsl #2
  402cc6:	6b03      	ldr	r3, [r0, #48]	; 0x30
  402cc8:	f023 0308 	bic.w	r3, r3, #8
  402ccc:	6303      	str	r3, [r0, #48]	; 0x30
  402cce:	6b03      	ldr	r3, [r0, #48]	; 0x30
  402cd0:	f023 0304 	bic.w	r3, r3, #4
  402cd4:	6303      	str	r3, [r0, #48]	; 0x30
  402cd6:	4770      	bx	lr
  402cd8:	eb00 0081 	add.w	r0, r0, r1, lsl #2
  402cdc:	6b03      	ldr	r3, [r0, #48]	; 0x30
  402cde:	f043 0308 	orr.w	r3, r3, #8
  402ce2:	6303      	str	r3, [r0, #48]	; 0x30
  402ce4:	e7e1      	b.n	402caa <spi_configure_cs_behavior+0xa>

00402ce6 <spi_set_bits_per_transfer>:
  402ce6:	eb00 0181 	add.w	r1, r0, r1, lsl #2
  402cea:	6b0b      	ldr	r3, [r1, #48]	; 0x30
  402cec:	f023 03f0 	bic.w	r3, r3, #240	; 0xf0
  402cf0:	630b      	str	r3, [r1, #48]	; 0x30
  402cf2:	6b0b      	ldr	r3, [r1, #48]	; 0x30
  402cf4:	431a      	orrs	r2, r3
  402cf6:	630a      	str	r2, [r1, #48]	; 0x30
  402cf8:	4770      	bx	lr

00402cfa <spi_calc_baudrate_div>:
  402cfa:	1e43      	subs	r3, r0, #1
  402cfc:	4419      	add	r1, r3
  402cfe:	fbb1 f0f0 	udiv	r0, r1, r0
  402d02:	1e43      	subs	r3, r0, #1
  402d04:	2bfe      	cmp	r3, #254	; 0xfe
  402d06:	bf94      	ite	ls
  402d08:	b200      	sxthls	r0, r0
  402d0a:	f04f 30ff 	movhi.w	r0, #4294967295
  402d0e:	4770      	bx	lr

00402d10 <spi_set_baudrate_div>:
  402d10:	b172      	cbz	r2, 402d30 <spi_set_baudrate_div+0x20>
  402d12:	b410      	push	{r4}
  402d14:	4614      	mov	r4, r2
  402d16:	eb00 0181 	add.w	r1, r0, r1, lsl #2
  402d1a:	6b0b      	ldr	r3, [r1, #48]	; 0x30
  402d1c:	f423 437f 	bic.w	r3, r3, #65280	; 0xff00
  402d20:	630b      	str	r3, [r1, #48]	; 0x30
  402d22:	6b0a      	ldr	r2, [r1, #48]	; 0x30
  402d24:	ea42 2204 	orr.w	r2, r2, r4, lsl #8
  402d28:	630a      	str	r2, [r1, #48]	; 0x30
  402d2a:	2000      	movs	r0, #0
  402d2c:	bc10      	pop	{r4}
  402d2e:	4770      	bx	lr
  402d30:	f04f 30ff 	mov.w	r0, #4294967295
  402d34:	4770      	bx	lr

00402d36 <spi_set_transfer_delay>:
  402d36:	b410      	push	{r4}
  402d38:	eb00 0181 	add.w	r1, r0, r1, lsl #2
  402d3c:	6b08      	ldr	r0, [r1, #48]	; 0x30
  402d3e:	b280      	uxth	r0, r0
  402d40:	6308      	str	r0, [r1, #48]	; 0x30
  402d42:	6b0c      	ldr	r4, [r1, #48]	; 0x30
  402d44:	ea44 6303 	orr.w	r3, r4, r3, lsl #24
  402d48:	ea43 4302 	orr.w	r3, r3, r2, lsl #16
  402d4c:	630b      	str	r3, [r1, #48]	; 0x30
  402d4e:	bc10      	pop	{r4}
  402d50:	4770      	bx	lr
	...

00402d54 <twi_set_speed>:
  402d54:	4b2a      	ldr	r3, [pc, #168]	; (402e00 <twi_set_speed+0xac>)
  402d56:	4299      	cmp	r1, r3
  402d58:	d849      	bhi.n	402dee <twi_set_speed+0x9a>
  402d5a:	f5a3 537a 	sub.w	r3, r3, #16000	; 0x3e80
  402d5e:	4299      	cmp	r1, r3
  402d60:	d92b      	bls.n	402dba <twi_set_speed+0x66>
  402d62:	b410      	push	{r4}
  402d64:	4c27      	ldr	r4, [pc, #156]	; (402e04 <twi_set_speed+0xb0>)
  402d66:	fba4 3402 	umull	r3, r4, r4, r2
  402d6a:	0ba4      	lsrs	r4, r4, #14
  402d6c:	3c04      	subs	r4, #4
  402d6e:	4b26      	ldr	r3, [pc, #152]	; (402e08 <twi_set_speed+0xb4>)
  402d70:	440b      	add	r3, r1
  402d72:	009b      	lsls	r3, r3, #2
  402d74:	fbb2 f2f3 	udiv	r2, r2, r3
  402d78:	3a04      	subs	r2, #4
  402d7a:	2cff      	cmp	r4, #255	; 0xff
  402d7c:	d939      	bls.n	402df2 <twi_set_speed+0x9e>
  402d7e:	2100      	movs	r1, #0
  402d80:	3101      	adds	r1, #1
  402d82:	0864      	lsrs	r4, r4, #1
  402d84:	2cff      	cmp	r4, #255	; 0xff
  402d86:	d90d      	bls.n	402da4 <twi_set_speed+0x50>
  402d88:	2907      	cmp	r1, #7
  402d8a:	d1f9      	bne.n	402d80 <twi_set_speed+0x2c>
  402d8c:	0213      	lsls	r3, r2, #8
  402d8e:	b29b      	uxth	r3, r3
  402d90:	0409      	lsls	r1, r1, #16
  402d92:	f401 21e0 	and.w	r1, r1, #458752	; 0x70000
  402d96:	430b      	orrs	r3, r1
  402d98:	b2e4      	uxtb	r4, r4
  402d9a:	4323      	orrs	r3, r4
  402d9c:	6103      	str	r3, [r0, #16]
  402d9e:	2000      	movs	r0, #0
  402da0:	bc10      	pop	{r4}
  402da2:	4770      	bx	lr
  402da4:	2aff      	cmp	r2, #255	; 0xff
  402da6:	d9f1      	bls.n	402d8c <twi_set_speed+0x38>
  402da8:	2906      	cmp	r1, #6
  402daa:	d8ef      	bhi.n	402d8c <twi_set_speed+0x38>
  402dac:	3101      	adds	r1, #1
  402dae:	0852      	lsrs	r2, r2, #1
  402db0:	2aff      	cmp	r2, #255	; 0xff
  402db2:	d9eb      	bls.n	402d8c <twi_set_speed+0x38>
  402db4:	2906      	cmp	r1, #6
  402db6:	d9f9      	bls.n	402dac <twi_set_speed+0x58>
  402db8:	e7e8      	b.n	402d8c <twi_set_speed+0x38>
  402dba:	0049      	lsls	r1, r1, #1
  402dbc:	fbb2 f2f1 	udiv	r2, r2, r1
  402dc0:	3a04      	subs	r2, #4
  402dc2:	2aff      	cmp	r2, #255	; 0xff
  402dc4:	d911      	bls.n	402dea <twi_set_speed+0x96>
  402dc6:	2300      	movs	r3, #0
  402dc8:	3301      	adds	r3, #1
  402dca:	0852      	lsrs	r2, r2, #1
  402dcc:	2aff      	cmp	r2, #255	; 0xff
  402dce:	d901      	bls.n	402dd4 <twi_set_speed+0x80>
  402dd0:	2b07      	cmp	r3, #7
  402dd2:	d1f9      	bne.n	402dc8 <twi_set_speed+0x74>
  402dd4:	0211      	lsls	r1, r2, #8
  402dd6:	b289      	uxth	r1, r1
  402dd8:	041b      	lsls	r3, r3, #16
  402dda:	f403 23e0 	and.w	r3, r3, #458752	; 0x70000
  402dde:	430b      	orrs	r3, r1
  402de0:	b2d2      	uxtb	r2, r2
  402de2:	431a      	orrs	r2, r3
  402de4:	6102      	str	r2, [r0, #16]
  402de6:	2000      	movs	r0, #0
  402de8:	4770      	bx	lr
  402dea:	2300      	movs	r3, #0
  402dec:	e7f2      	b.n	402dd4 <twi_set_speed+0x80>
  402dee:	2001      	movs	r0, #1
  402df0:	4770      	bx	lr
  402df2:	2aff      	cmp	r2, #255	; 0xff
  402df4:	bf88      	it	hi
  402df6:	2100      	movhi	r1, #0
  402df8:	d8d8      	bhi.n	402dac <twi_set_speed+0x58>
  402dfa:	2100      	movs	r1, #0
  402dfc:	e7c6      	b.n	402d8c <twi_set_speed+0x38>
  402dfe:	bf00      	nop
  402e00:	00061a80 	.word	0x00061a80
  402e04:	057619f1 	.word	0x057619f1
  402e08:	3ffd1200 	.word	0x3ffd1200

00402e0c <twi_master_init>:
  402e0c:	b538      	push	{r3, r4, r5, lr}
  402e0e:	4604      	mov	r4, r0
  402e10:	460d      	mov	r5, r1
  402e12:	f04f 33ff 	mov.w	r3, #4294967295
  402e16:	6283      	str	r3, [r0, #40]	; 0x28
  402e18:	6a03      	ldr	r3, [r0, #32]
  402e1a:	2380      	movs	r3, #128	; 0x80
  402e1c:	6003      	str	r3, [r0, #0]
  402e1e:	6b03      	ldr	r3, [r0, #48]	; 0x30
  402e20:	2308      	movs	r3, #8
  402e22:	6003      	str	r3, [r0, #0]
  402e24:	2320      	movs	r3, #32
  402e26:	6003      	str	r3, [r0, #0]
  402e28:	2304      	movs	r3, #4
  402e2a:	6003      	str	r3, [r0, #0]
  402e2c:	680a      	ldr	r2, [r1, #0]
  402e2e:	6849      	ldr	r1, [r1, #4]
  402e30:	4b05      	ldr	r3, [pc, #20]	; (402e48 <twi_master_init+0x3c>)
  402e32:	4798      	blx	r3
  402e34:	2801      	cmp	r0, #1
  402e36:	bf14      	ite	ne
  402e38:	2000      	movne	r0, #0
  402e3a:	2001      	moveq	r0, #1
  402e3c:	7a6b      	ldrb	r3, [r5, #9]
  402e3e:	2b01      	cmp	r3, #1
  402e40:	bf04      	itt	eq
  402e42:	2340      	moveq	r3, #64	; 0x40
  402e44:	6023      	streq	r3, [r4, #0]
  402e46:	bd38      	pop	{r3, r4, r5, pc}
  402e48:	00402d55 	.word	0x00402d55

00402e4c <uart_init>:
  402e4c:	b410      	push	{r4}
  402e4e:	23ac      	movs	r3, #172	; 0xac
  402e50:	6003      	str	r3, [r0, #0]
  402e52:	680b      	ldr	r3, [r1, #0]
  402e54:	684a      	ldr	r2, [r1, #4]
  402e56:	fbb3 f3f2 	udiv	r3, r3, r2
  402e5a:	091b      	lsrs	r3, r3, #4
  402e5c:	1e5c      	subs	r4, r3, #1
  402e5e:	f64f 72fe 	movw	r2, #65534	; 0xfffe
  402e62:	4294      	cmp	r4, r2
  402e64:	d80b      	bhi.n	402e7e <uart_init+0x32>
  402e66:	6203      	str	r3, [r0, #32]
  402e68:	688b      	ldr	r3, [r1, #8]
  402e6a:	6043      	str	r3, [r0, #4]
  402e6c:	f240 2302 	movw	r3, #514	; 0x202
  402e70:	f8c0 3120 	str.w	r3, [r0, #288]	; 0x120
  402e74:	2350      	movs	r3, #80	; 0x50
  402e76:	6003      	str	r3, [r0, #0]
  402e78:	2000      	movs	r0, #0
  402e7a:	bc10      	pop	{r4}
  402e7c:	4770      	bx	lr
  402e7e:	2001      	movs	r0, #1
  402e80:	e7fb      	b.n	402e7a <uart_init+0x2e>

00402e82 <uart_enable_tx>:
  402e82:	2340      	movs	r3, #64	; 0x40
  402e84:	6003      	str	r3, [r0, #0]
  402e86:	4770      	bx	lr

00402e88 <uart_enable_rx>:
  402e88:	2310      	movs	r3, #16
  402e8a:	6003      	str	r3, [r0, #0]
  402e8c:	4770      	bx	lr

00402e8e <uart_get_status>:
  402e8e:	6940      	ldr	r0, [r0, #20]
  402e90:	4770      	bx	lr

00402e92 <uart_write>:
  402e92:	6943      	ldr	r3, [r0, #20]
  402e94:	f013 0f02 	tst.w	r3, #2
  402e98:	bf1a      	itte	ne
  402e9a:	61c1      	strne	r1, [r0, #28]
  402e9c:	2000      	movne	r0, #0
  402e9e:	2001      	moveq	r0, #1
  402ea0:	4770      	bx	lr

00402ea2 <uart_read>:
  402ea2:	6943      	ldr	r3, [r0, #20]
  402ea4:	f013 0f01 	tst.w	r3, #1
  402ea8:	bf1d      	ittte	ne
  402eaa:	6983      	ldrne	r3, [r0, #24]
  402eac:	700b      	strbne	r3, [r1, #0]
  402eae:	2000      	movne	r0, #0
  402eb0:	2001      	moveq	r0, #1
  402eb2:	4770      	bx	lr

00402eb4 <usart_set_async_baudrate>:
  402eb4:	b410      	push	{r4}
  402eb6:	010b      	lsls	r3, r1, #4
  402eb8:	4293      	cmp	r3, r2
  402eba:	d914      	bls.n	402ee6 <usart_set_async_baudrate+0x32>
  402ebc:	00c9      	lsls	r1, r1, #3
  402ebe:	084b      	lsrs	r3, r1, #1
  402ec0:	eb03 02c2 	add.w	r2, r3, r2, lsl #3
  402ec4:	fbb2 f2f1 	udiv	r2, r2, r1
  402ec8:	08d3      	lsrs	r3, r2, #3
  402eca:	1e5c      	subs	r4, r3, #1
  402ecc:	f64f 71fe 	movw	r1, #65534	; 0xfffe
  402ed0:	428c      	cmp	r4, r1
  402ed2:	d901      	bls.n	402ed8 <usart_set_async_baudrate+0x24>
  402ed4:	2001      	movs	r0, #1
  402ed6:	e017      	b.n	402f08 <usart_set_async_baudrate+0x54>
  402ed8:	6841      	ldr	r1, [r0, #4]
  402eda:	f441 2100 	orr.w	r1, r1, #524288	; 0x80000
  402ede:	6041      	str	r1, [r0, #4]
  402ee0:	e00c      	b.n	402efc <usart_set_async_baudrate+0x48>
  402ee2:	2001      	movs	r0, #1
  402ee4:	e010      	b.n	402f08 <usart_set_async_baudrate+0x54>
  402ee6:	0859      	lsrs	r1, r3, #1
  402ee8:	eb01 02c2 	add.w	r2, r1, r2, lsl #3
  402eec:	fbb2 f2f3 	udiv	r2, r2, r3
  402ef0:	08d3      	lsrs	r3, r2, #3
  402ef2:	1e5c      	subs	r4, r3, #1
  402ef4:	f64f 71fe 	movw	r1, #65534	; 0xfffe
  402ef8:	428c      	cmp	r4, r1
  402efa:	d8f2      	bhi.n	402ee2 <usart_set_async_baudrate+0x2e>
  402efc:	0412      	lsls	r2, r2, #16
  402efe:	f402 22e0 	and.w	r2, r2, #458752	; 0x70000
  402f02:	431a      	orrs	r2, r3
  402f04:	6202      	str	r2, [r0, #32]
  402f06:	2000      	movs	r0, #0
  402f08:	bc10      	pop	{r4}
  402f0a:	4770      	bx	lr

00402f0c <usart_reset>:
  402f0c:	4b0a      	ldr	r3, [pc, #40]	; (402f38 <usart_reset+0x2c>)
  402f0e:	f8c0 30e4 	str.w	r3, [r0, #228]	; 0xe4
  402f12:	2300      	movs	r3, #0
  402f14:	6043      	str	r3, [r0, #4]
  402f16:	6243      	str	r3, [r0, #36]	; 0x24
  402f18:	6283      	str	r3, [r0, #40]	; 0x28
  402f1a:	2388      	movs	r3, #136	; 0x88
  402f1c:	6003      	str	r3, [r0, #0]
  402f1e:	2324      	movs	r3, #36	; 0x24
  402f20:	6003      	str	r3, [r0, #0]
  402f22:	f44f 7380 	mov.w	r3, #256	; 0x100
  402f26:	6003      	str	r3, [r0, #0]
  402f28:	f44f 2300 	mov.w	r3, #524288	; 0x80000
  402f2c:	6003      	str	r3, [r0, #0]
  402f2e:	f44f 3300 	mov.w	r3, #131072	; 0x20000
  402f32:	6003      	str	r3, [r0, #0]
  402f34:	4770      	bx	lr
  402f36:	bf00      	nop
  402f38:	55534100 	.word	0x55534100

00402f3c <usart_init_rs232>:
  402f3c:	b570      	push	{r4, r5, r6, lr}
  402f3e:	4605      	mov	r5, r0
  402f40:	460c      	mov	r4, r1
  402f42:	4616      	mov	r6, r2
  402f44:	4b0f      	ldr	r3, [pc, #60]	; (402f84 <usart_init_rs232+0x48>)
  402f46:	4798      	blx	r3
  402f48:	2200      	movs	r2, #0
  402f4a:	4b0f      	ldr	r3, [pc, #60]	; (402f88 <usart_init_rs232+0x4c>)
  402f4c:	601a      	str	r2, [r3, #0]
  402f4e:	b1a4      	cbz	r4, 402f7a <usart_init_rs232+0x3e>
  402f50:	4632      	mov	r2, r6
  402f52:	6821      	ldr	r1, [r4, #0]
  402f54:	4628      	mov	r0, r5
  402f56:	4b0d      	ldr	r3, [pc, #52]	; (402f8c <usart_init_rs232+0x50>)
  402f58:	4798      	blx	r3
  402f5a:	4602      	mov	r2, r0
  402f5c:	b978      	cbnz	r0, 402f7e <usart_init_rs232+0x42>
  402f5e:	6863      	ldr	r3, [r4, #4]
  402f60:	68a1      	ldr	r1, [r4, #8]
  402f62:	430b      	orrs	r3, r1
  402f64:	6921      	ldr	r1, [r4, #16]
  402f66:	430b      	orrs	r3, r1
  402f68:	68e1      	ldr	r1, [r4, #12]
  402f6a:	430b      	orrs	r3, r1
  402f6c:	4906      	ldr	r1, [pc, #24]	; (402f88 <usart_init_rs232+0x4c>)
  402f6e:	600b      	str	r3, [r1, #0]
  402f70:	6869      	ldr	r1, [r5, #4]
  402f72:	430b      	orrs	r3, r1
  402f74:	606b      	str	r3, [r5, #4]
  402f76:	4610      	mov	r0, r2
  402f78:	bd70      	pop	{r4, r5, r6, pc}
  402f7a:	2201      	movs	r2, #1
  402f7c:	e7fb      	b.n	402f76 <usart_init_rs232+0x3a>
  402f7e:	2201      	movs	r2, #1
  402f80:	e7f9      	b.n	402f76 <usart_init_rs232+0x3a>
  402f82:	bf00      	nop
  402f84:	00402f0d 	.word	0x00402f0d
  402f88:	200010e8 	.word	0x200010e8
  402f8c:	00402eb5 	.word	0x00402eb5

00402f90 <usart_enable_tx>:
  402f90:	2340      	movs	r3, #64	; 0x40
  402f92:	6003      	str	r3, [r0, #0]
  402f94:	4770      	bx	lr

00402f96 <usart_enable_rx>:
  402f96:	2310      	movs	r3, #16
  402f98:	6003      	str	r3, [r0, #0]
  402f9a:	4770      	bx	lr

00402f9c <usart_get_status>:
  402f9c:	6940      	ldr	r0, [r0, #20]
  402f9e:	4770      	bx	lr

00402fa0 <usart_write>:
  402fa0:	6943      	ldr	r3, [r0, #20]
  402fa2:	f013 0f02 	tst.w	r3, #2
  402fa6:	bf1d      	ittte	ne
  402fa8:	f3c1 0108 	ubfxne	r1, r1, #0, #9
  402fac:	61c1      	strne	r1, [r0, #28]
  402fae:	2000      	movne	r0, #0
  402fb0:	2001      	moveq	r0, #1
  402fb2:	4770      	bx	lr

00402fb4 <usart_read>:
  402fb4:	6943      	ldr	r3, [r0, #20]
  402fb6:	f013 0f01 	tst.w	r3, #1
  402fba:	d005      	beq.n	402fc8 <usart_read+0x14>
  402fbc:	6983      	ldr	r3, [r0, #24]
  402fbe:	f3c3 0308 	ubfx	r3, r3, #0, #9
  402fc2:	600b      	str	r3, [r1, #0]
  402fc4:	2000      	movs	r0, #0
  402fc6:	4770      	bx	lr
  402fc8:	2001      	movs	r0, #1
  402fca:	4770      	bx	lr

00402fcc <wdt_disable>:
  402fcc:	f44f 4300 	mov.w	r3, #32768	; 0x8000
  402fd0:	6043      	str	r3, [r0, #4]
  402fd2:	4770      	bx	lr

00402fd4 <Dummy_Handler>:
  402fd4:	e7fe      	b.n	402fd4 <Dummy_Handler>
	...

00402fd8 <Reset_Handler>:
  402fd8:	b508      	push	{r3, lr}
  402fda:	4b21      	ldr	r3, [pc, #132]	; (403060 <Reset_Handler+0x88>)
  402fdc:	4a21      	ldr	r2, [pc, #132]	; (403064 <Reset_Handler+0x8c>)
  402fde:	429a      	cmp	r2, r3
  402fe0:	d928      	bls.n	403034 <Reset_Handler+0x5c>
  402fe2:	4b21      	ldr	r3, [pc, #132]	; (403068 <Reset_Handler+0x90>)
  402fe4:	4a1e      	ldr	r2, [pc, #120]	; (403060 <Reset_Handler+0x88>)
  402fe6:	429a      	cmp	r2, r3
  402fe8:	d20c      	bcs.n	403004 <Reset_Handler+0x2c>
  402fea:	3b01      	subs	r3, #1
  402fec:	1a9b      	subs	r3, r3, r2
  402fee:	f023 0303 	bic.w	r3, r3, #3
  402ff2:	3304      	adds	r3, #4
  402ff4:	4413      	add	r3, r2
  402ff6:	491b      	ldr	r1, [pc, #108]	; (403064 <Reset_Handler+0x8c>)
  402ff8:	f851 0b04 	ldr.w	r0, [r1], #4
  402ffc:	f842 0b04 	str.w	r0, [r2], #4
  403000:	429a      	cmp	r2, r3
  403002:	d1f9      	bne.n	402ff8 <Reset_Handler+0x20>
  403004:	bf00      	nop
  403006:	4b19      	ldr	r3, [pc, #100]	; (40306c <Reset_Handler+0x94>)
  403008:	4a19      	ldr	r2, [pc, #100]	; (403070 <Reset_Handler+0x98>)
  40300a:	429a      	cmp	r2, r3
  40300c:	d20a      	bcs.n	403024 <Reset_Handler+0x4c>
  40300e:	3b01      	subs	r3, #1
  403010:	1a9b      	subs	r3, r3, r2
  403012:	f023 0303 	bic.w	r3, r3, #3
  403016:	3304      	adds	r3, #4
  403018:	4413      	add	r3, r2
  40301a:	2100      	movs	r1, #0
  40301c:	f842 1b04 	str.w	r1, [r2], #4
  403020:	429a      	cmp	r2, r3
  403022:	d1fb      	bne.n	40301c <Reset_Handler+0x44>
  403024:	4b13      	ldr	r3, [pc, #76]	; (403074 <Reset_Handler+0x9c>)
  403026:	4a14      	ldr	r2, [pc, #80]	; (403078 <Reset_Handler+0xa0>)
  403028:	609a      	str	r2, [r3, #8]
  40302a:	4b14      	ldr	r3, [pc, #80]	; (40307c <Reset_Handler+0xa4>)
  40302c:	4798      	blx	r3
  40302e:	4b14      	ldr	r3, [pc, #80]	; (403080 <Reset_Handler+0xa8>)
  403030:	4798      	blx	r3
  403032:	e7fe      	b.n	403032 <Reset_Handler+0x5a>
  403034:	4b0a      	ldr	r3, [pc, #40]	; (403060 <Reset_Handler+0x88>)
  403036:	4a0b      	ldr	r2, [pc, #44]	; (403064 <Reset_Handler+0x8c>)
  403038:	429a      	cmp	r2, r3
  40303a:	d2e3      	bcs.n	403004 <Reset_Handler+0x2c>
  40303c:	4b0a      	ldr	r3, [pc, #40]	; (403068 <Reset_Handler+0x90>)
  40303e:	4808      	ldr	r0, [pc, #32]	; (403060 <Reset_Handler+0x88>)
  403040:	1a18      	subs	r0, r3, r0
  403042:	4611      	mov	r1, r2
  403044:	3a04      	subs	r2, #4
  403046:	4402      	add	r2, r0
  403048:	2800      	cmp	r0, #0
  40304a:	d0db      	beq.n	403004 <Reset_Handler+0x2c>
  40304c:	f1c1 0104 	rsb	r1, r1, #4
  403050:	f852 0904 	ldr.w	r0, [r2], #-4
  403054:	f843 0d04 	str.w	r0, [r3, #-4]!
  403058:	42ca      	cmn	r2, r1
  40305a:	d1f9      	bne.n	403050 <Reset_Handler+0x78>
  40305c:	e7d2      	b.n	403004 <Reset_Handler+0x2c>
  40305e:	bf00      	nop
  403060:	20000000 	.word	0x20000000
  403064:	0040a6a4 	.word	0x0040a6a4
  403068:	20000df8 	.word	0x20000df8
  40306c:	200061a8 	.word	0x200061a8
  403070:	20000df8 	.word	0x20000df8
  403074:	e000ed00 	.word	0xe000ed00
  403078:	00400000 	.word	0x00400000
  40307c:	00405a11 	.word	0x00405a11
  403080:	00404f51 	.word	0x00404f51

00403084 <SystemCoreClockUpdate>:
  403084:	4b3c      	ldr	r3, [pc, #240]	; (403178 <SystemCoreClockUpdate+0xf4>)
  403086:	6b1b      	ldr	r3, [r3, #48]	; 0x30
  403088:	f003 0303 	and.w	r3, r3, #3
  40308c:	2b03      	cmp	r3, #3
  40308e:	d80e      	bhi.n	4030ae <SystemCoreClockUpdate+0x2a>
  403090:	e8df f003 	tbb	[pc, r3]
  403094:	38381c02 	.word	0x38381c02
  403098:	4b38      	ldr	r3, [pc, #224]	; (40317c <SystemCoreClockUpdate+0xf8>)
  40309a:	695b      	ldr	r3, [r3, #20]
  40309c:	f013 0f80 	tst.w	r3, #128	; 0x80
  4030a0:	bf14      	ite	ne
  4030a2:	f44f 4200 	movne.w	r2, #32768	; 0x8000
  4030a6:	f44f 42fa 	moveq.w	r2, #32000	; 0x7d00
  4030aa:	4b35      	ldr	r3, [pc, #212]	; (403180 <SystemCoreClockUpdate+0xfc>)
  4030ac:	601a      	str	r2, [r3, #0]
  4030ae:	4b32      	ldr	r3, [pc, #200]	; (403178 <SystemCoreClockUpdate+0xf4>)
  4030b0:	6b1b      	ldr	r3, [r3, #48]	; 0x30
  4030b2:	f003 0370 	and.w	r3, r3, #112	; 0x70
  4030b6:	2b70      	cmp	r3, #112	; 0x70
  4030b8:	d055      	beq.n	403166 <SystemCoreClockUpdate+0xe2>
  4030ba:	4b2f      	ldr	r3, [pc, #188]	; (403178 <SystemCoreClockUpdate+0xf4>)
  4030bc:	6b1a      	ldr	r2, [r3, #48]	; 0x30
  4030be:	4930      	ldr	r1, [pc, #192]	; (403180 <SystemCoreClockUpdate+0xfc>)
  4030c0:	f3c2 1202 	ubfx	r2, r2, #4, #3
  4030c4:	680b      	ldr	r3, [r1, #0]
  4030c6:	40d3      	lsrs	r3, r2
  4030c8:	600b      	str	r3, [r1, #0]
  4030ca:	4770      	bx	lr
  4030cc:	4b2a      	ldr	r3, [pc, #168]	; (403178 <SystemCoreClockUpdate+0xf4>)
  4030ce:	6a1b      	ldr	r3, [r3, #32]
  4030d0:	f013 7f80 	tst.w	r3, #16777216	; 0x1000000
  4030d4:	d003      	beq.n	4030de <SystemCoreClockUpdate+0x5a>
  4030d6:	4a2b      	ldr	r2, [pc, #172]	; (403184 <SystemCoreClockUpdate+0x100>)
  4030d8:	4b29      	ldr	r3, [pc, #164]	; (403180 <SystemCoreClockUpdate+0xfc>)
  4030da:	601a      	str	r2, [r3, #0]
  4030dc:	e7e7      	b.n	4030ae <SystemCoreClockUpdate+0x2a>
  4030de:	4a2a      	ldr	r2, [pc, #168]	; (403188 <SystemCoreClockUpdate+0x104>)
  4030e0:	4b27      	ldr	r3, [pc, #156]	; (403180 <SystemCoreClockUpdate+0xfc>)
  4030e2:	601a      	str	r2, [r3, #0]
  4030e4:	4b24      	ldr	r3, [pc, #144]	; (403178 <SystemCoreClockUpdate+0xf4>)
  4030e6:	6a1b      	ldr	r3, [r3, #32]
  4030e8:	f003 0370 	and.w	r3, r3, #112	; 0x70
  4030ec:	2b10      	cmp	r3, #16
  4030ee:	d005      	beq.n	4030fc <SystemCoreClockUpdate+0x78>
  4030f0:	2b20      	cmp	r3, #32
  4030f2:	d1dc      	bne.n	4030ae <SystemCoreClockUpdate+0x2a>
  4030f4:	4a23      	ldr	r2, [pc, #140]	; (403184 <SystemCoreClockUpdate+0x100>)
  4030f6:	4b22      	ldr	r3, [pc, #136]	; (403180 <SystemCoreClockUpdate+0xfc>)
  4030f8:	601a      	str	r2, [r3, #0]
  4030fa:	e7d8      	b.n	4030ae <SystemCoreClockUpdate+0x2a>
  4030fc:	4a23      	ldr	r2, [pc, #140]	; (40318c <SystemCoreClockUpdate+0x108>)
  4030fe:	4b20      	ldr	r3, [pc, #128]	; (403180 <SystemCoreClockUpdate+0xfc>)
  403100:	601a      	str	r2, [r3, #0]
  403102:	e7d4      	b.n	4030ae <SystemCoreClockUpdate+0x2a>
  403104:	4b1c      	ldr	r3, [pc, #112]	; (403178 <SystemCoreClockUpdate+0xf4>)
  403106:	6a1b      	ldr	r3, [r3, #32]
  403108:	f013 7f80 	tst.w	r3, #16777216	; 0x1000000
  40310c:	d018      	beq.n	403140 <SystemCoreClockUpdate+0xbc>
  40310e:	4a1d      	ldr	r2, [pc, #116]	; (403184 <SystemCoreClockUpdate+0x100>)
  403110:	4b1b      	ldr	r3, [pc, #108]	; (403180 <SystemCoreClockUpdate+0xfc>)
  403112:	601a      	str	r2, [r3, #0]
  403114:	4b18      	ldr	r3, [pc, #96]	; (403178 <SystemCoreClockUpdate+0xf4>)
  403116:	6b1b      	ldr	r3, [r3, #48]	; 0x30
  403118:	f003 0303 	and.w	r3, r3, #3
  40311c:	2b02      	cmp	r3, #2
  40311e:	4a16      	ldr	r2, [pc, #88]	; (403178 <SystemCoreClockUpdate+0xf4>)
  403120:	bf07      	ittee	eq
  403122:	6a91      	ldreq	r1, [r2, #40]	; 0x28
  403124:	6a92      	ldreq	r2, [r2, #40]	; 0x28
  403126:	6ad1      	ldrne	r1, [r2, #44]	; 0x2c
  403128:	6ad2      	ldrne	r2, [r2, #44]	; 0x2c
  40312a:	4815      	ldr	r0, [pc, #84]	; (403180 <SystemCoreClockUpdate+0xfc>)
  40312c:	f3c1 410a 	ubfx	r1, r1, #16, #11
  403130:	6803      	ldr	r3, [r0, #0]
  403132:	fb01 3303 	mla	r3, r1, r3, r3
  403136:	b2d2      	uxtb	r2, r2
  403138:	fbb3 f3f2 	udiv	r3, r3, r2
  40313c:	6003      	str	r3, [r0, #0]
  40313e:	e7b6      	b.n	4030ae <SystemCoreClockUpdate+0x2a>
  403140:	4a11      	ldr	r2, [pc, #68]	; (403188 <SystemCoreClockUpdate+0x104>)
  403142:	4b0f      	ldr	r3, [pc, #60]	; (403180 <SystemCoreClockUpdate+0xfc>)
  403144:	601a      	str	r2, [r3, #0]
  403146:	4b0c      	ldr	r3, [pc, #48]	; (403178 <SystemCoreClockUpdate+0xf4>)
  403148:	6a1b      	ldr	r3, [r3, #32]
  40314a:	f003 0370 	and.w	r3, r3, #112	; 0x70
  40314e:	2b10      	cmp	r3, #16
  403150:	d005      	beq.n	40315e <SystemCoreClockUpdate+0xda>
  403152:	2b20      	cmp	r3, #32
  403154:	d1de      	bne.n	403114 <SystemCoreClockUpdate+0x90>
  403156:	4a0b      	ldr	r2, [pc, #44]	; (403184 <SystemCoreClockUpdate+0x100>)
  403158:	4b09      	ldr	r3, [pc, #36]	; (403180 <SystemCoreClockUpdate+0xfc>)
  40315a:	601a      	str	r2, [r3, #0]
  40315c:	e7da      	b.n	403114 <SystemCoreClockUpdate+0x90>
  40315e:	4a0b      	ldr	r2, [pc, #44]	; (40318c <SystemCoreClockUpdate+0x108>)
  403160:	4b07      	ldr	r3, [pc, #28]	; (403180 <SystemCoreClockUpdate+0xfc>)
  403162:	601a      	str	r2, [r3, #0]
  403164:	e7d6      	b.n	403114 <SystemCoreClockUpdate+0x90>
  403166:	4a06      	ldr	r2, [pc, #24]	; (403180 <SystemCoreClockUpdate+0xfc>)
  403168:	6813      	ldr	r3, [r2, #0]
  40316a:	4909      	ldr	r1, [pc, #36]	; (403190 <SystemCoreClockUpdate+0x10c>)
  40316c:	fba1 1303 	umull	r1, r3, r1, r3
  403170:	085b      	lsrs	r3, r3, #1
  403172:	6013      	str	r3, [r2, #0]
  403174:	4770      	bx	lr
  403176:	bf00      	nop
  403178:	400e0400 	.word	0x400e0400
  40317c:	400e1410 	.word	0x400e1410
  403180:	20000444 	.word	0x20000444
  403184:	00b71b00 	.word	0x00b71b00
  403188:	003d0900 	.word	0x003d0900
  40318c:	007a1200 	.word	0x007a1200
  403190:	aaaaaaab 	.word	0xaaaaaaab

00403194 <system_init_flash>:
  403194:	4b1a      	ldr	r3, [pc, #104]	; (403200 <system_init_flash+0x6c>)
  403196:	4298      	cmp	r0, r3
  403198:	d914      	bls.n	4031c4 <system_init_flash+0x30>
  40319a:	4b1a      	ldr	r3, [pc, #104]	; (403204 <system_init_flash+0x70>)
  40319c:	4298      	cmp	r0, r3
  40319e:	d919      	bls.n	4031d4 <system_init_flash+0x40>
  4031a0:	4b19      	ldr	r3, [pc, #100]	; (403208 <system_init_flash+0x74>)
  4031a2:	4298      	cmp	r0, r3
  4031a4:	d91d      	bls.n	4031e2 <system_init_flash+0x4e>
  4031a6:	4b19      	ldr	r3, [pc, #100]	; (40320c <system_init_flash+0x78>)
  4031a8:	4298      	cmp	r0, r3
  4031aa:	d921      	bls.n	4031f0 <system_init_flash+0x5c>
  4031ac:	4b18      	ldr	r3, [pc, #96]	; (403210 <system_init_flash+0x7c>)
  4031ae:	4298      	cmp	r0, r3
  4031b0:	bf94      	ite	ls
  4031b2:	f04f 2304 	movls.w	r3, #67109888	; 0x4000400
  4031b6:	4b17      	ldrhi	r3, [pc, #92]	; (403214 <system_init_flash+0x80>)
  4031b8:	4a17      	ldr	r2, [pc, #92]	; (403218 <system_init_flash+0x84>)
  4031ba:	6013      	str	r3, [r2, #0]
  4031bc:	f502 7200 	add.w	r2, r2, #512	; 0x200
  4031c0:	6013      	str	r3, [r2, #0]
  4031c2:	4770      	bx	lr
  4031c4:	f04f 6380 	mov.w	r3, #67108864	; 0x4000000
  4031c8:	4a13      	ldr	r2, [pc, #76]	; (403218 <system_init_flash+0x84>)
  4031ca:	6013      	str	r3, [r2, #0]
  4031cc:	f502 7200 	add.w	r2, r2, #512	; 0x200
  4031d0:	6013      	str	r3, [r2, #0]
  4031d2:	4770      	bx	lr
  4031d4:	4b11      	ldr	r3, [pc, #68]	; (40321c <system_init_flash+0x88>)
  4031d6:	4a10      	ldr	r2, [pc, #64]	; (403218 <system_init_flash+0x84>)
  4031d8:	6013      	str	r3, [r2, #0]
  4031da:	f502 7200 	add.w	r2, r2, #512	; 0x200
  4031de:	6013      	str	r3, [r2, #0]
  4031e0:	4770      	bx	lr
  4031e2:	4b0f      	ldr	r3, [pc, #60]	; (403220 <system_init_flash+0x8c>)
  4031e4:	4a0c      	ldr	r2, [pc, #48]	; (403218 <system_init_flash+0x84>)
  4031e6:	6013      	str	r3, [r2, #0]
  4031e8:	f502 7200 	add.w	r2, r2, #512	; 0x200
  4031ec:	6013      	str	r3, [r2, #0]
  4031ee:	4770      	bx	lr
  4031f0:	4b0c      	ldr	r3, [pc, #48]	; (403224 <system_init_flash+0x90>)
  4031f2:	4a09      	ldr	r2, [pc, #36]	; (403218 <system_init_flash+0x84>)
  4031f4:	6013      	str	r3, [r2, #0]
  4031f6:	f502 7200 	add.w	r2, r2, #512	; 0x200
  4031fa:	6013      	str	r3, [r2, #0]
  4031fc:	4770      	bx	lr
  4031fe:	bf00      	nop
  403200:	01312cff 	.word	0x01312cff
  403204:	026259ff 	.word	0x026259ff
  403208:	039386ff 	.word	0x039386ff
  40320c:	04c4b3ff 	.word	0x04c4b3ff
  403210:	05f5e0ff 	.word	0x05f5e0ff
  403214:	04000500 	.word	0x04000500
  403218:	400e0a00 	.word	0x400e0a00
  40321c:	04000100 	.word	0x04000100
  403220:	04000200 	.word	0x04000200
  403224:	04000300 	.word	0x04000300

00403228 <_sbrk>:
  403228:	4b0a      	ldr	r3, [pc, #40]	; (403254 <_sbrk+0x2c>)
  40322a:	681b      	ldr	r3, [r3, #0]
  40322c:	b153      	cbz	r3, 403244 <_sbrk+0x1c>
  40322e:	4b09      	ldr	r3, [pc, #36]	; (403254 <_sbrk+0x2c>)
  403230:	681b      	ldr	r3, [r3, #0]
  403232:	181a      	adds	r2, r3, r0
  403234:	4908      	ldr	r1, [pc, #32]	; (403258 <_sbrk+0x30>)
  403236:	4291      	cmp	r1, r2
  403238:	db08      	blt.n	40324c <_sbrk+0x24>
  40323a:	4610      	mov	r0, r2
  40323c:	4a05      	ldr	r2, [pc, #20]	; (403254 <_sbrk+0x2c>)
  40323e:	6010      	str	r0, [r2, #0]
  403240:	4618      	mov	r0, r3
  403242:	4770      	bx	lr
  403244:	4a05      	ldr	r2, [pc, #20]	; (40325c <_sbrk+0x34>)
  403246:	4b03      	ldr	r3, [pc, #12]	; (403254 <_sbrk+0x2c>)
  403248:	601a      	str	r2, [r3, #0]
  40324a:	e7f0      	b.n	40322e <_sbrk+0x6>
  40324c:	f04f 30ff 	mov.w	r0, #4294967295
  403250:	4770      	bx	lr
  403252:	bf00      	nop
  403254:	200010ec 	.word	0x200010ec
  403258:	20013ffc 	.word	0x20013ffc
  40325c:	200091a8 	.word	0x200091a8

00403260 <disk_initialize>:
  403260:	b510      	push	{r4, lr}
  403262:	4604      	mov	r4, r0
  403264:	2100      	movs	r1, #0
  403266:	480f      	ldr	r0, [pc, #60]	; (4032a4 <disk_initialize+0x44>)
  403268:	4b0f      	ldr	r3, [pc, #60]	; (4032a8 <disk_initialize+0x48>)
  40326a:	4798      	blx	r3
  40326c:	2c01      	cmp	r4, #1
  40326e:	d901      	bls.n	403274 <disk_initialize+0x14>
  403270:	2001      	movs	r0, #1
  403272:	bd10      	pop	{r4, pc}
  403274:	4620      	mov	r0, r4
  403276:	4b0d      	ldr	r3, [pc, #52]	; (4032ac <disk_initialize+0x4c>)
  403278:	4798      	blx	r3
  40327a:	2803      	cmp	r0, #3
  40327c:	d106      	bne.n	40328c <disk_initialize+0x2c>
  40327e:	4620      	mov	r0, r4
  403280:	4b0a      	ldr	r3, [pc, #40]	; (4032ac <disk_initialize+0x4c>)
  403282:	4798      	blx	r3
  403284:	2803      	cmp	r0, #3
  403286:	d101      	bne.n	40328c <disk_initialize+0x2c>
  403288:	2001      	movs	r0, #1
  40328a:	bd10      	pop	{r4, pc}
  40328c:	b938      	cbnz	r0, 40329e <disk_initialize+0x3e>
  40328e:	4620      	mov	r0, r4
  403290:	4b07      	ldr	r3, [pc, #28]	; (4032b0 <disk_initialize+0x50>)
  403292:	4798      	blx	r3
  403294:	2800      	cmp	r0, #0
  403296:	bf14      	ite	ne
  403298:	2004      	movne	r0, #4
  40329a:	2000      	moveq	r0, #0
  40329c:	bd10      	pop	{r4, pc}
  40329e:	2001      	movs	r0, #1
  4032a0:	bd10      	pop	{r4, pc}
  4032a2:	bf00      	nop
  4032a4:	400e1460 	.word	0x400e1460
  4032a8:	004029fd 	.word	0x004029fd
  4032ac:	00402271 	.word	0x00402271
  4032b0:	004022a1 	.word	0x004022a1

004032b4 <disk_status>:
  4032b4:	b508      	push	{r3, lr}
  4032b6:	4b05      	ldr	r3, [pc, #20]	; (4032cc <disk_status+0x18>)
  4032b8:	4798      	blx	r3
  4032ba:	b120      	cbz	r0, 4032c6 <disk_status+0x12>
  4032bc:	2802      	cmp	r0, #2
  4032be:	bf0c      	ite	eq
  4032c0:	2003      	moveq	r0, #3
  4032c2:	2001      	movne	r0, #1
  4032c4:	bd08      	pop	{r3, pc}
  4032c6:	2000      	movs	r0, #0
  4032c8:	bd08      	pop	{r3, pc}
  4032ca:	bf00      	nop
  4032cc:	00402271 	.word	0x00402271

004032d0 <disk_read>:
  4032d0:	e92d 4ff0 	stmdb	sp!, {r4, r5, r6, r7, r8, r9, sl, fp, lr}
  4032d4:	b083      	sub	sp, #12
  4032d6:	4680      	mov	r8, r0
  4032d8:	460d      	mov	r5, r1
  4032da:	4614      	mov	r4, r2
  4032dc:	461f      	mov	r7, r3
  4032de:	4b15      	ldr	r3, [pc, #84]	; (403334 <disk_read+0x64>)
  4032e0:	4798      	blx	r3
  4032e2:	b918      	cbnz	r0, 4032ec <disk_read+0x1c>
  4032e4:	2001      	movs	r0, #1
  4032e6:	b003      	add	sp, #12
  4032e8:	e8bd 8ff0 	ldmia.w	sp!, {r4, r5, r6, r7, r8, r9, sl, fp, pc}
  4032ec:	4606      	mov	r6, r0
  4032ee:	a901      	add	r1, sp, #4
  4032f0:	4640      	mov	r0, r8
  4032f2:	4b11      	ldr	r3, [pc, #68]	; (403338 <disk_read+0x68>)
  4032f4:	4798      	blx	r3
  4032f6:	46b1      	mov	r9, r6
  4032f8:	fb06 4207 	mla	r2, r6, r7, r4
  4032fc:	9b01      	ldr	r3, [sp, #4]
  4032fe:	fb03 6306 	mla	r3, r3, r6, r6
  403302:	429a      	cmp	r2, r3
  403304:	d901      	bls.n	40330a <disk_read+0x3a>
  403306:	2004      	movs	r0, #4
  403308:	e7ed      	b.n	4032e6 <disk_read+0x16>
  40330a:	46ba      	mov	sl, r7
  40330c:	b177      	cbz	r7, 40332c <disk_read+0x5c>
  40330e:	0276      	lsls	r6, r6, #9
  403310:	2700      	movs	r7, #0
  403312:	f8df b028 	ldr.w	fp, [pc, #40]	; 40333c <disk_read+0x6c>
  403316:	462a      	mov	r2, r5
  403318:	4621      	mov	r1, r4
  40331a:	4640      	mov	r0, r8
  40331c:	47d8      	blx	fp
  40331e:	b938      	cbnz	r0, 403330 <disk_read+0x60>
  403320:	3701      	adds	r7, #1
  403322:	444c      	add	r4, r9
  403324:	4435      	add	r5, r6
  403326:	4557      	cmp	r7, sl
  403328:	d1f5      	bne.n	403316 <disk_read+0x46>
  40332a:	e7dc      	b.n	4032e6 <disk_read+0x16>
  40332c:	2000      	movs	r0, #0
  40332e:	e7da      	b.n	4032e6 <disk_read+0x16>
  403330:	2001      	movs	r0, #1
  403332:	e7d8      	b.n	4032e6 <disk_read+0x16>
  403334:	00402299 	.word	0x00402299
  403338:	00402285 	.word	0x00402285
  40333c:	004022b5 	.word	0x004022b5

00403340 <disk_write>:
  403340:	e92d 4ff0 	stmdb	sp!, {r4, r5, r6, r7, r8, r9, sl, fp, lr}
  403344:	b083      	sub	sp, #12
  403346:	4680      	mov	r8, r0
  403348:	460d      	mov	r5, r1
  40334a:	4614      	mov	r4, r2
  40334c:	461f      	mov	r7, r3
  40334e:	4b15      	ldr	r3, [pc, #84]	; (4033a4 <disk_write+0x64>)
  403350:	4798      	blx	r3
  403352:	b918      	cbnz	r0, 40335c <disk_write+0x1c>
  403354:	2001      	movs	r0, #1
  403356:	b003      	add	sp, #12
  403358:	e8bd 8ff0 	ldmia.w	sp!, {r4, r5, r6, r7, r8, r9, sl, fp, pc}
  40335c:	4606      	mov	r6, r0
  40335e:	a901      	add	r1, sp, #4
  403360:	4640      	mov	r0, r8
  403362:	4b11      	ldr	r3, [pc, #68]	; (4033a8 <disk_write+0x68>)
  403364:	4798      	blx	r3
  403366:	46b1      	mov	r9, r6
  403368:	fb06 4207 	mla	r2, r6, r7, r4
  40336c:	9b01      	ldr	r3, [sp, #4]
  40336e:	fb03 6306 	mla	r3, r3, r6, r6
  403372:	429a      	cmp	r2, r3
  403374:	d901      	bls.n	40337a <disk_write+0x3a>
  403376:	2004      	movs	r0, #4
  403378:	e7ed      	b.n	403356 <disk_write+0x16>
  40337a:	46ba      	mov	sl, r7
  40337c:	b177      	cbz	r7, 40339c <disk_write+0x5c>
  40337e:	0276      	lsls	r6, r6, #9
  403380:	2700      	movs	r7, #0
  403382:	f8df b028 	ldr.w	fp, [pc, #40]	; 4033ac <disk_write+0x6c>
  403386:	462a      	mov	r2, r5
  403388:	4621      	mov	r1, r4
  40338a:	4640      	mov	r0, r8
  40338c:	47d8      	blx	fp
  40338e:	b938      	cbnz	r0, 4033a0 <disk_write+0x60>
  403390:	3701      	adds	r7, #1
  403392:	444c      	add	r4, r9
  403394:	4435      	add	r5, r6
  403396:	4557      	cmp	r7, sl
  403398:	d1f5      	bne.n	403386 <disk_write+0x46>
  40339a:	e7dc      	b.n	403356 <disk_write+0x16>
  40339c:	2000      	movs	r0, #0
  40339e:	e7da      	b.n	403356 <disk_write+0x16>
  4033a0:	2001      	movs	r0, #1
  4033a2:	e7d8      	b.n	403356 <disk_write+0x16>
  4033a4:	00402299 	.word	0x00402299
  4033a8:	00402285 	.word	0x00402285
  4033ac:	004022cd 	.word	0x004022cd

004033b0 <disk_ioctl>:
  4033b0:	b510      	push	{r4, lr}
  4033b2:	b082      	sub	sp, #8
  4033b4:	4614      	mov	r4, r2
  4033b6:	2903      	cmp	r1, #3
  4033b8:	d827      	bhi.n	40340a <disk_ioctl+0x5a>
  4033ba:	e8df f001 	tbb	[pc, r1]
  4033be:	071f      	.short	0x071f
  4033c0:	020f      	.short	0x020f
  4033c2:	2301      	movs	r3, #1
  4033c4:	6013      	str	r3, [r2, #0]
  4033c6:	2000      	movs	r0, #0
  4033c8:	b002      	add	sp, #8
  4033ca:	bd10      	pop	{r4, pc}
  4033cc:	a901      	add	r1, sp, #4
  4033ce:	4b11      	ldr	r3, [pc, #68]	; (403414 <disk_ioctl+0x64>)
  4033d0:	4798      	blx	r3
  4033d2:	9b01      	ldr	r3, [sp, #4]
  4033d4:	3301      	adds	r3, #1
  4033d6:	6023      	str	r3, [r4, #0]
  4033d8:	2000      	movs	r0, #0
  4033da:	e7f5      	b.n	4033c8 <disk_ioctl+0x18>
  4033dc:	4b0e      	ldr	r3, [pc, #56]	; (403418 <disk_ioctl+0x68>)
  4033de:	4798      	blx	r3
  4033e0:	2808      	cmp	r0, #8
  4033e2:	d814      	bhi.n	40340e <disk_ioctl+0x5e>
  4033e4:	f44f 738b 	mov.w	r3, #278	; 0x116
  4033e8:	fa23 f000 	lsr.w	r0, r3, r0
  4033ec:	f010 0f01 	tst.w	r0, #1
  4033f0:	d101      	bne.n	4033f6 <disk_ioctl+0x46>
  4033f2:	2001      	movs	r0, #1
  4033f4:	e7e8      	b.n	4033c8 <disk_ioctl+0x18>
  4033f6:	2000      	movs	r0, #0
  4033f8:	7020      	strb	r0, [r4, #0]
  4033fa:	e7e5      	b.n	4033c8 <disk_ioctl+0x18>
  4033fc:	4b07      	ldr	r3, [pc, #28]	; (40341c <disk_ioctl+0x6c>)
  4033fe:	4798      	blx	r3
  403400:	2800      	cmp	r0, #0
  403402:	bf0c      	ite	eq
  403404:	2000      	moveq	r0, #0
  403406:	2003      	movne	r0, #3
  403408:	e7de      	b.n	4033c8 <disk_ioctl+0x18>
  40340a:	2004      	movs	r0, #4
  40340c:	e7dc      	b.n	4033c8 <disk_ioctl+0x18>
  40340e:	2001      	movs	r0, #1
  403410:	e7da      	b.n	4033c8 <disk_ioctl+0x18>
  403412:	bf00      	nop
  403414:	00402285 	.word	0x00402285
  403418:	00402299 	.word	0x00402299
  40341c:	00402271 	.word	0x00402271

00403420 <get_fattime>:
  403420:	b530      	push	{r4, r5, lr}
  403422:	b08b      	sub	sp, #44	; 0x2c
  403424:	4c11      	ldr	r4, [pc, #68]	; (40346c <get_fattime+0x4c>)
  403426:	ab07      	add	r3, sp, #28
  403428:	aa08      	add	r2, sp, #32
  40342a:	a909      	add	r1, sp, #36	; 0x24
  40342c:	4620      	mov	r0, r4
  40342e:	4d10      	ldr	r5, [pc, #64]	; (403470 <get_fattime+0x50>)
  403430:	47a8      	blx	r5
  403432:	ab03      	add	r3, sp, #12
  403434:	9300      	str	r3, [sp, #0]
  403436:	ab04      	add	r3, sp, #16
  403438:	aa05      	add	r2, sp, #20
  40343a:	a906      	add	r1, sp, #24
  40343c:	4620      	mov	r0, r4
  40343e:	4c0d      	ldr	r4, [pc, #52]	; (403474 <get_fattime+0x54>)
  403440:	47a0      	blx	r4
  403442:	9b04      	ldr	r3, [sp, #16]
  403444:	041b      	lsls	r3, r3, #16
  403446:	9805      	ldr	r0, [sp, #20]
  403448:	ea43 5340 	orr.w	r3, r3, r0, lsl #21
  40344c:	9809      	ldr	r0, [sp, #36]	; 0x24
  40344e:	ea43 23c0 	orr.w	r3, r3, r0, lsl #11
  403452:	9808      	ldr	r0, [sp, #32]
  403454:	ea43 1340 	orr.w	r3, r3, r0, lsl #5
  403458:	9807      	ldr	r0, [sp, #28]
  40345a:	ea43 0350 	orr.w	r3, r3, r0, lsr #1
  40345e:	9806      	ldr	r0, [sp, #24]
  403460:	f2a0 70bc 	subw	r0, r0, #1980	; 0x7bc
  403464:	ea43 6040 	orr.w	r0, r3, r0, lsl #25
  403468:	b00b      	add	sp, #44	; 0x2c
  40346a:	bd30      	pop	{r4, r5, pc}
  40346c:	400e1460 	.word	0x400e1460
  403470:	00402a13 	.word	0x00402a13
  403474:	00402b01 	.word	0x00402b01

00403478 <mem_cpy>:
  403478:	b13a      	cbz	r2, 40348a <mem_cpy+0x12>
  40347a:	3801      	subs	r0, #1
  40347c:	188a      	adds	r2, r1, r2
  40347e:	f811 3b01 	ldrb.w	r3, [r1], #1
  403482:	f800 3f01 	strb.w	r3, [r0, #1]!
  403486:	4291      	cmp	r1, r2
  403488:	d1f9      	bne.n	40347e <mem_cpy+0x6>
  40348a:	4770      	bx	lr

0040348c <mem_set>:
  40348c:	b122      	cbz	r2, 403498 <mem_set+0xc>
  40348e:	1882      	adds	r2, r0, r2
  403490:	f800 1b01 	strb.w	r1, [r0], #1
  403494:	4282      	cmp	r2, r0
  403496:	d1fb      	bne.n	403490 <mem_set+0x4>
  403498:	4770      	bx	lr

0040349a <clust2sect>:
  40349a:	3902      	subs	r1, #2
  40349c:	6983      	ldr	r3, [r0, #24]
  40349e:	3b02      	subs	r3, #2
  4034a0:	4299      	cmp	r1, r3
  4034a2:	bf3d      	ittte	cc
  4034a4:	7883      	ldrbcc	r3, [r0, #2]
  4034a6:	6a80      	ldrcc	r0, [r0, #40]	; 0x28
  4034a8:	fb01 0003 	mlacc	r0, r1, r3, r0
  4034ac:	2000      	movcs	r0, #0
  4034ae:	4770      	bx	lr

004034b0 <sum_sfn>:
  4034b0:	4602      	mov	r2, r0
  4034b2:	f100 010b 	add.w	r1, r0, #11
  4034b6:	2000      	movs	r0, #0
  4034b8:	01c3      	lsls	r3, r0, #7
  4034ba:	ea43 0350 	orr.w	r3, r3, r0, lsr #1
  4034be:	f812 0b01 	ldrb.w	r0, [r2], #1
  4034c2:	fa50 f383 	uxtab	r3, r0, r3
  4034c6:	b2d8      	uxtb	r0, r3
  4034c8:	428a      	cmp	r2, r1
  4034ca:	d1f5      	bne.n	4034b8 <sum_sfn+0x8>
  4034cc:	4770      	bx	lr
	...

004034d0 <validate>:
  4034d0:	b198      	cbz	r0, 4034fa <validate+0x2a>
  4034d2:	b508      	push	{r3, lr}
  4034d4:	7802      	ldrb	r2, [r0, #0]
  4034d6:	b90a      	cbnz	r2, 4034dc <validate+0xc>
  4034d8:	2009      	movs	r0, #9
  4034da:	bd08      	pop	{r3, pc}
  4034dc:	88c2      	ldrh	r2, [r0, #6]
  4034de:	428a      	cmp	r2, r1
  4034e0:	d001      	beq.n	4034e6 <validate+0x16>
  4034e2:	2009      	movs	r0, #9
  4034e4:	bd08      	pop	{r3, pc}
  4034e6:	7840      	ldrb	r0, [r0, #1]
  4034e8:	4b05      	ldr	r3, [pc, #20]	; (403500 <validate+0x30>)
  4034ea:	4798      	blx	r3
  4034ec:	f000 0001 	and.w	r0, r0, #1
  4034f0:	2800      	cmp	r0, #0
  4034f2:	bf14      	ite	ne
  4034f4:	2003      	movne	r0, #3
  4034f6:	2000      	moveq	r0, #0
  4034f8:	bd08      	pop	{r3, pc}
  4034fa:	2009      	movs	r0, #9
  4034fc:	4770      	bx	lr
  4034fe:	bf00      	nop
  403500:	004032b5 	.word	0x004032b5

00403504 <check_fs>:
  403504:	b538      	push	{r3, r4, r5, lr}
  403506:	4604      	mov	r4, r0
  403508:	2301      	movs	r3, #1
  40350a:	460a      	mov	r2, r1
  40350c:	f100 0130 	add.w	r1, r0, #48	; 0x30
  403510:	7840      	ldrb	r0, [r0, #1]
  403512:	4d1d      	ldr	r5, [pc, #116]	; (403588 <check_fs+0x84>)
  403514:	47a8      	blx	r5
  403516:	b108      	cbz	r0, 40351c <check_fs+0x18>
  403518:	2003      	movs	r0, #3
  40351a:	bd38      	pop	{r3, r4, r5, pc}
  40351c:	f894 222f 	ldrb.w	r2, [r4, #559]	; 0x22f
  403520:	f894 322e 	ldrb.w	r3, [r4, #558]	; 0x22e
  403524:	ea43 2302 	orr.w	r3, r3, r2, lsl #8
  403528:	b21b      	sxth	r3, r3
  40352a:	4a18      	ldr	r2, [pc, #96]	; (40358c <check_fs+0x88>)
  40352c:	4293      	cmp	r3, r2
  40352e:	d001      	beq.n	403534 <check_fs+0x30>
  403530:	2002      	movs	r0, #2
  403532:	bd38      	pop	{r3, r4, r5, pc}
  403534:	f894 2069 	ldrb.w	r2, [r4, #105]	; 0x69
  403538:	f894 3068 	ldrb.w	r3, [r4, #104]	; 0x68
  40353c:	041b      	lsls	r3, r3, #16
  40353e:	ea43 6302 	orr.w	r3, r3, r2, lsl #24
  403542:	f894 2066 	ldrb.w	r2, [r4, #102]	; 0x66
  403546:	4313      	orrs	r3, r2
  403548:	f894 2067 	ldrb.w	r2, [r4, #103]	; 0x67
  40354c:	ea43 2302 	orr.w	r3, r3, r2, lsl #8
  403550:	f023 437f 	bic.w	r3, r3, #4278190080	; 0xff000000
  403554:	4a0e      	ldr	r2, [pc, #56]	; (403590 <check_fs+0x8c>)
  403556:	4293      	cmp	r3, r2
  403558:	d013      	beq.n	403582 <check_fs+0x7e>
  40355a:	f894 3085 	ldrb.w	r3, [r4, #133]	; 0x85
  40355e:	f894 0084 	ldrb.w	r0, [r4, #132]	; 0x84
  403562:	0400      	lsls	r0, r0, #16
  403564:	ea40 6003 	orr.w	r0, r0, r3, lsl #24
  403568:	f894 3082 	ldrb.w	r3, [r4, #130]	; 0x82
  40356c:	4318      	orrs	r0, r3
  40356e:	f894 3083 	ldrb.w	r3, [r4, #131]	; 0x83
  403572:	ea40 2003 	orr.w	r0, r0, r3, lsl #8
  403576:	f020 407f 	bic.w	r0, r0, #4278190080	; 0xff000000
  40357a:	1a80      	subs	r0, r0, r2
  40357c:	bf18      	it	ne
  40357e:	2001      	movne	r0, #1
  403580:	bd38      	pop	{r3, r4, r5, pc}
  403582:	2000      	movs	r0, #0
  403584:	bd38      	pop	{r3, r4, r5, pc}
  403586:	bf00      	nop
  403588:	004032d1 	.word	0x004032d1
  40358c:	ffffaa55 	.word	0xffffaa55
  403590:	00544146 	.word	0x00544146

00403594 <chk_mounted>:
  403594:	b5f8      	push	{r3, r4, r5, r6, r7, lr}
  403596:	6803      	ldr	r3, [r0, #0]
  403598:	781c      	ldrb	r4, [r3, #0]
  40359a:	3c30      	subs	r4, #48	; 0x30
  40359c:	2c09      	cmp	r4, #9
  40359e:	d80a      	bhi.n	4035b6 <chk_mounted+0x22>
  4035a0:	785d      	ldrb	r5, [r3, #1]
  4035a2:	2d3a      	cmp	r5, #58	; 0x3a
  4035a4:	d001      	beq.n	4035aa <chk_mounted+0x16>
  4035a6:	2400      	movs	r4, #0
  4035a8:	e006      	b.n	4035b8 <chk_mounted+0x24>
  4035aa:	3302      	adds	r3, #2
  4035ac:	6003      	str	r3, [r0, #0]
  4035ae:	2c07      	cmp	r4, #7
  4035b0:	d902      	bls.n	4035b8 <chk_mounted+0x24>
  4035b2:	200b      	movs	r0, #11
  4035b4:	bdf8      	pop	{r3, r4, r5, r6, r7, pc}
  4035b6:	2400      	movs	r4, #0
  4035b8:	4bad      	ldr	r3, [pc, #692]	; (403870 <chk_mounted+0x2dc>)
  4035ba:	f853 5024 	ldr.w	r5, [r3, r4, lsl #2]
  4035be:	600d      	str	r5, [r1, #0]
  4035c0:	2d00      	cmp	r5, #0
  4035c2:	f000 813d 	beq.w	403840 <chk_mounted+0x2ac>
  4035c6:	4616      	mov	r6, r2
  4035c8:	782b      	ldrb	r3, [r5, #0]
  4035ca:	b17b      	cbz	r3, 4035ec <chk_mounted+0x58>
  4035cc:	7868      	ldrb	r0, [r5, #1]
  4035ce:	4ba9      	ldr	r3, [pc, #676]	; (403874 <chk_mounted+0x2e0>)
  4035d0:	4798      	blx	r3
  4035d2:	f010 0f01 	tst.w	r0, #1
  4035d6:	d109      	bne.n	4035ec <chk_mounted+0x58>
  4035d8:	2e00      	cmp	r6, #0
  4035da:	f000 8133 	beq.w	403844 <chk_mounted+0x2b0>
  4035de:	f000 0004 	and.w	r0, r0, #4
  4035e2:	2800      	cmp	r0, #0
  4035e4:	bf0c      	ite	eq
  4035e6:	2000      	moveq	r0, #0
  4035e8:	200a      	movne	r0, #10
  4035ea:	bdf8      	pop	{r3, r4, r5, r6, r7, pc}
  4035ec:	2300      	movs	r3, #0
  4035ee:	702b      	strb	r3, [r5, #0]
  4035f0:	b2e0      	uxtb	r0, r4
  4035f2:	7068      	strb	r0, [r5, #1]
  4035f4:	4ba0      	ldr	r3, [pc, #640]	; (403878 <chk_mounted+0x2e4>)
  4035f6:	4798      	blx	r3
  4035f8:	f010 0f01 	tst.w	r0, #1
  4035fc:	d001      	beq.n	403602 <chk_mounted+0x6e>
  4035fe:	2003      	movs	r0, #3
  403600:	bdf8      	pop	{r3, r4, r5, r6, r7, pc}
  403602:	b126      	cbz	r6, 40360e <chk_mounted+0x7a>
  403604:	f010 0f04 	tst.w	r0, #4
  403608:	d001      	beq.n	40360e <chk_mounted+0x7a>
  40360a:	200a      	movs	r0, #10
  40360c:	bdf8      	pop	{r3, r4, r5, r6, r7, pc}
  40360e:	2100      	movs	r1, #0
  403610:	4628      	mov	r0, r5
  403612:	4b9a      	ldr	r3, [pc, #616]	; (40387c <chk_mounted+0x2e8>)
  403614:	4798      	blx	r3
  403616:	2801      	cmp	r0, #1
  403618:	d006      	beq.n	403628 <chk_mounted+0x94>
  40361a:	2400      	movs	r4, #0
  40361c:	2803      	cmp	r0, #3
  40361e:	f000 8113 	beq.w	403848 <chk_mounted+0x2b4>
  403622:	b1c8      	cbz	r0, 403658 <chk_mounted+0xc4>
  403624:	200d      	movs	r0, #13
  403626:	bdf8      	pop	{r3, r4, r5, r6, r7, pc}
  403628:	f895 31f2 	ldrb.w	r3, [r5, #498]	; 0x1f2
  40362c:	b90b      	cbnz	r3, 403632 <chk_mounted+0x9e>
  40362e:	200d      	movs	r0, #13
  403630:	bdf8      	pop	{r3, r4, r5, r6, r7, pc}
  403632:	f895 31f9 	ldrb.w	r3, [r5, #505]	; 0x1f9
  403636:	f895 41f8 	ldrb.w	r4, [r5, #504]	; 0x1f8
  40363a:	0424      	lsls	r4, r4, #16
  40363c:	ea44 6403 	orr.w	r4, r4, r3, lsl #24
  403640:	f895 31f6 	ldrb.w	r3, [r5, #502]	; 0x1f6
  403644:	431c      	orrs	r4, r3
  403646:	f895 31f7 	ldrb.w	r3, [r5, #503]	; 0x1f7
  40364a:	ea44 2403 	orr.w	r4, r4, r3, lsl #8
  40364e:	4621      	mov	r1, r4
  403650:	4628      	mov	r0, r5
  403652:	4b8a      	ldr	r3, [pc, #552]	; (40387c <chk_mounted+0x2e8>)
  403654:	4798      	blx	r3
  403656:	e7e1      	b.n	40361c <chk_mounted+0x88>
  403658:	f895 203c 	ldrb.w	r2, [r5, #60]	; 0x3c
  40365c:	f895 303b 	ldrb.w	r3, [r5, #59]	; 0x3b
  403660:	ea43 2302 	orr.w	r3, r3, r2, lsl #8
  403664:	b21b      	sxth	r3, r3
  403666:	f5b3 7f00 	cmp.w	r3, #512	; 0x200
  40366a:	d001      	beq.n	403670 <chk_mounted+0xdc>
  40366c:	200d      	movs	r0, #13
  40366e:	bdf8      	pop	{r3, r4, r5, r6, r7, pc}
  403670:	f895 3047 	ldrb.w	r3, [r5, #71]	; 0x47
  403674:	f895 2046 	ldrb.w	r2, [r5, #70]	; 0x46
  403678:	ea52 2203 	orrs.w	r2, r2, r3, lsl #8
  40367c:	d10d      	bne.n	40369a <chk_mounted+0x106>
  40367e:	f895 3057 	ldrb.w	r3, [r5, #87]	; 0x57
  403682:	f895 2056 	ldrb.w	r2, [r5, #86]	; 0x56
  403686:	0412      	lsls	r2, r2, #16
  403688:	ea42 6203 	orr.w	r2, r2, r3, lsl #24
  40368c:	f895 3054 	ldrb.w	r3, [r5, #84]	; 0x54
  403690:	431a      	orrs	r2, r3
  403692:	f895 3055 	ldrb.w	r3, [r5, #85]	; 0x55
  403696:	ea42 2203 	orr.w	r2, r2, r3, lsl #8
  40369a:	61ea      	str	r2, [r5, #28]
  40369c:	f895 e040 	ldrb.w	lr, [r5, #64]	; 0x40
  4036a0:	f885 e003 	strb.w	lr, [r5, #3]
  4036a4:	f10e 33ff 	add.w	r3, lr, #4294967295
  4036a8:	b2db      	uxtb	r3, r3
  4036aa:	2b01      	cmp	r3, #1
  4036ac:	d901      	bls.n	4036b2 <chk_mounted+0x11e>
  4036ae:	200d      	movs	r0, #13
  4036b0:	bdf8      	pop	{r3, r4, r5, r6, r7, pc}
  4036b2:	f895 603d 	ldrb.w	r6, [r5, #61]	; 0x3d
  4036b6:	70ae      	strb	r6, [r5, #2]
  4036b8:	2e00      	cmp	r6, #0
  4036ba:	f000 80c7 	beq.w	40384c <chk_mounted+0x2b8>
  4036be:	1e73      	subs	r3, r6, #1
  4036c0:	4233      	tst	r3, r6
  4036c2:	d001      	beq.n	4036c8 <chk_mounted+0x134>
  4036c4:	200d      	movs	r0, #13
  4036c6:	bdf8      	pop	{r3, r4, r5, r6, r7, pc}
  4036c8:	f895 3042 	ldrb.w	r3, [r5, #66]	; 0x42
  4036cc:	f895 1041 	ldrb.w	r1, [r5, #65]	; 0x41
  4036d0:	ea41 2103 	orr.w	r1, r1, r3, lsl #8
  4036d4:	8129      	strh	r1, [r5, #8]
  4036d6:	f011 0f0f 	tst.w	r1, #15
  4036da:	f040 80b9 	bne.w	403850 <chk_mounted+0x2bc>
  4036de:	f895 0044 	ldrb.w	r0, [r5, #68]	; 0x44
  4036e2:	f895 3043 	ldrb.w	r3, [r5, #67]	; 0x43
  4036e6:	ea53 2300 	orrs.w	r3, r3, r0, lsl #8
  4036ea:	d10d      	bne.n	403708 <chk_mounted+0x174>
  4036ec:	f895 0053 	ldrb.w	r0, [r5, #83]	; 0x53
  4036f0:	f895 3052 	ldrb.w	r3, [r5, #82]	; 0x52
  4036f4:	041b      	lsls	r3, r3, #16
  4036f6:	ea43 6300 	orr.w	r3, r3, r0, lsl #24
  4036fa:	f895 0050 	ldrb.w	r0, [r5, #80]	; 0x50
  4036fe:	4303      	orrs	r3, r0
  403700:	f895 0051 	ldrb.w	r0, [r5, #81]	; 0x51
  403704:	ea43 2300 	orr.w	r3, r3, r0, lsl #8
  403708:	f895 003f 	ldrb.w	r0, [r5, #63]	; 0x3f
  40370c:	f895 703e 	ldrb.w	r7, [r5, #62]	; 0x3e
  403710:	ea57 2700 	orrs.w	r7, r7, r0, lsl #8
  403714:	f000 809e 	beq.w	403854 <chk_mounted+0x2c0>
  403718:	fb02 fe0e 	mul.w	lr, r2, lr
  40371c:	eb07 1011 	add.w	r0, r7, r1, lsr #4
  403720:	4470      	add	r0, lr
  403722:	4283      	cmp	r3, r0
  403724:	f0c0 8098 	bcc.w	403858 <chk_mounted+0x2c4>
  403728:	1a1b      	subs	r3, r3, r0
  40372a:	fbb3 f3f6 	udiv	r3, r3, r6
  40372e:	2b00      	cmp	r3, #0
  403730:	f000 8094 	beq.w	40385c <chk_mounted+0x2c8>
  403734:	f640 76f5 	movw	r6, #4085	; 0xff5
  403738:	42b3      	cmp	r3, r6
  40373a:	bf8c      	ite	hi
  40373c:	2602      	movhi	r6, #2
  40373e:	2601      	movls	r6, #1
  403740:	f64f 7cf5 	movw	ip, #65525	; 0xfff5
  403744:	4563      	cmp	r3, ip
  403746:	f200 80a3 	bhi.w	403890 <chk_mounted+0x2fc>
  40374a:	3302      	adds	r3, #2
  40374c:	61ab      	str	r3, [r5, #24]
  40374e:	4420      	add	r0, r4
  403750:	62a8      	str	r0, [r5, #40]	; 0x28
  403752:	443c      	add	r4, r7
  403754:	622c      	str	r4, [r5, #32]
  403756:	2900      	cmp	r1, #0
  403758:	f000 8088 	beq.w	40386c <chk_mounted+0x2d8>
  40375c:	4474      	add	r4, lr
  40375e:	626c      	str	r4, [r5, #36]	; 0x24
  403760:	2e02      	cmp	r6, #2
  403762:	bf0f      	iteee	eq
  403764:	005b      	lsleq	r3, r3, #1
  403766:	eb03 0143 	addne.w	r1, r3, r3, lsl #1
  40376a:	f003 0301 	andne.w	r3, r3, #1
  40376e:	eb03 0351 	addne.w	r3, r3, r1, lsr #1
  403772:	f203 13ff 	addw	r3, r3, #511	; 0x1ff
  403776:	ebb2 2f53 	cmp.w	r2, r3, lsr #9
  40377a:	d375      	bcc.n	403868 <chk_mounted+0x2d4>
  40377c:	f04f 33ff 	mov.w	r3, #4294967295
  403780:	612b      	str	r3, [r5, #16]
  403782:	2300      	movs	r3, #0
  403784:	60eb      	str	r3, [r5, #12]
  403786:	e04a      	b.n	40381e <chk_mounted+0x28a>
  403788:	f895 222f 	ldrb.w	r2, [r5, #559]	; 0x22f
  40378c:	f895 322e 	ldrb.w	r3, [r5, #558]	; 0x22e
  403790:	ea43 2302 	orr.w	r3, r3, r2, lsl #8
  403794:	b21b      	sxth	r3, r3
  403796:	4a3a      	ldr	r2, [pc, #232]	; (403880 <chk_mounted+0x2ec>)
  403798:	4293      	cmp	r3, r2
  40379a:	d14b      	bne.n	403834 <chk_mounted+0x2a0>
  40379c:	f895 2033 	ldrb.w	r2, [r5, #51]	; 0x33
  4037a0:	f895 3032 	ldrb.w	r3, [r5, #50]	; 0x32
  4037a4:	041b      	lsls	r3, r3, #16
  4037a6:	ea43 6302 	orr.w	r3, r3, r2, lsl #24
  4037aa:	f895 2030 	ldrb.w	r2, [r5, #48]	; 0x30
  4037ae:	4313      	orrs	r3, r2
  4037b0:	f895 2031 	ldrb.w	r2, [r5, #49]	; 0x31
  4037b4:	ea43 2302 	orr.w	r3, r3, r2, lsl #8
  4037b8:	4a32      	ldr	r2, [pc, #200]	; (403884 <chk_mounted+0x2f0>)
  4037ba:	4293      	cmp	r3, r2
  4037bc:	d13c      	bne.n	403838 <chk_mounted+0x2a4>
  4037be:	f895 2217 	ldrb.w	r2, [r5, #535]	; 0x217
  4037c2:	f895 3216 	ldrb.w	r3, [r5, #534]	; 0x216
  4037c6:	041b      	lsls	r3, r3, #16
  4037c8:	ea43 6302 	orr.w	r3, r3, r2, lsl #24
  4037cc:	f895 2214 	ldrb.w	r2, [r5, #532]	; 0x214
  4037d0:	4313      	orrs	r3, r2
  4037d2:	f895 2215 	ldrb.w	r2, [r5, #533]	; 0x215
  4037d6:	ea43 2302 	orr.w	r3, r3, r2, lsl #8
  4037da:	4a2b      	ldr	r2, [pc, #172]	; (403888 <chk_mounted+0x2f4>)
  4037dc:	4293      	cmp	r3, r2
  4037de:	d12d      	bne.n	40383c <chk_mounted+0x2a8>
  4037e0:	f895 221f 	ldrb.w	r2, [r5, #543]	; 0x21f
  4037e4:	f895 321e 	ldrb.w	r3, [r5, #542]	; 0x21e
  4037e8:	041b      	lsls	r3, r3, #16
  4037ea:	ea43 6302 	orr.w	r3, r3, r2, lsl #24
  4037ee:	f895 221c 	ldrb.w	r2, [r5, #540]	; 0x21c
  4037f2:	4313      	orrs	r3, r2
  4037f4:	f895 221d 	ldrb.w	r2, [r5, #541]	; 0x21d
  4037f8:	ea43 2302 	orr.w	r3, r3, r2, lsl #8
  4037fc:	60eb      	str	r3, [r5, #12]
  4037fe:	f895 221b 	ldrb.w	r2, [r5, #539]	; 0x21b
  403802:	f895 321a 	ldrb.w	r3, [r5, #538]	; 0x21a
  403806:	041b      	lsls	r3, r3, #16
  403808:	ea43 6302 	orr.w	r3, r3, r2, lsl #24
  40380c:	f895 2218 	ldrb.w	r2, [r5, #536]	; 0x218
  403810:	4313      	orrs	r3, r2
  403812:	f895 2219 	ldrb.w	r2, [r5, #537]	; 0x219
  403816:	ea43 2302 	orr.w	r3, r3, r2, lsl #8
  40381a:	612b      	str	r3, [r5, #16]
  40381c:	2603      	movs	r6, #3
  40381e:	702e      	strb	r6, [r5, #0]
  403820:	4a1a      	ldr	r2, [pc, #104]	; (40388c <chk_mounted+0x2f8>)
  403822:	8813      	ldrh	r3, [r2, #0]
  403824:	3301      	adds	r3, #1
  403826:	b29b      	uxth	r3, r3
  403828:	8013      	strh	r3, [r2, #0]
  40382a:	80eb      	strh	r3, [r5, #6]
  40382c:	2000      	movs	r0, #0
  40382e:	62e8      	str	r0, [r5, #44]	; 0x2c
  403830:	7128      	strb	r0, [r5, #4]
  403832:	bdf8      	pop	{r3, r4, r5, r6, r7, pc}
  403834:	2603      	movs	r6, #3
  403836:	e7f2      	b.n	40381e <chk_mounted+0x28a>
  403838:	2603      	movs	r6, #3
  40383a:	e7f0      	b.n	40381e <chk_mounted+0x28a>
  40383c:	2603      	movs	r6, #3
  40383e:	e7ee      	b.n	40381e <chk_mounted+0x28a>
  403840:	200c      	movs	r0, #12
  403842:	bdf8      	pop	{r3, r4, r5, r6, r7, pc}
  403844:	2000      	movs	r0, #0
  403846:	bdf8      	pop	{r3, r4, r5, r6, r7, pc}
  403848:	2001      	movs	r0, #1
  40384a:	bdf8      	pop	{r3, r4, r5, r6, r7, pc}
  40384c:	200d      	movs	r0, #13
  40384e:	bdf8      	pop	{r3, r4, r5, r6, r7, pc}
  403850:	200d      	movs	r0, #13
  403852:	bdf8      	pop	{r3, r4, r5, r6, r7, pc}
  403854:	200d      	movs	r0, #13
  403856:	bdf8      	pop	{r3, r4, r5, r6, r7, pc}
  403858:	200d      	movs	r0, #13
  40385a:	bdf8      	pop	{r3, r4, r5, r6, r7, pc}
  40385c:	200d      	movs	r0, #13
  40385e:	bdf8      	pop	{r3, r4, r5, r6, r7, pc}
  403860:	200d      	movs	r0, #13
  403862:	bdf8      	pop	{r3, r4, r5, r6, r7, pc}
  403864:	200d      	movs	r0, #13
  403866:	bdf8      	pop	{r3, r4, r5, r6, r7, pc}
  403868:	200d      	movs	r0, #13
  40386a:	bdf8      	pop	{r3, r4, r5, r6, r7, pc}
  40386c:	200d      	movs	r0, #13
  40386e:	bdf8      	pop	{r3, r4, r5, r6, r7, pc}
  403870:	200010f0 	.word	0x200010f0
  403874:	004032b5 	.word	0x004032b5
  403878:	00403261 	.word	0x00403261
  40387c:	00403505 	.word	0x00403505
  403880:	ffffaa55 	.word	0xffffaa55
  403884:	41615252 	.word	0x41615252
  403888:	61417272 	.word	0x61417272
  40388c:	20001110 	.word	0x20001110
  403890:	3302      	adds	r3, #2
  403892:	61ab      	str	r3, [r5, #24]
  403894:	4420      	add	r0, r4
  403896:	62a8      	str	r0, [r5, #40]	; 0x28
  403898:	4427      	add	r7, r4
  40389a:	622f      	str	r7, [r5, #32]
  40389c:	2900      	cmp	r1, #0
  40389e:	d1e1      	bne.n	403864 <chk_mounted+0x2d0>
  4038a0:	f895 005f 	ldrb.w	r0, [r5, #95]	; 0x5f
  4038a4:	f895 105e 	ldrb.w	r1, [r5, #94]	; 0x5e
  4038a8:	0409      	lsls	r1, r1, #16
  4038aa:	ea41 6100 	orr.w	r1, r1, r0, lsl #24
  4038ae:	f895 005c 	ldrb.w	r0, [r5, #92]	; 0x5c
  4038b2:	4301      	orrs	r1, r0
  4038b4:	f895 005d 	ldrb.w	r0, [r5, #93]	; 0x5d
  4038b8:	ea41 2100 	orr.w	r1, r1, r0, lsl #8
  4038bc:	6269      	str	r1, [r5, #36]	; 0x24
  4038be:	009b      	lsls	r3, r3, #2
  4038c0:	f203 13ff 	addw	r3, r3, #511	; 0x1ff
  4038c4:	ebb2 2f53 	cmp.w	r2, r3, lsr #9
  4038c8:	d3ca      	bcc.n	403860 <chk_mounted+0x2cc>
  4038ca:	f04f 33ff 	mov.w	r3, #4294967295
  4038ce:	612b      	str	r3, [r5, #16]
  4038d0:	2300      	movs	r3, #0
  4038d2:	60eb      	str	r3, [r5, #12]
  4038d4:	716b      	strb	r3, [r5, #5]
  4038d6:	f895 3061 	ldrb.w	r3, [r5, #97]	; 0x61
  4038da:	f895 2060 	ldrb.w	r2, [r5, #96]	; 0x60
  4038de:	ea42 2203 	orr.w	r2, r2, r3, lsl #8
  4038e2:	4422      	add	r2, r4
  4038e4:	616a      	str	r2, [r5, #20]
  4038e6:	2301      	movs	r3, #1
  4038e8:	f105 0130 	add.w	r1, r5, #48	; 0x30
  4038ec:	7868      	ldrb	r0, [r5, #1]
  4038ee:	4c03      	ldr	r4, [pc, #12]	; (4038fc <chk_mounted+0x368>)
  4038f0:	47a0      	blx	r4
  4038f2:	2800      	cmp	r0, #0
  4038f4:	f43f af48 	beq.w	403788 <chk_mounted+0x1f4>
  4038f8:	2603      	movs	r6, #3
  4038fa:	e790      	b.n	40381e <chk_mounted+0x28a>
  4038fc:	004032d1 	.word	0x004032d1

00403900 <get_fileinfo>:
  403900:	e92d 47f0 	stmdb	sp!, {r4, r5, r6, r7, r8, r9, sl, lr}
  403904:	f101 0209 	add.w	r2, r1, #9
  403908:	6903      	ldr	r3, [r0, #16]
  40390a:	2b00      	cmp	r3, #0
  40390c:	d05e      	beq.n	4039cc <get_fileinfo+0xcc>
  40390e:	6944      	ldr	r4, [r0, #20]
  403910:	f894 e00c 	ldrb.w	lr, [r4, #12]
  403914:	7823      	ldrb	r3, [r4, #0]
  403916:	2b20      	cmp	r3, #32
  403918:	d01d      	beq.n	403956 <get_fileinfo+0x56>
  40391a:	4625      	mov	r5, r4
  40391c:	f101 0711 	add.w	r7, r1, #17
  403920:	f04f 08e5 	mov.w	r8, #229	; 0xe5
  403924:	f00e 0c08 	and.w	ip, lr, #8
  403928:	e008      	b.n	40393c <get_fileinfo+0x3c>
  40392a:	4643      	mov	r3, r8
  40392c:	f802 3b01 	strb.w	r3, [r2], #1
  403930:	42ba      	cmp	r2, r7
  403932:	d010      	beq.n	403956 <get_fileinfo+0x56>
  403934:	f815 3f01 	ldrb.w	r3, [r5, #1]!
  403938:	2b20      	cmp	r3, #32
  40393a:	d00c      	beq.n	403956 <get_fileinfo+0x56>
  40393c:	2b05      	cmp	r3, #5
  40393e:	d0f4      	beq.n	40392a <get_fileinfo+0x2a>
  403940:	f1bc 0f00 	cmp.w	ip, #0
  403944:	d0f2      	beq.n	40392c <get_fileinfo+0x2c>
  403946:	f1a3 0641 	sub.w	r6, r3, #65	; 0x41
  40394a:	b2f6      	uxtb	r6, r6
  40394c:	2e19      	cmp	r6, #25
  40394e:	d8ed      	bhi.n	40392c <get_fileinfo+0x2c>
  403950:	3320      	adds	r3, #32
  403952:	b2db      	uxtb	r3, r3
  403954:	e7ea      	b.n	40392c <get_fileinfo+0x2c>
  403956:	7a23      	ldrb	r3, [r4, #8]
  403958:	2b20      	cmp	r3, #32
  40395a:	d020      	beq.n	40399e <get_fileinfo+0x9e>
  40395c:	1c55      	adds	r5, r2, #1
  40395e:	232e      	movs	r3, #46	; 0x2e
  403960:	7013      	strb	r3, [r2, #0]
  403962:	7a23      	ldrb	r3, [r4, #8]
  403964:	2b20      	cmp	r3, #32
  403966:	d019      	beq.n	40399c <get_fileinfo+0x9c>
  403968:	f104 0708 	add.w	r7, r4, #8
  40396c:	f102 0c04 	add.w	ip, r2, #4
  403970:	462a      	mov	r2, r5
  403972:	f00e 0510 	and.w	r5, lr, #16
  403976:	e007      	b.n	403988 <get_fileinfo+0x88>
  403978:	f802 3b01 	strb.w	r3, [r2], #1
  40397c:	4562      	cmp	r2, ip
  40397e:	d00e      	beq.n	40399e <get_fileinfo+0x9e>
  403980:	f817 3f01 	ldrb.w	r3, [r7, #1]!
  403984:	2b20      	cmp	r3, #32
  403986:	d00a      	beq.n	40399e <get_fileinfo+0x9e>
  403988:	2d00      	cmp	r5, #0
  40398a:	d0f5      	beq.n	403978 <get_fileinfo+0x78>
  40398c:	f1a3 0641 	sub.w	r6, r3, #65	; 0x41
  403990:	b2f6      	uxtb	r6, r6
  403992:	2e19      	cmp	r6, #25
  403994:	bf9c      	itt	ls
  403996:	3320      	addls	r3, #32
  403998:	b2db      	uxtbls	r3, r3
  40399a:	e7ed      	b.n	403978 <get_fileinfo+0x78>
  40399c:	462a      	mov	r2, r5
  40399e:	7ae3      	ldrb	r3, [r4, #11]
  4039a0:	720b      	strb	r3, [r1, #8]
  4039a2:	7fe5      	ldrb	r5, [r4, #31]
  4039a4:	7fa3      	ldrb	r3, [r4, #30]
  4039a6:	041b      	lsls	r3, r3, #16
  4039a8:	ea43 6305 	orr.w	r3, r3, r5, lsl #24
  4039ac:	7f25      	ldrb	r5, [r4, #28]
  4039ae:	432b      	orrs	r3, r5
  4039b0:	7f65      	ldrb	r5, [r4, #29]
  4039b2:	ea43 2305 	orr.w	r3, r3, r5, lsl #8
  4039b6:	600b      	str	r3, [r1, #0]
  4039b8:	7e65      	ldrb	r5, [r4, #25]
  4039ba:	7e23      	ldrb	r3, [r4, #24]
  4039bc:	ea43 2305 	orr.w	r3, r3, r5, lsl #8
  4039c0:	808b      	strh	r3, [r1, #4]
  4039c2:	7de5      	ldrb	r5, [r4, #23]
  4039c4:	7da3      	ldrb	r3, [r4, #22]
  4039c6:	ea43 2305 	orr.w	r3, r3, r5, lsl #8
  4039ca:	80cb      	strh	r3, [r1, #6]
  4039cc:	2300      	movs	r3, #0
  4039ce:	7013      	strb	r3, [r2, #0]
  4039d0:	698f      	ldr	r7, [r1, #24]
  4039d2:	b32f      	cbz	r7, 403a20 <get_fileinfo+0x120>
  4039d4:	69cb      	ldr	r3, [r1, #28]
  4039d6:	b31b      	cbz	r3, 403a20 <get_fileinfo+0x120>
  4039d8:	6903      	ldr	r3, [r0, #16]
  4039da:	b1f3      	cbz	r3, 403a1a <get_fileinfo+0x11a>
  4039dc:	8c02      	ldrh	r2, [r0, #32]
  4039de:	f64f 73ff 	movw	r3, #65535	; 0xffff
  4039e2:	429a      	cmp	r2, r3
  4039e4:	d01e      	beq.n	403a24 <get_fileinfo+0x124>
  4039e6:	f8d0 801c 	ldr.w	r8, [r0, #28]
  4039ea:	f8b8 0000 	ldrh.w	r0, [r8]
  4039ee:	b1d8      	cbz	r0, 403a28 <get_fileinfo+0x128>
  4039f0:	460d      	mov	r5, r1
  4039f2:	1e7e      	subs	r6, r7, #1
  4039f4:	2400      	movs	r4, #0
  4039f6:	46a2      	mov	sl, r4
  4039f8:	f8df 9038 	ldr.w	r9, [pc, #56]	; 403a34 <get_fileinfo+0x134>
  4039fc:	4651      	mov	r1, sl
  4039fe:	47c8      	blx	r9
  403a00:	b1a0      	cbz	r0, 403a2c <get_fileinfo+0x12c>
  403a02:	69eb      	ldr	r3, [r5, #28]
  403a04:	3b01      	subs	r3, #1
  403a06:	42a3      	cmp	r3, r4
  403a08:	d912      	bls.n	403a30 <get_fileinfo+0x130>
  403a0a:	3401      	adds	r4, #1
  403a0c:	f806 0f01 	strb.w	r0, [r6, #1]!
  403a10:	f838 0014 	ldrh.w	r0, [r8, r4, lsl #1]
  403a14:	2800      	cmp	r0, #0
  403a16:	d1f1      	bne.n	4039fc <get_fileinfo+0xfc>
  403a18:	e000      	b.n	403a1c <get_fileinfo+0x11c>
  403a1a:	2400      	movs	r4, #0
  403a1c:	2300      	movs	r3, #0
  403a1e:	553b      	strb	r3, [r7, r4]
  403a20:	e8bd 87f0 	ldmia.w	sp!, {r4, r5, r6, r7, r8, r9, sl, pc}
  403a24:	2400      	movs	r4, #0
  403a26:	e7f9      	b.n	403a1c <get_fileinfo+0x11c>
  403a28:	2400      	movs	r4, #0
  403a2a:	e7f7      	b.n	403a1c <get_fileinfo+0x11c>
  403a2c:	2400      	movs	r4, #0
  403a2e:	e7f5      	b.n	403a1c <get_fileinfo+0x11c>
  403a30:	2400      	movs	r4, #0
  403a32:	e7f3      	b.n	403a1c <get_fileinfo+0x11c>
  403a34:	00404edd 	.word	0x00404edd

00403a38 <move_window>:
  403a38:	e92d 47f0 	stmdb	sp!, {r4, r5, r6, r7, r8, r9, sl, lr}
  403a3c:	6ac7      	ldr	r7, [r0, #44]	; 0x2c
  403a3e:	428f      	cmp	r7, r1
  403a40:	d035      	beq.n	403aae <move_window+0x76>
  403a42:	460e      	mov	r6, r1
  403a44:	4604      	mov	r4, r0
  403a46:	7903      	ldrb	r3, [r0, #4]
  403a48:	b91b      	cbnz	r3, 403a52 <move_window+0x1a>
  403a4a:	bb2e      	cbnz	r6, 403a98 <move_window+0x60>
  403a4c:	2000      	movs	r0, #0
  403a4e:	e8bd 87f0 	ldmia.w	sp!, {r4, r5, r6, r7, r8, r9, sl, pc}
  403a52:	f100 0830 	add.w	r8, r0, #48	; 0x30
  403a56:	2301      	movs	r3, #1
  403a58:	463a      	mov	r2, r7
  403a5a:	4641      	mov	r1, r8
  403a5c:	7840      	ldrb	r0, [r0, #1]
  403a5e:	4d18      	ldr	r5, [pc, #96]	; (403ac0 <move_window+0x88>)
  403a60:	47a8      	blx	r5
  403a62:	bb38      	cbnz	r0, 403ab4 <move_window+0x7c>
  403a64:	2300      	movs	r3, #0
  403a66:	7123      	strb	r3, [r4, #4]
  403a68:	6a23      	ldr	r3, [r4, #32]
  403a6a:	69e2      	ldr	r2, [r4, #28]
  403a6c:	4413      	add	r3, r2
  403a6e:	429f      	cmp	r7, r3
  403a70:	d2eb      	bcs.n	403a4a <move_window+0x12>
  403a72:	78e5      	ldrb	r5, [r4, #3]
  403a74:	2d01      	cmp	r5, #1
  403a76:	d9e8      	bls.n	403a4a <move_window+0x12>
  403a78:	f04f 0a01 	mov.w	sl, #1
  403a7c:	f8df 9040 	ldr.w	r9, [pc, #64]	; 403ac0 <move_window+0x88>
  403a80:	69e3      	ldr	r3, [r4, #28]
  403a82:	441f      	add	r7, r3
  403a84:	4653      	mov	r3, sl
  403a86:	463a      	mov	r2, r7
  403a88:	4641      	mov	r1, r8
  403a8a:	7860      	ldrb	r0, [r4, #1]
  403a8c:	47c8      	blx	r9
  403a8e:	3d01      	subs	r5, #1
  403a90:	b2ed      	uxtb	r5, r5
  403a92:	2d01      	cmp	r5, #1
  403a94:	d1f4      	bne.n	403a80 <move_window+0x48>
  403a96:	e7d8      	b.n	403a4a <move_window+0x12>
  403a98:	2301      	movs	r3, #1
  403a9a:	4632      	mov	r2, r6
  403a9c:	f104 0130 	add.w	r1, r4, #48	; 0x30
  403aa0:	7860      	ldrb	r0, [r4, #1]
  403aa2:	4d08      	ldr	r5, [pc, #32]	; (403ac4 <move_window+0x8c>)
  403aa4:	47a8      	blx	r5
  403aa6:	b940      	cbnz	r0, 403aba <move_window+0x82>
  403aa8:	62e6      	str	r6, [r4, #44]	; 0x2c
  403aaa:	e8bd 87f0 	ldmia.w	sp!, {r4, r5, r6, r7, r8, r9, sl, pc}
  403aae:	2000      	movs	r0, #0
  403ab0:	e8bd 87f0 	ldmia.w	sp!, {r4, r5, r6, r7, r8, r9, sl, pc}
  403ab4:	2001      	movs	r0, #1
  403ab6:	e8bd 87f0 	ldmia.w	sp!, {r4, r5, r6, r7, r8, r9, sl, pc}
  403aba:	2001      	movs	r0, #1
  403abc:	e8bd 87f0 	ldmia.w	sp!, {r4, r5, r6, r7, r8, r9, sl, pc}
  403ac0:	00403341 	.word	0x00403341
  403ac4:	004032d1 	.word	0x004032d1

00403ac8 <get_fat>:
  403ac8:	2901      	cmp	r1, #1
  403aca:	d96a      	bls.n	403ba2 <get_fat+0xda>
  403acc:	b5f8      	push	{r3, r4, r5, r6, r7, lr}
  403ace:	6983      	ldr	r3, [r0, #24]
  403ad0:	4299      	cmp	r1, r3
  403ad2:	d268      	bcs.n	403ba6 <get_fat+0xde>
  403ad4:	460c      	mov	r4, r1
  403ad6:	4606      	mov	r6, r0
  403ad8:	7803      	ldrb	r3, [r0, #0]
  403ada:	2b02      	cmp	r3, #2
  403adc:	d02f      	beq.n	403b3e <get_fat+0x76>
  403ade:	2b03      	cmp	r3, #3
  403ae0:	d041      	beq.n	403b66 <get_fat+0x9e>
  403ae2:	2b01      	cmp	r3, #1
  403ae4:	d002      	beq.n	403aec <get_fat+0x24>
  403ae6:	f04f 30ff 	mov.w	r0, #4294967295
  403aea:	bdf8      	pop	{r3, r4, r5, r6, r7, pc}
  403aec:	eb01 0751 	add.w	r7, r1, r1, lsr #1
  403af0:	6a01      	ldr	r1, [r0, #32]
  403af2:	eb01 2157 	add.w	r1, r1, r7, lsr #9
  403af6:	4b2d      	ldr	r3, [pc, #180]	; (403bac <get_fat+0xe4>)
  403af8:	4798      	blx	r3
  403afa:	b110      	cbz	r0, 403b02 <get_fat+0x3a>
  403afc:	f04f 30ff 	mov.w	r0, #4294967295
  403b00:	bdf8      	pop	{r3, r4, r5, r6, r7, pc}
  403b02:	f3c7 0308 	ubfx	r3, r7, #0, #9
  403b06:	4433      	add	r3, r6
  403b08:	f893 5030 	ldrb.w	r5, [r3, #48]	; 0x30
  403b0c:	3701      	adds	r7, #1
  403b0e:	6a31      	ldr	r1, [r6, #32]
  403b10:	eb01 2157 	add.w	r1, r1, r7, lsr #9
  403b14:	4630      	mov	r0, r6
  403b16:	4b25      	ldr	r3, [pc, #148]	; (403bac <get_fat+0xe4>)
  403b18:	4798      	blx	r3
  403b1a:	b110      	cbz	r0, 403b22 <get_fat+0x5a>
  403b1c:	f04f 30ff 	mov.w	r0, #4294967295
  403b20:	bdf8      	pop	{r3, r4, r5, r6, r7, pc}
  403b22:	f3c7 0708 	ubfx	r7, r7, #0, #9
  403b26:	19f0      	adds	r0, r6, r7
  403b28:	f890 0030 	ldrb.w	r0, [r0, #48]	; 0x30
  403b2c:	ea45 2000 	orr.w	r0, r5, r0, lsl #8
  403b30:	f014 0f01 	tst.w	r4, #1
  403b34:	bf14      	ite	ne
  403b36:	0900      	lsrne	r0, r0, #4
  403b38:	f3c0 000b 	ubfxeq	r0, r0, #0, #12
  403b3c:	bdf8      	pop	{r3, r4, r5, r6, r7, pc}
  403b3e:	6a01      	ldr	r1, [r0, #32]
  403b40:	eb01 2114 	add.w	r1, r1, r4, lsr #8
  403b44:	4b19      	ldr	r3, [pc, #100]	; (403bac <get_fat+0xe4>)
  403b46:	4798      	blx	r3
  403b48:	b110      	cbz	r0, 403b50 <get_fat+0x88>
  403b4a:	f04f 30ff 	mov.w	r0, #4294967295
  403b4e:	bdf8      	pop	{r3, r4, r5, r6, r7, pc}
  403b50:	0060      	lsls	r0, r4, #1
  403b52:	f400 70ff 	and.w	r0, r0, #510	; 0x1fe
  403b56:	4430      	add	r0, r6
  403b58:	f890 3031 	ldrb.w	r3, [r0, #49]	; 0x31
  403b5c:	f890 0030 	ldrb.w	r0, [r0, #48]	; 0x30
  403b60:	ea40 2003 	orr.w	r0, r0, r3, lsl #8
  403b64:	bdf8      	pop	{r3, r4, r5, r6, r7, pc}
  403b66:	6a01      	ldr	r1, [r0, #32]
  403b68:	eb01 11d4 	add.w	r1, r1, r4, lsr #7
  403b6c:	4b0f      	ldr	r3, [pc, #60]	; (403bac <get_fat+0xe4>)
  403b6e:	4798      	blx	r3
  403b70:	b110      	cbz	r0, 403b78 <get_fat+0xb0>
  403b72:	f04f 30ff 	mov.w	r0, #4294967295
  403b76:	bdf8      	pop	{r3, r4, r5, r6, r7, pc}
  403b78:	00a0      	lsls	r0, r4, #2
  403b7a:	f400 70fe 	and.w	r0, r0, #508	; 0x1fc
  403b7e:	f100 0230 	add.w	r2, r0, #48	; 0x30
  403b82:	4432      	add	r2, r6
  403b84:	78d1      	ldrb	r1, [r2, #3]
  403b86:	7893      	ldrb	r3, [r2, #2]
  403b88:	041b      	lsls	r3, r3, #16
  403b8a:	ea43 6301 	orr.w	r3, r3, r1, lsl #24
  403b8e:	4430      	add	r0, r6
  403b90:	f890 0030 	ldrb.w	r0, [r0, #48]	; 0x30
  403b94:	4318      	orrs	r0, r3
  403b96:	7853      	ldrb	r3, [r2, #1]
  403b98:	ea40 2003 	orr.w	r0, r0, r3, lsl #8
  403b9c:	f020 4070 	bic.w	r0, r0, #4026531840	; 0xf0000000
  403ba0:	bdf8      	pop	{r3, r4, r5, r6, r7, pc}
  403ba2:	2001      	movs	r0, #1
  403ba4:	4770      	bx	lr
  403ba6:	2001      	movs	r0, #1
  403ba8:	bdf8      	pop	{r3, r4, r5, r6, r7, pc}
  403baa:	bf00      	nop
  403bac:	00403a39 	.word	0x00403a39

00403bb0 <dir_sdi>:
  403bb0:	b5f8      	push	{r3, r4, r5, r6, r7, lr}
  403bb2:	4605      	mov	r5, r0
  403bb4:	460c      	mov	r4, r1
  403bb6:	80c1      	strh	r1, [r0, #6]
  403bb8:	6881      	ldr	r1, [r0, #8]
  403bba:	2901      	cmp	r1, #1
  403bbc:	d03d      	beq.n	403c3a <dir_sdi+0x8a>
  403bbe:	6803      	ldr	r3, [r0, #0]
  403bc0:	699a      	ldr	r2, [r3, #24]
  403bc2:	4291      	cmp	r1, r2
  403bc4:	d301      	bcc.n	403bca <dir_sdi+0x1a>
  403bc6:	2002      	movs	r0, #2
  403bc8:	bdf8      	pop	{r3, r4, r5, r6, r7, pc}
  403bca:	b961      	cbnz	r1, 403be6 <dir_sdi+0x36>
  403bcc:	781a      	ldrb	r2, [r3, #0]
  403bce:	2a03      	cmp	r2, #3
  403bd0:	d006      	beq.n	403be0 <dir_sdi+0x30>
  403bd2:	2200      	movs	r2, #0
  403bd4:	60ea      	str	r2, [r5, #12]
  403bd6:	891a      	ldrh	r2, [r3, #8]
  403bd8:	42a2      	cmp	r2, r4
  403bda:	d821      	bhi.n	403c20 <dir_sdi+0x70>
  403bdc:	2002      	movs	r0, #2
  403bde:	bdf8      	pop	{r3, r4, r5, r6, r7, pc}
  403be0:	6a59      	ldr	r1, [r3, #36]	; 0x24
  403be2:	2900      	cmp	r1, #0
  403be4:	d0f5      	beq.n	403bd2 <dir_sdi+0x22>
  403be6:	789e      	ldrb	r6, [r3, #2]
  403be8:	0136      	lsls	r6, r6, #4
  403bea:	42b4      	cmp	r4, r6
  403bec:	d310      	bcc.n	403c10 <dir_sdi+0x60>
  403bee:	4f17      	ldr	r7, [pc, #92]	; (403c4c <dir_sdi+0x9c>)
  403bf0:	6828      	ldr	r0, [r5, #0]
  403bf2:	47b8      	blx	r7
  403bf4:	4601      	mov	r1, r0
  403bf6:	f1b0 3fff 	cmp.w	r0, #4294967295
  403bfa:	d020      	beq.n	403c3e <dir_sdi+0x8e>
  403bfc:	2801      	cmp	r0, #1
  403bfe:	d920      	bls.n	403c42 <dir_sdi+0x92>
  403c00:	682b      	ldr	r3, [r5, #0]
  403c02:	699b      	ldr	r3, [r3, #24]
  403c04:	4298      	cmp	r0, r3
  403c06:	d21e      	bcs.n	403c46 <dir_sdi+0x96>
  403c08:	1ba4      	subs	r4, r4, r6
  403c0a:	b2a4      	uxth	r4, r4
  403c0c:	42a6      	cmp	r6, r4
  403c0e:	d9ef      	bls.n	403bf0 <dir_sdi+0x40>
  403c10:	60e9      	str	r1, [r5, #12]
  403c12:	6828      	ldr	r0, [r5, #0]
  403c14:	4b0e      	ldr	r3, [pc, #56]	; (403c50 <dir_sdi+0xa0>)
  403c16:	4798      	blx	r3
  403c18:	eb00 1014 	add.w	r0, r0, r4, lsr #4
  403c1c:	6128      	str	r0, [r5, #16]
  403c1e:	e003      	b.n	403c28 <dir_sdi+0x78>
  403c20:	6a5b      	ldr	r3, [r3, #36]	; 0x24
  403c22:	eb03 1314 	add.w	r3, r3, r4, lsr #4
  403c26:	612b      	str	r3, [r5, #16]
  403c28:	682b      	ldr	r3, [r5, #0]
  403c2a:	3330      	adds	r3, #48	; 0x30
  403c2c:	f004 040f 	and.w	r4, r4, #15
  403c30:	eb03 1444 	add.w	r4, r3, r4, lsl #5
  403c34:	616c      	str	r4, [r5, #20]
  403c36:	2000      	movs	r0, #0
  403c38:	bdf8      	pop	{r3, r4, r5, r6, r7, pc}
  403c3a:	2002      	movs	r0, #2
  403c3c:	bdf8      	pop	{r3, r4, r5, r6, r7, pc}
  403c3e:	2001      	movs	r0, #1
  403c40:	bdf8      	pop	{r3, r4, r5, r6, r7, pc}
  403c42:	2002      	movs	r0, #2
  403c44:	bdf8      	pop	{r3, r4, r5, r6, r7, pc}
  403c46:	2002      	movs	r0, #2
  403c48:	bdf8      	pop	{r3, r4, r5, r6, r7, pc}
  403c4a:	bf00      	nop
  403c4c:	00403ac9 	.word	0x00403ac9
  403c50:	0040349b 	.word	0x0040349b

00403c54 <put_fat>:
  403c54:	e92d 41f0 	stmdb	sp!, {r4, r5, r6, r7, r8, lr}
  403c58:	2901      	cmp	r1, #1
  403c5a:	f240 808f 	bls.w	403d7c <put_fat+0x128>
  403c5e:	6983      	ldr	r3, [r0, #24]
  403c60:	4299      	cmp	r1, r3
  403c62:	d301      	bcc.n	403c68 <put_fat+0x14>
  403c64:	2702      	movs	r7, #2
  403c66:	e08a      	b.n	403d7e <put_fat+0x12a>
  403c68:	4615      	mov	r5, r2
  403c6a:	460c      	mov	r4, r1
  403c6c:	4606      	mov	r6, r0
  403c6e:	7803      	ldrb	r3, [r0, #0]
  403c70:	2b02      	cmp	r3, #2
  403c72:	d04e      	beq.n	403d12 <put_fat+0xbe>
  403c74:	2b03      	cmp	r3, #3
  403c76:	d05f      	beq.n	403d38 <put_fat+0xe4>
  403c78:	2b01      	cmp	r3, #1
  403c7a:	d003      	beq.n	403c84 <put_fat+0x30>
  403c7c:	2702      	movs	r7, #2
  403c7e:	2301      	movs	r3, #1
  403c80:	7133      	strb	r3, [r6, #4]
  403c82:	e07c      	b.n	403d7e <put_fat+0x12a>
  403c84:	eb01 0851 	add.w	r8, r1, r1, lsr #1
  403c88:	6a01      	ldr	r1, [r0, #32]
  403c8a:	eb01 2158 	add.w	r1, r1, r8, lsr #9
  403c8e:	4b3d      	ldr	r3, [pc, #244]	; (403d84 <put_fat+0x130>)
  403c90:	4798      	blx	r3
  403c92:	4607      	mov	r7, r0
  403c94:	2800      	cmp	r0, #0
  403c96:	d1f2      	bne.n	403c7e <put_fat+0x2a>
  403c98:	f3c8 0308 	ubfx	r3, r8, #0, #9
  403c9c:	f014 0f01 	tst.w	r4, #1
  403ca0:	d01c      	beq.n	403cdc <put_fat+0x88>
  403ca2:	4433      	add	r3, r6
  403ca4:	f893 2030 	ldrb.w	r2, [r3, #48]	; 0x30
  403ca8:	f002 020f 	and.w	r2, r2, #15
  403cac:	ea42 1205 	orr.w	r2, r2, r5, lsl #4
  403cb0:	f883 2030 	strb.w	r2, [r3, #48]	; 0x30
  403cb4:	f108 0801 	add.w	r8, r8, #1
  403cb8:	2301      	movs	r3, #1
  403cba:	7133      	strb	r3, [r6, #4]
  403cbc:	6a31      	ldr	r1, [r6, #32]
  403cbe:	eb01 2158 	add.w	r1, r1, r8, lsr #9
  403cc2:	4630      	mov	r0, r6
  403cc4:	4b2f      	ldr	r3, [pc, #188]	; (403d84 <put_fat+0x130>)
  403cc6:	4798      	blx	r3
  403cc8:	2800      	cmp	r0, #0
  403cca:	d153      	bne.n	403d74 <put_fat+0x120>
  403ccc:	f3c8 0808 	ubfx	r8, r8, #0, #9
  403cd0:	f3c5 1207 	ubfx	r2, r5, #4, #8
  403cd4:	44b0      	add	r8, r6
  403cd6:	f888 2030 	strb.w	r2, [r8, #48]	; 0x30
  403cda:	e7d0      	b.n	403c7e <put_fat+0x2a>
  403cdc:	4433      	add	r3, r6
  403cde:	f883 5030 	strb.w	r5, [r3, #48]	; 0x30
  403ce2:	f108 0801 	add.w	r8, r8, #1
  403ce6:	2301      	movs	r3, #1
  403ce8:	7133      	strb	r3, [r6, #4]
  403cea:	6a31      	ldr	r1, [r6, #32]
  403cec:	eb01 2158 	add.w	r1, r1, r8, lsr #9
  403cf0:	4630      	mov	r0, r6
  403cf2:	4b24      	ldr	r3, [pc, #144]	; (403d84 <put_fat+0x130>)
  403cf4:	4798      	blx	r3
  403cf6:	2800      	cmp	r0, #0
  403cf8:	d13e      	bne.n	403d78 <put_fat+0x124>
  403cfa:	f3c8 0808 	ubfx	r8, r8, #0, #9
  403cfe:	eb06 0308 	add.w	r3, r6, r8
  403d02:	f893 3030 	ldrb.w	r3, [r3, #48]	; 0x30
  403d06:	f023 030f 	bic.w	r3, r3, #15
  403d0a:	f3c5 2203 	ubfx	r2, r5, #8, #4
  403d0e:	431a      	orrs	r2, r3
  403d10:	e7e0      	b.n	403cd4 <put_fat+0x80>
  403d12:	6a01      	ldr	r1, [r0, #32]
  403d14:	eb01 2114 	add.w	r1, r1, r4, lsr #8
  403d18:	4b1a      	ldr	r3, [pc, #104]	; (403d84 <put_fat+0x130>)
  403d1a:	4798      	blx	r3
  403d1c:	4607      	mov	r7, r0
  403d1e:	2800      	cmp	r0, #0
  403d20:	d1ad      	bne.n	403c7e <put_fat+0x2a>
  403d22:	0063      	lsls	r3, r4, #1
  403d24:	f403 73ff 	and.w	r3, r3, #510	; 0x1fe
  403d28:	4433      	add	r3, r6
  403d2a:	f883 5030 	strb.w	r5, [r3, #48]	; 0x30
  403d2e:	f3c5 2207 	ubfx	r2, r5, #8, #8
  403d32:	f883 2031 	strb.w	r2, [r3, #49]	; 0x31
  403d36:	e7a2      	b.n	403c7e <put_fat+0x2a>
  403d38:	6a01      	ldr	r1, [r0, #32]
  403d3a:	eb01 11d4 	add.w	r1, r1, r4, lsr #7
  403d3e:	4b11      	ldr	r3, [pc, #68]	; (403d84 <put_fat+0x130>)
  403d40:	4798      	blx	r3
  403d42:	4607      	mov	r7, r0
  403d44:	2800      	cmp	r0, #0
  403d46:	d19a      	bne.n	403c7e <put_fat+0x2a>
  403d48:	00a1      	lsls	r1, r4, #2
  403d4a:	f401 71fe 	and.w	r1, r1, #508	; 0x1fc
  403d4e:	f101 0330 	add.w	r3, r1, #48	; 0x30
  403d52:	4433      	add	r3, r6
  403d54:	78da      	ldrb	r2, [r3, #3]
  403d56:	0612      	lsls	r2, r2, #24
  403d58:	4431      	add	r1, r6
  403d5a:	f002 4270 	and.w	r2, r2, #4026531840	; 0xf0000000
  403d5e:	432a      	orrs	r2, r5
  403d60:	f881 2030 	strb.w	r2, [r1, #48]	; 0x30
  403d64:	f3c2 2107 	ubfx	r1, r2, #8, #8
  403d68:	7059      	strb	r1, [r3, #1]
  403d6a:	0c11      	lsrs	r1, r2, #16
  403d6c:	7099      	strb	r1, [r3, #2]
  403d6e:	0e12      	lsrs	r2, r2, #24
  403d70:	70da      	strb	r2, [r3, #3]
  403d72:	e784      	b.n	403c7e <put_fat+0x2a>
  403d74:	4607      	mov	r7, r0
  403d76:	e782      	b.n	403c7e <put_fat+0x2a>
  403d78:	4607      	mov	r7, r0
  403d7a:	e780      	b.n	403c7e <put_fat+0x2a>
  403d7c:	2702      	movs	r7, #2
  403d7e:	4638      	mov	r0, r7
  403d80:	e8bd 81f0 	ldmia.w	sp!, {r4, r5, r6, r7, r8, pc}
  403d84:	00403a39 	.word	0x00403a39

00403d88 <create_chain>:
  403d88:	e92d 41f0 	stmdb	sp!, {r4, r5, r6, r7, r8, lr}
  403d8c:	4605      	mov	r5, r0
  403d8e:	4688      	mov	r8, r1
  403d90:	b941      	cbnz	r1, 403da4 <create_chain+0x1c>
  403d92:	68c6      	ldr	r6, [r0, #12]
  403d94:	b186      	cbz	r6, 403db8 <create_chain+0x30>
  403d96:	6983      	ldr	r3, [r0, #24]
  403d98:	429e      	cmp	r6, r3
  403d9a:	bf28      	it	cs
  403d9c:	2601      	movcs	r6, #1
  403d9e:	4634      	mov	r4, r6
  403da0:	4f27      	ldr	r7, [pc, #156]	; (403e40 <create_chain+0xb8>)
  403da2:	e017      	b.n	403dd4 <create_chain+0x4c>
  403da4:	4b26      	ldr	r3, [pc, #152]	; (403e40 <create_chain+0xb8>)
  403da6:	4798      	blx	r3
  403da8:	4603      	mov	r3, r0
  403daa:	2801      	cmp	r0, #1
  403dac:	d93e      	bls.n	403e2c <create_chain+0xa4>
  403dae:	69aa      	ldr	r2, [r5, #24]
  403db0:	4290      	cmp	r0, r2
  403db2:	d340      	bcc.n	403e36 <create_chain+0xae>
  403db4:	4646      	mov	r6, r8
  403db6:	e7f2      	b.n	403d9e <create_chain+0x16>
  403db8:	2601      	movs	r6, #1
  403dba:	e7f0      	b.n	403d9e <create_chain+0x16>
  403dbc:	4621      	mov	r1, r4
  403dbe:	4628      	mov	r0, r5
  403dc0:	47b8      	blx	r7
  403dc2:	4603      	mov	r3, r0
  403dc4:	b170      	cbz	r0, 403de4 <create_chain+0x5c>
  403dc6:	f1b0 3fff 	cmp.w	r0, #4294967295
  403dca:	d034      	beq.n	403e36 <create_chain+0xae>
  403dcc:	2801      	cmp	r0, #1
  403dce:	d032      	beq.n	403e36 <create_chain+0xae>
  403dd0:	42b4      	cmp	r4, r6
  403dd2:	d02f      	beq.n	403e34 <create_chain+0xac>
  403dd4:	3401      	adds	r4, #1
  403dd6:	69ab      	ldr	r3, [r5, #24]
  403dd8:	429c      	cmp	r4, r3
  403dda:	d3ef      	bcc.n	403dbc <create_chain+0x34>
  403ddc:	2e01      	cmp	r6, #1
  403dde:	d927      	bls.n	403e30 <create_chain+0xa8>
  403de0:	2402      	movs	r4, #2
  403de2:	e7eb      	b.n	403dbc <create_chain+0x34>
  403de4:	f06f 4270 	mvn.w	r2, #4026531840	; 0xf0000000
  403de8:	4621      	mov	r1, r4
  403dea:	4628      	mov	r0, r5
  403dec:	4b15      	ldr	r3, [pc, #84]	; (403e44 <create_chain+0xbc>)
  403dee:	4798      	blx	r3
  403df0:	4603      	mov	r3, r0
  403df2:	b9a8      	cbnz	r0, 403e20 <create_chain+0x98>
  403df4:	f1b8 0f00 	cmp.w	r8, #0
  403df8:	d10a      	bne.n	403e10 <create_chain+0x88>
  403dfa:	60ec      	str	r4, [r5, #12]
  403dfc:	692b      	ldr	r3, [r5, #16]
  403dfe:	f1b3 3fff 	cmp.w	r3, #4294967295
  403e02:	d01b      	beq.n	403e3c <create_chain+0xb4>
  403e04:	3b01      	subs	r3, #1
  403e06:	612b      	str	r3, [r5, #16]
  403e08:	2301      	movs	r3, #1
  403e0a:	716b      	strb	r3, [r5, #5]
  403e0c:	4623      	mov	r3, r4
  403e0e:	e012      	b.n	403e36 <create_chain+0xae>
  403e10:	4622      	mov	r2, r4
  403e12:	4641      	mov	r1, r8
  403e14:	4628      	mov	r0, r5
  403e16:	4b0b      	ldr	r3, [pc, #44]	; (403e44 <create_chain+0xbc>)
  403e18:	4798      	blx	r3
  403e1a:	4603      	mov	r3, r0
  403e1c:	2800      	cmp	r0, #0
  403e1e:	d0ec      	beq.n	403dfa <create_chain+0x72>
  403e20:	2b01      	cmp	r3, #1
  403e22:	bf0c      	ite	eq
  403e24:	f04f 33ff 	moveq.w	r3, #4294967295
  403e28:	2301      	movne	r3, #1
  403e2a:	e004      	b.n	403e36 <create_chain+0xae>
  403e2c:	2301      	movs	r3, #1
  403e2e:	e002      	b.n	403e36 <create_chain+0xae>
  403e30:	2300      	movs	r3, #0
  403e32:	e000      	b.n	403e36 <create_chain+0xae>
  403e34:	2300      	movs	r3, #0
  403e36:	4618      	mov	r0, r3
  403e38:	e8bd 81f0 	ldmia.w	sp!, {r4, r5, r6, r7, r8, pc}
  403e3c:	4623      	mov	r3, r4
  403e3e:	e7fa      	b.n	403e36 <create_chain+0xae>
  403e40:	00403ac9 	.word	0x00403ac9
  403e44:	00403c55 	.word	0x00403c55

00403e48 <remove_chain>:
  403e48:	2901      	cmp	r1, #1
  403e4a:	d92e      	bls.n	403eaa <remove_chain+0x62>
  403e4c:	e92d 43f8 	stmdb	sp!, {r3, r4, r5, r6, r7, r8, r9, lr}
  403e50:	4604      	mov	r4, r0
  403e52:	460e      	mov	r6, r1
  403e54:	6983      	ldr	r3, [r0, #24]
  403e56:	4299      	cmp	r1, r3
  403e58:	d303      	bcc.n	403e62 <remove_chain+0x1a>
  403e5a:	2202      	movs	r2, #2
  403e5c:	4610      	mov	r0, r2
  403e5e:	e8bd 83f8 	ldmia.w	sp!, {r3, r4, r5, r6, r7, r8, r9, pc}
  403e62:	4f16      	ldr	r7, [pc, #88]	; (403ebc <remove_chain+0x74>)
  403e64:	f04f 0900 	mov.w	r9, #0
  403e68:	f8df 8054 	ldr.w	r8, [pc, #84]	; 403ec0 <remove_chain+0x78>
  403e6c:	e003      	b.n	403e76 <remove_chain+0x2e>
  403e6e:	462e      	mov	r6, r5
  403e70:	69a3      	ldr	r3, [r4, #24]
  403e72:	42ab      	cmp	r3, r5
  403e74:	d9f2      	bls.n	403e5c <remove_chain+0x14>
  403e76:	4631      	mov	r1, r6
  403e78:	4620      	mov	r0, r4
  403e7a:	47b8      	blx	r7
  403e7c:	4605      	mov	r5, r0
  403e7e:	b1b8      	cbz	r0, 403eb0 <remove_chain+0x68>
  403e80:	2801      	cmp	r0, #1
  403e82:	d017      	beq.n	403eb4 <remove_chain+0x6c>
  403e84:	f1b0 3fff 	cmp.w	r0, #4294967295
  403e88:	d016      	beq.n	403eb8 <remove_chain+0x70>
  403e8a:	464a      	mov	r2, r9
  403e8c:	4631      	mov	r1, r6
  403e8e:	4620      	mov	r0, r4
  403e90:	47c0      	blx	r8
  403e92:	4602      	mov	r2, r0
  403e94:	2800      	cmp	r0, #0
  403e96:	d1e1      	bne.n	403e5c <remove_chain+0x14>
  403e98:	6923      	ldr	r3, [r4, #16]
  403e9a:	f1b3 3fff 	cmp.w	r3, #4294967295
  403e9e:	d0e6      	beq.n	403e6e <remove_chain+0x26>
  403ea0:	3301      	adds	r3, #1
  403ea2:	6123      	str	r3, [r4, #16]
  403ea4:	2301      	movs	r3, #1
  403ea6:	7163      	strb	r3, [r4, #5]
  403ea8:	e7e1      	b.n	403e6e <remove_chain+0x26>
  403eaa:	2202      	movs	r2, #2
  403eac:	4610      	mov	r0, r2
  403eae:	4770      	bx	lr
  403eb0:	2200      	movs	r2, #0
  403eb2:	e7d3      	b.n	403e5c <remove_chain+0x14>
  403eb4:	2202      	movs	r2, #2
  403eb6:	e7d1      	b.n	403e5c <remove_chain+0x14>
  403eb8:	2201      	movs	r2, #1
  403eba:	e7cf      	b.n	403e5c <remove_chain+0x14>
  403ebc:	00403ac9 	.word	0x00403ac9
  403ec0:	00403c55 	.word	0x00403c55

00403ec4 <dir_next>:
  403ec4:	e92d 4ff8 	stmdb	sp!, {r3, r4, r5, r6, r7, r8, r9, sl, fp, lr}
  403ec8:	88c4      	ldrh	r4, [r0, #6]
  403eca:	3401      	adds	r4, #1
  403ecc:	b2a4      	uxth	r4, r4
  403ece:	b914      	cbnz	r4, 403ed6 <dir_next+0x12>
  403ed0:	2004      	movs	r0, #4
  403ed2:	e8bd 8ff8 	ldmia.w	sp!, {r3, r4, r5, r6, r7, r8, r9, sl, fp, pc}
  403ed6:	6903      	ldr	r3, [r0, #16]
  403ed8:	b913      	cbnz	r3, 403ee0 <dir_next+0x1c>
  403eda:	2004      	movs	r0, #4
  403edc:	e8bd 8ff8 	ldmia.w	sp!, {r3, r4, r5, r6, r7, r8, r9, sl, fp, pc}
  403ee0:	460e      	mov	r6, r1
  403ee2:	4605      	mov	r5, r0
  403ee4:	f014 070f 	ands.w	r7, r4, #15
  403ee8:	d110      	bne.n	403f0c <dir_next+0x48>
  403eea:	3301      	adds	r3, #1
  403eec:	6103      	str	r3, [r0, #16]
  403eee:	68c1      	ldr	r1, [r0, #12]
  403ef0:	b931      	cbnz	r1, 403f00 <dir_next+0x3c>
  403ef2:	6803      	ldr	r3, [r0, #0]
  403ef4:	891b      	ldrh	r3, [r3, #8]
  403ef6:	42a3      	cmp	r3, r4
  403ef8:	d808      	bhi.n	403f0c <dir_next+0x48>
  403efa:	2004      	movs	r0, #4
  403efc:	e8bd 8ff8 	ldmia.w	sp!, {r3, r4, r5, r6, r7, r8, r9, sl, fp, pc}
  403f00:	6800      	ldr	r0, [r0, #0]
  403f02:	7883      	ldrb	r3, [r0, #2]
  403f04:	3b01      	subs	r3, #1
  403f06:	ea13 1314 	ands.w	r3, r3, r4, lsr #4
  403f0a:	d008      	beq.n	403f1e <dir_next+0x5a>
  403f0c:	80ec      	strh	r4, [r5, #6]
  403f0e:	682b      	ldr	r3, [r5, #0]
  403f10:	3330      	adds	r3, #48	; 0x30
  403f12:	eb03 1347 	add.w	r3, r3, r7, lsl #5
  403f16:	616b      	str	r3, [r5, #20]
  403f18:	2000      	movs	r0, #0
  403f1a:	e8bd 8ff8 	ldmia.w	sp!, {r3, r4, r5, r6, r7, r8, r9, sl, fp, pc}
  403f1e:	4b32      	ldr	r3, [pc, #200]	; (403fe8 <dir_next+0x124>)
  403f20:	4798      	blx	r3
  403f22:	4680      	mov	r8, r0
  403f24:	2801      	cmp	r0, #1
  403f26:	d94d      	bls.n	403fc4 <dir_next+0x100>
  403f28:	f1b0 3fff 	cmp.w	r0, #4294967295
  403f2c:	d04d      	beq.n	403fca <dir_next+0x106>
  403f2e:	6828      	ldr	r0, [r5, #0]
  403f30:	6983      	ldr	r3, [r0, #24]
  403f32:	4598      	cmp	r8, r3
  403f34:	d33e      	bcc.n	403fb4 <dir_next+0xf0>
  403f36:	b916      	cbnz	r6, 403f3e <dir_next+0x7a>
  403f38:	2004      	movs	r0, #4
  403f3a:	e8bd 8ff8 	ldmia.w	sp!, {r3, r4, r5, r6, r7, r8, r9, sl, fp, pc}
  403f3e:	68e9      	ldr	r1, [r5, #12]
  403f40:	4b2a      	ldr	r3, [pc, #168]	; (403fec <dir_next+0x128>)
  403f42:	4798      	blx	r3
  403f44:	4680      	mov	r8, r0
  403f46:	b910      	cbnz	r0, 403f4e <dir_next+0x8a>
  403f48:	2007      	movs	r0, #7
  403f4a:	e8bd 8ff8 	ldmia.w	sp!, {r3, r4, r5, r6, r7, r8, r9, sl, fp, pc}
  403f4e:	2801      	cmp	r0, #1
  403f50:	d03e      	beq.n	403fd0 <dir_next+0x10c>
  403f52:	f1b0 3fff 	cmp.w	r0, #4294967295
  403f56:	d03e      	beq.n	403fd6 <dir_next+0x112>
  403f58:	2100      	movs	r1, #0
  403f5a:	6828      	ldr	r0, [r5, #0]
  403f5c:	4b24      	ldr	r3, [pc, #144]	; (403ff0 <dir_next+0x12c>)
  403f5e:	4798      	blx	r3
  403f60:	2800      	cmp	r0, #0
  403f62:	d13b      	bne.n	403fdc <dir_next+0x118>
  403f64:	6828      	ldr	r0, [r5, #0]
  403f66:	f44f 7200 	mov.w	r2, #512	; 0x200
  403f6a:	2100      	movs	r1, #0
  403f6c:	3030      	adds	r0, #48	; 0x30
  403f6e:	4b21      	ldr	r3, [pc, #132]	; (403ff4 <dir_next+0x130>)
  403f70:	4798      	blx	r3
  403f72:	682e      	ldr	r6, [r5, #0]
  403f74:	4641      	mov	r1, r8
  403f76:	4630      	mov	r0, r6
  403f78:	4b1f      	ldr	r3, [pc, #124]	; (403ff8 <dir_next+0x134>)
  403f7a:	4798      	blx	r3
  403f7c:	62f0      	str	r0, [r6, #44]	; 0x2c
  403f7e:	2600      	movs	r6, #0
  403f80:	f04f 0b01 	mov.w	fp, #1
  403f84:	46b2      	mov	sl, r6
  403f86:	f8df 9068 	ldr.w	r9, [pc, #104]	; 403ff0 <dir_next+0x12c>
  403f8a:	682b      	ldr	r3, [r5, #0]
  403f8c:	7899      	ldrb	r1, [r3, #2]
  403f8e:	b2f2      	uxtb	r2, r6
  403f90:	4291      	cmp	r1, r2
  403f92:	d90b      	bls.n	403fac <dir_next+0xe8>
  403f94:	f883 b004 	strb.w	fp, [r3, #4]
  403f98:	4651      	mov	r1, sl
  403f9a:	6828      	ldr	r0, [r5, #0]
  403f9c:	47c8      	blx	r9
  403f9e:	3601      	adds	r6, #1
  403fa0:	b9f8      	cbnz	r0, 403fe2 <dir_next+0x11e>
  403fa2:	682a      	ldr	r2, [r5, #0]
  403fa4:	6ad3      	ldr	r3, [r2, #44]	; 0x2c
  403fa6:	3301      	adds	r3, #1
  403fa8:	62d3      	str	r3, [r2, #44]	; 0x2c
  403faa:	e7ee      	b.n	403f8a <dir_next+0xc6>
  403fac:	4616      	mov	r6, r2
  403fae:	6ada      	ldr	r2, [r3, #44]	; 0x2c
  403fb0:	1b96      	subs	r6, r2, r6
  403fb2:	62de      	str	r6, [r3, #44]	; 0x2c
  403fb4:	f8c5 800c 	str.w	r8, [r5, #12]
  403fb8:	4641      	mov	r1, r8
  403fba:	6828      	ldr	r0, [r5, #0]
  403fbc:	4b0e      	ldr	r3, [pc, #56]	; (403ff8 <dir_next+0x134>)
  403fbe:	4798      	blx	r3
  403fc0:	6128      	str	r0, [r5, #16]
  403fc2:	e7a3      	b.n	403f0c <dir_next+0x48>
  403fc4:	2002      	movs	r0, #2
  403fc6:	e8bd 8ff8 	ldmia.w	sp!, {r3, r4, r5, r6, r7, r8, r9, sl, fp, pc}
  403fca:	2001      	movs	r0, #1
  403fcc:	e8bd 8ff8 	ldmia.w	sp!, {r3, r4, r5, r6, r7, r8, r9, sl, fp, pc}
  403fd0:	2002      	movs	r0, #2
  403fd2:	e8bd 8ff8 	ldmia.w	sp!, {r3, r4, r5, r6, r7, r8, r9, sl, fp, pc}
  403fd6:	2001      	movs	r0, #1
  403fd8:	e8bd 8ff8 	ldmia.w	sp!, {r3, r4, r5, r6, r7, r8, r9, sl, fp, pc}
  403fdc:	2001      	movs	r0, #1
  403fde:	e8bd 8ff8 	ldmia.w	sp!, {r3, r4, r5, r6, r7, r8, r9, sl, fp, pc}
  403fe2:	2001      	movs	r0, #1
  403fe4:	e8bd 8ff8 	ldmia.w	sp!, {r3, r4, r5, r6, r7, r8, r9, sl, fp, pc}
  403fe8:	00403ac9 	.word	0x00403ac9
  403fec:	00403d89 	.word	0x00403d89
  403ff0:	00403a39 	.word	0x00403a39
  403ff4:	0040348d 	.word	0x0040348d
  403ff8:	0040349b 	.word	0x0040349b

00403ffc <dir_find>:
  403ffc:	e92d 4ff0 	stmdb	sp!, {r4, r5, r6, r7, r8, r9, sl, fp, lr}
  404000:	b085      	sub	sp, #20
  404002:	4605      	mov	r5, r0
  404004:	2100      	movs	r1, #0
  404006:	4b62      	ldr	r3, [pc, #392]	; (404190 <dir_find+0x194>)
  404008:	4798      	blx	r3
  40400a:	4680      	mov	r8, r0
  40400c:	bb08      	cbnz	r0, 404052 <dir_find+0x56>
  40400e:	f04f 0bff 	mov.w	fp, #255	; 0xff
  404012:	46d9      	mov	r9, fp
  404014:	4f5f      	ldr	r7, [pc, #380]	; (404194 <dir_find+0x198>)
  404016:	46da      	mov	sl, fp
  404018:	e095      	b.n	404146 <dir_find+0x14a>
  40401a:	2a0f      	cmp	r2, #15
  40401c:	d01d      	beq.n	40405a <dir_find+0x5e>
  40401e:	f1b9 0f00 	cmp.w	r9, #0
  404022:	d104      	bne.n	40402e <dir_find+0x32>
  404024:	4620      	mov	r0, r4
  404026:	4b5c      	ldr	r3, [pc, #368]	; (404198 <dir_find+0x19c>)
  404028:	4798      	blx	r3
  40402a:	4582      	cmp	sl, r0
  40402c:	d011      	beq.n	404052 <dir_find+0x56>
  40402e:	f64f 73ff 	movw	r3, #65535	; 0xffff
  404032:	842b      	strh	r3, [r5, #32]
  404034:	69ab      	ldr	r3, [r5, #24]
  404036:	7ada      	ldrb	r2, [r3, #11]
  404038:	f012 0f01 	tst.w	r2, #1
  40403c:	d17a      	bne.n	404134 <dir_find+0x138>
  40403e:	f104 000b 	add.w	r0, r4, #11
  404042:	f814 1b01 	ldrb.w	r1, [r4], #1
  404046:	f813 2b01 	ldrb.w	r2, [r3], #1
  40404a:	4291      	cmp	r1, r2
  40404c:	d16c      	bne.n	404128 <dir_find+0x12c>
  40404e:	42a0      	cmp	r0, r4
  404050:	d1f7      	bne.n	404042 <dir_find+0x46>
  404052:	4640      	mov	r0, r8
  404054:	b005      	add	sp, #20
  404056:	e8bd 8ff0 	ldmia.w	sp!, {r4, r5, r6, r7, r8, r9, sl, fp, pc}
  40405a:	f8d5 801c 	ldr.w	r8, [r5, #28]
  40405e:	f1b8 0f00 	cmp.w	r8, #0
  404062:	d069      	beq.n	404138 <dir_find+0x13c>
  404064:	f016 0f40 	tst.w	r6, #64	; 0x40
  404068:	d00c      	beq.n	404084 <dir_find+0x88>
  40406a:	f894 a00d 	ldrb.w	sl, [r4, #13]
  40406e:	f006 06bf 	and.w	r6, r6, #191	; 0xbf
  404072:	88eb      	ldrh	r3, [r5, #6]
  404074:	842b      	strh	r3, [r5, #32]
  404076:	f894 b00d 	ldrb.w	fp, [r4, #13]
  40407a:	45d3      	cmp	fp, sl
  40407c:	d008      	beq.n	404090 <dir_find+0x94>
  40407e:	f04f 09ff 	mov.w	r9, #255	; 0xff
  404082:	e059      	b.n	404138 <dir_find+0x13c>
  404084:	45b1      	cmp	r9, r6
  404086:	bf18      	it	ne
  404088:	f04f 09ff 	movne.w	r9, #255	; 0xff
  40408c:	d154      	bne.n	404138 <dir_find+0x13c>
  40408e:	e7f2      	b.n	404076 <dir_find+0x7a>
  404090:	f894 a000 	ldrb.w	sl, [r4]
  404094:	f02a 0a40 	bic.w	sl, sl, #64	; 0x40
  404098:	f10a 3aff 	add.w	sl, sl, #4294967295
  40409c:	eb0a 034a 	add.w	r3, sl, sl, lsl #1
  4040a0:	eb0a 0383 	add.w	r3, sl, r3, lsl #2
  4040a4:	f8df 90fc 	ldr.w	r9, [pc, #252]	; 4041a4 <dir_find+0x1a8>
  4040a8:	f109 0a0d 	add.w	sl, r9, #13
  4040ac:	2001      	movs	r0, #1
  4040ae:	9603      	str	r6, [sp, #12]
  4040b0:	f8cd b004 	str.w	fp, [sp, #4]
  4040b4:	461e      	mov	r6, r3
  4040b6:	9502      	str	r5, [sp, #8]
  4040b8:	e00f      	b.n	4040da <dir_find+0xde>
  4040ba:	4618      	mov	r0, r3
  4040bc:	4b37      	ldr	r3, [pc, #220]	; (40419c <dir_find+0x1a0>)
  4040be:	4798      	blx	r3
  4040c0:	4683      	mov	fp, r0
  4040c2:	2efe      	cmp	r6, #254	; 0xfe
  4040c4:	d85b      	bhi.n	40417e <dir_find+0x182>
  4040c6:	1c75      	adds	r5, r6, #1
  4040c8:	f838 0016 	ldrh.w	r0, [r8, r6, lsl #1]
  4040cc:	4b33      	ldr	r3, [pc, #204]	; (40419c <dir_find+0x1a0>)
  4040ce:	4798      	blx	r3
  4040d0:	4583      	cmp	fp, r0
  4040d2:	d158      	bne.n	404186 <dir_find+0x18a>
  4040d4:	462e      	mov	r6, r5
  4040d6:	45d1      	cmp	r9, sl
  4040d8:	d013      	beq.n	404102 <dir_find+0x106>
  4040da:	f819 2b01 	ldrb.w	r2, [r9], #1
  4040de:	18a3      	adds	r3, r4, r2
  4040e0:	7859      	ldrb	r1, [r3, #1]
  4040e2:	5ca3      	ldrb	r3, [r4, r2]
  4040e4:	ea43 2301 	orr.w	r3, r3, r1, lsl #8
  4040e8:	2800      	cmp	r0, #0
  4040ea:	d1e6      	bne.n	4040ba <dir_find+0xbe>
  4040ec:	f64f 72ff 	movw	r2, #65535	; 0xffff
  4040f0:	4293      	cmp	r3, r2
  4040f2:	d0f0      	beq.n	4040d6 <dir_find+0xda>
  4040f4:	f8dd b004 	ldr.w	fp, [sp, #4]
  4040f8:	9d02      	ldr	r5, [sp, #8]
  4040fa:	46da      	mov	sl, fp
  4040fc:	f04f 09ff 	mov.w	r9, #255	; 0xff
  404100:	e01a      	b.n	404138 <dir_find+0x13c>
  404102:	f8dd b004 	ldr.w	fp, [sp, #4]
  404106:	4632      	mov	r2, r6
  404108:	9e03      	ldr	r6, [sp, #12]
  40410a:	9d02      	ldr	r5, [sp, #8]
  40410c:	7823      	ldrb	r3, [r4, #0]
  40410e:	f013 0f40 	tst.w	r3, #64	; 0x40
  404112:	d004      	beq.n	40411e <dir_find+0x122>
  404114:	b118      	cbz	r0, 40411e <dir_find+0x122>
  404116:	f838 3012 	ldrh.w	r3, [r8, r2, lsl #1]
  40411a:	2b00      	cmp	r3, #0
  40411c:	d1ed      	bne.n	4040fa <dir_find+0xfe>
  40411e:	3e01      	subs	r6, #1
  404120:	fa5f f986 	uxtb.w	r9, r6
  404124:	46da      	mov	sl, fp
  404126:	e007      	b.n	404138 <dir_find+0x13c>
  404128:	f04f 09ff 	mov.w	r9, #255	; 0xff
  40412c:	e004      	b.n	404138 <dir_find+0x13c>
  40412e:	f04f 09ff 	mov.w	r9, #255	; 0xff
  404132:	e001      	b.n	404138 <dir_find+0x13c>
  404134:	f04f 09ff 	mov.w	r9, #255	; 0xff
  404138:	2100      	movs	r1, #0
  40413a:	4628      	mov	r0, r5
  40413c:	4b18      	ldr	r3, [pc, #96]	; (4041a0 <dir_find+0x1a4>)
  40413e:	4798      	blx	r3
  404140:	4680      	mov	r8, r0
  404142:	2800      	cmp	r0, #0
  404144:	d185      	bne.n	404052 <dir_find+0x56>
  404146:	6929      	ldr	r1, [r5, #16]
  404148:	6828      	ldr	r0, [r5, #0]
  40414a:	47b8      	blx	r7
  40414c:	4680      	mov	r8, r0
  40414e:	2800      	cmp	r0, #0
  404150:	f47f af7f 	bne.w	404052 <dir_find+0x56>
  404154:	696c      	ldr	r4, [r5, #20]
  404156:	7826      	ldrb	r6, [r4, #0]
  404158:	b176      	cbz	r6, 404178 <dir_find+0x17c>
  40415a:	7ae3      	ldrb	r3, [r4, #11]
  40415c:	f003 023f 	and.w	r2, r3, #63	; 0x3f
  404160:	2ee5      	cmp	r6, #229	; 0xe5
  404162:	d0e4      	beq.n	40412e <dir_find+0x132>
  404164:	f013 0f08 	tst.w	r3, #8
  404168:	f43f af57 	beq.w	40401a <dir_find+0x1e>
  40416c:	2a0f      	cmp	r2, #15
  40416e:	f43f af74 	beq.w	40405a <dir_find+0x5e>
  404172:	f04f 09ff 	mov.w	r9, #255	; 0xff
  404176:	e7df      	b.n	404138 <dir_find+0x13c>
  404178:	f04f 0804 	mov.w	r8, #4
  40417c:	e769      	b.n	404052 <dir_find+0x56>
  40417e:	f8dd b004 	ldr.w	fp, [sp, #4]
  404182:	9d02      	ldr	r5, [sp, #8]
  404184:	e7b9      	b.n	4040fa <dir_find+0xfe>
  404186:	f8dd b004 	ldr.w	fp, [sp, #4]
  40418a:	9d02      	ldr	r5, [sp, #8]
  40418c:	e7b5      	b.n	4040fa <dir_find+0xfe>
  40418e:	bf00      	nop
  404190:	00403bb1 	.word	0x00403bb1
  404194:	00403a39 	.word	0x00403a39
  404198:	004034b1 	.word	0x004034b1
  40419c:	00404f1d 	.word	0x00404f1d
  4041a0:	00403ec5 	.word	0x00403ec5
  4041a4:	00409e84 	.word	0x00409e84

004041a8 <dir_register>:
  4041a8:	e92d 4ff0 	stmdb	sp!, {r4, r5, r6, r7, r8, r9, sl, fp, lr}
  4041ac:	b089      	sub	sp, #36	; 0x24
  4041ae:	4604      	mov	r4, r0
  4041b0:	6985      	ldr	r5, [r0, #24]
  4041b2:	f8d0 b01c 	ldr.w	fp, [r0, #28]
  4041b6:	220c      	movs	r2, #12
  4041b8:	4629      	mov	r1, r5
  4041ba:	a805      	add	r0, sp, #20
  4041bc:	4ba8      	ldr	r3, [pc, #672]	; (404460 <dir_register+0x2b8>)
  4041be:	4798      	blx	r3
  4041c0:	f89d 301f 	ldrb.w	r3, [sp, #31]
  4041c4:	f013 0f01 	tst.w	r3, #1
  4041c8:	d079      	beq.n	4042be <dir_register+0x116>
  4041ca:	2300      	movs	r3, #0
  4041cc:	72eb      	strb	r3, [r5, #11]
  4041ce:	61e3      	str	r3, [r4, #28]
  4041d0:	220b      	movs	r2, #11
  4041d2:	a905      	add	r1, sp, #20
  4041d4:	4628      	mov	r0, r5
  4041d6:	4ba2      	ldr	r3, [pc, #648]	; (404460 <dir_register+0x2b8>)
  4041d8:	4798      	blx	r3
  4041da:	2701      	movs	r7, #1
  4041dc:	463b      	mov	r3, r7
  4041de:	f04f 0820 	mov.w	r8, #32
  4041e2:	f8df 929c 	ldr.w	r9, [pc, #668]	; 404480 <dir_register+0x2d8>
  4041e6:	f8df a278 	ldr.w	sl, [pc, #632]	; 404460 <dir_register+0x2b8>
  4041ea:	e032      	b.n	404252 <dir_register+0xaa>
  4041ec:	463b      	mov	r3, r7
  4041ee:	e030      	b.n	404252 <dir_register+0xaa>
  4041f0:	4613      	mov	r3, r2
  4041f2:	e002      	b.n	4041fa <dir_register+0x52>
  4041f4:	2300      	movs	r3, #0
  4041f6:	e000      	b.n	4041fa <dir_register+0x52>
  4041f8:	4613      	mov	r3, r2
  4041fa:	442b      	add	r3, r5
  4041fc:	e005      	b.n	40420a <dir_register+0x62>
  4041fe:	4641      	mov	r1, r8
  404200:	f803 1b01 	strb.w	r1, [r3], #1
  404204:	1b59      	subs	r1, r3, r5
  404206:	2907      	cmp	r1, #7
  404208:	d807      	bhi.n	40421a <dir_register+0x72>
  40420a:	2a07      	cmp	r2, #7
  40420c:	d8f7      	bhi.n	4041fe <dir_register+0x56>
  40420e:	a908      	add	r1, sp, #32
  404210:	4411      	add	r1, r2
  404212:	f811 1c14 	ldrb.w	r1, [r1, #-20]
  404216:	3201      	adds	r2, #1
  404218:	e7f2      	b.n	404200 <dir_register+0x58>
  40421a:	4620      	mov	r0, r4
  40421c:	47c8      	blx	r9
  40421e:	4606      	mov	r6, r0
  404220:	2800      	cmp	r0, #0
  404222:	d13e      	bne.n	4042a2 <dir_register+0xfa>
  404224:	3701      	adds	r7, #1
  404226:	b2bf      	uxth	r7, r7
  404228:	2f64      	cmp	r7, #100	; 0x64
  40422a:	d038      	beq.n	40429e <dir_register+0xf6>
  40422c:	220b      	movs	r2, #11
  40422e:	a905      	add	r1, sp, #20
  404230:	4628      	mov	r0, r5
  404232:	47d0      	blx	sl
  404234:	2f05      	cmp	r7, #5
  404236:	d9d9      	bls.n	4041ec <dir_register+0x44>
  404238:	463b      	mov	r3, r7
  40423a:	4659      	mov	r1, fp
  40423c:	03da      	lsls	r2, r3, #15
  40423e:	ea42 0353 	orr.w	r3, r2, r3, lsr #1
  404242:	f831 2b02 	ldrh.w	r2, [r1], #2
  404246:	fa12 f383 	uxtah	r3, r2, r3
  40424a:	b29b      	uxth	r3, r3
  40424c:	880a      	ldrh	r2, [r1, #0]
  40424e:	2a00      	cmp	r2, #0
  404250:	d1f4      	bne.n	40423c <dir_register+0x94>
  404252:	f10d 0613 	add.w	r6, sp, #19
  404256:	2207      	movs	r2, #7
  404258:	f003 000f 	and.w	r0, r3, #15
  40425c:	f100 0130 	add.w	r1, r0, #48	; 0x30
  404260:	2939      	cmp	r1, #57	; 0x39
  404262:	bf88      	it	hi
  404264:	f100 0137 	addhi.w	r1, r0, #55	; 0x37
  404268:	3a01      	subs	r2, #1
  40426a:	f806 1901 	strb.w	r1, [r6], #-1
  40426e:	f3c3 130f 	ubfx	r3, r3, #4, #16
  404272:	2b00      	cmp	r3, #0
  404274:	d1f0      	bne.n	404258 <dir_register+0xb0>
  404276:	217e      	movs	r1, #126	; 0x7e
  404278:	ab08      	add	r3, sp, #32
  40427a:	4413      	add	r3, r2
  40427c:	f803 1c14 	strb.w	r1, [r3, #-20]
  404280:	2a00      	cmp	r2, #0
  404282:	d0b5      	beq.n	4041f0 <dir_register+0x48>
  404284:	782b      	ldrb	r3, [r5, #0]
  404286:	2b20      	cmp	r3, #32
  404288:	d0b4      	beq.n	4041f4 <dir_register+0x4c>
  40428a:	4629      	mov	r1, r5
  40428c:	2300      	movs	r3, #0
  40428e:	3301      	adds	r3, #1
  404290:	429a      	cmp	r2, r3
  404292:	d0b1      	beq.n	4041f8 <dir_register+0x50>
  404294:	f811 0f01 	ldrb.w	r0, [r1, #1]!
  404298:	2820      	cmp	r0, #32
  40429a:	d1f8      	bne.n	40428e <dir_register+0xe6>
  40429c:	e7ad      	b.n	4041fa <dir_register+0x52>
  40429e:	2607      	movs	r6, #7
  4042a0:	e004      	b.n	4042ac <dir_register+0x104>
  4042a2:	2f64      	cmp	r7, #100	; 0x64
  4042a4:	f000 809f 	beq.w	4043e6 <dir_register+0x23e>
  4042a8:	2804      	cmp	r0, #4
  4042aa:	d003      	beq.n	4042b4 <dir_register+0x10c>
  4042ac:	4630      	mov	r0, r6
  4042ae:	b009      	add	sp, #36	; 0x24
  4042b0:	e8bd 8ff0 	ldmia.w	sp!, {r4, r5, r6, r7, r8, r9, sl, fp, pc}
  4042b4:	f89d 301f 	ldrb.w	r3, [sp, #31]
  4042b8:	72eb      	strb	r3, [r5, #11]
  4042ba:	f8c4 b01c 	str.w	fp, [r4, #28]
  4042be:	f89d 301f 	ldrb.w	r3, [sp, #31]
  4042c2:	f013 0f02 	tst.w	r3, #2
  4042c6:	d014      	beq.n	4042f2 <dir_register+0x14a>
  4042c8:	f8bb 3000 	ldrh.w	r3, [fp]
  4042cc:	b17b      	cbz	r3, 4042ee <dir_register+0x146>
  4042ce:	2300      	movs	r3, #0
  4042d0:	3301      	adds	r3, #1
  4042d2:	b29b      	uxth	r3, r3
  4042d4:	f83b 2013 	ldrh.w	r2, [fp, r3, lsl #1]
  4042d8:	2a00      	cmp	r2, #0
  4042da:	d1f9      	bne.n	4042d0 <dir_register+0x128>
  4042dc:	3319      	adds	r3, #25
  4042de:	4f61      	ldr	r7, [pc, #388]	; (404464 <dir_register+0x2bc>)
  4042e0:	fb87 2703 	smull	r2, r7, r7, r3
  4042e4:	17db      	asrs	r3, r3, #31
  4042e6:	ebc3 07a7 	rsb	r7, r3, r7, asr #2
  4042ea:	b2bf      	uxth	r7, r7
  4042ec:	e002      	b.n	4042f4 <dir_register+0x14c>
  4042ee:	2300      	movs	r3, #0
  4042f0:	e7f4      	b.n	4042dc <dir_register+0x134>
  4042f2:	2701      	movs	r7, #1
  4042f4:	2100      	movs	r1, #0
  4042f6:	4620      	mov	r0, r4
  4042f8:	4b5b      	ldr	r3, [pc, #364]	; (404468 <dir_register+0x2c0>)
  4042fa:	4798      	blx	r3
  4042fc:	4606      	mov	r6, r0
  4042fe:	2800      	cmp	r0, #0
  404300:	d1d4      	bne.n	4042ac <dir_register+0x104>
  404302:	f04f 0a00 	mov.w	sl, #0
  404306:	4655      	mov	r5, sl
  404308:	f8df 8168 	ldr.w	r8, [pc, #360]	; 404474 <dir_register+0x2cc>
  40430c:	46d3      	mov	fp, sl
  40430e:	f8df 9160 	ldr.w	r9, [pc, #352]	; 404470 <dir_register+0x2c8>
  404312:	e00a      	b.n	40432a <dir_register+0x182>
  404314:	1c6b      	adds	r3, r5, #1
  404316:	b29b      	uxth	r3, r3
  404318:	429f      	cmp	r7, r3
  40431a:	d066      	beq.n	4043ea <dir_register+0x242>
  40431c:	461d      	mov	r5, r3
  40431e:	2101      	movs	r1, #1
  404320:	4620      	mov	r0, r4
  404322:	47c8      	blx	r9
  404324:	4606      	mov	r6, r0
  404326:	2800      	cmp	r0, #0
  404328:	d1c0      	bne.n	4042ac <dir_register+0x104>
  40432a:	6921      	ldr	r1, [r4, #16]
  40432c:	6820      	ldr	r0, [r4, #0]
  40432e:	47c0      	blx	r8
  404330:	4606      	mov	r6, r0
  404332:	2800      	cmp	r0, #0
  404334:	d1ba      	bne.n	4042ac <dir_register+0x104>
  404336:	6963      	ldr	r3, [r4, #20]
  404338:	781b      	ldrb	r3, [r3, #0]
  40433a:	2be5      	cmp	r3, #229	; 0xe5
  40433c:	d000      	beq.n	404340 <dir_register+0x198>
  40433e:	b923      	cbnz	r3, 40434a <dir_register+0x1a2>
  404340:	2d00      	cmp	r5, #0
  404342:	d1e7      	bne.n	404314 <dir_register+0x16c>
  404344:	f8b4 a006 	ldrh.w	sl, [r4, #6]
  404348:	e7e4      	b.n	404314 <dir_register+0x16c>
  40434a:	465d      	mov	r5, fp
  40434c:	e7e7      	b.n	40431e <dir_register+0x176>
  40434e:	4651      	mov	r1, sl
  404350:	4620      	mov	r0, r4
  404352:	4b45      	ldr	r3, [pc, #276]	; (404468 <dir_register+0x2c0>)
  404354:	4798      	blx	r3
  404356:	4606      	mov	r6, r0
  404358:	2800      	cmp	r0, #0
  40435a:	d1a7      	bne.n	4042ac <dir_register+0x104>
  40435c:	69a0      	ldr	r0, [r4, #24]
  40435e:	4b43      	ldr	r3, [pc, #268]	; (40446c <dir_register+0x2c4>)
  404360:	4798      	blx	r3
  404362:	9000      	str	r0, [sp, #0]
  404364:	2700      	movs	r7, #0
  404366:	9701      	str	r7, [sp, #4]
  404368:	e019      	b.n	40439e <dir_register+0x1f6>
  40436a:	4671      	mov	r1, lr
  40436c:	e062      	b.n	404434 <dir_register+0x28c>
  40436e:	f64f 72ff 	movw	r2, #65535	; 0xffff
  404372:	4293      	cmp	r3, r2
  404374:	d002      	beq.n	40437c <dir_register+0x1d4>
  404376:	f839 3011 	ldrh.w	r3, [r9, r1, lsl #1]
  40437a:	b90b      	cbnz	r3, 404380 <dir_register+0x1d8>
  40437c:	f04b 0b40 	orr.w	fp, fp, #64	; 0x40
  404380:	f880 b000 	strb.w	fp, [r0]
  404384:	6823      	ldr	r3, [r4, #0]
  404386:	2201      	movs	r2, #1
  404388:	711a      	strb	r2, [r3, #4]
  40438a:	4639      	mov	r1, r7
  40438c:	4620      	mov	r0, r4
  40438e:	4b38      	ldr	r3, [pc, #224]	; (404470 <dir_register+0x2c8>)
  404390:	4798      	blx	r3
  404392:	4606      	mov	r6, r0
  404394:	2800      	cmp	r0, #0
  404396:	d189      	bne.n	4042ac <dir_register+0x104>
  404398:	3d01      	subs	r5, #1
  40439a:	b2ad      	uxth	r5, r5
  40439c:	b33d      	cbz	r5, 4043ee <dir_register+0x246>
  40439e:	6921      	ldr	r1, [r4, #16]
  4043a0:	6820      	ldr	r0, [r4, #0]
  4043a2:	4b34      	ldr	r3, [pc, #208]	; (404474 <dir_register+0x2cc>)
  4043a4:	4798      	blx	r3
  4043a6:	4606      	mov	r6, r0
  4043a8:	2800      	cmp	r0, #0
  4043aa:	f47f af7f 	bne.w	4042ac <dir_register+0x104>
  4043ae:	f8d4 901c 	ldr.w	r9, [r4, #28]
  4043b2:	6960      	ldr	r0, [r4, #20]
  4043b4:	fa5f fb85 	uxtb.w	fp, r5
  4043b8:	f89d 3000 	ldrb.w	r3, [sp]
  4043bc:	7343      	strb	r3, [r0, #13]
  4043be:	230f      	movs	r3, #15
  4043c0:	72c3      	strb	r3, [r0, #11]
  4043c2:	7307      	strb	r7, [r0, #12]
  4043c4:	7687      	strb	r7, [r0, #26]
  4043c6:	76c7      	strb	r7, [r0, #27]
  4043c8:	f10b 31ff 	add.w	r1, fp, #4294967295
  4043cc:	eb01 0341 	add.w	r3, r1, r1, lsl #1
  4043d0:	eb01 0183 	add.w	r1, r1, r3, lsl #2
  4043d4:	4a28      	ldr	r2, [pc, #160]	; (404478 <dir_register+0x2d0>)
  4043d6:	f102 080d 	add.w	r8, r2, #13
  4043da:	9b01      	ldr	r3, [sp, #4]
  4043dc:	f64f 76ff 	movw	r6, #65535	; 0xffff
  4043e0:	f04f 0aff 	mov.w	sl, #255	; 0xff
  4043e4:	e029      	b.n	40443a <dir_register+0x292>
  4043e6:	2607      	movs	r6, #7
  4043e8:	e760      	b.n	4042ac <dir_register+0x104>
  4043ea:	2b01      	cmp	r3, #1
  4043ec:	d8af      	bhi.n	40434e <dir_register+0x1a6>
  4043ee:	6921      	ldr	r1, [r4, #16]
  4043f0:	6820      	ldr	r0, [r4, #0]
  4043f2:	4b20      	ldr	r3, [pc, #128]	; (404474 <dir_register+0x2cc>)
  4043f4:	4798      	blx	r3
  4043f6:	4606      	mov	r6, r0
  4043f8:	2800      	cmp	r0, #0
  4043fa:	f47f af57 	bne.w	4042ac <dir_register+0x104>
  4043fe:	6965      	ldr	r5, [r4, #20]
  404400:	2220      	movs	r2, #32
  404402:	2100      	movs	r1, #0
  404404:	4628      	mov	r0, r5
  404406:	4b1d      	ldr	r3, [pc, #116]	; (40447c <dir_register+0x2d4>)
  404408:	4798      	blx	r3
  40440a:	220b      	movs	r2, #11
  40440c:	69a1      	ldr	r1, [r4, #24]
  40440e:	4628      	mov	r0, r5
  404410:	4b13      	ldr	r3, [pc, #76]	; (404460 <dir_register+0x2b8>)
  404412:	4798      	blx	r3
  404414:	69a3      	ldr	r3, [r4, #24]
  404416:	7adb      	ldrb	r3, [r3, #11]
  404418:	f003 0318 	and.w	r3, r3, #24
  40441c:	732b      	strb	r3, [r5, #12]
  40441e:	6823      	ldr	r3, [r4, #0]
  404420:	2201      	movs	r2, #1
  404422:	711a      	strb	r2, [r3, #4]
  404424:	e742      	b.n	4042ac <dir_register+0x104>
  404426:	f892 e000 	ldrb.w	lr, [r2]
  40442a:	f800 a00e 	strb.w	sl, [r0, lr]
  40442e:	4486      	add	lr, r0
  404430:	f88e a001 	strb.w	sl, [lr, #1]
  404434:	3201      	adds	r2, #1
  404436:	4542      	cmp	r2, r8
  404438:	d099      	beq.n	40436e <dir_register+0x1c6>
  40443a:	42b3      	cmp	r3, r6
  40443c:	d0f3      	beq.n	404426 <dir_register+0x27e>
  40443e:	f101 0e01 	add.w	lr, r1, #1
  404442:	f839 3011 	ldrh.w	r3, [r9, r1, lsl #1]
  404446:	7811      	ldrb	r1, [r2, #0]
  404448:	5443      	strb	r3, [r0, r1]
  40444a:	4401      	add	r1, r0
  40444c:	ea4f 2c13 	mov.w	ip, r3, lsr #8
  404450:	f881 c001 	strb.w	ip, [r1, #1]
  404454:	2b00      	cmp	r3, #0
  404456:	d188      	bne.n	40436a <dir_register+0x1c2>
  404458:	4671      	mov	r1, lr
  40445a:	4633      	mov	r3, r6
  40445c:	e7ea      	b.n	404434 <dir_register+0x28c>
  40445e:	bf00      	nop
  404460:	00403479 	.word	0x00403479
  404464:	4ec4ec4f 	.word	0x4ec4ec4f
  404468:	00403bb1 	.word	0x00403bb1
  40446c:	004034b1 	.word	0x004034b1
  404470:	00403ec5 	.word	0x00403ec5
  404474:	00403a39 	.word	0x00403a39
  404478:	00409e84 	.word	0x00409e84
  40447c:	0040348d 	.word	0x0040348d
  404480:	00403ffd 	.word	0x00403ffd

00404484 <dir_read>:
  404484:	e92d 4ff8 	stmdb	sp!, {r3, r4, r5, r6, r7, r8, r9, sl, fp, lr}
  404488:	4604      	mov	r4, r0
  40448a:	f04f 09ff 	mov.w	r9, #255	; 0xff
  40448e:	464e      	mov	r6, r9
  404490:	2504      	movs	r5, #4
  404492:	4f40      	ldr	r7, [pc, #256]	; (404594 <dir_read+0x110>)
  404494:	f64f 78ff 	movw	r8, #65535	; 0xffff
  404498:	e05a      	b.n	404550 <dir_read+0xcc>
  40449a:	290f      	cmp	r1, #15
  40449c:	d146      	bne.n	40452c <dir_read+0xa8>
  40449e:	f013 0f40 	tst.w	r3, #64	; 0x40
  4044a2:	d00b      	beq.n	4044bc <dir_read+0x38>
  4044a4:	f890 900d 	ldrb.w	r9, [r0, #13]
  4044a8:	f003 03bf 	and.w	r3, r3, #191	; 0xbf
  4044ac:	88e2      	ldrh	r2, [r4, #6]
  4044ae:	8422      	strh	r2, [r4, #32]
  4044b0:	f890 e00d 	ldrb.w	lr, [r0, #13]
  4044b4:	45ce      	cmp	lr, r9
  4044b6:	d006      	beq.n	4044c6 <dir_read+0x42>
  4044b8:	26ff      	movs	r6, #255	; 0xff
  4044ba:	e043      	b.n	404544 <dir_read+0xc0>
  4044bc:	429e      	cmp	r6, r3
  4044be:	bf18      	it	ne
  4044c0:	26ff      	movne	r6, #255	; 0xff
  4044c2:	d13f      	bne.n	404544 <dir_read+0xc0>
  4044c4:	e7f4      	b.n	4044b0 <dir_read+0x2c>
  4044c6:	f8d4 a01c 	ldr.w	sl, [r4, #28]
  4044ca:	7806      	ldrb	r6, [r0, #0]
  4044cc:	f006 063f 	and.w	r6, r6, #63	; 0x3f
  4044d0:	3e01      	subs	r6, #1
  4044d2:	eb06 0246 	add.w	r2, r6, r6, lsl #1
  4044d6:	eb06 0682 	add.w	r6, r6, r2, lsl #2
  4044da:	492f      	ldr	r1, [pc, #188]	; (404598 <dir_read+0x114>)
  4044dc:	f101 090d 	add.w	r9, r1, #13
  4044e0:	f04f 0c01 	mov.w	ip, #1
  4044e4:	e003      	b.n	4044ee <dir_read+0x6a>
  4044e6:	4542      	cmp	r2, r8
  4044e8:	d14b      	bne.n	404582 <dir_read+0xfe>
  4044ea:	4589      	cmp	r9, r1
  4044ec:	d011      	beq.n	404512 <dir_read+0x8e>
  4044ee:	f811 5b01 	ldrb.w	r5, [r1], #1
  4044f2:	1942      	adds	r2, r0, r5
  4044f4:	f892 b001 	ldrb.w	fp, [r2, #1]
  4044f8:	5d42      	ldrb	r2, [r0, r5]
  4044fa:	ea42 220b 	orr.w	r2, r2, fp, lsl #8
  4044fe:	f1bc 0f00 	cmp.w	ip, #0
  404502:	d0f0      	beq.n	4044e6 <dir_read+0x62>
  404504:	2efe      	cmp	r6, #254	; 0xfe
  404506:	d83c      	bhi.n	404582 <dir_read+0xfe>
  404508:	f82a 2016 	strh.w	r2, [sl, r6, lsl #1]
  40450c:	4694      	mov	ip, r2
  40450e:	3601      	adds	r6, #1
  404510:	e7eb      	b.n	4044ea <dir_read+0x66>
  404512:	7802      	ldrb	r2, [r0, #0]
  404514:	f012 0f40 	tst.w	r2, #64	; 0x40
  404518:	d004      	beq.n	404524 <dir_read+0xa0>
  40451a:	2efe      	cmp	r6, #254	; 0xfe
  40451c:	d831      	bhi.n	404582 <dir_read+0xfe>
  40451e:	2200      	movs	r2, #0
  404520:	f82a 2016 	strh.w	r2, [sl, r6, lsl #1]
  404524:	3b01      	subs	r3, #1
  404526:	b2de      	uxtb	r6, r3
  404528:	46f1      	mov	r9, lr
  40452a:	e00b      	b.n	404544 <dir_read+0xc0>
  40452c:	b91e      	cbnz	r6, 404536 <dir_read+0xb2>
  40452e:	4b1b      	ldr	r3, [pc, #108]	; (40459c <dir_read+0x118>)
  404530:	4798      	blx	r3
  404532:	4581      	cmp	r9, r0
  404534:	d02b      	beq.n	40458e <dir_read+0x10a>
  404536:	f64f 73ff 	movw	r3, #65535	; 0xffff
  40453a:	8423      	strh	r3, [r4, #32]
  40453c:	e027      	b.n	40458e <dir_read+0x10a>
  40453e:	26ff      	movs	r6, #255	; 0xff
  404540:	e000      	b.n	404544 <dir_read+0xc0>
  404542:	26ff      	movs	r6, #255	; 0xff
  404544:	2100      	movs	r1, #0
  404546:	4620      	mov	r0, r4
  404548:	4b15      	ldr	r3, [pc, #84]	; (4045a0 <dir_read+0x11c>)
  40454a:	4798      	blx	r3
  40454c:	4605      	mov	r5, r0
  40454e:	b9e0      	cbnz	r0, 40458a <dir_read+0x106>
  404550:	6921      	ldr	r1, [r4, #16]
  404552:	b1a1      	cbz	r1, 40457e <dir_read+0xfa>
  404554:	6820      	ldr	r0, [r4, #0]
  404556:	47b8      	blx	r7
  404558:	4605      	mov	r5, r0
  40455a:	b9b0      	cbnz	r0, 40458a <dir_read+0x106>
  40455c:	6960      	ldr	r0, [r4, #20]
  40455e:	7803      	ldrb	r3, [r0, #0]
  404560:	b193      	cbz	r3, 404588 <dir_read+0x104>
  404562:	2be5      	cmp	r3, #229	; 0xe5
  404564:	d0eb      	beq.n	40453e <dir_read+0xba>
  404566:	2b2e      	cmp	r3, #46	; 0x2e
  404568:	d0eb      	beq.n	404542 <dir_read+0xbe>
  40456a:	7ac2      	ldrb	r2, [r0, #11]
  40456c:	f002 013f 	and.w	r1, r2, #63	; 0x3f
  404570:	f012 0f08 	tst.w	r2, #8
  404574:	d091      	beq.n	40449a <dir_read+0x16>
  404576:	290f      	cmp	r1, #15
  404578:	d091      	beq.n	40449e <dir_read+0x1a>
  40457a:	26ff      	movs	r6, #255	; 0xff
  40457c:	e7e2      	b.n	404544 <dir_read+0xc0>
  40457e:	b135      	cbz	r5, 40458e <dir_read+0x10a>
  404580:	e003      	b.n	40458a <dir_read+0x106>
  404582:	46f1      	mov	r9, lr
  404584:	26ff      	movs	r6, #255	; 0xff
  404586:	e7dd      	b.n	404544 <dir_read+0xc0>
  404588:	2504      	movs	r5, #4
  40458a:	2300      	movs	r3, #0
  40458c:	6123      	str	r3, [r4, #16]
  40458e:	4628      	mov	r0, r5
  404590:	e8bd 8ff8 	ldmia.w	sp!, {r3, r4, r5, r6, r7, r8, r9, sl, fp, pc}
  404594:	00403a39 	.word	0x00403a39
  404598:	00409e84 	.word	0x00409e84
  40459c:	004034b1 	.word	0x004034b1
  4045a0:	00403ec5 	.word	0x00403ec5

004045a4 <sync>:
  4045a4:	b570      	push	{r4, r5, r6, lr}
  4045a6:	4604      	mov	r4, r0
  4045a8:	2100      	movs	r1, #0
  4045aa:	4b2d      	ldr	r3, [pc, #180]	; (404660 <sync+0xbc>)
  4045ac:	4798      	blx	r3
  4045ae:	4603      	mov	r3, r0
  4045b0:	b950      	cbnz	r0, 4045c8 <sync+0x24>
  4045b2:	7823      	ldrb	r3, [r4, #0]
  4045b4:	2b03      	cmp	r3, #3
  4045b6:	d009      	beq.n	4045cc <sync+0x28>
  4045b8:	2200      	movs	r2, #0
  4045ba:	4611      	mov	r1, r2
  4045bc:	7860      	ldrb	r0, [r4, #1]
  4045be:	4b29      	ldr	r3, [pc, #164]	; (404664 <sync+0xc0>)
  4045c0:	4798      	blx	r3
  4045c2:	1c03      	adds	r3, r0, #0
  4045c4:	bf18      	it	ne
  4045c6:	2301      	movne	r3, #1
  4045c8:	4618      	mov	r0, r3
  4045ca:	bd70      	pop	{r4, r5, r6, pc}
  4045cc:	7963      	ldrb	r3, [r4, #5]
  4045ce:	2b00      	cmp	r3, #0
  4045d0:	d0f2      	beq.n	4045b8 <sync+0x14>
  4045d2:	2600      	movs	r6, #0
  4045d4:	62e6      	str	r6, [r4, #44]	; 0x2c
  4045d6:	f104 0530 	add.w	r5, r4, #48	; 0x30
  4045da:	f44f 7200 	mov.w	r2, #512	; 0x200
  4045de:	4631      	mov	r1, r6
  4045e0:	4628      	mov	r0, r5
  4045e2:	4b21      	ldr	r3, [pc, #132]	; (404668 <sync+0xc4>)
  4045e4:	4798      	blx	r3
  4045e6:	2355      	movs	r3, #85	; 0x55
  4045e8:	f884 322e 	strb.w	r3, [r4, #558]	; 0x22e
  4045ec:	23aa      	movs	r3, #170	; 0xaa
  4045ee:	f884 322f 	strb.w	r3, [r4, #559]	; 0x22f
  4045f2:	2352      	movs	r3, #82	; 0x52
  4045f4:	f884 3030 	strb.w	r3, [r4, #48]	; 0x30
  4045f8:	f884 3031 	strb.w	r3, [r4, #49]	; 0x31
  4045fc:	2361      	movs	r3, #97	; 0x61
  4045fe:	f884 3032 	strb.w	r3, [r4, #50]	; 0x32
  404602:	2241      	movs	r2, #65	; 0x41
  404604:	f884 2033 	strb.w	r2, [r4, #51]	; 0x33
  404608:	2172      	movs	r1, #114	; 0x72
  40460a:	f884 1214 	strb.w	r1, [r4, #532]	; 0x214
  40460e:	f884 1215 	strb.w	r1, [r4, #533]	; 0x215
  404612:	f884 2216 	strb.w	r2, [r4, #534]	; 0x216
  404616:	f884 3217 	strb.w	r3, [r4, #535]	; 0x217
  40461a:	6923      	ldr	r3, [r4, #16]
  40461c:	f884 3218 	strb.w	r3, [r4, #536]	; 0x218
  404620:	f3c3 2207 	ubfx	r2, r3, #8, #8
  404624:	f884 2219 	strb.w	r2, [r4, #537]	; 0x219
  404628:	0c1a      	lsrs	r2, r3, #16
  40462a:	f884 221a 	strb.w	r2, [r4, #538]	; 0x21a
  40462e:	0e1b      	lsrs	r3, r3, #24
  404630:	f884 321b 	strb.w	r3, [r4, #539]	; 0x21b
  404634:	68e3      	ldr	r3, [r4, #12]
  404636:	f884 321c 	strb.w	r3, [r4, #540]	; 0x21c
  40463a:	f3c3 2207 	ubfx	r2, r3, #8, #8
  40463e:	f884 221d 	strb.w	r2, [r4, #541]	; 0x21d
  404642:	0c1a      	lsrs	r2, r3, #16
  404644:	f884 221e 	strb.w	r2, [r4, #542]	; 0x21e
  404648:	0e1b      	lsrs	r3, r3, #24
  40464a:	f884 321f 	strb.w	r3, [r4, #543]	; 0x21f
  40464e:	2301      	movs	r3, #1
  404650:	6962      	ldr	r2, [r4, #20]
  404652:	4629      	mov	r1, r5
  404654:	7860      	ldrb	r0, [r4, #1]
  404656:	4d05      	ldr	r5, [pc, #20]	; (40466c <sync+0xc8>)
  404658:	47a8      	blx	r5
  40465a:	7166      	strb	r6, [r4, #5]
  40465c:	e7ac      	b.n	4045b8 <sync+0x14>
  40465e:	bf00      	nop
  404660:	00403a39 	.word	0x00403a39
  404664:	004033b1 	.word	0x004033b1
  404668:	0040348d 	.word	0x0040348d
  40466c:	00403341 	.word	0x00403341

00404670 <follow_path>:
  404670:	e92d 4ff0 	stmdb	sp!, {r4, r5, r6, r7, r8, r9, sl, fp, lr}
  404674:	b083      	sub	sp, #12
  404676:	4682      	mov	sl, r0
  404678:	4688      	mov	r8, r1
  40467a:	780b      	ldrb	r3, [r1, #0]
  40467c:	2b2f      	cmp	r3, #47	; 0x2f
  40467e:	d00c      	beq.n	40469a <follow_path+0x2a>
  404680:	2b5c      	cmp	r3, #92	; 0x5c
  404682:	d00a      	beq.n	40469a <follow_path+0x2a>
  404684:	2300      	movs	r3, #0
  404686:	f8ca 3008 	str.w	r3, [sl, #8]
  40468a:	f898 3000 	ldrb.w	r3, [r8]
  40468e:	2b1f      	cmp	r3, #31
  404690:	d906      	bls.n	4046a0 <follow_path+0x30>
  404692:	f8df 92f4 	ldr.w	r9, [pc, #756]	; 404988 <follow_path+0x318>
  404696:	4644      	mov	r4, r8
  404698:	e00c      	b.n	4046b4 <follow_path+0x44>
  40469a:	f108 0801 	add.w	r8, r8, #1
  40469e:	e7f1      	b.n	404684 <follow_path+0x14>
  4046a0:	2100      	movs	r1, #0
  4046a2:	4650      	mov	r0, sl
  4046a4:	4bb2      	ldr	r3, [pc, #712]	; (404970 <follow_path+0x300>)
  4046a6:	4798      	blx	r3
  4046a8:	4603      	mov	r3, r0
  4046aa:	2200      	movs	r2, #0
  4046ac:	f8ca 2014 	str.w	r2, [sl, #20]
  4046b0:	e12e      	b.n	404910 <follow_path+0x2a0>
  4046b2:	461c      	mov	r4, r3
  4046b4:	4627      	mov	r7, r4
  4046b6:	4623      	mov	r3, r4
  4046b8:	f813 0b01 	ldrb.w	r0, [r3], #1
  4046bc:	282f      	cmp	r0, #47	; 0x2f
  4046be:	d0f8      	beq.n	4046b2 <follow_path+0x42>
  4046c0:	285c      	cmp	r0, #92	; 0x5c
  4046c2:	bf08      	it	eq
  4046c4:	461c      	moveq	r4, r3
  4046c6:	d0f5      	beq.n	4046b4 <follow_path+0x44>
  4046c8:	f8da b01c 	ldr.w	fp, [sl, #28]
  4046cc:	b280      	uxth	r0, r0
  4046ce:	281f      	cmp	r0, #31
  4046d0:	f240 812d 	bls.w	40492e <follow_path+0x2be>
  4046d4:	282f      	cmp	r0, #47	; 0x2f
  4046d6:	f000 812f 	beq.w	404938 <follow_path+0x2c8>
  4046da:	285c      	cmp	r0, #92	; 0x5c
  4046dc:	f000 8135 	beq.w	40494a <follow_path+0x2da>
  4046e0:	f1ab 0602 	sub.w	r6, fp, #2
  4046e4:	2501      	movs	r5, #1
  4046e6:	46a8      	mov	r8, r5
  4046e8:	e012      	b.n	404710 <follow_path+0xa0>
  4046ea:	bb73      	cbnz	r3, 40474a <follow_path+0xda>
  4046ec:	f826 2f02 	strh.w	r2, [r6, #2]!
  4046f0:	1c6b      	adds	r3, r5, #1
  4046f2:	f814 0f01 	ldrb.w	r0, [r4, #1]!
  4046f6:	281f      	cmp	r0, #31
  4046f8:	f240 811b 	bls.w	404932 <follow_path+0x2c2>
  4046fc:	282f      	cmp	r0, #47	; 0x2f
  4046fe:	f000 811d 	beq.w	40493c <follow_path+0x2cc>
  404702:	285c      	cmp	r0, #92	; 0x5c
  404704:	f000 811a 	beq.w	40493c <follow_path+0x2cc>
  404708:	f5b3 7f80 	cmp.w	r3, #256	; 0x100
  40470c:	d01d      	beq.n	40474a <follow_path+0xda>
  40470e:	461d      	mov	r5, r3
  404710:	4641      	mov	r1, r8
  404712:	47c8      	blx	r9
  404714:	4602      	mov	r2, r0
  404716:	b1c0      	cbz	r0, 40474a <follow_path+0xda>
  404718:	287f      	cmp	r0, #127	; 0x7f
  40471a:	d8e7      	bhi.n	4046ec <follow_path+0x7c>
  40471c:	2822      	cmp	r0, #34	; 0x22
  40471e:	f000 80f6 	beq.w	40490e <follow_path+0x29e>
  404722:	232a      	movs	r3, #42	; 0x2a
  404724:	4993      	ldr	r1, [pc, #588]	; (404974 <follow_path+0x304>)
  404726:	b298      	uxth	r0, r3
  404728:	4290      	cmp	r0, r2
  40472a:	d0de      	beq.n	4046ea <follow_path+0x7a>
  40472c:	f811 3f01 	ldrb.w	r3, [r1, #1]!
  404730:	2b00      	cmp	r3, #0
  404732:	d1f8      	bne.n	404726 <follow_path+0xb6>
  404734:	e7da      	b.n	4046ec <follow_path+0x7c>
  404736:	3d01      	subs	r5, #1
  404738:	f000 80e9 	beq.w	40490e <follow_path+0x29e>
  40473c:	f832 3d02 	ldrh.w	r3, [r2, #-2]!
  404740:	2b20      	cmp	r3, #32
  404742:	d0f8      	beq.n	404736 <follow_path+0xc6>
  404744:	2b2e      	cmp	r3, #46	; 0x2e
  404746:	d0f6      	beq.n	404736 <follow_path+0xc6>
  404748:	b90d      	cbnz	r5, 40474e <follow_path+0xde>
  40474a:	2306      	movs	r3, #6
  40474c:	e0e0      	b.n	404910 <follow_path+0x2a0>
  40474e:	006f      	lsls	r7, r5, #1
  404750:	f04f 0800 	mov.w	r8, #0
  404754:	f82b 8015 	strh.w	r8, [fp, r5, lsl #1]
  404758:	220b      	movs	r2, #11
  40475a:	2120      	movs	r1, #32
  40475c:	f8da 0018 	ldr.w	r0, [sl, #24]
  404760:	4b85      	ldr	r3, [pc, #532]	; (404978 <follow_path+0x308>)
  404762:	4798      	blx	r3
  404764:	f1ab 0102 	sub.w	r1, fp, #2
  404768:	4643      	mov	r3, r8
  40476a:	e000      	b.n	40476e <follow_path+0xfe>
  40476c:	3301      	adds	r3, #1
  40476e:	f831 2f02 	ldrh.w	r2, [r1, #2]!
  404772:	2a20      	cmp	r2, #32
  404774:	d0fa      	beq.n	40476c <follow_path+0xfc>
  404776:	2a2e      	cmp	r2, #46	; 0x2e
  404778:	d0f8      	beq.n	40476c <follow_path+0xfc>
  40477a:	b10b      	cbz	r3, 404780 <follow_path+0x110>
  40477c:	f046 0603 	orr.w	r6, r6, #3
  404780:	3f02      	subs	r7, #2
  404782:	eb0b 0207 	add.w	r2, fp, r7
  404786:	f83b 1007 	ldrh.w	r1, [fp, r7]
  40478a:	292e      	cmp	r1, #46	; 0x2e
  40478c:	d005      	beq.n	40479a <follow_path+0x12a>
  40478e:	3d01      	subs	r5, #1
  404790:	d003      	beq.n	40479a <follow_path+0x12a>
  404792:	f832 1d02 	ldrh.w	r1, [r2, #-2]!
  404796:	292e      	cmp	r1, #46	; 0x2e
  404798:	d1f9      	bne.n	40478e <follow_path+0x11e>
  40479a:	2208      	movs	r2, #8
  40479c:	9200      	str	r2, [sp, #0]
  40479e:	f04f 0800 	mov.w	r8, #0
  4047a2:	f8cd 8004 	str.w	r8, [sp, #4]
  4047a6:	e005      	b.n	4047b4 <follow_path+0x144>
  4047a8:	42af      	cmp	r7, r5
  4047aa:	f000 80d1 	beq.w	404950 <follow_path+0x2e0>
  4047ae:	f046 0603 	orr.w	r6, r6, #3
  4047b2:	463b      	mov	r3, r7
  4047b4:	1c5f      	adds	r7, r3, #1
  4047b6:	f83b 0013 	ldrh.w	r0, [fp, r3, lsl #1]
  4047ba:	b350      	cbz	r0, 404812 <follow_path+0x1a2>
  4047bc:	2820      	cmp	r0, #32
  4047be:	d0f6      	beq.n	4047ae <follow_path+0x13e>
  4047c0:	282e      	cmp	r0, #46	; 0x2e
  4047c2:	d0f1      	beq.n	4047a8 <follow_path+0x138>
  4047c4:	9b00      	ldr	r3, [sp, #0]
  4047c6:	4598      	cmp	r8, r3
  4047c8:	d219      	bcs.n	4047fe <follow_path+0x18e>
  4047ca:	42af      	cmp	r7, r5
  4047cc:	f000 80c0 	beq.w	404950 <follow_path+0x2e0>
  4047d0:	287f      	cmp	r0, #127	; 0x7f
  4047d2:	d86c      	bhi.n	4048ae <follow_path+0x23e>
  4047d4:	282b      	cmp	r0, #43	; 0x2b
  4047d6:	d079      	beq.n	4048cc <follow_path+0x25c>
  4047d8:	232c      	movs	r3, #44	; 0x2c
  4047da:	4a68      	ldr	r2, [pc, #416]	; (40497c <follow_path+0x30c>)
  4047dc:	b299      	uxth	r1, r3
  4047de:	4281      	cmp	r1, r0
  4047e0:	d072      	beq.n	4048c8 <follow_path+0x258>
  4047e2:	f812 3f01 	ldrb.w	r3, [r2, #1]!
  4047e6:	2b00      	cmp	r3, #0
  4047e8:	d1f8      	bne.n	4047dc <follow_path+0x16c>
  4047ea:	f1a0 0341 	sub.w	r3, r0, #65	; 0x41
  4047ee:	b29b      	uxth	r3, r3
  4047f0:	2b19      	cmp	r3, #25
  4047f2:	d876      	bhi.n	4048e2 <follow_path+0x272>
  4047f4:	9b01      	ldr	r3, [sp, #4]
  4047f6:	f043 0302 	orr.w	r3, r3, #2
  4047fa:	9301      	str	r3, [sp, #4]
  4047fc:	e069      	b.n	4048d2 <follow_path+0x262>
  4047fe:	9b00      	ldr	r3, [sp, #0]
  404800:	2b0b      	cmp	r3, #11
  404802:	d048      	beq.n	404896 <follow_path+0x226>
  404804:	42af      	cmp	r7, r5
  404806:	f000 80a6 	beq.w	404956 <follow_path+0x2e6>
  40480a:	f046 0603 	orr.w	r6, r6, #3
  40480e:	f240 80a2 	bls.w	404956 <follow_path+0x2e6>
  404812:	f8da 3018 	ldr.w	r3, [sl, #24]
  404816:	781a      	ldrb	r2, [r3, #0]
  404818:	2ae5      	cmp	r2, #229	; 0xe5
  40481a:	d045      	beq.n	4048a8 <follow_path+0x238>
  40481c:	9b00      	ldr	r3, [sp, #0]
  40481e:	2b08      	cmp	r3, #8
  404820:	d06b      	beq.n	4048fa <follow_path+0x28a>
  404822:	9a01      	ldr	r2, [sp, #4]
  404824:	f002 030c 	and.w	r3, r2, #12
  404828:	2b0c      	cmp	r3, #12
  40482a:	d06d      	beq.n	404908 <follow_path+0x298>
  40482c:	f002 0203 	and.w	r2, r2, #3
  404830:	2a03      	cmp	r2, #3
  404832:	d069      	beq.n	404908 <follow_path+0x298>
  404834:	f016 0f02 	tst.w	r6, #2
  404838:	d10b      	bne.n	404852 <follow_path+0x1e2>
  40483a:	9a01      	ldr	r2, [sp, #4]
  40483c:	f002 0b03 	and.w	fp, r2, #3
  404840:	f1bb 0f01 	cmp.w	fp, #1
  404844:	bf08      	it	eq
  404846:	f046 0610 	orreq.w	r6, r6, #16
  40484a:	2b04      	cmp	r3, #4
  40484c:	bf08      	it	eq
  40484e:	f046 0608 	orreq.w	r6, r6, #8
  404852:	f8da 3018 	ldr.w	r3, [sl, #24]
  404856:	72de      	strb	r6, [r3, #11]
  404858:	4650      	mov	r0, sl
  40485a:	4b49      	ldr	r3, [pc, #292]	; (404980 <follow_path+0x310>)
  40485c:	4798      	blx	r3
  40485e:	f8da 3018 	ldr.w	r3, [sl, #24]
  404862:	7ada      	ldrb	r2, [r3, #11]
  404864:	4603      	mov	r3, r0
  404866:	2800      	cmp	r0, #0
  404868:	d156      	bne.n	404918 <follow_path+0x2a8>
  40486a:	f012 0f04 	tst.w	r2, #4
  40486e:	d14f      	bne.n	404910 <follow_path+0x2a0>
  404870:	f8da 2014 	ldr.w	r2, [sl, #20]
  404874:	7ad3      	ldrb	r3, [r2, #11]
  404876:	f013 0f10 	tst.w	r3, #16
  40487a:	d056      	beq.n	40492a <follow_path+0x2ba>
  40487c:	7d51      	ldrb	r1, [r2, #21]
  40487e:	7d13      	ldrb	r3, [r2, #20]
  404880:	ea43 2101 	orr.w	r1, r3, r1, lsl #8
  404884:	7ed0      	ldrb	r0, [r2, #27]
  404886:	7e93      	ldrb	r3, [r2, #26]
  404888:	ea43 2300 	orr.w	r3, r3, r0, lsl #8
  40488c:	ea43 4301 	orr.w	r3, r3, r1, lsl #16
  404890:	f8ca 3008 	str.w	r3, [sl, #8]
  404894:	e70e      	b.n	4046b4 <follow_path+0x44>
  404896:	f046 0603 	orr.w	r6, r6, #3
  40489a:	f8da 3018 	ldr.w	r3, [sl, #24]
  40489e:	781a      	ldrb	r2, [r3, #0]
  4048a0:	2ae5      	cmp	r2, #229	; 0xe5
  4048a2:	d1be      	bne.n	404822 <follow_path+0x1b2>
  4048a4:	220b      	movs	r2, #11
  4048a6:	9200      	str	r2, [sp, #0]
  4048a8:	2205      	movs	r2, #5
  4048aa:	701a      	strb	r2, [r3, #0]
  4048ac:	e7b6      	b.n	40481c <follow_path+0x1ac>
  4048ae:	2100      	movs	r1, #0
  4048b0:	47c8      	blx	r9
  4048b2:	4603      	mov	r3, r0
  4048b4:	2800      	cmp	r0, #0
  4048b6:	d058      	beq.n	40496a <follow_path+0x2fa>
  4048b8:	4a32      	ldr	r2, [pc, #200]	; (404984 <follow_path+0x314>)
  4048ba:	4413      	add	r3, r2
  4048bc:	f813 0c80 	ldrb.w	r0, [r3, #-128]
  4048c0:	f046 0602 	orr.w	r6, r6, #2
  4048c4:	b110      	cbz	r0, 4048cc <follow_path+0x25c>
  4048c6:	e785      	b.n	4047d4 <follow_path+0x164>
  4048c8:	2b00      	cmp	r3, #0
  4048ca:	d08e      	beq.n	4047ea <follow_path+0x17a>
  4048cc:	f046 0603 	orr.w	r6, r6, #3
  4048d0:	205f      	movs	r0, #95	; 0x5f
  4048d2:	f8da 3018 	ldr.w	r3, [sl, #24]
  4048d6:	f803 0008 	strb.w	r0, [r3, r8]
  4048da:	463b      	mov	r3, r7
  4048dc:	f108 0801 	add.w	r8, r8, #1
  4048e0:	e768      	b.n	4047b4 <follow_path+0x144>
  4048e2:	f1a0 0361 	sub.w	r3, r0, #97	; 0x61
  4048e6:	b29b      	uxth	r3, r3
  4048e8:	2b19      	cmp	r3, #25
  4048ea:	d8f2      	bhi.n	4048d2 <follow_path+0x262>
  4048ec:	9b01      	ldr	r3, [sp, #4]
  4048ee:	f043 0301 	orr.w	r3, r3, #1
  4048f2:	9301      	str	r3, [sp, #4]
  4048f4:	3820      	subs	r0, #32
  4048f6:	b280      	uxth	r0, r0
  4048f8:	e7eb      	b.n	4048d2 <follow_path+0x262>
  4048fa:	9b01      	ldr	r3, [sp, #4]
  4048fc:	ea4f 0b83 	mov.w	fp, r3, lsl #2
  404900:	fa5f f38b 	uxtb.w	r3, fp
  404904:	9301      	str	r3, [sp, #4]
  404906:	e78c      	b.n	404822 <follow_path+0x1b2>
  404908:	f046 0602 	orr.w	r6, r6, #2
  40490c:	e792      	b.n	404834 <follow_path+0x1c4>
  40490e:	2306      	movs	r3, #6
  404910:	4618      	mov	r0, r3
  404912:	b003      	add	sp, #12
  404914:	e8bd 8ff0 	ldmia.w	sp!, {r4, r5, r6, r7, r8, r9, sl, fp, pc}
  404918:	2804      	cmp	r0, #4
  40491a:	d1f9      	bne.n	404910 <follow_path+0x2a0>
  40491c:	f002 0204 	and.w	r2, r2, #4
  404920:	2a00      	cmp	r2, #0
  404922:	bf14      	ite	ne
  404924:	4603      	movne	r3, r0
  404926:	2305      	moveq	r3, #5
  404928:	e7f2      	b.n	404910 <follow_path+0x2a0>
  40492a:	2305      	movs	r3, #5
  40492c:	e7f0      	b.n	404910 <follow_path+0x2a0>
  40492e:	2301      	movs	r3, #1
  404930:	2500      	movs	r5, #0
  404932:	18fc      	adds	r4, r7, r3
  404934:	2604      	movs	r6, #4
  404936:	e003      	b.n	404940 <follow_path+0x2d0>
  404938:	2301      	movs	r3, #1
  40493a:	2500      	movs	r5, #0
  40493c:	18fc      	adds	r4, r7, r3
  40493e:	2600      	movs	r6, #0
  404940:	2d00      	cmp	r5, #0
  404942:	d0e4      	beq.n	40490e <follow_path+0x29e>
  404944:	eb0b 0245 	add.w	r2, fp, r5, lsl #1
  404948:	e6f8      	b.n	40473c <follow_path+0xcc>
  40494a:	2301      	movs	r3, #1
  40494c:	2500      	movs	r5, #0
  40494e:	e7f5      	b.n	40493c <follow_path+0x2cc>
  404950:	9b00      	ldr	r3, [sp, #0]
  404952:	2b0b      	cmp	r3, #11
  404954:	d09f      	beq.n	404896 <follow_path+0x226>
  404956:	9b01      	ldr	r3, [sp, #4]
  404958:	009b      	lsls	r3, r3, #2
  40495a:	b2db      	uxtb	r3, r3
  40495c:	9301      	str	r3, [sp, #4]
  40495e:	462b      	mov	r3, r5
  404960:	220b      	movs	r2, #11
  404962:	9200      	str	r2, [sp, #0]
  404964:	f04f 0808 	mov.w	r8, #8
  404968:	e724      	b.n	4047b4 <follow_path+0x144>
  40496a:	f046 0602 	orr.w	r6, r6, #2
  40496e:	e7ad      	b.n	4048cc <follow_path+0x25c>
  404970:	00403bb1 	.word	0x00403bb1
  404974:	00409f15 	.word	0x00409f15
  404978:	0040348d 	.word	0x0040348d
  40497c:	00409f21 	.word	0x00409f21
  404980:	00403ffd 	.word	0x00403ffd
  404984:	00409e94 	.word	0x00409e94
  404988:	00404edd 	.word	0x00404edd

0040498c <f_mount>:
  40498c:	2807      	cmp	r0, #7
  40498e:	d901      	bls.n	404994 <f_mount+0x8>
  404990:	200b      	movs	r0, #11
  404992:	4770      	bx	lr
  404994:	4b06      	ldr	r3, [pc, #24]	; (4049b0 <f_mount+0x24>)
  404996:	f853 3020 	ldr.w	r3, [r3, r0, lsl #2]
  40499a:	b10b      	cbz	r3, 4049a0 <f_mount+0x14>
  40499c:	2200      	movs	r2, #0
  40499e:	701a      	strb	r2, [r3, #0]
  4049a0:	b109      	cbz	r1, 4049a6 <f_mount+0x1a>
  4049a2:	2300      	movs	r3, #0
  4049a4:	700b      	strb	r3, [r1, #0]
  4049a6:	4b02      	ldr	r3, [pc, #8]	; (4049b0 <f_mount+0x24>)
  4049a8:	f843 1020 	str.w	r1, [r3, r0, lsl #2]
  4049ac:	2000      	movs	r0, #0
  4049ae:	4770      	bx	lr
  4049b0:	200010f0 	.word	0x200010f0

004049b4 <f_open>:
  4049b4:	e92d 41f0 	stmdb	sp!, {r4, r5, r6, r7, r8, lr}
  4049b8:	f5ad 7d0e 	sub.w	sp, sp, #568	; 0x238
  4049bc:	4605      	mov	r5, r0
  4049be:	9101      	str	r1, [sp, #4]
  4049c0:	4616      	mov	r6, r2
  4049c2:	2300      	movs	r3, #0
  4049c4:	6003      	str	r3, [r0, #0]
  4049c6:	f002 071f 	and.w	r7, r2, #31
  4049ca:	f002 021e 	and.w	r2, r2, #30
  4049ce:	a985      	add	r1, sp, #532	; 0x214
  4049d0:	a801      	add	r0, sp, #4
  4049d2:	4b58      	ldr	r3, [pc, #352]	; (404b34 <f_open+0x180>)
  4049d4:	4798      	blx	r3
  4049d6:	ab82      	add	r3, sp, #520	; 0x208
  4049d8:	938b      	str	r3, [sp, #556]	; 0x22c
  4049da:	ab02      	add	r3, sp, #8
  4049dc:	938c      	str	r3, [sp, #560]	; 0x230
  4049de:	b140      	cbz	r0, 4049f2 <f_open+0x3e>
  4049e0:	4603      	mov	r3, r0
  4049e2:	9c8a      	ldr	r4, [sp, #552]	; 0x228
  4049e4:	f016 0f1c 	tst.w	r6, #28
  4049e8:	d117      	bne.n	404a1a <f_open+0x66>
  4049ea:	2b00      	cmp	r3, #0
  4049ec:	f040 8092 	bne.w	404b14 <f_open+0x160>
  4049f0:	e00d      	b.n	404a0e <f_open+0x5a>
  4049f2:	9901      	ldr	r1, [sp, #4]
  4049f4:	a885      	add	r0, sp, #532	; 0x214
  4049f6:	4b50      	ldr	r3, [pc, #320]	; (404b38 <f_open+0x184>)
  4049f8:	4798      	blx	r3
  4049fa:	9c8a      	ldr	r4, [sp, #552]	; 0x228
  4049fc:	4603      	mov	r3, r0
  4049fe:	2800      	cmp	r0, #0
  404a00:	d1f0      	bne.n	4049e4 <f_open+0x30>
  404a02:	2c00      	cmp	r4, #0
  404a04:	f000 808b 	beq.w	404b1e <f_open+0x16a>
  404a08:	f016 0f1c 	tst.w	r6, #28
  404a0c:	d116      	bne.n	404a3c <f_open+0x88>
  404a0e:	7ae3      	ldrb	r3, [r4, #11]
  404a10:	f013 0f10 	tst.w	r3, #16
  404a14:	d04f      	beq.n	404ab6 <f_open+0x102>
  404a16:	2304      	movs	r3, #4
  404a18:	e07c      	b.n	404b14 <f_open+0x160>
  404a1a:	2b04      	cmp	r3, #4
  404a1c:	d005      	beq.n	404a2a <f_open+0x76>
  404a1e:	f047 0708 	orr.w	r7, r7, #8
  404a22:	9c8a      	ldr	r4, [sp, #552]	; 0x228
  404a24:	2b00      	cmp	r3, #0
  404a26:	d057      	beq.n	404ad8 <f_open+0x124>
  404a28:	e074      	b.n	404b14 <f_open+0x160>
  404a2a:	a885      	add	r0, sp, #532	; 0x214
  404a2c:	4b43      	ldr	r3, [pc, #268]	; (404b3c <f_open+0x188>)
  404a2e:	4798      	blx	r3
  404a30:	f047 0708 	orr.w	r7, r7, #8
  404a34:	9c8a      	ldr	r4, [sp, #552]	; 0x228
  404a36:	4603      	mov	r3, r0
  404a38:	b138      	cbz	r0, 404a4a <f_open+0x96>
  404a3a:	e06b      	b.n	404b14 <f_open+0x160>
  404a3c:	7ae3      	ldrb	r3, [r4, #11]
  404a3e:	f013 0f11 	tst.w	r3, #17
  404a42:	d173      	bne.n	404b2c <f_open+0x178>
  404a44:	f016 0f04 	tst.w	r6, #4
  404a48:	d172      	bne.n	404b30 <f_open+0x17c>
  404a4a:	f017 0f08 	tst.w	r7, #8
  404a4e:	d03f      	beq.n	404ad0 <f_open+0x11c>
  404a50:	4b3b      	ldr	r3, [pc, #236]	; (404b40 <f_open+0x18c>)
  404a52:	4798      	blx	r3
  404a54:	73a0      	strb	r0, [r4, #14]
  404a56:	f3c0 2307 	ubfx	r3, r0, #8, #8
  404a5a:	73e3      	strb	r3, [r4, #15]
  404a5c:	0c03      	lsrs	r3, r0, #16
  404a5e:	7423      	strb	r3, [r4, #16]
  404a60:	0e00      	lsrs	r0, r0, #24
  404a62:	7460      	strb	r0, [r4, #17]
  404a64:	2300      	movs	r3, #0
  404a66:	72e3      	strb	r3, [r4, #11]
  404a68:	7723      	strb	r3, [r4, #28]
  404a6a:	7763      	strb	r3, [r4, #29]
  404a6c:	77a3      	strb	r3, [r4, #30]
  404a6e:	77e3      	strb	r3, [r4, #31]
  404a70:	7d62      	ldrb	r2, [r4, #21]
  404a72:	7d26      	ldrb	r6, [r4, #20]
  404a74:	ea46 2602 	orr.w	r6, r6, r2, lsl #8
  404a78:	7ee1      	ldrb	r1, [r4, #27]
  404a7a:	7ea2      	ldrb	r2, [r4, #26]
  404a7c:	ea42 2201 	orr.w	r2, r2, r1, lsl #8
  404a80:	76a3      	strb	r3, [r4, #26]
  404a82:	76e3      	strb	r3, [r4, #27]
  404a84:	7523      	strb	r3, [r4, #20]
  404a86:	7563      	strb	r3, [r4, #21]
  404a88:	9885      	ldr	r0, [sp, #532]	; 0x214
  404a8a:	2301      	movs	r3, #1
  404a8c:	7103      	strb	r3, [r0, #4]
  404a8e:	ea52 4606 	orrs.w	r6, r2, r6, lsl #16
  404a92:	d01b      	beq.n	404acc <f_open+0x118>
  404a94:	f8d0 802c 	ldr.w	r8, [r0, #44]	; 0x2c
  404a98:	4631      	mov	r1, r6
  404a9a:	4b2a      	ldr	r3, [pc, #168]	; (404b44 <f_open+0x190>)
  404a9c:	4798      	blx	r3
  404a9e:	4603      	mov	r3, r0
  404aa0:	2800      	cmp	r0, #0
  404aa2:	d137      	bne.n	404b14 <f_open+0x160>
  404aa4:	9885      	ldr	r0, [sp, #532]	; 0x214
  404aa6:	3e01      	subs	r6, #1
  404aa8:	60c6      	str	r6, [r0, #12]
  404aaa:	4641      	mov	r1, r8
  404aac:	4b26      	ldr	r3, [pc, #152]	; (404b48 <f_open+0x194>)
  404aae:	4798      	blx	r3
  404ab0:	4603      	mov	r3, r0
  404ab2:	b158      	cbz	r0, 404acc <f_open+0x118>
  404ab4:	e02e      	b.n	404b14 <f_open+0x160>
  404ab6:	f016 0f02 	tst.w	r6, #2
  404aba:	d004      	beq.n	404ac6 <f_open+0x112>
  404abc:	f013 0f01 	tst.w	r3, #1
  404ac0:	d001      	beq.n	404ac6 <f_open+0x112>
  404ac2:	2307      	movs	r3, #7
  404ac4:	e026      	b.n	404b14 <f_open+0x160>
  404ac6:	f016 0f08 	tst.w	r6, #8
  404aca:	d001      	beq.n	404ad0 <f_open+0x11c>
  404acc:	f047 0720 	orr.w	r7, r7, #32
  404ad0:	9b85      	ldr	r3, [sp, #532]	; 0x214
  404ad2:	6adb      	ldr	r3, [r3, #44]	; 0x2c
  404ad4:	61eb      	str	r3, [r5, #28]
  404ad6:	622c      	str	r4, [r5, #32]
  404ad8:	71af      	strb	r7, [r5, #6]
  404ada:	7d62      	ldrb	r2, [r4, #21]
  404adc:	7d23      	ldrb	r3, [r4, #20]
  404ade:	ea43 2202 	orr.w	r2, r3, r2, lsl #8
  404ae2:	7ee1      	ldrb	r1, [r4, #27]
  404ae4:	7ea3      	ldrb	r3, [r4, #26]
  404ae6:	ea43 2301 	orr.w	r3, r3, r1, lsl #8
  404aea:	ea43 4302 	orr.w	r3, r3, r2, lsl #16
  404aee:	612b      	str	r3, [r5, #16]
  404af0:	7fe2      	ldrb	r2, [r4, #31]
  404af2:	7fa3      	ldrb	r3, [r4, #30]
  404af4:	041b      	lsls	r3, r3, #16
  404af6:	ea43 6302 	orr.w	r3, r3, r2, lsl #24
  404afa:	7f22      	ldrb	r2, [r4, #28]
  404afc:	4313      	orrs	r3, r2
  404afe:	7f62      	ldrb	r2, [r4, #29]
  404b00:	ea43 2302 	orr.w	r3, r3, r2, lsl #8
  404b04:	60eb      	str	r3, [r5, #12]
  404b06:	2300      	movs	r3, #0
  404b08:	60ab      	str	r3, [r5, #8]
  404b0a:	61ab      	str	r3, [r5, #24]
  404b0c:	9a85      	ldr	r2, [sp, #532]	; 0x214
  404b0e:	602a      	str	r2, [r5, #0]
  404b10:	88d2      	ldrh	r2, [r2, #6]
  404b12:	80aa      	strh	r2, [r5, #4]
  404b14:	4618      	mov	r0, r3
  404b16:	f50d 7d0e 	add.w	sp, sp, #568	; 0x238
  404b1a:	e8bd 81f0 	ldmia.w	sp!, {r4, r5, r6, r7, r8, pc}
  404b1e:	f016 0f1c 	tst.w	r6, #28
  404b22:	d101      	bne.n	404b28 <f_open+0x174>
  404b24:	2306      	movs	r3, #6
  404b26:	e77d      	b.n	404a24 <f_open+0x70>
  404b28:	2306      	movs	r3, #6
  404b2a:	e778      	b.n	404a1e <f_open+0x6a>
  404b2c:	2307      	movs	r3, #7
  404b2e:	e7f1      	b.n	404b14 <f_open+0x160>
  404b30:	2308      	movs	r3, #8
  404b32:	e7ef      	b.n	404b14 <f_open+0x160>
  404b34:	00403595 	.word	0x00403595
  404b38:	00404671 	.word	0x00404671
  404b3c:	004041a9 	.word	0x004041a9
  404b40:	00403421 	.word	0x00403421
  404b44:	00403e49 	.word	0x00403e49
  404b48:	00403a39 	.word	0x00403a39

00404b4c <f_read>:
  404b4c:	e92d 4ff0 	stmdb	sp!, {r4, r5, r6, r7, r8, r9, sl, fp, lr}
  404b50:	b083      	sub	sp, #12
  404b52:	4604      	mov	r4, r0
  404b54:	4689      	mov	r9, r1
  404b56:	4615      	mov	r5, r2
  404b58:	4698      	mov	r8, r3
  404b5a:	2300      	movs	r3, #0
  404b5c:	f8c8 3000 	str.w	r3, [r8]
  404b60:	8881      	ldrh	r1, [r0, #4]
  404b62:	6800      	ldr	r0, [r0, #0]
  404b64:	4b58      	ldr	r3, [pc, #352]	; (404cc8 <f_read+0x17c>)
  404b66:	4798      	blx	r3
  404b68:	9001      	str	r0, [sp, #4]
  404b6a:	2800      	cmp	r0, #0
  404b6c:	f040 80a8 	bne.w	404cc0 <f_read+0x174>
  404b70:	79a3      	ldrb	r3, [r4, #6]
  404b72:	f013 0f80 	tst.w	r3, #128	; 0x80
  404b76:	f040 80a1 	bne.w	404cbc <f_read+0x170>
  404b7a:	f013 0f01 	tst.w	r3, #1
  404b7e:	d102      	bne.n	404b86 <f_read+0x3a>
  404b80:	2307      	movs	r3, #7
  404b82:	9301      	str	r3, [sp, #4]
  404b84:	e09c      	b.n	404cc0 <f_read+0x174>
  404b86:	68e6      	ldr	r6, [r4, #12]
  404b88:	68a3      	ldr	r3, [r4, #8]
  404b8a:	1af6      	subs	r6, r6, r3
  404b8c:	42ae      	cmp	r6, r5
  404b8e:	bf28      	it	cs
  404b90:	462e      	movcs	r6, r5
  404b92:	2e00      	cmp	r6, #0
  404b94:	d14c      	bne.n	404c30 <f_read+0xe4>
  404b96:	e093      	b.n	404cc0 <f_read+0x174>
  404b98:	6961      	ldr	r1, [r4, #20]
  404b9a:	4b4c      	ldr	r3, [pc, #304]	; (404ccc <f_read+0x180>)
  404b9c:	4798      	blx	r3
  404b9e:	e057      	b.n	404c50 <f_read+0x104>
  404ba0:	79a3      	ldrb	r3, [r4, #6]
  404ba2:	f063 037f 	orn	r3, r3, #127	; 0x7f
  404ba6:	71a3      	strb	r3, [r4, #6]
  404ba8:	2302      	movs	r3, #2
  404baa:	9301      	str	r3, [sp, #4]
  404bac:	e088      	b.n	404cc0 <f_read+0x174>
  404bae:	79a3      	ldrb	r3, [r4, #6]
  404bb0:	f063 037f 	orn	r3, r3, #127	; 0x7f
  404bb4:	71a3      	strb	r3, [r4, #6]
  404bb6:	2301      	movs	r3, #1
  404bb8:	9301      	str	r3, [sp, #4]
  404bba:	e081      	b.n	404cc0 <f_read+0x174>
  404bbc:	79a3      	ldrb	r3, [r4, #6]
  404bbe:	f063 037f 	orn	r3, r3, #127	; 0x7f
  404bc2:	71a3      	strb	r3, [r4, #6]
  404bc4:	2302      	movs	r3, #2
  404bc6:	9301      	str	r3, [sp, #4]
  404bc8:	e07a      	b.n	404cc0 <f_read+0x174>
  404bca:	79a3      	ldrb	r3, [r4, #6]
  404bcc:	f063 037f 	orn	r3, r3, #127	; 0x7f
  404bd0:	71a3      	strb	r3, [r4, #6]
  404bd2:	2301      	movs	r3, #1
  404bd4:	9301      	str	r3, [sp, #4]
  404bd6:	e073      	b.n	404cc0 <f_read+0x174>
  404bd8:	f44f 7200 	mov.w	r2, #512	; 0x200
  404bdc:	3130      	adds	r1, #48	; 0x30
  404bde:	eb09 2040 	add.w	r0, r9, r0, lsl #9
  404be2:	4b3b      	ldr	r3, [pc, #236]	; (404cd0 <f_read+0x184>)
  404be4:	4798      	blx	r3
  404be6:	e05f      	b.n	404ca8 <f_read+0x15c>
  404be8:	61a5      	str	r5, [r4, #24]
  404bea:	68a5      	ldr	r5, [r4, #8]
  404bec:	f3c5 0508 	ubfx	r5, r5, #0, #9
  404bf0:	f5c5 7500 	rsb	r5, r5, #512	; 0x200
  404bf4:	42b5      	cmp	r5, r6
  404bf6:	bf28      	it	cs
  404bf8:	4635      	movcs	r5, r6
  404bfa:	69a1      	ldr	r1, [r4, #24]
  404bfc:	6820      	ldr	r0, [r4, #0]
  404bfe:	4b35      	ldr	r3, [pc, #212]	; (404cd4 <f_read+0x188>)
  404c00:	4798      	blx	r3
  404c02:	2800      	cmp	r0, #0
  404c04:	d153      	bne.n	404cae <f_read+0x162>
  404c06:	68a1      	ldr	r1, [r4, #8]
  404c08:	f3c1 0108 	ubfx	r1, r1, #0, #9
  404c0c:	3130      	adds	r1, #48	; 0x30
  404c0e:	6823      	ldr	r3, [r4, #0]
  404c10:	462a      	mov	r2, r5
  404c12:	4419      	add	r1, r3
  404c14:	4648      	mov	r0, r9
  404c16:	4b2e      	ldr	r3, [pc, #184]	; (404cd0 <f_read+0x184>)
  404c18:	4798      	blx	r3
  404c1a:	44a9      	add	r9, r5
  404c1c:	68a3      	ldr	r3, [r4, #8]
  404c1e:	442b      	add	r3, r5
  404c20:	60a3      	str	r3, [r4, #8]
  404c22:	f8d8 3000 	ldr.w	r3, [r8]
  404c26:	442b      	add	r3, r5
  404c28:	f8c8 3000 	str.w	r3, [r8]
  404c2c:	1b76      	subs	r6, r6, r5
  404c2e:	d047      	beq.n	404cc0 <f_read+0x174>
  404c30:	68a2      	ldr	r2, [r4, #8]
  404c32:	f3c2 0308 	ubfx	r3, r2, #0, #9
  404c36:	2b00      	cmp	r3, #0
  404c38:	d1d7      	bne.n	404bea <f_read+0x9e>
  404c3a:	6820      	ldr	r0, [r4, #0]
  404c3c:	7883      	ldrb	r3, [r0, #2]
  404c3e:	3b01      	subs	r3, #1
  404c40:	ea03 2352 	and.w	r3, r3, r2, lsr #9
  404c44:	f013 07ff 	ands.w	r7, r3, #255	; 0xff
  404c48:	d108      	bne.n	404c5c <f_read+0x110>
  404c4a:	2a00      	cmp	r2, #0
  404c4c:	d1a4      	bne.n	404b98 <f_read+0x4c>
  404c4e:	6920      	ldr	r0, [r4, #16]
  404c50:	2801      	cmp	r0, #1
  404c52:	d9a5      	bls.n	404ba0 <f_read+0x54>
  404c54:	f1b0 3fff 	cmp.w	r0, #4294967295
  404c58:	d0a9      	beq.n	404bae <f_read+0x62>
  404c5a:	6160      	str	r0, [r4, #20]
  404c5c:	f8d4 a000 	ldr.w	sl, [r4]
  404c60:	6961      	ldr	r1, [r4, #20]
  404c62:	4650      	mov	r0, sl
  404c64:	4b1c      	ldr	r3, [pc, #112]	; (404cd8 <f_read+0x18c>)
  404c66:	4798      	blx	r3
  404c68:	4605      	mov	r5, r0
  404c6a:	2800      	cmp	r0, #0
  404c6c:	d0a6      	beq.n	404bbc <f_read+0x70>
  404c6e:	443d      	add	r5, r7
  404c70:	ea5f 2b56 	movs.w	fp, r6, lsr #9
  404c74:	d0b8      	beq.n	404be8 <f_read+0x9c>
  404c76:	f89a 3002 	ldrb.w	r3, [sl, #2]
  404c7a:	eb07 020b 	add.w	r2, r7, fp
  404c7e:	429a      	cmp	r2, r3
  404c80:	bf88      	it	hi
  404c82:	eba3 0b07 	subhi.w	fp, r3, r7
  404c86:	fa5f f38b 	uxtb.w	r3, fp
  404c8a:	462a      	mov	r2, r5
  404c8c:	4649      	mov	r1, r9
  404c8e:	f89a 0001 	ldrb.w	r0, [sl, #1]
  404c92:	4f12      	ldr	r7, [pc, #72]	; (404cdc <f_read+0x190>)
  404c94:	47b8      	blx	r7
  404c96:	2800      	cmp	r0, #0
  404c98:	d197      	bne.n	404bca <f_read+0x7e>
  404c9a:	6821      	ldr	r1, [r4, #0]
  404c9c:	790b      	ldrb	r3, [r1, #4]
  404c9e:	b11b      	cbz	r3, 404ca8 <f_read+0x15c>
  404ca0:	6ac8      	ldr	r0, [r1, #44]	; 0x2c
  404ca2:	1b40      	subs	r0, r0, r5
  404ca4:	4583      	cmp	fp, r0
  404ca6:	d897      	bhi.n	404bd8 <f_read+0x8c>
  404ca8:	ea4f 254b 	mov.w	r5, fp, lsl #9
  404cac:	e7b5      	b.n	404c1a <f_read+0xce>
  404cae:	79a3      	ldrb	r3, [r4, #6]
  404cb0:	f063 037f 	orn	r3, r3, #127	; 0x7f
  404cb4:	71a3      	strb	r3, [r4, #6]
  404cb6:	2301      	movs	r3, #1
  404cb8:	9301      	str	r3, [sp, #4]
  404cba:	e001      	b.n	404cc0 <f_read+0x174>
  404cbc:	2302      	movs	r3, #2
  404cbe:	9301      	str	r3, [sp, #4]
  404cc0:	9801      	ldr	r0, [sp, #4]
  404cc2:	b003      	add	sp, #12
  404cc4:	e8bd 8ff0 	ldmia.w	sp!, {r4, r5, r6, r7, r8, r9, sl, fp, pc}
  404cc8:	004034d1 	.word	0x004034d1
  404ccc:	00403ac9 	.word	0x00403ac9
  404cd0:	00403479 	.word	0x00403479
  404cd4:	00403a39 	.word	0x00403a39
  404cd8:	0040349b 	.word	0x0040349b
  404cdc:	004032d1 	.word	0x004032d1

00404ce0 <f_sync>:
  404ce0:	b538      	push	{r3, r4, r5, lr}
  404ce2:	4604      	mov	r4, r0
  404ce4:	8881      	ldrh	r1, [r0, #4]
  404ce6:	6800      	ldr	r0, [r0, #0]
  404ce8:	4b1f      	ldr	r3, [pc, #124]	; (404d68 <f_sync+0x88>)
  404cea:	4798      	blx	r3
  404cec:	4603      	mov	r3, r0
  404cee:	b918      	cbnz	r0, 404cf8 <f_sync+0x18>
  404cf0:	79a2      	ldrb	r2, [r4, #6]
  404cf2:	f012 0f20 	tst.w	r2, #32
  404cf6:	d101      	bne.n	404cfc <f_sync+0x1c>
  404cf8:	4618      	mov	r0, r3
  404cfa:	bd38      	pop	{r3, r4, r5, pc}
  404cfc:	69e1      	ldr	r1, [r4, #28]
  404cfe:	6820      	ldr	r0, [r4, #0]
  404d00:	4b1a      	ldr	r3, [pc, #104]	; (404d6c <f_sync+0x8c>)
  404d02:	4798      	blx	r3
  404d04:	4603      	mov	r3, r0
  404d06:	2800      	cmp	r0, #0
  404d08:	d1f6      	bne.n	404cf8 <f_sync+0x18>
  404d0a:	6a25      	ldr	r5, [r4, #32]
  404d0c:	7aeb      	ldrb	r3, [r5, #11]
  404d0e:	f043 0320 	orr.w	r3, r3, #32
  404d12:	72eb      	strb	r3, [r5, #11]
  404d14:	68e3      	ldr	r3, [r4, #12]
  404d16:	772b      	strb	r3, [r5, #28]
  404d18:	89a3      	ldrh	r3, [r4, #12]
  404d1a:	0a1b      	lsrs	r3, r3, #8
  404d1c:	776b      	strb	r3, [r5, #29]
  404d1e:	89e3      	ldrh	r3, [r4, #14]
  404d20:	77ab      	strb	r3, [r5, #30]
  404d22:	7be3      	ldrb	r3, [r4, #15]
  404d24:	77eb      	strb	r3, [r5, #31]
  404d26:	6923      	ldr	r3, [r4, #16]
  404d28:	76ab      	strb	r3, [r5, #26]
  404d2a:	8a23      	ldrh	r3, [r4, #16]
  404d2c:	0a1b      	lsrs	r3, r3, #8
  404d2e:	76eb      	strb	r3, [r5, #27]
  404d30:	8a63      	ldrh	r3, [r4, #18]
  404d32:	752b      	strb	r3, [r5, #20]
  404d34:	8a63      	ldrh	r3, [r4, #18]
  404d36:	0a1b      	lsrs	r3, r3, #8
  404d38:	756b      	strb	r3, [r5, #21]
  404d3a:	4b0d      	ldr	r3, [pc, #52]	; (404d70 <f_sync+0x90>)
  404d3c:	4798      	blx	r3
  404d3e:	75a8      	strb	r0, [r5, #22]
  404d40:	f3c0 2307 	ubfx	r3, r0, #8, #8
  404d44:	75eb      	strb	r3, [r5, #23]
  404d46:	0c03      	lsrs	r3, r0, #16
  404d48:	762b      	strb	r3, [r5, #24]
  404d4a:	0e00      	lsrs	r0, r0, #24
  404d4c:	7668      	strb	r0, [r5, #25]
  404d4e:	79a3      	ldrb	r3, [r4, #6]
  404d50:	f023 0320 	bic.w	r3, r3, #32
  404d54:	71a3      	strb	r3, [r4, #6]
  404d56:	6823      	ldr	r3, [r4, #0]
  404d58:	2201      	movs	r2, #1
  404d5a:	711a      	strb	r2, [r3, #4]
  404d5c:	6820      	ldr	r0, [r4, #0]
  404d5e:	4b05      	ldr	r3, [pc, #20]	; (404d74 <f_sync+0x94>)
  404d60:	4798      	blx	r3
  404d62:	4603      	mov	r3, r0
  404d64:	e7c8      	b.n	404cf8 <f_sync+0x18>
  404d66:	bf00      	nop
  404d68:	004034d1 	.word	0x004034d1
  404d6c:	00403a39 	.word	0x00403a39
  404d70:	00403421 	.word	0x00403421
  404d74:	004045a5 	.word	0x004045a5

00404d78 <f_close>:
  404d78:	b510      	push	{r4, lr}
  404d7a:	4604      	mov	r4, r0
  404d7c:	4b03      	ldr	r3, [pc, #12]	; (404d8c <f_close+0x14>)
  404d7e:	4798      	blx	r3
  404d80:	4603      	mov	r3, r0
  404d82:	b908      	cbnz	r0, 404d88 <f_close+0x10>
  404d84:	2200      	movs	r2, #0
  404d86:	6022      	str	r2, [r4, #0]
  404d88:	4618      	mov	r0, r3
  404d8a:	bd10      	pop	{r4, pc}
  404d8c:	00404ce1 	.word	0x00404ce1

00404d90 <f_opendir>:
  404d90:	b510      	push	{r4, lr}
  404d92:	f5ad 7d06 	sub.w	sp, sp, #536	; 0x218
  404d96:	4604      	mov	r4, r0
  404d98:	9101      	str	r1, [sp, #4]
  404d9a:	2200      	movs	r2, #0
  404d9c:	4601      	mov	r1, r0
  404d9e:	a801      	add	r0, sp, #4
  404da0:	4b18      	ldr	r3, [pc, #96]	; (404e04 <f_opendir+0x74>)
  404da2:	4798      	blx	r3
  404da4:	4603      	mov	r3, r0
  404da6:	b118      	cbz	r0, 404db0 <f_opendir+0x20>
  404da8:	4618      	mov	r0, r3
  404daa:	f50d 7d06 	add.w	sp, sp, #536	; 0x218
  404dae:	bd10      	pop	{r4, pc}
  404db0:	ab83      	add	r3, sp, #524	; 0x20c
  404db2:	61a3      	str	r3, [r4, #24]
  404db4:	ab03      	add	r3, sp, #12
  404db6:	61e3      	str	r3, [r4, #28]
  404db8:	9901      	ldr	r1, [sp, #4]
  404dba:	4620      	mov	r0, r4
  404dbc:	4b12      	ldr	r3, [pc, #72]	; (404e08 <f_opendir+0x78>)
  404dbe:	4798      	blx	r3
  404dc0:	4603      	mov	r3, r0
  404dc2:	b9c0      	cbnz	r0, 404df6 <f_opendir+0x66>
  404dc4:	6963      	ldr	r3, [r4, #20]
  404dc6:	b173      	cbz	r3, 404de6 <f_opendir+0x56>
  404dc8:	7ada      	ldrb	r2, [r3, #11]
  404dca:	f012 0f10 	tst.w	r2, #16
  404dce:	d016      	beq.n	404dfe <f_opendir+0x6e>
  404dd0:	7d59      	ldrb	r1, [r3, #21]
  404dd2:	7d1a      	ldrb	r2, [r3, #20]
  404dd4:	ea42 2201 	orr.w	r2, r2, r1, lsl #8
  404dd8:	7ed9      	ldrb	r1, [r3, #27]
  404dda:	7e9b      	ldrb	r3, [r3, #26]
  404ddc:	ea43 2301 	orr.w	r3, r3, r1, lsl #8
  404de0:	ea43 4302 	orr.w	r3, r3, r2, lsl #16
  404de4:	60a3      	str	r3, [r4, #8]
  404de6:	6823      	ldr	r3, [r4, #0]
  404de8:	88db      	ldrh	r3, [r3, #6]
  404dea:	80a3      	strh	r3, [r4, #4]
  404dec:	2100      	movs	r1, #0
  404dee:	4620      	mov	r0, r4
  404df0:	4b06      	ldr	r3, [pc, #24]	; (404e0c <f_opendir+0x7c>)
  404df2:	4798      	blx	r3
  404df4:	4603      	mov	r3, r0
  404df6:	2b04      	cmp	r3, #4
  404df8:	bf08      	it	eq
  404dfa:	2305      	moveq	r3, #5
  404dfc:	e7d4      	b.n	404da8 <f_opendir+0x18>
  404dfe:	2305      	movs	r3, #5
  404e00:	e7d2      	b.n	404da8 <f_opendir+0x18>
  404e02:	bf00      	nop
  404e04:	00403595 	.word	0x00403595
  404e08:	00404671 	.word	0x00404671
  404e0c:	00403bb1 	.word	0x00403bb1

00404e10 <f_readdir>:
  404e10:	b570      	push	{r4, r5, r6, lr}
  404e12:	f5ad 7d04 	sub.w	sp, sp, #528	; 0x210
  404e16:	4604      	mov	r4, r0
  404e18:	460e      	mov	r6, r1
  404e1a:	8881      	ldrh	r1, [r0, #4]
  404e1c:	6800      	ldr	r0, [r0, #0]
  404e1e:	4b15      	ldr	r3, [pc, #84]	; (404e74 <f_readdir+0x64>)
  404e20:	4798      	blx	r3
  404e22:	4605      	mov	r5, r0
  404e24:	b958      	cbnz	r0, 404e3e <f_readdir+0x2e>
  404e26:	b176      	cbz	r6, 404e46 <f_readdir+0x36>
  404e28:	ab81      	add	r3, sp, #516	; 0x204
  404e2a:	61a3      	str	r3, [r4, #24]
  404e2c:	ab01      	add	r3, sp, #4
  404e2e:	61e3      	str	r3, [r4, #28]
  404e30:	4620      	mov	r0, r4
  404e32:	4b11      	ldr	r3, [pc, #68]	; (404e78 <f_readdir+0x68>)
  404e34:	4798      	blx	r3
  404e36:	2804      	cmp	r0, #4
  404e38:	d00b      	beq.n	404e52 <f_readdir+0x42>
  404e3a:	b160      	cbz	r0, 404e56 <f_readdir+0x46>
  404e3c:	4605      	mov	r5, r0
  404e3e:	4628      	mov	r0, r5
  404e40:	f50d 7d04 	add.w	sp, sp, #528	; 0x210
  404e44:	bd70      	pop	{r4, r5, r6, pc}
  404e46:	2100      	movs	r1, #0
  404e48:	4620      	mov	r0, r4
  404e4a:	4b0c      	ldr	r3, [pc, #48]	; (404e7c <f_readdir+0x6c>)
  404e4c:	4798      	blx	r3
  404e4e:	4605      	mov	r5, r0
  404e50:	e7f5      	b.n	404e3e <f_readdir+0x2e>
  404e52:	2300      	movs	r3, #0
  404e54:	6123      	str	r3, [r4, #16]
  404e56:	4631      	mov	r1, r6
  404e58:	4620      	mov	r0, r4
  404e5a:	4b09      	ldr	r3, [pc, #36]	; (404e80 <f_readdir+0x70>)
  404e5c:	4798      	blx	r3
  404e5e:	2100      	movs	r1, #0
  404e60:	4620      	mov	r0, r4
  404e62:	4b08      	ldr	r3, [pc, #32]	; (404e84 <f_readdir+0x74>)
  404e64:	4798      	blx	r3
  404e66:	2804      	cmp	r0, #4
  404e68:	d001      	beq.n	404e6e <f_readdir+0x5e>
  404e6a:	4605      	mov	r5, r0
  404e6c:	e7e7      	b.n	404e3e <f_readdir+0x2e>
  404e6e:	2300      	movs	r3, #0
  404e70:	6123      	str	r3, [r4, #16]
  404e72:	e7e4      	b.n	404e3e <f_readdir+0x2e>
  404e74:	004034d1 	.word	0x004034d1
  404e78:	00404485 	.word	0x00404485
  404e7c:	00403bb1 	.word	0x00403bb1
  404e80:	00403901 	.word	0x00403901
  404e84:	00403ec5 	.word	0x00403ec5

00404e88 <f_stat>:
  404e88:	b530      	push	{r4, r5, lr}
  404e8a:	f5ad 7d0f 	sub.w	sp, sp, #572	; 0x23c
  404e8e:	9001      	str	r0, [sp, #4]
  404e90:	460d      	mov	r5, r1
  404e92:	2200      	movs	r2, #0
  404e94:	a985      	add	r1, sp, #532	; 0x214
  404e96:	a801      	add	r0, sp, #4
  404e98:	4b0d      	ldr	r3, [pc, #52]	; (404ed0 <f_stat+0x48>)
  404e9a:	4798      	blx	r3
  404e9c:	4604      	mov	r4, r0
  404e9e:	b118      	cbz	r0, 404ea8 <f_stat+0x20>
  404ea0:	4620      	mov	r0, r4
  404ea2:	f50d 7d0f 	add.w	sp, sp, #572	; 0x23c
  404ea6:	bd30      	pop	{r4, r5, pc}
  404ea8:	ab82      	add	r3, sp, #520	; 0x208
  404eaa:	938b      	str	r3, [sp, #556]	; 0x22c
  404eac:	ab02      	add	r3, sp, #8
  404eae:	938c      	str	r3, [sp, #560]	; 0x230
  404eb0:	9901      	ldr	r1, [sp, #4]
  404eb2:	a885      	add	r0, sp, #532	; 0x214
  404eb4:	4b07      	ldr	r3, [pc, #28]	; (404ed4 <f_stat+0x4c>)
  404eb6:	4798      	blx	r3
  404eb8:	4604      	mov	r4, r0
  404eba:	2800      	cmp	r0, #0
  404ebc:	d1f0      	bne.n	404ea0 <f_stat+0x18>
  404ebe:	9b8a      	ldr	r3, [sp, #552]	; 0x228
  404ec0:	b123      	cbz	r3, 404ecc <f_stat+0x44>
  404ec2:	4629      	mov	r1, r5
  404ec4:	a885      	add	r0, sp, #532	; 0x214
  404ec6:	4b04      	ldr	r3, [pc, #16]	; (404ed8 <f_stat+0x50>)
  404ec8:	4798      	blx	r3
  404eca:	e7e9      	b.n	404ea0 <f_stat+0x18>
  404ecc:	2406      	movs	r4, #6
  404ece:	e7e7      	b.n	404ea0 <f_stat+0x18>
  404ed0:	00403595 	.word	0x00403595
  404ed4:	00404671 	.word	0x00404671
  404ed8:	00403901 	.word	0x00403901

00404edc <ff_convert>:
  404edc:	287f      	cmp	r0, #127	; 0x7f
  404ede:	d919      	bls.n	404f14 <ff_convert+0x38>
  404ee0:	b971      	cbnz	r1, 404f00 <ff_convert+0x24>
  404ee2:	28c7      	cmp	r0, #199	; 0xc7
  404ee4:	d013      	beq.n	404f0e <ff_convert+0x32>
  404ee6:	4a0c      	ldr	r2, [pc, #48]	; (404f18 <ff_convert+0x3c>)
  404ee8:	2301      	movs	r3, #1
  404eea:	f832 1f02 	ldrh.w	r1, [r2, #2]!
  404eee:	4281      	cmp	r1, r0
  404ef0:	d003      	beq.n	404efa <ff_convert+0x1e>
  404ef2:	3301      	adds	r3, #1
  404ef4:	b29b      	uxth	r3, r3
  404ef6:	2b80      	cmp	r3, #128	; 0x80
  404ef8:	d1f7      	bne.n	404eea <ff_convert+0xe>
  404efa:	3380      	adds	r3, #128	; 0x80
  404efc:	b2d8      	uxtb	r0, r3
  404efe:	4770      	bx	lr
  404f00:	28ff      	cmp	r0, #255	; 0xff
  404f02:	d806      	bhi.n	404f12 <ff_convert+0x36>
  404f04:	3880      	subs	r0, #128	; 0x80
  404f06:	4b04      	ldr	r3, [pc, #16]	; (404f18 <ff_convert+0x3c>)
  404f08:	f833 0010 	ldrh.w	r0, [r3, r0, lsl #1]
  404f0c:	4770      	bx	lr
  404f0e:	2300      	movs	r3, #0
  404f10:	e7f3      	b.n	404efa <ff_convert+0x1e>
  404f12:	2000      	movs	r0, #0
  404f14:	4770      	bx	lr
  404f16:	bf00      	nop
  404f18:	00409f28 	.word	0x00409f28

00404f1c <ff_wtoupper>:
  404f1c:	2861      	cmp	r0, #97	; 0x61
  404f1e:	d010      	beq.n	404f42 <ff_wtoupper+0x26>
  404f20:	4909      	ldr	r1, [pc, #36]	; (404f48 <ff_wtoupper+0x2c>)
  404f22:	2201      	movs	r2, #1
  404f24:	2362      	movs	r3, #98	; 0x62
  404f26:	4298      	cmp	r0, r3
  404f28:	d005      	beq.n	404f36 <ff_wtoupper+0x1a>
  404f2a:	3201      	adds	r2, #1
  404f2c:	f831 3f02 	ldrh.w	r3, [r1, #2]!
  404f30:	2b00      	cmp	r3, #0
  404f32:	d1f8      	bne.n	404f26 <ff_wtoupper+0xa>
  404f34:	e003      	b.n	404f3e <ff_wtoupper+0x22>
  404f36:	b118      	cbz	r0, 404f40 <ff_wtoupper+0x24>
  404f38:	4b04      	ldr	r3, [pc, #16]	; (404f4c <ff_wtoupper+0x30>)
  404f3a:	f833 0012 	ldrh.w	r0, [r3, r2, lsl #1]
  404f3e:	4770      	bx	lr
  404f40:	4770      	bx	lr
  404f42:	2200      	movs	r2, #0
  404f44:	e7f8      	b.n	404f38 <ff_wtoupper+0x1c>
  404f46:	bf00      	nop
  404f48:	0040a02a 	.word	0x0040a02a
  404f4c:	0040a208 	.word	0x0040a208

00404f50 <main>:
#include "minios/system.h"
#include "minios/hal/hal.h"
#include "minios/console/console.h"

int main(void)
{
  404f50:	b508      	push	{r3, lr}
	//Initializes the system
	system_init();		
  404f52:	4b03      	ldr	r3, [pc, #12]	; (404f60 <main+0x10>)
  404f54:	4798      	blx	r3
	
	//Execute the console
	console_begin( "\n\r" ); //Some serial console like putty use \n\r as newlines,
  404f56:	4803      	ldr	r0, [pc, #12]	; (404f64 <main+0x14>)
  404f58:	4b03      	ldr	r3, [pc, #12]	; (404f68 <main+0x18>)
  404f5a:	4798      	blx	r3
  404f5c:	e7fe      	b.n	404f5c <main+0xc>
  404f5e:	bf00      	nop
  404f60:	00400ef9 	.word	0x00400ef9
  404f64:	0040a3e8 	.word	0x0040a3e8
  404f68:	00400315 	.word	0x00400315

00404f6c <__aeabi_drsub>:
  404f6c:	f081 4100 	eor.w	r1, r1, #2147483648	; 0x80000000
  404f70:	e002      	b.n	404f78 <__adddf3>
  404f72:	bf00      	nop

00404f74 <__aeabi_dsub>:
  404f74:	f083 4300 	eor.w	r3, r3, #2147483648	; 0x80000000

00404f78 <__adddf3>:
  404f78:	b530      	push	{r4, r5, lr}
  404f7a:	ea4f 0441 	mov.w	r4, r1, lsl #1
  404f7e:	ea4f 0543 	mov.w	r5, r3, lsl #1
  404f82:	ea94 0f05 	teq	r4, r5
  404f86:	bf08      	it	eq
  404f88:	ea90 0f02 	teqeq	r0, r2
  404f8c:	bf1f      	itttt	ne
  404f8e:	ea54 0c00 	orrsne.w	ip, r4, r0
  404f92:	ea55 0c02 	orrsne.w	ip, r5, r2
  404f96:	ea7f 5c64 	mvnsne.w	ip, r4, asr #21
  404f9a:	ea7f 5c65 	mvnsne.w	ip, r5, asr #21
  404f9e:	f000 80e2 	beq.w	405166 <__adddf3+0x1ee>
  404fa2:	ea4f 5454 	mov.w	r4, r4, lsr #21
  404fa6:	ebd4 5555 	rsbs	r5, r4, r5, lsr #21
  404faa:	bfb8      	it	lt
  404fac:	426d      	neglt	r5, r5
  404fae:	dd0c      	ble.n	404fca <__adddf3+0x52>
  404fb0:	442c      	add	r4, r5
  404fb2:	ea80 0202 	eor.w	r2, r0, r2
  404fb6:	ea81 0303 	eor.w	r3, r1, r3
  404fba:	ea82 0000 	eor.w	r0, r2, r0
  404fbe:	ea83 0101 	eor.w	r1, r3, r1
  404fc2:	ea80 0202 	eor.w	r2, r0, r2
  404fc6:	ea81 0303 	eor.w	r3, r1, r3
  404fca:	2d36      	cmp	r5, #54	; 0x36
  404fcc:	bf88      	it	hi
  404fce:	bd30      	pophi	{r4, r5, pc}
  404fd0:	f011 4f00 	tst.w	r1, #2147483648	; 0x80000000
  404fd4:	ea4f 3101 	mov.w	r1, r1, lsl #12
  404fd8:	f44f 1c80 	mov.w	ip, #1048576	; 0x100000
  404fdc:	ea4c 3111 	orr.w	r1, ip, r1, lsr #12
  404fe0:	d002      	beq.n	404fe8 <__adddf3+0x70>
  404fe2:	4240      	negs	r0, r0
  404fe4:	eb61 0141 	sbc.w	r1, r1, r1, lsl #1
  404fe8:	f013 4f00 	tst.w	r3, #2147483648	; 0x80000000
  404fec:	ea4f 3303 	mov.w	r3, r3, lsl #12
  404ff0:	ea4c 3313 	orr.w	r3, ip, r3, lsr #12
  404ff4:	d002      	beq.n	404ffc <__adddf3+0x84>
  404ff6:	4252      	negs	r2, r2
  404ff8:	eb63 0343 	sbc.w	r3, r3, r3, lsl #1
  404ffc:	ea94 0f05 	teq	r4, r5
  405000:	f000 80a7 	beq.w	405152 <__adddf3+0x1da>
  405004:	f1a4 0401 	sub.w	r4, r4, #1
  405008:	f1d5 0e20 	rsbs	lr, r5, #32
  40500c:	db0d      	blt.n	40502a <__adddf3+0xb2>
  40500e:	fa02 fc0e 	lsl.w	ip, r2, lr
  405012:	fa22 f205 	lsr.w	r2, r2, r5
  405016:	1880      	adds	r0, r0, r2
  405018:	f141 0100 	adc.w	r1, r1, #0
  40501c:	fa03 f20e 	lsl.w	r2, r3, lr
  405020:	1880      	adds	r0, r0, r2
  405022:	fa43 f305 	asr.w	r3, r3, r5
  405026:	4159      	adcs	r1, r3
  405028:	e00e      	b.n	405048 <__adddf3+0xd0>
  40502a:	f1a5 0520 	sub.w	r5, r5, #32
  40502e:	f10e 0e20 	add.w	lr, lr, #32
  405032:	2a01      	cmp	r2, #1
  405034:	fa03 fc0e 	lsl.w	ip, r3, lr
  405038:	bf28      	it	cs
  40503a:	f04c 0c02 	orrcs.w	ip, ip, #2
  40503e:	fa43 f305 	asr.w	r3, r3, r5
  405042:	18c0      	adds	r0, r0, r3
  405044:	eb51 71e3 	adcs.w	r1, r1, r3, asr #31
  405048:	f001 4500 	and.w	r5, r1, #2147483648	; 0x80000000
  40504c:	d507      	bpl.n	40505e <__adddf3+0xe6>
  40504e:	f04f 0e00 	mov.w	lr, #0
  405052:	f1dc 0c00 	rsbs	ip, ip, #0
  405056:	eb7e 0000 	sbcs.w	r0, lr, r0
  40505a:	eb6e 0101 	sbc.w	r1, lr, r1
  40505e:	f5b1 1f80 	cmp.w	r1, #1048576	; 0x100000
  405062:	d31b      	bcc.n	40509c <__adddf3+0x124>
  405064:	f5b1 1f00 	cmp.w	r1, #2097152	; 0x200000
  405068:	d30c      	bcc.n	405084 <__adddf3+0x10c>
  40506a:	0849      	lsrs	r1, r1, #1
  40506c:	ea5f 0030 	movs.w	r0, r0, rrx
  405070:	ea4f 0c3c 	mov.w	ip, ip, rrx
  405074:	f104 0401 	add.w	r4, r4, #1
  405078:	ea4f 5244 	mov.w	r2, r4, lsl #21
  40507c:	f512 0f80 	cmn.w	r2, #4194304	; 0x400000
  405080:	f080 809a 	bcs.w	4051b8 <__adddf3+0x240>
  405084:	f1bc 4f00 	cmp.w	ip, #2147483648	; 0x80000000
  405088:	bf08      	it	eq
  40508a:	ea5f 0c50 	movseq.w	ip, r0, lsr #1
  40508e:	f150 0000 	adcs.w	r0, r0, #0
  405092:	eb41 5104 	adc.w	r1, r1, r4, lsl #20
  405096:	ea41 0105 	orr.w	r1, r1, r5
  40509a:	bd30      	pop	{r4, r5, pc}
  40509c:	ea5f 0c4c 	movs.w	ip, ip, lsl #1
  4050a0:	4140      	adcs	r0, r0
  4050a2:	eb41 0101 	adc.w	r1, r1, r1
  4050a6:	f411 1f80 	tst.w	r1, #1048576	; 0x100000
  4050aa:	f1a4 0401 	sub.w	r4, r4, #1
  4050ae:	d1e9      	bne.n	405084 <__adddf3+0x10c>
  4050b0:	f091 0f00 	teq	r1, #0
  4050b4:	bf04      	itt	eq
  4050b6:	4601      	moveq	r1, r0
  4050b8:	2000      	moveq	r0, #0
  4050ba:	fab1 f381 	clz	r3, r1
  4050be:	bf08      	it	eq
  4050c0:	3320      	addeq	r3, #32
  4050c2:	f1a3 030b 	sub.w	r3, r3, #11
  4050c6:	f1b3 0220 	subs.w	r2, r3, #32
  4050ca:	da0c      	bge.n	4050e6 <__adddf3+0x16e>
  4050cc:	320c      	adds	r2, #12
  4050ce:	dd08      	ble.n	4050e2 <__adddf3+0x16a>
  4050d0:	f102 0c14 	add.w	ip, r2, #20
  4050d4:	f1c2 020c 	rsb	r2, r2, #12
  4050d8:	fa01 f00c 	lsl.w	r0, r1, ip
  4050dc:	fa21 f102 	lsr.w	r1, r1, r2
  4050e0:	e00c      	b.n	4050fc <__adddf3+0x184>
  4050e2:	f102 0214 	add.w	r2, r2, #20
  4050e6:	bfd8      	it	le
  4050e8:	f1c2 0c20 	rsble	ip, r2, #32
  4050ec:	fa01 f102 	lsl.w	r1, r1, r2
  4050f0:	fa20 fc0c 	lsr.w	ip, r0, ip
  4050f4:	bfdc      	itt	le
  4050f6:	ea41 010c 	orrle.w	r1, r1, ip
  4050fa:	4090      	lslle	r0, r2
  4050fc:	1ae4      	subs	r4, r4, r3
  4050fe:	bfa2      	ittt	ge
  405100:	eb01 5104 	addge.w	r1, r1, r4, lsl #20
  405104:	4329      	orrge	r1, r5
  405106:	bd30      	popge	{r4, r5, pc}
  405108:	ea6f 0404 	mvn.w	r4, r4
  40510c:	3c1f      	subs	r4, #31
  40510e:	da1c      	bge.n	40514a <__adddf3+0x1d2>
  405110:	340c      	adds	r4, #12
  405112:	dc0e      	bgt.n	405132 <__adddf3+0x1ba>
  405114:	f104 0414 	add.w	r4, r4, #20
  405118:	f1c4 0220 	rsb	r2, r4, #32
  40511c:	fa20 f004 	lsr.w	r0, r0, r4
  405120:	fa01 f302 	lsl.w	r3, r1, r2
  405124:	ea40 0003 	orr.w	r0, r0, r3
  405128:	fa21 f304 	lsr.w	r3, r1, r4
  40512c:	ea45 0103 	orr.w	r1, r5, r3
  405130:	bd30      	pop	{r4, r5, pc}
  405132:	f1c4 040c 	rsb	r4, r4, #12
  405136:	f1c4 0220 	rsb	r2, r4, #32
  40513a:	fa20 f002 	lsr.w	r0, r0, r2
  40513e:	fa01 f304 	lsl.w	r3, r1, r4
  405142:	ea40 0003 	orr.w	r0, r0, r3
  405146:	4629      	mov	r1, r5
  405148:	bd30      	pop	{r4, r5, pc}
  40514a:	fa21 f004 	lsr.w	r0, r1, r4
  40514e:	4629      	mov	r1, r5
  405150:	bd30      	pop	{r4, r5, pc}
  405152:	f094 0f00 	teq	r4, #0
  405156:	f483 1380 	eor.w	r3, r3, #1048576	; 0x100000
  40515a:	bf06      	itte	eq
  40515c:	f481 1180 	eoreq.w	r1, r1, #1048576	; 0x100000
  405160:	3401      	addeq	r4, #1
  405162:	3d01      	subne	r5, #1
  405164:	e74e      	b.n	405004 <__adddf3+0x8c>
  405166:	ea7f 5c64 	mvns.w	ip, r4, asr #21
  40516a:	bf18      	it	ne
  40516c:	ea7f 5c65 	mvnsne.w	ip, r5, asr #21
  405170:	d029      	beq.n	4051c6 <__adddf3+0x24e>
  405172:	ea94 0f05 	teq	r4, r5
  405176:	bf08      	it	eq
  405178:	ea90 0f02 	teqeq	r0, r2
  40517c:	d005      	beq.n	40518a <__adddf3+0x212>
  40517e:	ea54 0c00 	orrs.w	ip, r4, r0
  405182:	bf04      	itt	eq
  405184:	4619      	moveq	r1, r3
  405186:	4610      	moveq	r0, r2
  405188:	bd30      	pop	{r4, r5, pc}
  40518a:	ea91 0f03 	teq	r1, r3
  40518e:	bf1e      	ittt	ne
  405190:	2100      	movne	r1, #0
  405192:	2000      	movne	r0, #0
  405194:	bd30      	popne	{r4, r5, pc}
  405196:	ea5f 5c54 	movs.w	ip, r4, lsr #21
  40519a:	d105      	bne.n	4051a8 <__adddf3+0x230>
  40519c:	0040      	lsls	r0, r0, #1
  40519e:	4149      	adcs	r1, r1
  4051a0:	bf28      	it	cs
  4051a2:	f041 4100 	orrcs.w	r1, r1, #2147483648	; 0x80000000
  4051a6:	bd30      	pop	{r4, r5, pc}
  4051a8:	f514 0480 	adds.w	r4, r4, #4194304	; 0x400000
  4051ac:	bf3c      	itt	cc
  4051ae:	f501 1180 	addcc.w	r1, r1, #1048576	; 0x100000
  4051b2:	bd30      	popcc	{r4, r5, pc}
  4051b4:	f001 4500 	and.w	r5, r1, #2147483648	; 0x80000000
  4051b8:	f045 41fe 	orr.w	r1, r5, #2130706432	; 0x7f000000
  4051bc:	f441 0170 	orr.w	r1, r1, #15728640	; 0xf00000
  4051c0:	f04f 0000 	mov.w	r0, #0
  4051c4:	bd30      	pop	{r4, r5, pc}
  4051c6:	ea7f 5c64 	mvns.w	ip, r4, asr #21
  4051ca:	bf1a      	itte	ne
  4051cc:	4619      	movne	r1, r3
  4051ce:	4610      	movne	r0, r2
  4051d0:	ea7f 5c65 	mvnseq.w	ip, r5, asr #21
  4051d4:	bf1c      	itt	ne
  4051d6:	460b      	movne	r3, r1
  4051d8:	4602      	movne	r2, r0
  4051da:	ea50 3401 	orrs.w	r4, r0, r1, lsl #12
  4051de:	bf06      	itte	eq
  4051e0:	ea52 3503 	orrseq.w	r5, r2, r3, lsl #12
  4051e4:	ea91 0f03 	teqeq	r1, r3
  4051e8:	f441 2100 	orrne.w	r1, r1, #524288	; 0x80000
  4051ec:	bd30      	pop	{r4, r5, pc}
  4051ee:	bf00      	nop

004051f0 <__aeabi_ui2d>:
  4051f0:	f090 0f00 	teq	r0, #0
  4051f4:	bf04      	itt	eq
  4051f6:	2100      	moveq	r1, #0
  4051f8:	4770      	bxeq	lr
  4051fa:	b530      	push	{r4, r5, lr}
  4051fc:	f44f 6480 	mov.w	r4, #1024	; 0x400
  405200:	f104 0432 	add.w	r4, r4, #50	; 0x32
  405204:	f04f 0500 	mov.w	r5, #0
  405208:	f04f 0100 	mov.w	r1, #0
  40520c:	e750      	b.n	4050b0 <__adddf3+0x138>
  40520e:	bf00      	nop

00405210 <__aeabi_i2d>:
  405210:	f090 0f00 	teq	r0, #0
  405214:	bf04      	itt	eq
  405216:	2100      	moveq	r1, #0
  405218:	4770      	bxeq	lr
  40521a:	b530      	push	{r4, r5, lr}
  40521c:	f44f 6480 	mov.w	r4, #1024	; 0x400
  405220:	f104 0432 	add.w	r4, r4, #50	; 0x32
  405224:	f010 4500 	ands.w	r5, r0, #2147483648	; 0x80000000
  405228:	bf48      	it	mi
  40522a:	4240      	negmi	r0, r0
  40522c:	f04f 0100 	mov.w	r1, #0
  405230:	e73e      	b.n	4050b0 <__adddf3+0x138>
  405232:	bf00      	nop

00405234 <__aeabi_f2d>:
  405234:	0042      	lsls	r2, r0, #1
  405236:	ea4f 01e2 	mov.w	r1, r2, asr #3
  40523a:	ea4f 0131 	mov.w	r1, r1, rrx
  40523e:	ea4f 7002 	mov.w	r0, r2, lsl #28
  405242:	bf1f      	itttt	ne
  405244:	f012 437f 	andsne.w	r3, r2, #4278190080	; 0xff000000
  405248:	f093 4f7f 	teqne	r3, #4278190080	; 0xff000000
  40524c:	f081 5160 	eorne.w	r1, r1, #939524096	; 0x38000000
  405250:	4770      	bxne	lr
  405252:	f092 0f00 	teq	r2, #0
  405256:	bf14      	ite	ne
  405258:	f093 4f7f 	teqne	r3, #4278190080	; 0xff000000
  40525c:	4770      	bxeq	lr
  40525e:	b530      	push	{r4, r5, lr}
  405260:	f44f 7460 	mov.w	r4, #896	; 0x380
  405264:	f001 4500 	and.w	r5, r1, #2147483648	; 0x80000000
  405268:	f021 4100 	bic.w	r1, r1, #2147483648	; 0x80000000
  40526c:	e720      	b.n	4050b0 <__adddf3+0x138>
  40526e:	bf00      	nop

00405270 <__aeabi_ul2d>:
  405270:	ea50 0201 	orrs.w	r2, r0, r1
  405274:	bf08      	it	eq
  405276:	4770      	bxeq	lr
  405278:	b530      	push	{r4, r5, lr}
  40527a:	f04f 0500 	mov.w	r5, #0
  40527e:	e00a      	b.n	405296 <__aeabi_l2d+0x16>

00405280 <__aeabi_l2d>:
  405280:	ea50 0201 	orrs.w	r2, r0, r1
  405284:	bf08      	it	eq
  405286:	4770      	bxeq	lr
  405288:	b530      	push	{r4, r5, lr}
  40528a:	f011 4500 	ands.w	r5, r1, #2147483648	; 0x80000000
  40528e:	d502      	bpl.n	405296 <__aeabi_l2d+0x16>
  405290:	4240      	negs	r0, r0
  405292:	eb61 0141 	sbc.w	r1, r1, r1, lsl #1
  405296:	f44f 6480 	mov.w	r4, #1024	; 0x400
  40529a:	f104 0432 	add.w	r4, r4, #50	; 0x32
  40529e:	ea5f 5c91 	movs.w	ip, r1, lsr #22
  4052a2:	f43f aedc 	beq.w	40505e <__adddf3+0xe6>
  4052a6:	f04f 0203 	mov.w	r2, #3
  4052aa:	ea5f 0cdc 	movs.w	ip, ip, lsr #3
  4052ae:	bf18      	it	ne
  4052b0:	3203      	addne	r2, #3
  4052b2:	ea5f 0cdc 	movs.w	ip, ip, lsr #3
  4052b6:	bf18      	it	ne
  4052b8:	3203      	addne	r2, #3
  4052ba:	eb02 02dc 	add.w	r2, r2, ip, lsr #3
  4052be:	f1c2 0320 	rsb	r3, r2, #32
  4052c2:	fa00 fc03 	lsl.w	ip, r0, r3
  4052c6:	fa20 f002 	lsr.w	r0, r0, r2
  4052ca:	fa01 fe03 	lsl.w	lr, r1, r3
  4052ce:	ea40 000e 	orr.w	r0, r0, lr
  4052d2:	fa21 f102 	lsr.w	r1, r1, r2
  4052d6:	4414      	add	r4, r2
  4052d8:	e6c1      	b.n	40505e <__adddf3+0xe6>
  4052da:	bf00      	nop

004052dc <__aeabi_dmul>:
  4052dc:	b570      	push	{r4, r5, r6, lr}
  4052de:	f04f 0cff 	mov.w	ip, #255	; 0xff
  4052e2:	f44c 6ce0 	orr.w	ip, ip, #1792	; 0x700
  4052e6:	ea1c 5411 	ands.w	r4, ip, r1, lsr #20
  4052ea:	bf1d      	ittte	ne
  4052ec:	ea1c 5513 	andsne.w	r5, ip, r3, lsr #20
  4052f0:	ea94 0f0c 	teqne	r4, ip
  4052f4:	ea95 0f0c 	teqne	r5, ip
  4052f8:	f000 f8de 	bleq	4054b8 <__aeabi_dmul+0x1dc>
  4052fc:	442c      	add	r4, r5
  4052fe:	ea81 0603 	eor.w	r6, r1, r3
  405302:	ea21 514c 	bic.w	r1, r1, ip, lsl #21
  405306:	ea23 534c 	bic.w	r3, r3, ip, lsl #21
  40530a:	ea50 3501 	orrs.w	r5, r0, r1, lsl #12
  40530e:	bf18      	it	ne
  405310:	ea52 3503 	orrsne.w	r5, r2, r3, lsl #12
  405314:	f441 1180 	orr.w	r1, r1, #1048576	; 0x100000
  405318:	f443 1380 	orr.w	r3, r3, #1048576	; 0x100000
  40531c:	d038      	beq.n	405390 <__aeabi_dmul+0xb4>
  40531e:	fba0 ce02 	umull	ip, lr, r0, r2
  405322:	f04f 0500 	mov.w	r5, #0
  405326:	fbe1 e502 	umlal	lr, r5, r1, r2
  40532a:	f006 4200 	and.w	r2, r6, #2147483648	; 0x80000000
  40532e:	fbe0 e503 	umlal	lr, r5, r0, r3
  405332:	f04f 0600 	mov.w	r6, #0
  405336:	fbe1 5603 	umlal	r5, r6, r1, r3
  40533a:	f09c 0f00 	teq	ip, #0
  40533e:	bf18      	it	ne
  405340:	f04e 0e01 	orrne.w	lr, lr, #1
  405344:	f1a4 04ff 	sub.w	r4, r4, #255	; 0xff
  405348:	f5b6 7f00 	cmp.w	r6, #512	; 0x200
  40534c:	f564 7440 	sbc.w	r4, r4, #768	; 0x300
  405350:	d204      	bcs.n	40535c <__aeabi_dmul+0x80>
  405352:	ea5f 0e4e 	movs.w	lr, lr, lsl #1
  405356:	416d      	adcs	r5, r5
  405358:	eb46 0606 	adc.w	r6, r6, r6
  40535c:	ea42 21c6 	orr.w	r1, r2, r6, lsl #11
  405360:	ea41 5155 	orr.w	r1, r1, r5, lsr #21
  405364:	ea4f 20c5 	mov.w	r0, r5, lsl #11
  405368:	ea40 505e 	orr.w	r0, r0, lr, lsr #21
  40536c:	ea4f 2ece 	mov.w	lr, lr, lsl #11
  405370:	f1b4 0cfd 	subs.w	ip, r4, #253	; 0xfd
  405374:	bf88      	it	hi
  405376:	f5bc 6fe0 	cmphi.w	ip, #1792	; 0x700
  40537a:	d81e      	bhi.n	4053ba <__aeabi_dmul+0xde>
  40537c:	f1be 4f00 	cmp.w	lr, #2147483648	; 0x80000000
  405380:	bf08      	it	eq
  405382:	ea5f 0e50 	movseq.w	lr, r0, lsr #1
  405386:	f150 0000 	adcs.w	r0, r0, #0
  40538a:	eb41 5104 	adc.w	r1, r1, r4, lsl #20
  40538e:	bd70      	pop	{r4, r5, r6, pc}
  405390:	f006 4600 	and.w	r6, r6, #2147483648	; 0x80000000
  405394:	ea46 0101 	orr.w	r1, r6, r1
  405398:	ea40 0002 	orr.w	r0, r0, r2
  40539c:	ea81 0103 	eor.w	r1, r1, r3
  4053a0:	ebb4 045c 	subs.w	r4, r4, ip, lsr #1
  4053a4:	bfc2      	ittt	gt
  4053a6:	ebd4 050c 	rsbsgt	r5, r4, ip
  4053aa:	ea41 5104 	orrgt.w	r1, r1, r4, lsl #20
  4053ae:	bd70      	popgt	{r4, r5, r6, pc}
  4053b0:	f441 1180 	orr.w	r1, r1, #1048576	; 0x100000
  4053b4:	f04f 0e00 	mov.w	lr, #0
  4053b8:	3c01      	subs	r4, #1
  4053ba:	f300 80ab 	bgt.w	405514 <__aeabi_dmul+0x238>
  4053be:	f114 0f36 	cmn.w	r4, #54	; 0x36
  4053c2:	bfde      	ittt	le
  4053c4:	2000      	movle	r0, #0
  4053c6:	f001 4100 	andle.w	r1, r1, #2147483648	; 0x80000000
  4053ca:	bd70      	pople	{r4, r5, r6, pc}
  4053cc:	f1c4 0400 	rsb	r4, r4, #0
  4053d0:	3c20      	subs	r4, #32
  4053d2:	da35      	bge.n	405440 <__aeabi_dmul+0x164>
  4053d4:	340c      	adds	r4, #12
  4053d6:	dc1b      	bgt.n	405410 <__aeabi_dmul+0x134>
  4053d8:	f104 0414 	add.w	r4, r4, #20
  4053dc:	f1c4 0520 	rsb	r5, r4, #32
  4053e0:	fa00 f305 	lsl.w	r3, r0, r5
  4053e4:	fa20 f004 	lsr.w	r0, r0, r4
  4053e8:	fa01 f205 	lsl.w	r2, r1, r5
  4053ec:	ea40 0002 	orr.w	r0, r0, r2
  4053f0:	f001 4200 	and.w	r2, r1, #2147483648	; 0x80000000
  4053f4:	f021 4100 	bic.w	r1, r1, #2147483648	; 0x80000000
  4053f8:	eb10 70d3 	adds.w	r0, r0, r3, lsr #31
  4053fc:	fa21 f604 	lsr.w	r6, r1, r4
  405400:	eb42 0106 	adc.w	r1, r2, r6
  405404:	ea5e 0e43 	orrs.w	lr, lr, r3, lsl #1
  405408:	bf08      	it	eq
  40540a:	ea20 70d3 	biceq.w	r0, r0, r3, lsr #31
  40540e:	bd70      	pop	{r4, r5, r6, pc}
  405410:	f1c4 040c 	rsb	r4, r4, #12
  405414:	f1c4 0520 	rsb	r5, r4, #32
  405418:	fa00 f304 	lsl.w	r3, r0, r4
  40541c:	fa20 f005 	lsr.w	r0, r0, r5
  405420:	fa01 f204 	lsl.w	r2, r1, r4
  405424:	ea40 0002 	orr.w	r0, r0, r2
  405428:	f001 4100 	and.w	r1, r1, #2147483648	; 0x80000000
  40542c:	eb10 70d3 	adds.w	r0, r0, r3, lsr #31
  405430:	f141 0100 	adc.w	r1, r1, #0
  405434:	ea5e 0e43 	orrs.w	lr, lr, r3, lsl #1
  405438:	bf08      	it	eq
  40543a:	ea20 70d3 	biceq.w	r0, r0, r3, lsr #31
  40543e:	bd70      	pop	{r4, r5, r6, pc}
  405440:	f1c4 0520 	rsb	r5, r4, #32
  405444:	fa00 f205 	lsl.w	r2, r0, r5
  405448:	ea4e 0e02 	orr.w	lr, lr, r2
  40544c:	fa20 f304 	lsr.w	r3, r0, r4
  405450:	fa01 f205 	lsl.w	r2, r1, r5
  405454:	ea43 0302 	orr.w	r3, r3, r2
  405458:	fa21 f004 	lsr.w	r0, r1, r4
  40545c:	f001 4100 	and.w	r1, r1, #2147483648	; 0x80000000
  405460:	fa21 f204 	lsr.w	r2, r1, r4
  405464:	ea20 0002 	bic.w	r0, r0, r2
  405468:	eb00 70d3 	add.w	r0, r0, r3, lsr #31
  40546c:	ea5e 0e43 	orrs.w	lr, lr, r3, lsl #1
  405470:	bf08      	it	eq
  405472:	ea20 70d3 	biceq.w	r0, r0, r3, lsr #31
  405476:	bd70      	pop	{r4, r5, r6, pc}
  405478:	f094 0f00 	teq	r4, #0
  40547c:	d10f      	bne.n	40549e <__aeabi_dmul+0x1c2>
  40547e:	f001 4600 	and.w	r6, r1, #2147483648	; 0x80000000
  405482:	0040      	lsls	r0, r0, #1
  405484:	eb41 0101 	adc.w	r1, r1, r1
  405488:	f411 1f80 	tst.w	r1, #1048576	; 0x100000
  40548c:	bf08      	it	eq
  40548e:	3c01      	subeq	r4, #1
  405490:	d0f7      	beq.n	405482 <__aeabi_dmul+0x1a6>
  405492:	ea41 0106 	orr.w	r1, r1, r6
  405496:	f095 0f00 	teq	r5, #0
  40549a:	bf18      	it	ne
  40549c:	4770      	bxne	lr
  40549e:	f003 4600 	and.w	r6, r3, #2147483648	; 0x80000000
  4054a2:	0052      	lsls	r2, r2, #1
  4054a4:	eb43 0303 	adc.w	r3, r3, r3
  4054a8:	f413 1f80 	tst.w	r3, #1048576	; 0x100000
  4054ac:	bf08      	it	eq
  4054ae:	3d01      	subeq	r5, #1
  4054b0:	d0f7      	beq.n	4054a2 <__aeabi_dmul+0x1c6>
  4054b2:	ea43 0306 	orr.w	r3, r3, r6
  4054b6:	4770      	bx	lr
  4054b8:	ea94 0f0c 	teq	r4, ip
  4054bc:	ea0c 5513 	and.w	r5, ip, r3, lsr #20
  4054c0:	bf18      	it	ne
  4054c2:	ea95 0f0c 	teqne	r5, ip
  4054c6:	d00c      	beq.n	4054e2 <__aeabi_dmul+0x206>
  4054c8:	ea50 0641 	orrs.w	r6, r0, r1, lsl #1
  4054cc:	bf18      	it	ne
  4054ce:	ea52 0643 	orrsne.w	r6, r2, r3, lsl #1
  4054d2:	d1d1      	bne.n	405478 <__aeabi_dmul+0x19c>
  4054d4:	ea81 0103 	eor.w	r1, r1, r3
  4054d8:	f001 4100 	and.w	r1, r1, #2147483648	; 0x80000000
  4054dc:	f04f 0000 	mov.w	r0, #0
  4054e0:	bd70      	pop	{r4, r5, r6, pc}
  4054e2:	ea50 0641 	orrs.w	r6, r0, r1, lsl #1
  4054e6:	bf06      	itte	eq
  4054e8:	4610      	moveq	r0, r2
  4054ea:	4619      	moveq	r1, r3
  4054ec:	ea52 0643 	orrsne.w	r6, r2, r3, lsl #1
  4054f0:	d019      	beq.n	405526 <__aeabi_dmul+0x24a>
  4054f2:	ea94 0f0c 	teq	r4, ip
  4054f6:	d102      	bne.n	4054fe <__aeabi_dmul+0x222>
  4054f8:	ea50 3601 	orrs.w	r6, r0, r1, lsl #12
  4054fc:	d113      	bne.n	405526 <__aeabi_dmul+0x24a>
  4054fe:	ea95 0f0c 	teq	r5, ip
  405502:	d105      	bne.n	405510 <__aeabi_dmul+0x234>
  405504:	ea52 3603 	orrs.w	r6, r2, r3, lsl #12
  405508:	bf1c      	itt	ne
  40550a:	4610      	movne	r0, r2
  40550c:	4619      	movne	r1, r3
  40550e:	d10a      	bne.n	405526 <__aeabi_dmul+0x24a>
  405510:	ea81 0103 	eor.w	r1, r1, r3
  405514:	f001 4100 	and.w	r1, r1, #2147483648	; 0x80000000
  405518:	f041 41fe 	orr.w	r1, r1, #2130706432	; 0x7f000000
  40551c:	f441 0170 	orr.w	r1, r1, #15728640	; 0xf00000
  405520:	f04f 0000 	mov.w	r0, #0
  405524:	bd70      	pop	{r4, r5, r6, pc}
  405526:	f041 41fe 	orr.w	r1, r1, #2130706432	; 0x7f000000
  40552a:	f441 0178 	orr.w	r1, r1, #16252928	; 0xf80000
  40552e:	bd70      	pop	{r4, r5, r6, pc}

00405530 <__aeabi_ddiv>:
  405530:	b570      	push	{r4, r5, r6, lr}
  405532:	f04f 0cff 	mov.w	ip, #255	; 0xff
  405536:	f44c 6ce0 	orr.w	ip, ip, #1792	; 0x700
  40553a:	ea1c 5411 	ands.w	r4, ip, r1, lsr #20
  40553e:	bf1d      	ittte	ne
  405540:	ea1c 5513 	andsne.w	r5, ip, r3, lsr #20
  405544:	ea94 0f0c 	teqne	r4, ip
  405548:	ea95 0f0c 	teqne	r5, ip
  40554c:	f000 f8a7 	bleq	40569e <__aeabi_ddiv+0x16e>
  405550:	eba4 0405 	sub.w	r4, r4, r5
  405554:	ea81 0e03 	eor.w	lr, r1, r3
  405558:	ea52 3503 	orrs.w	r5, r2, r3, lsl #12
  40555c:	ea4f 3101 	mov.w	r1, r1, lsl #12
  405560:	f000 8088 	beq.w	405674 <__aeabi_ddiv+0x144>
  405564:	ea4f 3303 	mov.w	r3, r3, lsl #12
  405568:	f04f 5580 	mov.w	r5, #268435456	; 0x10000000
  40556c:	ea45 1313 	orr.w	r3, r5, r3, lsr #4
  405570:	ea43 6312 	orr.w	r3, r3, r2, lsr #24
  405574:	ea4f 2202 	mov.w	r2, r2, lsl #8
  405578:	ea45 1511 	orr.w	r5, r5, r1, lsr #4
  40557c:	ea45 6510 	orr.w	r5, r5, r0, lsr #24
  405580:	ea4f 2600 	mov.w	r6, r0, lsl #8
  405584:	f00e 4100 	and.w	r1, lr, #2147483648	; 0x80000000
  405588:	429d      	cmp	r5, r3
  40558a:	bf08      	it	eq
  40558c:	4296      	cmpeq	r6, r2
  40558e:	f144 04fd 	adc.w	r4, r4, #253	; 0xfd
  405592:	f504 7440 	add.w	r4, r4, #768	; 0x300
  405596:	d202      	bcs.n	40559e <__aeabi_ddiv+0x6e>
  405598:	085b      	lsrs	r3, r3, #1
  40559a:	ea4f 0232 	mov.w	r2, r2, rrx
  40559e:	1ab6      	subs	r6, r6, r2
  4055a0:	eb65 0503 	sbc.w	r5, r5, r3
  4055a4:	085b      	lsrs	r3, r3, #1
  4055a6:	ea4f 0232 	mov.w	r2, r2, rrx
  4055aa:	f44f 1080 	mov.w	r0, #1048576	; 0x100000
  4055ae:	f44f 2c00 	mov.w	ip, #524288	; 0x80000
  4055b2:	ebb6 0e02 	subs.w	lr, r6, r2
  4055b6:	eb75 0e03 	sbcs.w	lr, r5, r3
  4055ba:	bf22      	ittt	cs
  4055bc:	1ab6      	subcs	r6, r6, r2
  4055be:	4675      	movcs	r5, lr
  4055c0:	ea40 000c 	orrcs.w	r0, r0, ip
  4055c4:	085b      	lsrs	r3, r3, #1
  4055c6:	ea4f 0232 	mov.w	r2, r2, rrx
  4055ca:	ebb6 0e02 	subs.w	lr, r6, r2
  4055ce:	eb75 0e03 	sbcs.w	lr, r5, r3
  4055d2:	bf22      	ittt	cs
  4055d4:	1ab6      	subcs	r6, r6, r2
  4055d6:	4675      	movcs	r5, lr
  4055d8:	ea40 005c 	orrcs.w	r0, r0, ip, lsr #1
  4055dc:	085b      	lsrs	r3, r3, #1
  4055de:	ea4f 0232 	mov.w	r2, r2, rrx
  4055e2:	ebb6 0e02 	subs.w	lr, r6, r2
  4055e6:	eb75 0e03 	sbcs.w	lr, r5, r3
  4055ea:	bf22      	ittt	cs
  4055ec:	1ab6      	subcs	r6, r6, r2
  4055ee:	4675      	movcs	r5, lr
  4055f0:	ea40 009c 	orrcs.w	r0, r0, ip, lsr #2
  4055f4:	085b      	lsrs	r3, r3, #1
  4055f6:	ea4f 0232 	mov.w	r2, r2, rrx
  4055fa:	ebb6 0e02 	subs.w	lr, r6, r2
  4055fe:	eb75 0e03 	sbcs.w	lr, r5, r3
  405602:	bf22      	ittt	cs
  405604:	1ab6      	subcs	r6, r6, r2
  405606:	4675      	movcs	r5, lr
  405608:	ea40 00dc 	orrcs.w	r0, r0, ip, lsr #3
  40560c:	ea55 0e06 	orrs.w	lr, r5, r6
  405610:	d018      	beq.n	405644 <__aeabi_ddiv+0x114>
  405612:	ea4f 1505 	mov.w	r5, r5, lsl #4
  405616:	ea45 7516 	orr.w	r5, r5, r6, lsr #28
  40561a:	ea4f 1606 	mov.w	r6, r6, lsl #4
  40561e:	ea4f 03c3 	mov.w	r3, r3, lsl #3
  405622:	ea43 7352 	orr.w	r3, r3, r2, lsr #29
  405626:	ea4f 02c2 	mov.w	r2, r2, lsl #3
  40562a:	ea5f 1c1c 	movs.w	ip, ip, lsr #4
  40562e:	d1c0      	bne.n	4055b2 <__aeabi_ddiv+0x82>
  405630:	f411 1f80 	tst.w	r1, #1048576	; 0x100000
  405634:	d10b      	bne.n	40564e <__aeabi_ddiv+0x11e>
  405636:	ea41 0100 	orr.w	r1, r1, r0
  40563a:	f04f 0000 	mov.w	r0, #0
  40563e:	f04f 4c00 	mov.w	ip, #2147483648	; 0x80000000
  405642:	e7b6      	b.n	4055b2 <__aeabi_ddiv+0x82>
  405644:	f411 1f80 	tst.w	r1, #1048576	; 0x100000
  405648:	bf04      	itt	eq
  40564a:	4301      	orreq	r1, r0
  40564c:	2000      	moveq	r0, #0
  40564e:	f1b4 0cfd 	subs.w	ip, r4, #253	; 0xfd
  405652:	bf88      	it	hi
  405654:	f5bc 6fe0 	cmphi.w	ip, #1792	; 0x700
  405658:	f63f aeaf 	bhi.w	4053ba <__aeabi_dmul+0xde>
  40565c:	ebb5 0c03 	subs.w	ip, r5, r3
  405660:	bf04      	itt	eq
  405662:	ebb6 0c02 	subseq.w	ip, r6, r2
  405666:	ea5f 0c50 	movseq.w	ip, r0, lsr #1
  40566a:	f150 0000 	adcs.w	r0, r0, #0
  40566e:	eb41 5104 	adc.w	r1, r1, r4, lsl #20
  405672:	bd70      	pop	{r4, r5, r6, pc}
  405674:	f00e 4e00 	and.w	lr, lr, #2147483648	; 0x80000000
  405678:	ea4e 3111 	orr.w	r1, lr, r1, lsr #12
  40567c:	eb14 045c 	adds.w	r4, r4, ip, lsr #1
  405680:	bfc2      	ittt	gt
  405682:	ebd4 050c 	rsbsgt	r5, r4, ip
  405686:	ea41 5104 	orrgt.w	r1, r1, r4, lsl #20
  40568a:	bd70      	popgt	{r4, r5, r6, pc}
  40568c:	f441 1180 	orr.w	r1, r1, #1048576	; 0x100000
  405690:	f04f 0e00 	mov.w	lr, #0
  405694:	3c01      	subs	r4, #1
  405696:	e690      	b.n	4053ba <__aeabi_dmul+0xde>
  405698:	ea45 0e06 	orr.w	lr, r5, r6
  40569c:	e68d      	b.n	4053ba <__aeabi_dmul+0xde>
  40569e:	ea0c 5513 	and.w	r5, ip, r3, lsr #20
  4056a2:	ea94 0f0c 	teq	r4, ip
  4056a6:	bf08      	it	eq
  4056a8:	ea95 0f0c 	teqeq	r5, ip
  4056ac:	f43f af3b 	beq.w	405526 <__aeabi_dmul+0x24a>
  4056b0:	ea94 0f0c 	teq	r4, ip
  4056b4:	d10a      	bne.n	4056cc <__aeabi_ddiv+0x19c>
  4056b6:	ea50 3401 	orrs.w	r4, r0, r1, lsl #12
  4056ba:	f47f af34 	bne.w	405526 <__aeabi_dmul+0x24a>
  4056be:	ea95 0f0c 	teq	r5, ip
  4056c2:	f47f af25 	bne.w	405510 <__aeabi_dmul+0x234>
  4056c6:	4610      	mov	r0, r2
  4056c8:	4619      	mov	r1, r3
  4056ca:	e72c      	b.n	405526 <__aeabi_dmul+0x24a>
  4056cc:	ea95 0f0c 	teq	r5, ip
  4056d0:	d106      	bne.n	4056e0 <__aeabi_ddiv+0x1b0>
  4056d2:	ea52 3503 	orrs.w	r5, r2, r3, lsl #12
  4056d6:	f43f aefd 	beq.w	4054d4 <__aeabi_dmul+0x1f8>
  4056da:	4610      	mov	r0, r2
  4056dc:	4619      	mov	r1, r3
  4056de:	e722      	b.n	405526 <__aeabi_dmul+0x24a>
  4056e0:	ea50 0641 	orrs.w	r6, r0, r1, lsl #1
  4056e4:	bf18      	it	ne
  4056e6:	ea52 0643 	orrsne.w	r6, r2, r3, lsl #1
  4056ea:	f47f aec5 	bne.w	405478 <__aeabi_dmul+0x19c>
  4056ee:	ea50 0441 	orrs.w	r4, r0, r1, lsl #1
  4056f2:	f47f af0d 	bne.w	405510 <__aeabi_dmul+0x234>
  4056f6:	ea52 0543 	orrs.w	r5, r2, r3, lsl #1
  4056fa:	f47f aeeb 	bne.w	4054d4 <__aeabi_dmul+0x1f8>
  4056fe:	e712      	b.n	405526 <__aeabi_dmul+0x24a>

00405700 <__aeabi_uldivmod>:
  405700:	b953      	cbnz	r3, 405718 <__aeabi_uldivmod+0x18>
  405702:	b94a      	cbnz	r2, 405718 <__aeabi_uldivmod+0x18>
  405704:	2900      	cmp	r1, #0
  405706:	bf08      	it	eq
  405708:	2800      	cmpeq	r0, #0
  40570a:	bf1c      	itt	ne
  40570c:	f04f 31ff 	movne.w	r1, #4294967295
  405710:	f04f 30ff 	movne.w	r0, #4294967295
  405714:	f000 b97a 	b.w	405a0c <__aeabi_idiv0>
  405718:	f1ad 0c08 	sub.w	ip, sp, #8
  40571c:	e96d ce04 	strd	ip, lr, [sp, #-16]!
  405720:	f000 f806 	bl	405730 <__udivmoddi4>
  405724:	f8dd e004 	ldr.w	lr, [sp, #4]
  405728:	e9dd 2302 	ldrd	r2, r3, [sp, #8]
  40572c:	b004      	add	sp, #16
  40572e:	4770      	bx	lr

00405730 <__udivmoddi4>:
  405730:	e92d 47f0 	stmdb	sp!, {r4, r5, r6, r7, r8, r9, sl, lr}
  405734:	468c      	mov	ip, r1
  405736:	460d      	mov	r5, r1
  405738:	4604      	mov	r4, r0
  40573a:	9e08      	ldr	r6, [sp, #32]
  40573c:	2b00      	cmp	r3, #0
  40573e:	d151      	bne.n	4057e4 <__udivmoddi4+0xb4>
  405740:	428a      	cmp	r2, r1
  405742:	4617      	mov	r7, r2
  405744:	d96d      	bls.n	405822 <__udivmoddi4+0xf2>
  405746:	fab2 fe82 	clz	lr, r2
  40574a:	f1be 0f00 	cmp.w	lr, #0
  40574e:	d00b      	beq.n	405768 <__udivmoddi4+0x38>
  405750:	f1ce 0c20 	rsb	ip, lr, #32
  405754:	fa01 f50e 	lsl.w	r5, r1, lr
  405758:	fa20 fc0c 	lsr.w	ip, r0, ip
  40575c:	fa02 f70e 	lsl.w	r7, r2, lr
  405760:	ea4c 0c05 	orr.w	ip, ip, r5
  405764:	fa00 f40e 	lsl.w	r4, r0, lr
  405768:	ea4f 4a17 	mov.w	sl, r7, lsr #16
  40576c:	0c25      	lsrs	r5, r4, #16
  40576e:	fbbc f8fa 	udiv	r8, ip, sl
  405772:	fa1f f987 	uxth.w	r9, r7
  405776:	fb0a cc18 	mls	ip, sl, r8, ip
  40577a:	ea45 450c 	orr.w	r5, r5, ip, lsl #16
  40577e:	fb08 f309 	mul.w	r3, r8, r9
  405782:	42ab      	cmp	r3, r5
  405784:	d90a      	bls.n	40579c <__udivmoddi4+0x6c>
  405786:	19ed      	adds	r5, r5, r7
  405788:	f108 32ff 	add.w	r2, r8, #4294967295
  40578c:	f080 8123 	bcs.w	4059d6 <__udivmoddi4+0x2a6>
  405790:	42ab      	cmp	r3, r5
  405792:	f240 8120 	bls.w	4059d6 <__udivmoddi4+0x2a6>
  405796:	f1a8 0802 	sub.w	r8, r8, #2
  40579a:	443d      	add	r5, r7
  40579c:	1aed      	subs	r5, r5, r3
  40579e:	b2a4      	uxth	r4, r4
  4057a0:	fbb5 f0fa 	udiv	r0, r5, sl
  4057a4:	fb0a 5510 	mls	r5, sl, r0, r5
  4057a8:	ea44 4405 	orr.w	r4, r4, r5, lsl #16
  4057ac:	fb00 f909 	mul.w	r9, r0, r9
  4057b0:	45a1      	cmp	r9, r4
  4057b2:	d909      	bls.n	4057c8 <__udivmoddi4+0x98>
  4057b4:	19e4      	adds	r4, r4, r7
  4057b6:	f100 33ff 	add.w	r3, r0, #4294967295
  4057ba:	f080 810a 	bcs.w	4059d2 <__udivmoddi4+0x2a2>
  4057be:	45a1      	cmp	r9, r4
  4057c0:	f240 8107 	bls.w	4059d2 <__udivmoddi4+0x2a2>
  4057c4:	3802      	subs	r0, #2
  4057c6:	443c      	add	r4, r7
  4057c8:	eba4 0409 	sub.w	r4, r4, r9
  4057cc:	ea40 4008 	orr.w	r0, r0, r8, lsl #16
  4057d0:	2100      	movs	r1, #0
  4057d2:	2e00      	cmp	r6, #0
  4057d4:	d061      	beq.n	40589a <__udivmoddi4+0x16a>
  4057d6:	fa24 f40e 	lsr.w	r4, r4, lr
  4057da:	2300      	movs	r3, #0
  4057dc:	6034      	str	r4, [r6, #0]
  4057de:	6073      	str	r3, [r6, #4]
  4057e0:	e8bd 87f0 	ldmia.w	sp!, {r4, r5, r6, r7, r8, r9, sl, pc}
  4057e4:	428b      	cmp	r3, r1
  4057e6:	d907      	bls.n	4057f8 <__udivmoddi4+0xc8>
  4057e8:	2e00      	cmp	r6, #0
  4057ea:	d054      	beq.n	405896 <__udivmoddi4+0x166>
  4057ec:	2100      	movs	r1, #0
  4057ee:	e886 0021 	stmia.w	r6, {r0, r5}
  4057f2:	4608      	mov	r0, r1
  4057f4:	e8bd 87f0 	ldmia.w	sp!, {r4, r5, r6, r7, r8, r9, sl, pc}
  4057f8:	fab3 f183 	clz	r1, r3
  4057fc:	2900      	cmp	r1, #0
  4057fe:	f040 808e 	bne.w	40591e <__udivmoddi4+0x1ee>
  405802:	42ab      	cmp	r3, r5
  405804:	d302      	bcc.n	40580c <__udivmoddi4+0xdc>
  405806:	4282      	cmp	r2, r0
  405808:	f200 80fa 	bhi.w	405a00 <__udivmoddi4+0x2d0>
  40580c:	1a84      	subs	r4, r0, r2
  40580e:	eb65 0503 	sbc.w	r5, r5, r3
  405812:	2001      	movs	r0, #1
  405814:	46ac      	mov	ip, r5
  405816:	2e00      	cmp	r6, #0
  405818:	d03f      	beq.n	40589a <__udivmoddi4+0x16a>
  40581a:	e886 1010 	stmia.w	r6, {r4, ip}
  40581e:	e8bd 87f0 	ldmia.w	sp!, {r4, r5, r6, r7, r8, r9, sl, pc}
  405822:	b912      	cbnz	r2, 40582a <__udivmoddi4+0xfa>
  405824:	2701      	movs	r7, #1
  405826:	fbb7 f7f2 	udiv	r7, r7, r2
  40582a:	fab7 fe87 	clz	lr, r7
  40582e:	f1be 0f00 	cmp.w	lr, #0
  405832:	d134      	bne.n	40589e <__udivmoddi4+0x16e>
  405834:	1beb      	subs	r3, r5, r7
  405836:	0c3a      	lsrs	r2, r7, #16
  405838:	fa1f fc87 	uxth.w	ip, r7
  40583c:	2101      	movs	r1, #1
  40583e:	fbb3 f8f2 	udiv	r8, r3, r2
  405842:	0c25      	lsrs	r5, r4, #16
  405844:	fb02 3318 	mls	r3, r2, r8, r3
  405848:	ea45 4503 	orr.w	r5, r5, r3, lsl #16
  40584c:	fb0c f308 	mul.w	r3, ip, r8
  405850:	42ab      	cmp	r3, r5
  405852:	d907      	bls.n	405864 <__udivmoddi4+0x134>
  405854:	19ed      	adds	r5, r5, r7
  405856:	f108 30ff 	add.w	r0, r8, #4294967295
  40585a:	d202      	bcs.n	405862 <__udivmoddi4+0x132>
  40585c:	42ab      	cmp	r3, r5
  40585e:	f200 80d1 	bhi.w	405a04 <__udivmoddi4+0x2d4>
  405862:	4680      	mov	r8, r0
  405864:	1aed      	subs	r5, r5, r3
  405866:	b2a3      	uxth	r3, r4
  405868:	fbb5 f0f2 	udiv	r0, r5, r2
  40586c:	fb02 5510 	mls	r5, r2, r0, r5
  405870:	ea43 4405 	orr.w	r4, r3, r5, lsl #16
  405874:	fb0c fc00 	mul.w	ip, ip, r0
  405878:	45a4      	cmp	ip, r4
  40587a:	d907      	bls.n	40588c <__udivmoddi4+0x15c>
  40587c:	19e4      	adds	r4, r4, r7
  40587e:	f100 33ff 	add.w	r3, r0, #4294967295
  405882:	d202      	bcs.n	40588a <__udivmoddi4+0x15a>
  405884:	45a4      	cmp	ip, r4
  405886:	f200 80b8 	bhi.w	4059fa <__udivmoddi4+0x2ca>
  40588a:	4618      	mov	r0, r3
  40588c:	eba4 040c 	sub.w	r4, r4, ip
  405890:	ea40 4008 	orr.w	r0, r0, r8, lsl #16
  405894:	e79d      	b.n	4057d2 <__udivmoddi4+0xa2>
  405896:	4631      	mov	r1, r6
  405898:	4630      	mov	r0, r6
  40589a:	e8bd 87f0 	ldmia.w	sp!, {r4, r5, r6, r7, r8, r9, sl, pc}
  40589e:	f1ce 0420 	rsb	r4, lr, #32
  4058a2:	fa05 f30e 	lsl.w	r3, r5, lr
  4058a6:	fa07 f70e 	lsl.w	r7, r7, lr
  4058aa:	fa20 f804 	lsr.w	r8, r0, r4
  4058ae:	0c3a      	lsrs	r2, r7, #16
  4058b0:	fa25 f404 	lsr.w	r4, r5, r4
  4058b4:	ea48 0803 	orr.w	r8, r8, r3
  4058b8:	fbb4 f1f2 	udiv	r1, r4, r2
  4058bc:	ea4f 4518 	mov.w	r5, r8, lsr #16
  4058c0:	fb02 4411 	mls	r4, r2, r1, r4
  4058c4:	fa1f fc87 	uxth.w	ip, r7
  4058c8:	ea45 4504 	orr.w	r5, r5, r4, lsl #16
  4058cc:	fb01 f30c 	mul.w	r3, r1, ip
  4058d0:	42ab      	cmp	r3, r5
  4058d2:	fa00 f40e 	lsl.w	r4, r0, lr
  4058d6:	d909      	bls.n	4058ec <__udivmoddi4+0x1bc>
  4058d8:	19ed      	adds	r5, r5, r7
  4058da:	f101 30ff 	add.w	r0, r1, #4294967295
  4058de:	f080 808a 	bcs.w	4059f6 <__udivmoddi4+0x2c6>
  4058e2:	42ab      	cmp	r3, r5
  4058e4:	f240 8087 	bls.w	4059f6 <__udivmoddi4+0x2c6>
  4058e8:	3902      	subs	r1, #2
  4058ea:	443d      	add	r5, r7
  4058ec:	1aeb      	subs	r3, r5, r3
  4058ee:	fa1f f588 	uxth.w	r5, r8
  4058f2:	fbb3 f0f2 	udiv	r0, r3, r2
  4058f6:	fb02 3310 	mls	r3, r2, r0, r3
  4058fa:	ea45 4503 	orr.w	r5, r5, r3, lsl #16
  4058fe:	fb00 f30c 	mul.w	r3, r0, ip
  405902:	42ab      	cmp	r3, r5
  405904:	d907      	bls.n	405916 <__udivmoddi4+0x1e6>
  405906:	19ed      	adds	r5, r5, r7
  405908:	f100 38ff 	add.w	r8, r0, #4294967295
  40590c:	d26f      	bcs.n	4059ee <__udivmoddi4+0x2be>
  40590e:	42ab      	cmp	r3, r5
  405910:	d96d      	bls.n	4059ee <__udivmoddi4+0x2be>
  405912:	3802      	subs	r0, #2
  405914:	443d      	add	r5, r7
  405916:	1aeb      	subs	r3, r5, r3
  405918:	ea40 4101 	orr.w	r1, r0, r1, lsl #16
  40591c:	e78f      	b.n	40583e <__udivmoddi4+0x10e>
  40591e:	f1c1 0720 	rsb	r7, r1, #32
  405922:	fa22 f807 	lsr.w	r8, r2, r7
  405926:	408b      	lsls	r3, r1
  405928:	fa05 f401 	lsl.w	r4, r5, r1
  40592c:	ea48 0303 	orr.w	r3, r8, r3
  405930:	fa20 fe07 	lsr.w	lr, r0, r7
  405934:	ea4f 4c13 	mov.w	ip, r3, lsr #16
  405938:	40fd      	lsrs	r5, r7
  40593a:	ea4e 0e04 	orr.w	lr, lr, r4
  40593e:	fbb5 f9fc 	udiv	r9, r5, ip
  405942:	ea4f 441e 	mov.w	r4, lr, lsr #16
  405946:	fb0c 5519 	mls	r5, ip, r9, r5
  40594a:	fa1f f883 	uxth.w	r8, r3
  40594e:	ea44 4505 	orr.w	r5, r4, r5, lsl #16
  405952:	fb09 f408 	mul.w	r4, r9, r8
  405956:	42ac      	cmp	r4, r5
  405958:	fa02 f201 	lsl.w	r2, r2, r1
  40595c:	fa00 fa01 	lsl.w	sl, r0, r1
  405960:	d908      	bls.n	405974 <__udivmoddi4+0x244>
  405962:	18ed      	adds	r5, r5, r3
  405964:	f109 30ff 	add.w	r0, r9, #4294967295
  405968:	d243      	bcs.n	4059f2 <__udivmoddi4+0x2c2>
  40596a:	42ac      	cmp	r4, r5
  40596c:	d941      	bls.n	4059f2 <__udivmoddi4+0x2c2>
  40596e:	f1a9 0902 	sub.w	r9, r9, #2
  405972:	441d      	add	r5, r3
  405974:	1b2d      	subs	r5, r5, r4
  405976:	fa1f fe8e 	uxth.w	lr, lr
  40597a:	fbb5 f0fc 	udiv	r0, r5, ip
  40597e:	fb0c 5510 	mls	r5, ip, r0, r5
  405982:	ea4e 4405 	orr.w	r4, lr, r5, lsl #16
  405986:	fb00 f808 	mul.w	r8, r0, r8
  40598a:	45a0      	cmp	r8, r4
  40598c:	d907      	bls.n	40599e <__udivmoddi4+0x26e>
  40598e:	18e4      	adds	r4, r4, r3
  405990:	f100 35ff 	add.w	r5, r0, #4294967295
  405994:	d229      	bcs.n	4059ea <__udivmoddi4+0x2ba>
  405996:	45a0      	cmp	r8, r4
  405998:	d927      	bls.n	4059ea <__udivmoddi4+0x2ba>
  40599a:	3802      	subs	r0, #2
  40599c:	441c      	add	r4, r3
  40599e:	ea40 4009 	orr.w	r0, r0, r9, lsl #16
  4059a2:	eba4 0408 	sub.w	r4, r4, r8
  4059a6:	fba0 8902 	umull	r8, r9, r0, r2
  4059aa:	454c      	cmp	r4, r9
  4059ac:	46c6      	mov	lr, r8
  4059ae:	464d      	mov	r5, r9
  4059b0:	d315      	bcc.n	4059de <__udivmoddi4+0x2ae>
  4059b2:	d012      	beq.n	4059da <__udivmoddi4+0x2aa>
  4059b4:	b156      	cbz	r6, 4059cc <__udivmoddi4+0x29c>
  4059b6:	ebba 030e 	subs.w	r3, sl, lr
  4059ba:	eb64 0405 	sbc.w	r4, r4, r5
  4059be:	fa04 f707 	lsl.w	r7, r4, r7
  4059c2:	40cb      	lsrs	r3, r1
  4059c4:	431f      	orrs	r7, r3
  4059c6:	40cc      	lsrs	r4, r1
  4059c8:	6037      	str	r7, [r6, #0]
  4059ca:	6074      	str	r4, [r6, #4]
  4059cc:	2100      	movs	r1, #0
  4059ce:	e8bd 87f0 	ldmia.w	sp!, {r4, r5, r6, r7, r8, r9, sl, pc}
  4059d2:	4618      	mov	r0, r3
  4059d4:	e6f8      	b.n	4057c8 <__udivmoddi4+0x98>
  4059d6:	4690      	mov	r8, r2
  4059d8:	e6e0      	b.n	40579c <__udivmoddi4+0x6c>
  4059da:	45c2      	cmp	sl, r8
  4059dc:	d2ea      	bcs.n	4059b4 <__udivmoddi4+0x284>
  4059de:	ebb8 0e02 	subs.w	lr, r8, r2
  4059e2:	eb69 0503 	sbc.w	r5, r9, r3
  4059e6:	3801      	subs	r0, #1
  4059e8:	e7e4      	b.n	4059b4 <__udivmoddi4+0x284>
  4059ea:	4628      	mov	r0, r5
  4059ec:	e7d7      	b.n	40599e <__udivmoddi4+0x26e>
  4059ee:	4640      	mov	r0, r8
  4059f0:	e791      	b.n	405916 <__udivmoddi4+0x1e6>
  4059f2:	4681      	mov	r9, r0
  4059f4:	e7be      	b.n	405974 <__udivmoddi4+0x244>
  4059f6:	4601      	mov	r1, r0
  4059f8:	e778      	b.n	4058ec <__udivmoddi4+0x1bc>
  4059fa:	3802      	subs	r0, #2
  4059fc:	443c      	add	r4, r7
  4059fe:	e745      	b.n	40588c <__udivmoddi4+0x15c>
  405a00:	4608      	mov	r0, r1
  405a02:	e708      	b.n	405816 <__udivmoddi4+0xe6>
  405a04:	f1a8 0802 	sub.w	r8, r8, #2
  405a08:	443d      	add	r5, r7
  405a0a:	e72b      	b.n	405864 <__udivmoddi4+0x134>

00405a0c <__aeabi_idiv0>:
  405a0c:	4770      	bx	lr
  405a0e:	bf00      	nop

00405a10 <__libc_init_array>:
  405a10:	b570      	push	{r4, r5, r6, lr}
  405a12:	4e0f      	ldr	r6, [pc, #60]	; (405a50 <__libc_init_array+0x40>)
  405a14:	4d0f      	ldr	r5, [pc, #60]	; (405a54 <__libc_init_array+0x44>)
  405a16:	1b76      	subs	r6, r6, r5
  405a18:	10b6      	asrs	r6, r6, #2
  405a1a:	bf18      	it	ne
  405a1c:	2400      	movne	r4, #0
  405a1e:	d005      	beq.n	405a2c <__libc_init_array+0x1c>
  405a20:	3401      	adds	r4, #1
  405a22:	f855 3b04 	ldr.w	r3, [r5], #4
  405a26:	4798      	blx	r3
  405a28:	42a6      	cmp	r6, r4
  405a2a:	d1f9      	bne.n	405a20 <__libc_init_array+0x10>
  405a2c:	4e0a      	ldr	r6, [pc, #40]	; (405a58 <__libc_init_array+0x48>)
  405a2e:	4d0b      	ldr	r5, [pc, #44]	; (405a5c <__libc_init_array+0x4c>)
  405a30:	1b76      	subs	r6, r6, r5
  405a32:	f004 fe21 	bl	40a678 <_init>
  405a36:	10b6      	asrs	r6, r6, #2
  405a38:	bf18      	it	ne
  405a3a:	2400      	movne	r4, #0
  405a3c:	d006      	beq.n	405a4c <__libc_init_array+0x3c>
  405a3e:	3401      	adds	r4, #1
  405a40:	f855 3b04 	ldr.w	r3, [r5], #4
  405a44:	4798      	blx	r3
  405a46:	42a6      	cmp	r6, r4
  405a48:	d1f9      	bne.n	405a3e <__libc_init_array+0x2e>
  405a4a:	bd70      	pop	{r4, r5, r6, pc}
  405a4c:	bd70      	pop	{r4, r5, r6, pc}
  405a4e:	bf00      	nop
  405a50:	0040a684 	.word	0x0040a684
  405a54:	0040a684 	.word	0x0040a684
  405a58:	0040a68c 	.word	0x0040a68c
  405a5c:	0040a684 	.word	0x0040a684

00405a60 <memset>:
  405a60:	b470      	push	{r4, r5, r6}
  405a62:	0786      	lsls	r6, r0, #30
  405a64:	d046      	beq.n	405af4 <memset+0x94>
  405a66:	1e54      	subs	r4, r2, #1
  405a68:	2a00      	cmp	r2, #0
  405a6a:	d041      	beq.n	405af0 <memset+0x90>
  405a6c:	b2ca      	uxtb	r2, r1
  405a6e:	4603      	mov	r3, r0
  405a70:	e002      	b.n	405a78 <memset+0x18>
  405a72:	f114 34ff 	adds.w	r4, r4, #4294967295
  405a76:	d33b      	bcc.n	405af0 <memset+0x90>
  405a78:	f803 2b01 	strb.w	r2, [r3], #1
  405a7c:	079d      	lsls	r5, r3, #30
  405a7e:	d1f8      	bne.n	405a72 <memset+0x12>
  405a80:	2c03      	cmp	r4, #3
  405a82:	d92e      	bls.n	405ae2 <memset+0x82>
  405a84:	b2cd      	uxtb	r5, r1
  405a86:	ea45 2505 	orr.w	r5, r5, r5, lsl #8
  405a8a:	2c0f      	cmp	r4, #15
  405a8c:	ea45 4505 	orr.w	r5, r5, r5, lsl #16
  405a90:	d919      	bls.n	405ac6 <memset+0x66>
  405a92:	f103 0210 	add.w	r2, r3, #16
  405a96:	4626      	mov	r6, r4
  405a98:	3e10      	subs	r6, #16
  405a9a:	2e0f      	cmp	r6, #15
  405a9c:	f842 5c10 	str.w	r5, [r2, #-16]
  405aa0:	f842 5c0c 	str.w	r5, [r2, #-12]
  405aa4:	f842 5c08 	str.w	r5, [r2, #-8]
  405aa8:	f842 5c04 	str.w	r5, [r2, #-4]
  405aac:	f102 0210 	add.w	r2, r2, #16
  405ab0:	d8f2      	bhi.n	405a98 <memset+0x38>
  405ab2:	f1a4 0210 	sub.w	r2, r4, #16
  405ab6:	f022 020f 	bic.w	r2, r2, #15
  405aba:	f004 040f 	and.w	r4, r4, #15
  405abe:	3210      	adds	r2, #16
  405ac0:	2c03      	cmp	r4, #3
  405ac2:	4413      	add	r3, r2
  405ac4:	d90d      	bls.n	405ae2 <memset+0x82>
  405ac6:	461e      	mov	r6, r3
  405ac8:	4622      	mov	r2, r4
  405aca:	3a04      	subs	r2, #4
  405acc:	2a03      	cmp	r2, #3
  405ace:	f846 5b04 	str.w	r5, [r6], #4
  405ad2:	d8fa      	bhi.n	405aca <memset+0x6a>
  405ad4:	1f22      	subs	r2, r4, #4
  405ad6:	f022 0203 	bic.w	r2, r2, #3
  405ada:	3204      	adds	r2, #4
  405adc:	4413      	add	r3, r2
  405ade:	f004 0403 	and.w	r4, r4, #3
  405ae2:	b12c      	cbz	r4, 405af0 <memset+0x90>
  405ae4:	b2c9      	uxtb	r1, r1
  405ae6:	441c      	add	r4, r3
  405ae8:	f803 1b01 	strb.w	r1, [r3], #1
  405aec:	429c      	cmp	r4, r3
  405aee:	d1fb      	bne.n	405ae8 <memset+0x88>
  405af0:	bc70      	pop	{r4, r5, r6}
  405af2:	4770      	bx	lr
  405af4:	4614      	mov	r4, r2
  405af6:	4603      	mov	r3, r0
  405af8:	e7c2      	b.n	405a80 <memset+0x20>
  405afa:	bf00      	nop

00405afc <sprintf>:
  405afc:	b40e      	push	{r1, r2, r3}
  405afe:	b5f0      	push	{r4, r5, r6, r7, lr}
  405b00:	b09c      	sub	sp, #112	; 0x70
  405b02:	ab21      	add	r3, sp, #132	; 0x84
  405b04:	490f      	ldr	r1, [pc, #60]	; (405b44 <sprintf+0x48>)
  405b06:	f853 2b04 	ldr.w	r2, [r3], #4
  405b0a:	9301      	str	r3, [sp, #4]
  405b0c:	4605      	mov	r5, r0
  405b0e:	f06f 4400 	mvn.w	r4, #2147483648	; 0x80000000
  405b12:	6808      	ldr	r0, [r1, #0]
  405b14:	9502      	str	r5, [sp, #8]
  405b16:	f44f 7702 	mov.w	r7, #520	; 0x208
  405b1a:	f64f 76ff 	movw	r6, #65535	; 0xffff
  405b1e:	a902      	add	r1, sp, #8
  405b20:	9506      	str	r5, [sp, #24]
  405b22:	f8ad 7014 	strh.w	r7, [sp, #20]
  405b26:	9404      	str	r4, [sp, #16]
  405b28:	9407      	str	r4, [sp, #28]
  405b2a:	f8ad 6016 	strh.w	r6, [sp, #22]
  405b2e:	f000 fa55 	bl	405fdc <_svfprintf_r>
  405b32:	9b02      	ldr	r3, [sp, #8]
  405b34:	2200      	movs	r2, #0
  405b36:	701a      	strb	r2, [r3, #0]
  405b38:	b01c      	add	sp, #112	; 0x70
  405b3a:	e8bd 40f0 	ldmia.w	sp!, {r4, r5, r6, r7, lr}
  405b3e:	b003      	add	sp, #12
  405b40:	4770      	bx	lr
  405b42:	bf00      	nop
  405b44:	20000448 	.word	0x20000448
	...
  405b60:	eba2 0003 	sub.w	r0, r2, r3
  405b64:	4770      	bx	lr
  405b66:	bf00      	nop

00405b68 <strcmp>:
  405b68:	7802      	ldrb	r2, [r0, #0]
  405b6a:	780b      	ldrb	r3, [r1, #0]
  405b6c:	2a01      	cmp	r2, #1
  405b6e:	bf28      	it	cs
  405b70:	429a      	cmpcs	r2, r3
  405b72:	d1f5      	bne.n	405b60 <sprintf+0x64>
  405b74:	e96d 4504 	strd	r4, r5, [sp, #-16]!
  405b78:	ea40 0401 	orr.w	r4, r0, r1
  405b7c:	e9cd 6702 	strd	r6, r7, [sp, #8]
  405b80:	f06f 0c00 	mvn.w	ip, #0
  405b84:	ea4f 7244 	mov.w	r2, r4, lsl #29
  405b88:	b312      	cbz	r2, 405bd0 <strcmp+0x68>
  405b8a:	ea80 0401 	eor.w	r4, r0, r1
  405b8e:	f014 0f07 	tst.w	r4, #7
  405b92:	d16a      	bne.n	405c6a <strcmp+0x102>
  405b94:	f000 0407 	and.w	r4, r0, #7
  405b98:	f020 0007 	bic.w	r0, r0, #7
  405b9c:	f004 0503 	and.w	r5, r4, #3
  405ba0:	f021 0107 	bic.w	r1, r1, #7
  405ba4:	ea4f 05c5 	mov.w	r5, r5, lsl #3
  405ba8:	e8f0 2304 	ldrd	r2, r3, [r0], #16
  405bac:	f014 0f04 	tst.w	r4, #4
  405bb0:	e8f1 6704 	ldrd	r6, r7, [r1], #16
  405bb4:	fa0c f405 	lsl.w	r4, ip, r5
  405bb8:	ea62 0204 	orn	r2, r2, r4
  405bbc:	ea66 0604 	orn	r6, r6, r4
  405bc0:	d00a      	beq.n	405bd8 <strcmp+0x70>
  405bc2:	ea63 0304 	orn	r3, r3, r4
  405bc6:	4662      	mov	r2, ip
  405bc8:	ea67 0704 	orn	r7, r7, r4
  405bcc:	4666      	mov	r6, ip
  405bce:	e003      	b.n	405bd8 <strcmp+0x70>
  405bd0:	e8f0 2304 	ldrd	r2, r3, [r0], #16
  405bd4:	e8f1 6704 	ldrd	r6, r7, [r1], #16
  405bd8:	fa82 f54c 	uadd8	r5, r2, ip
  405bdc:	ea82 0406 	eor.w	r4, r2, r6
  405be0:	faa4 f48c 	sel	r4, r4, ip
  405be4:	bb6c      	cbnz	r4, 405c42 <strcmp+0xda>
  405be6:	fa83 f54c 	uadd8	r5, r3, ip
  405bea:	ea83 0507 	eor.w	r5, r3, r7
  405bee:	faa5 f58c 	sel	r5, r5, ip
  405bf2:	b995      	cbnz	r5, 405c1a <strcmp+0xb2>
  405bf4:	e950 2302 	ldrd	r2, r3, [r0, #-8]
  405bf8:	e951 6702 	ldrd	r6, r7, [r1, #-8]
  405bfc:	fa82 f54c 	uadd8	r5, r2, ip
  405c00:	ea82 0406 	eor.w	r4, r2, r6
  405c04:	faa4 f48c 	sel	r4, r4, ip
  405c08:	fa83 f54c 	uadd8	r5, r3, ip
  405c0c:	ea83 0507 	eor.w	r5, r3, r7
  405c10:	faa5 f58c 	sel	r5, r5, ip
  405c14:	4325      	orrs	r5, r4
  405c16:	d0db      	beq.n	405bd0 <strcmp+0x68>
  405c18:	b99c      	cbnz	r4, 405c42 <strcmp+0xda>
  405c1a:	ba2d      	rev	r5, r5
  405c1c:	fab5 f485 	clz	r4, r5
  405c20:	f024 0407 	bic.w	r4, r4, #7
  405c24:	fa27 f104 	lsr.w	r1, r7, r4
  405c28:	e9dd 6702 	ldrd	r6, r7, [sp, #8]
  405c2c:	fa23 f304 	lsr.w	r3, r3, r4
  405c30:	f003 00ff 	and.w	r0, r3, #255	; 0xff
  405c34:	f001 01ff 	and.w	r1, r1, #255	; 0xff
  405c38:	e8fd 4504 	ldrd	r4, r5, [sp], #16
  405c3c:	eba0 0001 	sub.w	r0, r0, r1
  405c40:	4770      	bx	lr
  405c42:	ba24      	rev	r4, r4
  405c44:	fab4 f484 	clz	r4, r4
  405c48:	f024 0407 	bic.w	r4, r4, #7
  405c4c:	fa26 f104 	lsr.w	r1, r6, r4
  405c50:	e9dd 6702 	ldrd	r6, r7, [sp, #8]
  405c54:	fa22 f204 	lsr.w	r2, r2, r4
  405c58:	f002 00ff 	and.w	r0, r2, #255	; 0xff
  405c5c:	f001 01ff 	and.w	r1, r1, #255	; 0xff
  405c60:	e8fd 4504 	ldrd	r4, r5, [sp], #16
  405c64:	eba0 0001 	sub.w	r0, r0, r1
  405c68:	4770      	bx	lr
  405c6a:	f014 0f03 	tst.w	r4, #3
  405c6e:	d13c      	bne.n	405cea <strcmp+0x182>
  405c70:	f010 0403 	ands.w	r4, r0, #3
  405c74:	d128      	bne.n	405cc8 <strcmp+0x160>
  405c76:	f850 2b08 	ldr.w	r2, [r0], #8
  405c7a:	f851 3b08 	ldr.w	r3, [r1], #8
  405c7e:	fa82 f54c 	uadd8	r5, r2, ip
  405c82:	ea82 0503 	eor.w	r5, r2, r3
  405c86:	faa5 f58c 	sel	r5, r5, ip
  405c8a:	b95d      	cbnz	r5, 405ca4 <strcmp+0x13c>
  405c8c:	f850 2c04 	ldr.w	r2, [r0, #-4]
  405c90:	f851 3c04 	ldr.w	r3, [r1, #-4]
  405c94:	fa82 f54c 	uadd8	r5, r2, ip
  405c98:	ea82 0503 	eor.w	r5, r2, r3
  405c9c:	faa5 f58c 	sel	r5, r5, ip
  405ca0:	2d00      	cmp	r5, #0
  405ca2:	d0e8      	beq.n	405c76 <strcmp+0x10e>
  405ca4:	ba2d      	rev	r5, r5
  405ca6:	fab5 f485 	clz	r4, r5
  405caa:	f024 0407 	bic.w	r4, r4, #7
  405cae:	fa23 f104 	lsr.w	r1, r3, r4
  405cb2:	fa22 f204 	lsr.w	r2, r2, r4
  405cb6:	f002 00ff 	and.w	r0, r2, #255	; 0xff
  405cba:	f001 01ff 	and.w	r1, r1, #255	; 0xff
  405cbe:	e8fd 4504 	ldrd	r4, r5, [sp], #16
  405cc2:	eba0 0001 	sub.w	r0, r0, r1
  405cc6:	4770      	bx	lr
  405cc8:	ea4f 04c4 	mov.w	r4, r4, lsl #3
  405ccc:	f020 0003 	bic.w	r0, r0, #3
  405cd0:	f850 2b08 	ldr.w	r2, [r0], #8
  405cd4:	f021 0103 	bic.w	r1, r1, #3
  405cd8:	f851 3b08 	ldr.w	r3, [r1], #8
  405cdc:	fa0c f404 	lsl.w	r4, ip, r4
  405ce0:	ea62 0204 	orn	r2, r2, r4
  405ce4:	ea63 0304 	orn	r3, r3, r4
  405ce8:	e7c9      	b.n	405c7e <strcmp+0x116>
  405cea:	f010 0403 	ands.w	r4, r0, #3
  405cee:	d01a      	beq.n	405d26 <strcmp+0x1be>
  405cf0:	eba1 0104 	sub.w	r1, r1, r4
  405cf4:	f020 0003 	bic.w	r0, r0, #3
  405cf8:	07e4      	lsls	r4, r4, #31
  405cfa:	f850 2b04 	ldr.w	r2, [r0], #4
  405cfe:	d006      	beq.n	405d0e <strcmp+0x1a6>
  405d00:	d20f      	bcs.n	405d22 <strcmp+0x1ba>
  405d02:	788b      	ldrb	r3, [r1, #2]
  405d04:	fa5f f4a2 	uxtb.w	r4, r2, ror #16
  405d08:	1ae4      	subs	r4, r4, r3
  405d0a:	d106      	bne.n	405d1a <strcmp+0x1b2>
  405d0c:	b12b      	cbz	r3, 405d1a <strcmp+0x1b2>
  405d0e:	78cb      	ldrb	r3, [r1, #3]
  405d10:	fa5f f4b2 	uxtb.w	r4, r2, ror #24
  405d14:	1ae4      	subs	r4, r4, r3
  405d16:	d100      	bne.n	405d1a <strcmp+0x1b2>
  405d18:	b91b      	cbnz	r3, 405d22 <strcmp+0x1ba>
  405d1a:	4620      	mov	r0, r4
  405d1c:	f85d 4b10 	ldr.w	r4, [sp], #16
  405d20:	4770      	bx	lr
  405d22:	f101 0104 	add.w	r1, r1, #4
  405d26:	f850 2b04 	ldr.w	r2, [r0], #4
  405d2a:	07cc      	lsls	r4, r1, #31
  405d2c:	f021 0103 	bic.w	r1, r1, #3
  405d30:	f851 3b04 	ldr.w	r3, [r1], #4
  405d34:	d848      	bhi.n	405dc8 <strcmp+0x260>
  405d36:	d224      	bcs.n	405d82 <strcmp+0x21a>
  405d38:	f022 447f 	bic.w	r4, r2, #4278190080	; 0xff000000
  405d3c:	fa82 f54c 	uadd8	r5, r2, ip
  405d40:	ea94 2513 	eors.w	r5, r4, r3, lsr #8
  405d44:	faa5 f58c 	sel	r5, r5, ip
  405d48:	d10a      	bne.n	405d60 <strcmp+0x1f8>
  405d4a:	b965      	cbnz	r5, 405d66 <strcmp+0x1fe>
  405d4c:	f851 3b04 	ldr.w	r3, [r1], #4
  405d50:	ea84 0402 	eor.w	r4, r4, r2
  405d54:	ebb4 6f03 	cmp.w	r4, r3, lsl #24
  405d58:	d10e      	bne.n	405d78 <strcmp+0x210>
  405d5a:	f850 2b04 	ldr.w	r2, [r0], #4
  405d5e:	e7eb      	b.n	405d38 <strcmp+0x1d0>
  405d60:	ea4f 2313 	mov.w	r3, r3, lsr #8
  405d64:	e055      	b.n	405e12 <strcmp+0x2aa>
  405d66:	f035 457f 	bics.w	r5, r5, #4278190080	; 0xff000000
  405d6a:	d14d      	bne.n	405e08 <strcmp+0x2a0>
  405d6c:	7808      	ldrb	r0, [r1, #0]
  405d6e:	e8fd 4504 	ldrd	r4, r5, [sp], #16
  405d72:	f1c0 0000 	rsb	r0, r0, #0
  405d76:	4770      	bx	lr
  405d78:	ea4f 6212 	mov.w	r2, r2, lsr #24
  405d7c:	f003 03ff 	and.w	r3, r3, #255	; 0xff
  405d80:	e047      	b.n	405e12 <strcmp+0x2aa>
  405d82:	ea02 441c 	and.w	r4, r2, ip, lsr #16
  405d86:	fa82 f54c 	uadd8	r5, r2, ip
  405d8a:	ea94 4513 	eors.w	r5, r4, r3, lsr #16
  405d8e:	faa5 f58c 	sel	r5, r5, ip
  405d92:	d10a      	bne.n	405daa <strcmp+0x242>
  405d94:	b965      	cbnz	r5, 405db0 <strcmp+0x248>
  405d96:	f851 3b04 	ldr.w	r3, [r1], #4
  405d9a:	ea84 0402 	eor.w	r4, r4, r2
  405d9e:	ebb4 4f03 	cmp.w	r4, r3, lsl #16
  405da2:	d10c      	bne.n	405dbe <strcmp+0x256>
  405da4:	f850 2b04 	ldr.w	r2, [r0], #4
  405da8:	e7eb      	b.n	405d82 <strcmp+0x21a>
  405daa:	ea4f 4313 	mov.w	r3, r3, lsr #16
  405dae:	e030      	b.n	405e12 <strcmp+0x2aa>
  405db0:	ea15 451c 	ands.w	r5, r5, ip, lsr #16
  405db4:	d128      	bne.n	405e08 <strcmp+0x2a0>
  405db6:	880b      	ldrh	r3, [r1, #0]
  405db8:	ea4f 4212 	mov.w	r2, r2, lsr #16
  405dbc:	e029      	b.n	405e12 <strcmp+0x2aa>
  405dbe:	ea4f 4212 	mov.w	r2, r2, lsr #16
  405dc2:	ea03 431c 	and.w	r3, r3, ip, lsr #16
  405dc6:	e024      	b.n	405e12 <strcmp+0x2aa>
  405dc8:	f002 04ff 	and.w	r4, r2, #255	; 0xff
  405dcc:	fa82 f54c 	uadd8	r5, r2, ip
  405dd0:	ea94 6513 	eors.w	r5, r4, r3, lsr #24
  405dd4:	faa5 f58c 	sel	r5, r5, ip
  405dd8:	d10a      	bne.n	405df0 <strcmp+0x288>
  405dda:	b965      	cbnz	r5, 405df6 <strcmp+0x28e>
  405ddc:	f851 3b04 	ldr.w	r3, [r1], #4
  405de0:	ea84 0402 	eor.w	r4, r4, r2
  405de4:	ebb4 2f03 	cmp.w	r4, r3, lsl #8
  405de8:	d109      	bne.n	405dfe <strcmp+0x296>
  405dea:	f850 2b04 	ldr.w	r2, [r0], #4
  405dee:	e7eb      	b.n	405dc8 <strcmp+0x260>
  405df0:	ea4f 6313 	mov.w	r3, r3, lsr #24
  405df4:	e00d      	b.n	405e12 <strcmp+0x2aa>
  405df6:	f015 0fff 	tst.w	r5, #255	; 0xff
  405dfa:	d105      	bne.n	405e08 <strcmp+0x2a0>
  405dfc:	680b      	ldr	r3, [r1, #0]
  405dfe:	ea4f 2212 	mov.w	r2, r2, lsr #8
  405e02:	f023 437f 	bic.w	r3, r3, #4278190080	; 0xff000000
  405e06:	e004      	b.n	405e12 <strcmp+0x2aa>
  405e08:	f04f 0000 	mov.w	r0, #0
  405e0c:	e8fd 4504 	ldrd	r4, r5, [sp], #16
  405e10:	4770      	bx	lr
  405e12:	ba12      	rev	r2, r2
  405e14:	ba1b      	rev	r3, r3
  405e16:	fa82 f44c 	uadd8	r4, r2, ip
  405e1a:	ea82 0403 	eor.w	r4, r2, r3
  405e1e:	faa4 f58c 	sel	r5, r4, ip
  405e22:	fab5 f485 	clz	r4, r5
  405e26:	fa02 f204 	lsl.w	r2, r2, r4
  405e2a:	fa03 f304 	lsl.w	r3, r3, r4
  405e2e:	ea4f 6012 	mov.w	r0, r2, lsr #24
  405e32:	e8fd 4504 	ldrd	r4, r5, [sp], #16
  405e36:	eba0 6013 	sub.w	r0, r0, r3, lsr #24
  405e3a:	4770      	bx	lr

00405e3c <strcpy>:
  405e3c:	ea80 0201 	eor.w	r2, r0, r1
  405e40:	4684      	mov	ip, r0
  405e42:	f012 0f03 	tst.w	r2, #3
  405e46:	d14f      	bne.n	405ee8 <strcpy+0xac>
  405e48:	f011 0f03 	tst.w	r1, #3
  405e4c:	d132      	bne.n	405eb4 <strcpy+0x78>
  405e4e:	f84d 4d04 	str.w	r4, [sp, #-4]!
  405e52:	f011 0f04 	tst.w	r1, #4
  405e56:	f851 3b04 	ldr.w	r3, [r1], #4
  405e5a:	d00b      	beq.n	405e74 <strcpy+0x38>
  405e5c:	f1a3 3201 	sub.w	r2, r3, #16843009	; 0x1010101
  405e60:	439a      	bics	r2, r3
  405e62:	f012 3f80 	tst.w	r2, #2155905152	; 0x80808080
  405e66:	bf04      	itt	eq
  405e68:	f84c 3b04 	streq.w	r3, [ip], #4
  405e6c:	f851 3b04 	ldreq.w	r3, [r1], #4
  405e70:	d116      	bne.n	405ea0 <strcpy+0x64>
  405e72:	bf00      	nop
  405e74:	f851 4b04 	ldr.w	r4, [r1], #4
  405e78:	f1a3 3201 	sub.w	r2, r3, #16843009	; 0x1010101
  405e7c:	439a      	bics	r2, r3
  405e7e:	f012 3f80 	tst.w	r2, #2155905152	; 0x80808080
  405e82:	f1a4 3201 	sub.w	r2, r4, #16843009	; 0x1010101
  405e86:	d10b      	bne.n	405ea0 <strcpy+0x64>
  405e88:	f84c 3b04 	str.w	r3, [ip], #4
  405e8c:	43a2      	bics	r2, r4
  405e8e:	f012 3f80 	tst.w	r2, #2155905152	; 0x80808080
  405e92:	bf04      	itt	eq
  405e94:	f851 3b04 	ldreq.w	r3, [r1], #4
  405e98:	f84c 4b04 	streq.w	r4, [ip], #4
  405e9c:	d0ea      	beq.n	405e74 <strcpy+0x38>
  405e9e:	4623      	mov	r3, r4
  405ea0:	f80c 3b01 	strb.w	r3, [ip], #1
  405ea4:	f013 0fff 	tst.w	r3, #255	; 0xff
  405ea8:	ea4f 2333 	mov.w	r3, r3, ror #8
  405eac:	d1f8      	bne.n	405ea0 <strcpy+0x64>
  405eae:	f85d 4b04 	ldr.w	r4, [sp], #4
  405eb2:	4770      	bx	lr
  405eb4:	f011 0f01 	tst.w	r1, #1
  405eb8:	d006      	beq.n	405ec8 <strcpy+0x8c>
  405eba:	f811 2b01 	ldrb.w	r2, [r1], #1
  405ebe:	f80c 2b01 	strb.w	r2, [ip], #1
  405ec2:	2a00      	cmp	r2, #0
  405ec4:	bf08      	it	eq
  405ec6:	4770      	bxeq	lr
  405ec8:	f011 0f02 	tst.w	r1, #2
  405ecc:	d0bf      	beq.n	405e4e <strcpy+0x12>
  405ece:	f831 2b02 	ldrh.w	r2, [r1], #2
  405ed2:	f012 0fff 	tst.w	r2, #255	; 0xff
  405ed6:	bf16      	itet	ne
  405ed8:	f82c 2b02 	strhne.w	r2, [ip], #2
  405edc:	f88c 2000 	strbeq.w	r2, [ip]
  405ee0:	f412 4f7f 	tstne.w	r2, #65280	; 0xff00
  405ee4:	d1b3      	bne.n	405e4e <strcpy+0x12>
  405ee6:	4770      	bx	lr
  405ee8:	f811 2b01 	ldrb.w	r2, [r1], #1
  405eec:	f80c 2b01 	strb.w	r2, [ip], #1
  405ef0:	2a00      	cmp	r2, #0
  405ef2:	d1f9      	bne.n	405ee8 <strcpy+0xac>
  405ef4:	4770      	bx	lr
  405ef6:	bf00      	nop
	...

00405f00 <strlen>:
  405f00:	f890 f000 	pld	[r0]
  405f04:	e96d 4502 	strd	r4, r5, [sp, #-8]!
  405f08:	f020 0107 	bic.w	r1, r0, #7
  405f0c:	f06f 0c00 	mvn.w	ip, #0
  405f10:	f010 0407 	ands.w	r4, r0, #7
  405f14:	f891 f020 	pld	[r1, #32]
  405f18:	f040 8049 	bne.w	405fae <strlen+0xae>
  405f1c:	f04f 0400 	mov.w	r4, #0
  405f20:	f06f 0007 	mvn.w	r0, #7
  405f24:	e9d1 2300 	ldrd	r2, r3, [r1]
  405f28:	f891 f040 	pld	[r1, #64]	; 0x40
  405f2c:	f100 0008 	add.w	r0, r0, #8
  405f30:	fa82 f24c 	uadd8	r2, r2, ip
  405f34:	faa4 f28c 	sel	r2, r4, ip
  405f38:	fa83 f34c 	uadd8	r3, r3, ip
  405f3c:	faa2 f38c 	sel	r3, r2, ip
  405f40:	bb4b      	cbnz	r3, 405f96 <strlen+0x96>
  405f42:	e9d1 2302 	ldrd	r2, r3, [r1, #8]
  405f46:	fa82 f24c 	uadd8	r2, r2, ip
  405f4a:	f100 0008 	add.w	r0, r0, #8
  405f4e:	faa4 f28c 	sel	r2, r4, ip
  405f52:	fa83 f34c 	uadd8	r3, r3, ip
  405f56:	faa2 f38c 	sel	r3, r2, ip
  405f5a:	b9e3      	cbnz	r3, 405f96 <strlen+0x96>
  405f5c:	e9d1 2304 	ldrd	r2, r3, [r1, #16]
  405f60:	fa82 f24c 	uadd8	r2, r2, ip
  405f64:	f100 0008 	add.w	r0, r0, #8
  405f68:	faa4 f28c 	sel	r2, r4, ip
  405f6c:	fa83 f34c 	uadd8	r3, r3, ip
  405f70:	faa2 f38c 	sel	r3, r2, ip
  405f74:	b97b      	cbnz	r3, 405f96 <strlen+0x96>
  405f76:	e9d1 2306 	ldrd	r2, r3, [r1, #24]
  405f7a:	f101 0120 	add.w	r1, r1, #32
  405f7e:	fa82 f24c 	uadd8	r2, r2, ip
  405f82:	f100 0008 	add.w	r0, r0, #8
  405f86:	faa4 f28c 	sel	r2, r4, ip
  405f8a:	fa83 f34c 	uadd8	r3, r3, ip
  405f8e:	faa2 f38c 	sel	r3, r2, ip
  405f92:	2b00      	cmp	r3, #0
  405f94:	d0c6      	beq.n	405f24 <strlen+0x24>
  405f96:	2a00      	cmp	r2, #0
  405f98:	bf04      	itt	eq
  405f9a:	3004      	addeq	r0, #4
  405f9c:	461a      	moveq	r2, r3
  405f9e:	ba12      	rev	r2, r2
  405fa0:	fab2 f282 	clz	r2, r2
  405fa4:	e8fd 4502 	ldrd	r4, r5, [sp], #8
  405fa8:	eb00 00d2 	add.w	r0, r0, r2, lsr #3
  405fac:	4770      	bx	lr
  405fae:	e9d1 2300 	ldrd	r2, r3, [r1]
  405fb2:	f004 0503 	and.w	r5, r4, #3
  405fb6:	f1c4 0000 	rsb	r0, r4, #0
  405fba:	ea4f 05c5 	mov.w	r5, r5, lsl #3
  405fbe:	f014 0f04 	tst.w	r4, #4
  405fc2:	f891 f040 	pld	[r1, #64]	; 0x40
  405fc6:	fa0c f505 	lsl.w	r5, ip, r5
  405fca:	ea62 0205 	orn	r2, r2, r5
  405fce:	bf1c      	itt	ne
  405fd0:	ea63 0305 	ornne	r3, r3, r5
  405fd4:	4662      	movne	r2, ip
  405fd6:	f04f 0400 	mov.w	r4, #0
  405fda:	e7a9      	b.n	405f30 <strlen+0x30>

00405fdc <_svfprintf_r>:
  405fdc:	e92d 4ff0 	stmdb	sp!, {r4, r5, r6, r7, r8, r9, sl, fp, lr}
  405fe0:	b0c3      	sub	sp, #268	; 0x10c
  405fe2:	460c      	mov	r4, r1
  405fe4:	910b      	str	r1, [sp, #44]	; 0x2c
  405fe6:	4692      	mov	sl, r2
  405fe8:	930f      	str	r3, [sp, #60]	; 0x3c
  405fea:	900c      	str	r0, [sp, #48]	; 0x30
  405fec:	f002 fb42 	bl	408674 <_localeconv_r>
  405ff0:	6803      	ldr	r3, [r0, #0]
  405ff2:	931a      	str	r3, [sp, #104]	; 0x68
  405ff4:	4618      	mov	r0, r3
  405ff6:	f7ff ff83 	bl	405f00 <strlen>
  405ffa:	89a3      	ldrh	r3, [r4, #12]
  405ffc:	9019      	str	r0, [sp, #100]	; 0x64
  405ffe:	0619      	lsls	r1, r3, #24
  406000:	d503      	bpl.n	40600a <_svfprintf_r+0x2e>
  406002:	6923      	ldr	r3, [r4, #16]
  406004:	2b00      	cmp	r3, #0
  406006:	f001 8003 	beq.w	407010 <_svfprintf_r+0x1034>
  40600a:	2300      	movs	r3, #0
  40600c:	f10d 09c8 	add.w	r9, sp, #200	; 0xc8
  406010:	9313      	str	r3, [sp, #76]	; 0x4c
  406012:	9315      	str	r3, [sp, #84]	; 0x54
  406014:	9314      	str	r3, [sp, #80]	; 0x50
  406016:	9327      	str	r3, [sp, #156]	; 0x9c
  406018:	9326      	str	r3, [sp, #152]	; 0x98
  40601a:	9318      	str	r3, [sp, #96]	; 0x60
  40601c:	931b      	str	r3, [sp, #108]	; 0x6c
  40601e:	9309      	str	r3, [sp, #36]	; 0x24
  406020:	f8cd 9094 	str.w	r9, [sp, #148]	; 0x94
  406024:	46c8      	mov	r8, r9
  406026:	9316      	str	r3, [sp, #88]	; 0x58
  406028:	9317      	str	r3, [sp, #92]	; 0x5c
  40602a:	f89a 3000 	ldrb.w	r3, [sl]
  40602e:	4654      	mov	r4, sl
  406030:	b1e3      	cbz	r3, 40606c <_svfprintf_r+0x90>
  406032:	2b25      	cmp	r3, #37	; 0x25
  406034:	d102      	bne.n	40603c <_svfprintf_r+0x60>
  406036:	e019      	b.n	40606c <_svfprintf_r+0x90>
  406038:	2b25      	cmp	r3, #37	; 0x25
  40603a:	d003      	beq.n	406044 <_svfprintf_r+0x68>
  40603c:	f814 3f01 	ldrb.w	r3, [r4, #1]!
  406040:	2b00      	cmp	r3, #0
  406042:	d1f9      	bne.n	406038 <_svfprintf_r+0x5c>
  406044:	eba4 050a 	sub.w	r5, r4, sl
  406048:	b185      	cbz	r5, 40606c <_svfprintf_r+0x90>
  40604a:	9b26      	ldr	r3, [sp, #152]	; 0x98
  40604c:	9a27      	ldr	r2, [sp, #156]	; 0x9c
  40604e:	f8c8 a000 	str.w	sl, [r8]
  406052:	3301      	adds	r3, #1
  406054:	442a      	add	r2, r5
  406056:	2b07      	cmp	r3, #7
  406058:	f8c8 5004 	str.w	r5, [r8, #4]
  40605c:	9227      	str	r2, [sp, #156]	; 0x9c
  40605e:	9326      	str	r3, [sp, #152]	; 0x98
  406060:	dc7f      	bgt.n	406162 <_svfprintf_r+0x186>
  406062:	f108 0808 	add.w	r8, r8, #8
  406066:	9b09      	ldr	r3, [sp, #36]	; 0x24
  406068:	442b      	add	r3, r5
  40606a:	9309      	str	r3, [sp, #36]	; 0x24
  40606c:	7823      	ldrb	r3, [r4, #0]
  40606e:	2b00      	cmp	r3, #0
  406070:	d07f      	beq.n	406172 <_svfprintf_r+0x196>
  406072:	2300      	movs	r3, #0
  406074:	461a      	mov	r2, r3
  406076:	f88d 3077 	strb.w	r3, [sp, #119]	; 0x77
  40607a:	4619      	mov	r1, r3
  40607c:	930d      	str	r3, [sp, #52]	; 0x34
  40607e:	469b      	mov	fp, r3
  406080:	f04f 30ff 	mov.w	r0, #4294967295
  406084:	7863      	ldrb	r3, [r4, #1]
  406086:	900a      	str	r0, [sp, #40]	; 0x28
  406088:	f104 0a01 	add.w	sl, r4, #1
  40608c:	f10a 0a01 	add.w	sl, sl, #1
  406090:	f1a3 0020 	sub.w	r0, r3, #32
  406094:	2858      	cmp	r0, #88	; 0x58
  406096:	f200 83c1 	bhi.w	40681c <_svfprintf_r+0x840>
  40609a:	e8df f010 	tbh	[pc, r0, lsl #1]
  40609e:	0238      	.short	0x0238
  4060a0:	03bf03bf 	.word	0x03bf03bf
  4060a4:	03bf0240 	.word	0x03bf0240
  4060a8:	03bf03bf 	.word	0x03bf03bf
  4060ac:	03bf03bf 	.word	0x03bf03bf
  4060b0:	024503bf 	.word	0x024503bf
  4060b4:	03bf0203 	.word	0x03bf0203
  4060b8:	026b005d 	.word	0x026b005d
  4060bc:	028603bf 	.word	0x028603bf
  4060c0:	039d039d 	.word	0x039d039d
  4060c4:	039d039d 	.word	0x039d039d
  4060c8:	039d039d 	.word	0x039d039d
  4060cc:	039d039d 	.word	0x039d039d
  4060d0:	03bf039d 	.word	0x03bf039d
  4060d4:	03bf03bf 	.word	0x03bf03bf
  4060d8:	03bf03bf 	.word	0x03bf03bf
  4060dc:	03bf03bf 	.word	0x03bf03bf
  4060e0:	03bf03bf 	.word	0x03bf03bf
  4060e4:	033703bf 	.word	0x033703bf
  4060e8:	03bf0357 	.word	0x03bf0357
  4060ec:	03bf0357 	.word	0x03bf0357
  4060f0:	03bf03bf 	.word	0x03bf03bf
  4060f4:	039803bf 	.word	0x039803bf
  4060f8:	03bf03bf 	.word	0x03bf03bf
  4060fc:	03bf03ad 	.word	0x03bf03ad
  406100:	03bf03bf 	.word	0x03bf03bf
  406104:	03bf03bf 	.word	0x03bf03bf
  406108:	03bf0259 	.word	0x03bf0259
  40610c:	031e03bf 	.word	0x031e03bf
  406110:	03bf03bf 	.word	0x03bf03bf
  406114:	03bf03bf 	.word	0x03bf03bf
  406118:	03bf03bf 	.word	0x03bf03bf
  40611c:	03bf03bf 	.word	0x03bf03bf
  406120:	03bf03bf 	.word	0x03bf03bf
  406124:	02db02c6 	.word	0x02db02c6
  406128:	03570357 	.word	0x03570357
  40612c:	028b0357 	.word	0x028b0357
  406130:	03bf02db 	.word	0x03bf02db
  406134:	029003bf 	.word	0x029003bf
  406138:	029d03bf 	.word	0x029d03bf
  40613c:	02b401cc 	.word	0x02b401cc
  406140:	03bf0208 	.word	0x03bf0208
  406144:	03bf01e1 	.word	0x03bf01e1
  406148:	03bf007e 	.word	0x03bf007e
  40614c:	020d03bf 	.word	0x020d03bf
  406150:	980d      	ldr	r0, [sp, #52]	; 0x34
  406152:	930f      	str	r3, [sp, #60]	; 0x3c
  406154:	4240      	negs	r0, r0
  406156:	900d      	str	r0, [sp, #52]	; 0x34
  406158:	f04b 0b04 	orr.w	fp, fp, #4
  40615c:	f89a 3000 	ldrb.w	r3, [sl]
  406160:	e794      	b.n	40608c <_svfprintf_r+0xb0>
  406162:	aa25      	add	r2, sp, #148	; 0x94
  406164:	990b      	ldr	r1, [sp, #44]	; 0x2c
  406166:	980c      	ldr	r0, [sp, #48]	; 0x30
  406168:	f003 fb6e 	bl	409848 <__ssprint_r>
  40616c:	b940      	cbnz	r0, 406180 <_svfprintf_r+0x1a4>
  40616e:	46c8      	mov	r8, r9
  406170:	e779      	b.n	406066 <_svfprintf_r+0x8a>
  406172:	9b27      	ldr	r3, [sp, #156]	; 0x9c
  406174:	b123      	cbz	r3, 406180 <_svfprintf_r+0x1a4>
  406176:	980c      	ldr	r0, [sp, #48]	; 0x30
  406178:	990b      	ldr	r1, [sp, #44]	; 0x2c
  40617a:	aa25      	add	r2, sp, #148	; 0x94
  40617c:	f003 fb64 	bl	409848 <__ssprint_r>
  406180:	9b0b      	ldr	r3, [sp, #44]	; 0x2c
  406182:	899b      	ldrh	r3, [r3, #12]
  406184:	f013 0f40 	tst.w	r3, #64	; 0x40
  406188:	9b09      	ldr	r3, [sp, #36]	; 0x24
  40618a:	bf18      	it	ne
  40618c:	f04f 33ff 	movne.w	r3, #4294967295
  406190:	9309      	str	r3, [sp, #36]	; 0x24
  406192:	9809      	ldr	r0, [sp, #36]	; 0x24
  406194:	b043      	add	sp, #268	; 0x10c
  406196:	e8bd 8ff0 	ldmia.w	sp!, {r4, r5, r6, r7, r8, r9, sl, fp, pc}
  40619a:	f01b 0f20 	tst.w	fp, #32
  40619e:	9311      	str	r3, [sp, #68]	; 0x44
  4061a0:	f040 81dd 	bne.w	40655e <_svfprintf_r+0x582>
  4061a4:	9a0f      	ldr	r2, [sp, #60]	; 0x3c
  4061a6:	f01b 0f10 	tst.w	fp, #16
  4061aa:	4613      	mov	r3, r2
  4061ac:	f040 856e 	bne.w	406c8c <_svfprintf_r+0xcb0>
  4061b0:	f01b 0f40 	tst.w	fp, #64	; 0x40
  4061b4:	f000 856a 	beq.w	406c8c <_svfprintf_r+0xcb0>
  4061b8:	8814      	ldrh	r4, [r2, #0]
  4061ba:	3204      	adds	r2, #4
  4061bc:	2500      	movs	r5, #0
  4061be:	2301      	movs	r3, #1
  4061c0:	920f      	str	r2, [sp, #60]	; 0x3c
  4061c2:	2700      	movs	r7, #0
  4061c4:	f88d 7077 	strb.w	r7, [sp, #119]	; 0x77
  4061c8:	990a      	ldr	r1, [sp, #40]	; 0x28
  4061ca:	1c4a      	adds	r2, r1, #1
  4061cc:	f000 8265 	beq.w	40669a <_svfprintf_r+0x6be>
  4061d0:	f02b 0280 	bic.w	r2, fp, #128	; 0x80
  4061d4:	9207      	str	r2, [sp, #28]
  4061d6:	ea54 0205 	orrs.w	r2, r4, r5
  4061da:	f040 8264 	bne.w	4066a6 <_svfprintf_r+0x6ca>
  4061de:	2900      	cmp	r1, #0
  4061e0:	f040 843c 	bne.w	406a5c <_svfprintf_r+0xa80>
  4061e4:	2b00      	cmp	r3, #0
  4061e6:	f040 84d7 	bne.w	406b98 <_svfprintf_r+0xbbc>
  4061ea:	f01b 0301 	ands.w	r3, fp, #1
  4061ee:	930e      	str	r3, [sp, #56]	; 0x38
  4061f0:	f000 8604 	beq.w	406dfc <_svfprintf_r+0xe20>
  4061f4:	ae42      	add	r6, sp, #264	; 0x108
  4061f6:	2330      	movs	r3, #48	; 0x30
  4061f8:	f806 3d41 	strb.w	r3, [r6, #-65]!
  4061fc:	9b0a      	ldr	r3, [sp, #40]	; 0x28
  4061fe:	9a0e      	ldr	r2, [sp, #56]	; 0x38
  406200:	4293      	cmp	r3, r2
  406202:	bfb8      	it	lt
  406204:	4613      	movlt	r3, r2
  406206:	9308      	str	r3, [sp, #32]
  406208:	2300      	movs	r3, #0
  40620a:	9312      	str	r3, [sp, #72]	; 0x48
  40620c:	b117      	cbz	r7, 406214 <_svfprintf_r+0x238>
  40620e:	9b08      	ldr	r3, [sp, #32]
  406210:	3301      	adds	r3, #1
  406212:	9308      	str	r3, [sp, #32]
  406214:	9b07      	ldr	r3, [sp, #28]
  406216:	f013 0302 	ands.w	r3, r3, #2
  40621a:	9310      	str	r3, [sp, #64]	; 0x40
  40621c:	d002      	beq.n	406224 <_svfprintf_r+0x248>
  40621e:	9b08      	ldr	r3, [sp, #32]
  406220:	3302      	adds	r3, #2
  406222:	9308      	str	r3, [sp, #32]
  406224:	9b07      	ldr	r3, [sp, #28]
  406226:	f013 0584 	ands.w	r5, r3, #132	; 0x84
  40622a:	f040 830e 	bne.w	40684a <_svfprintf_r+0x86e>
  40622e:	9b0d      	ldr	r3, [sp, #52]	; 0x34
  406230:	9a08      	ldr	r2, [sp, #32]
  406232:	eba3 0b02 	sub.w	fp, r3, r2
  406236:	f1bb 0f00 	cmp.w	fp, #0
  40623a:	f340 8306 	ble.w	40684a <_svfprintf_r+0x86e>
  40623e:	f1bb 0f10 	cmp.w	fp, #16
  406242:	9c27      	ldr	r4, [sp, #156]	; 0x9c
  406244:	9a26      	ldr	r2, [sp, #152]	; 0x98
  406246:	dd29      	ble.n	40629c <_svfprintf_r+0x2c0>
  406248:	4643      	mov	r3, r8
  40624a:	4621      	mov	r1, r4
  40624c:	46a8      	mov	r8, r5
  40624e:	2710      	movs	r7, #16
  406250:	9c0c      	ldr	r4, [sp, #48]	; 0x30
  406252:	9d0b      	ldr	r5, [sp, #44]	; 0x2c
  406254:	e006      	b.n	406264 <_svfprintf_r+0x288>
  406256:	f1ab 0b10 	sub.w	fp, fp, #16
  40625a:	f1bb 0f10 	cmp.w	fp, #16
  40625e:	f103 0308 	add.w	r3, r3, #8
  406262:	dd18      	ble.n	406296 <_svfprintf_r+0x2ba>
  406264:	3201      	adds	r2, #1
  406266:	48b7      	ldr	r0, [pc, #732]	; (406544 <_svfprintf_r+0x568>)
  406268:	9226      	str	r2, [sp, #152]	; 0x98
  40626a:	3110      	adds	r1, #16
  40626c:	2a07      	cmp	r2, #7
  40626e:	9127      	str	r1, [sp, #156]	; 0x9c
  406270:	e883 0081 	stmia.w	r3, {r0, r7}
  406274:	ddef      	ble.n	406256 <_svfprintf_r+0x27a>
  406276:	aa25      	add	r2, sp, #148	; 0x94
  406278:	4629      	mov	r1, r5
  40627a:	4620      	mov	r0, r4
  40627c:	f003 fae4 	bl	409848 <__ssprint_r>
  406280:	2800      	cmp	r0, #0
  406282:	f47f af7d 	bne.w	406180 <_svfprintf_r+0x1a4>
  406286:	f1ab 0b10 	sub.w	fp, fp, #16
  40628a:	f1bb 0f10 	cmp.w	fp, #16
  40628e:	9927      	ldr	r1, [sp, #156]	; 0x9c
  406290:	9a26      	ldr	r2, [sp, #152]	; 0x98
  406292:	464b      	mov	r3, r9
  406294:	dce6      	bgt.n	406264 <_svfprintf_r+0x288>
  406296:	4645      	mov	r5, r8
  406298:	460c      	mov	r4, r1
  40629a:	4698      	mov	r8, r3
  40629c:	3201      	adds	r2, #1
  40629e:	4ba9      	ldr	r3, [pc, #676]	; (406544 <_svfprintf_r+0x568>)
  4062a0:	9226      	str	r2, [sp, #152]	; 0x98
  4062a2:	445c      	add	r4, fp
  4062a4:	2a07      	cmp	r2, #7
  4062a6:	9427      	str	r4, [sp, #156]	; 0x9c
  4062a8:	e888 0808 	stmia.w	r8, {r3, fp}
  4062ac:	f300 8498 	bgt.w	406be0 <_svfprintf_r+0xc04>
  4062b0:	f89d 7077 	ldrb.w	r7, [sp, #119]	; 0x77
  4062b4:	f108 0808 	add.w	r8, r8, #8
  4062b8:	b177      	cbz	r7, 4062d8 <_svfprintf_r+0x2fc>
  4062ba:	9b26      	ldr	r3, [sp, #152]	; 0x98
  4062bc:	3301      	adds	r3, #1
  4062be:	3401      	adds	r4, #1
  4062c0:	f10d 0177 	add.w	r1, sp, #119	; 0x77
  4062c4:	2201      	movs	r2, #1
  4062c6:	2b07      	cmp	r3, #7
  4062c8:	9427      	str	r4, [sp, #156]	; 0x9c
  4062ca:	9326      	str	r3, [sp, #152]	; 0x98
  4062cc:	e888 0006 	stmia.w	r8, {r1, r2}
  4062d0:	f300 83db 	bgt.w	406a8a <_svfprintf_r+0xaae>
  4062d4:	f108 0808 	add.w	r8, r8, #8
  4062d8:	9b10      	ldr	r3, [sp, #64]	; 0x40
  4062da:	b16b      	cbz	r3, 4062f8 <_svfprintf_r+0x31c>
  4062dc:	9b26      	ldr	r3, [sp, #152]	; 0x98
  4062de:	3301      	adds	r3, #1
  4062e0:	3402      	adds	r4, #2
  4062e2:	a91e      	add	r1, sp, #120	; 0x78
  4062e4:	2202      	movs	r2, #2
  4062e6:	2b07      	cmp	r3, #7
  4062e8:	9427      	str	r4, [sp, #156]	; 0x9c
  4062ea:	9326      	str	r3, [sp, #152]	; 0x98
  4062ec:	e888 0006 	stmia.w	r8, {r1, r2}
  4062f0:	f300 83d6 	bgt.w	406aa0 <_svfprintf_r+0xac4>
  4062f4:	f108 0808 	add.w	r8, r8, #8
  4062f8:	2d80      	cmp	r5, #128	; 0x80
  4062fa:	f000 8315 	beq.w	406928 <_svfprintf_r+0x94c>
  4062fe:	9b0a      	ldr	r3, [sp, #40]	; 0x28
  406300:	9a0e      	ldr	r2, [sp, #56]	; 0x38
  406302:	1a9f      	subs	r7, r3, r2
  406304:	2f00      	cmp	r7, #0
  406306:	dd36      	ble.n	406376 <_svfprintf_r+0x39a>
  406308:	2f10      	cmp	r7, #16
  40630a:	9b26      	ldr	r3, [sp, #152]	; 0x98
  40630c:	4d8e      	ldr	r5, [pc, #568]	; (406548 <_svfprintf_r+0x56c>)
  40630e:	dd27      	ble.n	406360 <_svfprintf_r+0x384>
  406310:	4642      	mov	r2, r8
  406312:	4621      	mov	r1, r4
  406314:	46b0      	mov	r8, r6
  406316:	f04f 0b10 	mov.w	fp, #16
  40631a:	462e      	mov	r6, r5
  40631c:	9c0c      	ldr	r4, [sp, #48]	; 0x30
  40631e:	9d0b      	ldr	r5, [sp, #44]	; 0x2c
  406320:	e004      	b.n	40632c <_svfprintf_r+0x350>
  406322:	3f10      	subs	r7, #16
  406324:	2f10      	cmp	r7, #16
  406326:	f102 0208 	add.w	r2, r2, #8
  40632a:	dd15      	ble.n	406358 <_svfprintf_r+0x37c>
  40632c:	3301      	adds	r3, #1
  40632e:	3110      	adds	r1, #16
  406330:	2b07      	cmp	r3, #7
  406332:	9127      	str	r1, [sp, #156]	; 0x9c
  406334:	9326      	str	r3, [sp, #152]	; 0x98
  406336:	e882 0840 	stmia.w	r2, {r6, fp}
  40633a:	ddf2      	ble.n	406322 <_svfprintf_r+0x346>
  40633c:	aa25      	add	r2, sp, #148	; 0x94
  40633e:	4629      	mov	r1, r5
  406340:	4620      	mov	r0, r4
  406342:	f003 fa81 	bl	409848 <__ssprint_r>
  406346:	2800      	cmp	r0, #0
  406348:	f47f af1a 	bne.w	406180 <_svfprintf_r+0x1a4>
  40634c:	3f10      	subs	r7, #16
  40634e:	2f10      	cmp	r7, #16
  406350:	9927      	ldr	r1, [sp, #156]	; 0x9c
  406352:	9b26      	ldr	r3, [sp, #152]	; 0x98
  406354:	464a      	mov	r2, r9
  406356:	dce9      	bgt.n	40632c <_svfprintf_r+0x350>
  406358:	4635      	mov	r5, r6
  40635a:	460c      	mov	r4, r1
  40635c:	4646      	mov	r6, r8
  40635e:	4690      	mov	r8, r2
  406360:	3301      	adds	r3, #1
  406362:	443c      	add	r4, r7
  406364:	2b07      	cmp	r3, #7
  406366:	9427      	str	r4, [sp, #156]	; 0x9c
  406368:	9326      	str	r3, [sp, #152]	; 0x98
  40636a:	e888 00a0 	stmia.w	r8, {r5, r7}
  40636e:	f300 8381 	bgt.w	406a74 <_svfprintf_r+0xa98>
  406372:	f108 0808 	add.w	r8, r8, #8
  406376:	9b07      	ldr	r3, [sp, #28]
  406378:	05df      	lsls	r7, r3, #23
  40637a:	f100 8268 	bmi.w	40684e <_svfprintf_r+0x872>
  40637e:	9b26      	ldr	r3, [sp, #152]	; 0x98
  406380:	990e      	ldr	r1, [sp, #56]	; 0x38
  406382:	f8c8 6000 	str.w	r6, [r8]
  406386:	3301      	adds	r3, #1
  406388:	440c      	add	r4, r1
  40638a:	2b07      	cmp	r3, #7
  40638c:	9427      	str	r4, [sp, #156]	; 0x9c
  40638e:	f8c8 1004 	str.w	r1, [r8, #4]
  406392:	9326      	str	r3, [sp, #152]	; 0x98
  406394:	f300 834d 	bgt.w	406a32 <_svfprintf_r+0xa56>
  406398:	f108 0808 	add.w	r8, r8, #8
  40639c:	9b07      	ldr	r3, [sp, #28]
  40639e:	075b      	lsls	r3, r3, #29
  4063a0:	d53a      	bpl.n	406418 <_svfprintf_r+0x43c>
  4063a2:	9b0d      	ldr	r3, [sp, #52]	; 0x34
  4063a4:	9a08      	ldr	r2, [sp, #32]
  4063a6:	1a9d      	subs	r5, r3, r2
  4063a8:	2d00      	cmp	r5, #0
  4063aa:	dd35      	ble.n	406418 <_svfprintf_r+0x43c>
  4063ac:	2d10      	cmp	r5, #16
  4063ae:	9b26      	ldr	r3, [sp, #152]	; 0x98
  4063b0:	dd20      	ble.n	4063f4 <_svfprintf_r+0x418>
  4063b2:	2610      	movs	r6, #16
  4063b4:	9f0c      	ldr	r7, [sp, #48]	; 0x30
  4063b6:	f8dd b02c 	ldr.w	fp, [sp, #44]	; 0x2c
  4063ba:	e004      	b.n	4063c6 <_svfprintf_r+0x3ea>
  4063bc:	3d10      	subs	r5, #16
  4063be:	2d10      	cmp	r5, #16
  4063c0:	f108 0808 	add.w	r8, r8, #8
  4063c4:	dd16      	ble.n	4063f4 <_svfprintf_r+0x418>
  4063c6:	3301      	adds	r3, #1
  4063c8:	4a5e      	ldr	r2, [pc, #376]	; (406544 <_svfprintf_r+0x568>)
  4063ca:	9326      	str	r3, [sp, #152]	; 0x98
  4063cc:	3410      	adds	r4, #16
  4063ce:	2b07      	cmp	r3, #7
  4063d0:	9427      	str	r4, [sp, #156]	; 0x9c
  4063d2:	e888 0044 	stmia.w	r8, {r2, r6}
  4063d6:	ddf1      	ble.n	4063bc <_svfprintf_r+0x3e0>
  4063d8:	aa25      	add	r2, sp, #148	; 0x94
  4063da:	4659      	mov	r1, fp
  4063dc:	4638      	mov	r0, r7
  4063de:	f003 fa33 	bl	409848 <__ssprint_r>
  4063e2:	2800      	cmp	r0, #0
  4063e4:	f47f aecc 	bne.w	406180 <_svfprintf_r+0x1a4>
  4063e8:	3d10      	subs	r5, #16
  4063ea:	2d10      	cmp	r5, #16
  4063ec:	9c27      	ldr	r4, [sp, #156]	; 0x9c
  4063ee:	9b26      	ldr	r3, [sp, #152]	; 0x98
  4063f0:	46c8      	mov	r8, r9
  4063f2:	dce8      	bgt.n	4063c6 <_svfprintf_r+0x3ea>
  4063f4:	3301      	adds	r3, #1
  4063f6:	4a53      	ldr	r2, [pc, #332]	; (406544 <_svfprintf_r+0x568>)
  4063f8:	9326      	str	r3, [sp, #152]	; 0x98
  4063fa:	442c      	add	r4, r5
  4063fc:	2b07      	cmp	r3, #7
  4063fe:	9427      	str	r4, [sp, #156]	; 0x9c
  406400:	e888 0024 	stmia.w	r8, {r2, r5}
  406404:	dd08      	ble.n	406418 <_svfprintf_r+0x43c>
  406406:	aa25      	add	r2, sp, #148	; 0x94
  406408:	990b      	ldr	r1, [sp, #44]	; 0x2c
  40640a:	980c      	ldr	r0, [sp, #48]	; 0x30
  40640c:	f003 fa1c 	bl	409848 <__ssprint_r>
  406410:	2800      	cmp	r0, #0
  406412:	f47f aeb5 	bne.w	406180 <_svfprintf_r+0x1a4>
  406416:	9c27      	ldr	r4, [sp, #156]	; 0x9c
  406418:	9b09      	ldr	r3, [sp, #36]	; 0x24
  40641a:	9a0d      	ldr	r2, [sp, #52]	; 0x34
  40641c:	9908      	ldr	r1, [sp, #32]
  40641e:	428a      	cmp	r2, r1
  406420:	bfac      	ite	ge
  406422:	189b      	addge	r3, r3, r2
  406424:	185b      	addlt	r3, r3, r1
  406426:	9309      	str	r3, [sp, #36]	; 0x24
  406428:	2c00      	cmp	r4, #0
  40642a:	f040 830d 	bne.w	406a48 <_svfprintf_r+0xa6c>
  40642e:	2300      	movs	r3, #0
  406430:	9326      	str	r3, [sp, #152]	; 0x98
  406432:	46c8      	mov	r8, r9
  406434:	e5f9      	b.n	40602a <_svfprintf_r+0x4e>
  406436:	9311      	str	r3, [sp, #68]	; 0x44
  406438:	f01b 0320 	ands.w	r3, fp, #32
  40643c:	f040 81e3 	bne.w	406806 <_svfprintf_r+0x82a>
  406440:	f01b 0210 	ands.w	r2, fp, #16
  406444:	f040 842e 	bne.w	406ca4 <_svfprintf_r+0xcc8>
  406448:	f01b 0340 	ands.w	r3, fp, #64	; 0x40
  40644c:	f000 842a 	beq.w	406ca4 <_svfprintf_r+0xcc8>
  406450:	990f      	ldr	r1, [sp, #60]	; 0x3c
  406452:	4613      	mov	r3, r2
  406454:	460a      	mov	r2, r1
  406456:	3204      	adds	r2, #4
  406458:	880c      	ldrh	r4, [r1, #0]
  40645a:	920f      	str	r2, [sp, #60]	; 0x3c
  40645c:	2500      	movs	r5, #0
  40645e:	e6b0      	b.n	4061c2 <_svfprintf_r+0x1e6>
  406460:	9a0f      	ldr	r2, [sp, #60]	; 0x3c
  406462:	9311      	str	r3, [sp, #68]	; 0x44
  406464:	6816      	ldr	r6, [r2, #0]
  406466:	2400      	movs	r4, #0
  406468:	f88d 4077 	strb.w	r4, [sp, #119]	; 0x77
  40646c:	1d15      	adds	r5, r2, #4
  40646e:	2e00      	cmp	r6, #0
  406470:	f000 86a7 	beq.w	4071c2 <_svfprintf_r+0x11e6>
  406474:	9a0a      	ldr	r2, [sp, #40]	; 0x28
  406476:	1c53      	adds	r3, r2, #1
  406478:	f000 8609 	beq.w	40708e <_svfprintf_r+0x10b2>
  40647c:	4621      	mov	r1, r4
  40647e:	4630      	mov	r0, r6
  406480:	f002 fbd6 	bl	408c30 <memchr>
  406484:	2800      	cmp	r0, #0
  406486:	f000 86e1 	beq.w	40724c <_svfprintf_r+0x1270>
  40648a:	1b83      	subs	r3, r0, r6
  40648c:	930e      	str	r3, [sp, #56]	; 0x38
  40648e:	940a      	str	r4, [sp, #40]	; 0x28
  406490:	950f      	str	r5, [sp, #60]	; 0x3c
  406492:	f8cd b01c 	str.w	fp, [sp, #28]
  406496:	ea23 73e3 	bic.w	r3, r3, r3, asr #31
  40649a:	9308      	str	r3, [sp, #32]
  40649c:	9412      	str	r4, [sp, #72]	; 0x48
  40649e:	f89d 7077 	ldrb.w	r7, [sp, #119]	; 0x77
  4064a2:	e6b3      	b.n	40620c <_svfprintf_r+0x230>
  4064a4:	f89a 3000 	ldrb.w	r3, [sl]
  4064a8:	2201      	movs	r2, #1
  4064aa:	212b      	movs	r1, #43	; 0x2b
  4064ac:	e5ee      	b.n	40608c <_svfprintf_r+0xb0>
  4064ae:	f04b 0b20 	orr.w	fp, fp, #32
  4064b2:	f89a 3000 	ldrb.w	r3, [sl]
  4064b6:	e5e9      	b.n	40608c <_svfprintf_r+0xb0>
  4064b8:	9311      	str	r3, [sp, #68]	; 0x44
  4064ba:	2a00      	cmp	r2, #0
  4064bc:	f040 8795 	bne.w	4073ea <_svfprintf_r+0x140e>
  4064c0:	4b22      	ldr	r3, [pc, #136]	; (40654c <_svfprintf_r+0x570>)
  4064c2:	9318      	str	r3, [sp, #96]	; 0x60
  4064c4:	f01b 0f20 	tst.w	fp, #32
  4064c8:	f040 8111 	bne.w	4066ee <_svfprintf_r+0x712>
  4064cc:	9a0f      	ldr	r2, [sp, #60]	; 0x3c
  4064ce:	f01b 0f10 	tst.w	fp, #16
  4064d2:	4613      	mov	r3, r2
  4064d4:	f040 83e1 	bne.w	406c9a <_svfprintf_r+0xcbe>
  4064d8:	f01b 0f40 	tst.w	fp, #64	; 0x40
  4064dc:	f000 83dd 	beq.w	406c9a <_svfprintf_r+0xcbe>
  4064e0:	3304      	adds	r3, #4
  4064e2:	8814      	ldrh	r4, [r2, #0]
  4064e4:	930f      	str	r3, [sp, #60]	; 0x3c
  4064e6:	2500      	movs	r5, #0
  4064e8:	f01b 0f01 	tst.w	fp, #1
  4064ec:	f000 810c 	beq.w	406708 <_svfprintf_r+0x72c>
  4064f0:	ea54 0305 	orrs.w	r3, r4, r5
  4064f4:	f000 8108 	beq.w	406708 <_svfprintf_r+0x72c>
  4064f8:	2330      	movs	r3, #48	; 0x30
  4064fa:	f89d 2044 	ldrb.w	r2, [sp, #68]	; 0x44
  4064fe:	f88d 3078 	strb.w	r3, [sp, #120]	; 0x78
  406502:	f88d 2079 	strb.w	r2, [sp, #121]	; 0x79
  406506:	f04b 0b02 	orr.w	fp, fp, #2
  40650a:	2302      	movs	r3, #2
  40650c:	e659      	b.n	4061c2 <_svfprintf_r+0x1e6>
  40650e:	f89a 3000 	ldrb.w	r3, [sl]
  406512:	2900      	cmp	r1, #0
  406514:	f47f adba 	bne.w	40608c <_svfprintf_r+0xb0>
  406518:	2201      	movs	r2, #1
  40651a:	2120      	movs	r1, #32
  40651c:	e5b6      	b.n	40608c <_svfprintf_r+0xb0>
  40651e:	f04b 0b01 	orr.w	fp, fp, #1
  406522:	f89a 3000 	ldrb.w	r3, [sl]
  406526:	e5b1      	b.n	40608c <_svfprintf_r+0xb0>
  406528:	9c0f      	ldr	r4, [sp, #60]	; 0x3c
  40652a:	6823      	ldr	r3, [r4, #0]
  40652c:	930d      	str	r3, [sp, #52]	; 0x34
  40652e:	4618      	mov	r0, r3
  406530:	2800      	cmp	r0, #0
  406532:	4623      	mov	r3, r4
  406534:	f103 0304 	add.w	r3, r3, #4
  406538:	f6ff ae0a 	blt.w	406150 <_svfprintf_r+0x174>
  40653c:	930f      	str	r3, [sp, #60]	; 0x3c
  40653e:	f89a 3000 	ldrb.w	r3, [sl]
  406542:	e5a3      	b.n	40608c <_svfprintf_r+0xb0>
  406544:	0040a434 	.word	0x0040a434
  406548:	0040a444 	.word	0x0040a444
  40654c:	0040a414 	.word	0x0040a414
  406550:	f04b 0b10 	orr.w	fp, fp, #16
  406554:	f01b 0f20 	tst.w	fp, #32
  406558:	9311      	str	r3, [sp, #68]	; 0x44
  40655a:	f43f ae23 	beq.w	4061a4 <_svfprintf_r+0x1c8>
  40655e:	9d0f      	ldr	r5, [sp, #60]	; 0x3c
  406560:	3507      	adds	r5, #7
  406562:	f025 0307 	bic.w	r3, r5, #7
  406566:	f103 0208 	add.w	r2, r3, #8
  40656a:	e9d3 4500 	ldrd	r4, r5, [r3]
  40656e:	920f      	str	r2, [sp, #60]	; 0x3c
  406570:	2301      	movs	r3, #1
  406572:	e626      	b.n	4061c2 <_svfprintf_r+0x1e6>
  406574:	f89a 3000 	ldrb.w	r3, [sl]
  406578:	2b2a      	cmp	r3, #42	; 0x2a
  40657a:	f10a 0401 	add.w	r4, sl, #1
  40657e:	f000 8727 	beq.w	4073d0 <_svfprintf_r+0x13f4>
  406582:	f1a3 0030 	sub.w	r0, r3, #48	; 0x30
  406586:	2809      	cmp	r0, #9
  406588:	46a2      	mov	sl, r4
  40658a:	f200 86ad 	bhi.w	4072e8 <_svfprintf_r+0x130c>
  40658e:	2300      	movs	r3, #0
  406590:	461c      	mov	r4, r3
  406592:	f81a 3b01 	ldrb.w	r3, [sl], #1
  406596:	eb04 0484 	add.w	r4, r4, r4, lsl #2
  40659a:	eb00 0444 	add.w	r4, r0, r4, lsl #1
  40659e:	f1a3 0030 	sub.w	r0, r3, #48	; 0x30
  4065a2:	2809      	cmp	r0, #9
  4065a4:	d9f5      	bls.n	406592 <_svfprintf_r+0x5b6>
  4065a6:	940a      	str	r4, [sp, #40]	; 0x28
  4065a8:	e572      	b.n	406090 <_svfprintf_r+0xb4>
  4065aa:	f04b 0b80 	orr.w	fp, fp, #128	; 0x80
  4065ae:	f89a 3000 	ldrb.w	r3, [sl]
  4065b2:	e56b      	b.n	40608c <_svfprintf_r+0xb0>
  4065b4:	f04b 0b40 	orr.w	fp, fp, #64	; 0x40
  4065b8:	f89a 3000 	ldrb.w	r3, [sl]
  4065bc:	e566      	b.n	40608c <_svfprintf_r+0xb0>
  4065be:	f89a 3000 	ldrb.w	r3, [sl]
  4065c2:	2b6c      	cmp	r3, #108	; 0x6c
  4065c4:	bf03      	ittte	eq
  4065c6:	f89a 3001 	ldrbeq.w	r3, [sl, #1]
  4065ca:	f04b 0b20 	orreq.w	fp, fp, #32
  4065ce:	f10a 0a01 	addeq.w	sl, sl, #1
  4065d2:	f04b 0b10 	orrne.w	fp, fp, #16
  4065d6:	e559      	b.n	40608c <_svfprintf_r+0xb0>
  4065d8:	2a00      	cmp	r2, #0
  4065da:	f040 8711 	bne.w	407400 <_svfprintf_r+0x1424>
  4065de:	f01b 0f20 	tst.w	fp, #32
  4065e2:	f040 84f9 	bne.w	406fd8 <_svfprintf_r+0xffc>
  4065e6:	f01b 0f10 	tst.w	fp, #16
  4065ea:	f040 84ac 	bne.w	406f46 <_svfprintf_r+0xf6a>
  4065ee:	f01b 0f40 	tst.w	fp, #64	; 0x40
  4065f2:	f000 84a8 	beq.w	406f46 <_svfprintf_r+0xf6a>
  4065f6:	9a0f      	ldr	r2, [sp, #60]	; 0x3c
  4065f8:	6813      	ldr	r3, [r2, #0]
  4065fa:	3204      	adds	r2, #4
  4065fc:	920f      	str	r2, [sp, #60]	; 0x3c
  4065fe:	f8bd 2024 	ldrh.w	r2, [sp, #36]	; 0x24
  406602:	801a      	strh	r2, [r3, #0]
  406604:	e511      	b.n	40602a <_svfprintf_r+0x4e>
  406606:	990f      	ldr	r1, [sp, #60]	; 0x3c
  406608:	4bb3      	ldr	r3, [pc, #716]	; (4068d8 <_svfprintf_r+0x8fc>)
  40660a:	680c      	ldr	r4, [r1, #0]
  40660c:	9318      	str	r3, [sp, #96]	; 0x60
  40660e:	2230      	movs	r2, #48	; 0x30
  406610:	2378      	movs	r3, #120	; 0x78
  406612:	3104      	adds	r1, #4
  406614:	f88d 3079 	strb.w	r3, [sp, #121]	; 0x79
  406618:	9311      	str	r3, [sp, #68]	; 0x44
  40661a:	f04b 0b02 	orr.w	fp, fp, #2
  40661e:	910f      	str	r1, [sp, #60]	; 0x3c
  406620:	2500      	movs	r5, #0
  406622:	f88d 2078 	strb.w	r2, [sp, #120]	; 0x78
  406626:	2302      	movs	r3, #2
  406628:	e5cb      	b.n	4061c2 <_svfprintf_r+0x1e6>
  40662a:	990f      	ldr	r1, [sp, #60]	; 0x3c
  40662c:	9311      	str	r3, [sp, #68]	; 0x44
  40662e:	680a      	ldr	r2, [r1, #0]
  406630:	f88d 20a0 	strb.w	r2, [sp, #160]	; 0xa0
  406634:	2300      	movs	r3, #0
  406636:	460a      	mov	r2, r1
  406638:	461f      	mov	r7, r3
  40663a:	f88d 3077 	strb.w	r3, [sp, #119]	; 0x77
  40663e:	3204      	adds	r2, #4
  406640:	2301      	movs	r3, #1
  406642:	9308      	str	r3, [sp, #32]
  406644:	f8cd b01c 	str.w	fp, [sp, #28]
  406648:	970a      	str	r7, [sp, #40]	; 0x28
  40664a:	9712      	str	r7, [sp, #72]	; 0x48
  40664c:	920f      	str	r2, [sp, #60]	; 0x3c
  40664e:	930e      	str	r3, [sp, #56]	; 0x38
  406650:	ae28      	add	r6, sp, #160	; 0xa0
  406652:	e5df      	b.n	406214 <_svfprintf_r+0x238>
  406654:	9311      	str	r3, [sp, #68]	; 0x44
  406656:	2a00      	cmp	r2, #0
  406658:	f040 86ea 	bne.w	407430 <_svfprintf_r+0x1454>
  40665c:	f01b 0f20 	tst.w	fp, #32
  406660:	d15d      	bne.n	40671e <_svfprintf_r+0x742>
  406662:	f01b 0f10 	tst.w	fp, #16
  406666:	f040 8308 	bne.w	406c7a <_svfprintf_r+0xc9e>
  40666a:	f01b 0f40 	tst.w	fp, #64	; 0x40
  40666e:	f000 8304 	beq.w	406c7a <_svfprintf_r+0xc9e>
  406672:	990f      	ldr	r1, [sp, #60]	; 0x3c
  406674:	f9b1 4000 	ldrsh.w	r4, [r1]
  406678:	3104      	adds	r1, #4
  40667a:	17e5      	asrs	r5, r4, #31
  40667c:	4622      	mov	r2, r4
  40667e:	462b      	mov	r3, r5
  406680:	910f      	str	r1, [sp, #60]	; 0x3c
  406682:	2a00      	cmp	r2, #0
  406684:	f173 0300 	sbcs.w	r3, r3, #0
  406688:	db58      	blt.n	40673c <_svfprintf_r+0x760>
  40668a:	990a      	ldr	r1, [sp, #40]	; 0x28
  40668c:	f89d 7077 	ldrb.w	r7, [sp, #119]	; 0x77
  406690:	1c4a      	adds	r2, r1, #1
  406692:	f04f 0301 	mov.w	r3, #1
  406696:	f47f ad9b 	bne.w	4061d0 <_svfprintf_r+0x1f4>
  40669a:	ea54 0205 	orrs.w	r2, r4, r5
  40669e:	f000 81df 	beq.w	406a60 <_svfprintf_r+0xa84>
  4066a2:	f8cd b01c 	str.w	fp, [sp, #28]
  4066a6:	2b01      	cmp	r3, #1
  4066a8:	f000 827b 	beq.w	406ba2 <_svfprintf_r+0xbc6>
  4066ac:	2b02      	cmp	r3, #2
  4066ae:	f040 8206 	bne.w	406abe <_svfprintf_r+0xae2>
  4066b2:	9818      	ldr	r0, [sp, #96]	; 0x60
  4066b4:	464e      	mov	r6, r9
  4066b6:	0923      	lsrs	r3, r4, #4
  4066b8:	f004 010f 	and.w	r1, r4, #15
  4066bc:	ea43 7305 	orr.w	r3, r3, r5, lsl #28
  4066c0:	092a      	lsrs	r2, r5, #4
  4066c2:	461c      	mov	r4, r3
  4066c4:	4615      	mov	r5, r2
  4066c6:	5c43      	ldrb	r3, [r0, r1]
  4066c8:	f806 3d01 	strb.w	r3, [r6, #-1]!
  4066cc:	ea54 0305 	orrs.w	r3, r4, r5
  4066d0:	d1f1      	bne.n	4066b6 <_svfprintf_r+0x6da>
  4066d2:	eba9 0306 	sub.w	r3, r9, r6
  4066d6:	930e      	str	r3, [sp, #56]	; 0x38
  4066d8:	e590      	b.n	4061fc <_svfprintf_r+0x220>
  4066da:	9311      	str	r3, [sp, #68]	; 0x44
  4066dc:	2a00      	cmp	r2, #0
  4066de:	f040 86a3 	bne.w	407428 <_svfprintf_r+0x144c>
  4066e2:	4b7e      	ldr	r3, [pc, #504]	; (4068dc <_svfprintf_r+0x900>)
  4066e4:	9318      	str	r3, [sp, #96]	; 0x60
  4066e6:	f01b 0f20 	tst.w	fp, #32
  4066ea:	f43f aeef 	beq.w	4064cc <_svfprintf_r+0x4f0>
  4066ee:	9d0f      	ldr	r5, [sp, #60]	; 0x3c
  4066f0:	3507      	adds	r5, #7
  4066f2:	f025 0307 	bic.w	r3, r5, #7
  4066f6:	f103 0208 	add.w	r2, r3, #8
  4066fa:	f01b 0f01 	tst.w	fp, #1
  4066fe:	920f      	str	r2, [sp, #60]	; 0x3c
  406700:	e9d3 4500 	ldrd	r4, r5, [r3]
  406704:	f47f aef4 	bne.w	4064f0 <_svfprintf_r+0x514>
  406708:	2302      	movs	r3, #2
  40670a:	e55a      	b.n	4061c2 <_svfprintf_r+0x1e6>
  40670c:	9311      	str	r3, [sp, #68]	; 0x44
  40670e:	2a00      	cmp	r2, #0
  406710:	f040 8686 	bne.w	407420 <_svfprintf_r+0x1444>
  406714:	f04b 0b10 	orr.w	fp, fp, #16
  406718:	f01b 0f20 	tst.w	fp, #32
  40671c:	d0a1      	beq.n	406662 <_svfprintf_r+0x686>
  40671e:	9d0f      	ldr	r5, [sp, #60]	; 0x3c
  406720:	3507      	adds	r5, #7
  406722:	f025 0507 	bic.w	r5, r5, #7
  406726:	e9d5 2300 	ldrd	r2, r3, [r5]
  40672a:	2a00      	cmp	r2, #0
  40672c:	f105 0108 	add.w	r1, r5, #8
  406730:	461d      	mov	r5, r3
  406732:	f173 0300 	sbcs.w	r3, r3, #0
  406736:	910f      	str	r1, [sp, #60]	; 0x3c
  406738:	4614      	mov	r4, r2
  40673a:	daa6      	bge.n	40668a <_svfprintf_r+0x6ae>
  40673c:	272d      	movs	r7, #45	; 0x2d
  40673e:	4264      	negs	r4, r4
  406740:	eb65 0545 	sbc.w	r5, r5, r5, lsl #1
  406744:	f88d 7077 	strb.w	r7, [sp, #119]	; 0x77
  406748:	2301      	movs	r3, #1
  40674a:	e53d      	b.n	4061c8 <_svfprintf_r+0x1ec>
  40674c:	9311      	str	r3, [sp, #68]	; 0x44
  40674e:	2a00      	cmp	r2, #0
  406750:	f040 8662 	bne.w	407418 <_svfprintf_r+0x143c>
  406754:	9d0f      	ldr	r5, [sp, #60]	; 0x3c
  406756:	3507      	adds	r5, #7
  406758:	f025 0307 	bic.w	r3, r5, #7
  40675c:	f103 0208 	add.w	r2, r3, #8
  406760:	920f      	str	r2, [sp, #60]	; 0x3c
  406762:	681a      	ldr	r2, [r3, #0]
  406764:	9215      	str	r2, [sp, #84]	; 0x54
  406766:	685b      	ldr	r3, [r3, #4]
  406768:	9314      	str	r3, [sp, #80]	; 0x50
  40676a:	9b14      	ldr	r3, [sp, #80]	; 0x50
  40676c:	9d15      	ldr	r5, [sp, #84]	; 0x54
  40676e:	f023 4400 	bic.w	r4, r3, #2147483648	; 0x80000000
  406772:	4628      	mov	r0, r5
  406774:	4621      	mov	r1, r4
  406776:	f04f 32ff 	mov.w	r2, #4294967295
  40677a:	4b59      	ldr	r3, [pc, #356]	; (4068e0 <_svfprintf_r+0x904>)
  40677c:	f003 fa0a 	bl	409b94 <__aeabi_dcmpun>
  406780:	2800      	cmp	r0, #0
  406782:	f040 834a 	bne.w	406e1a <_svfprintf_r+0xe3e>
  406786:	4628      	mov	r0, r5
  406788:	4621      	mov	r1, r4
  40678a:	f04f 32ff 	mov.w	r2, #4294967295
  40678e:	4b54      	ldr	r3, [pc, #336]	; (4068e0 <_svfprintf_r+0x904>)
  406790:	f003 f9e2 	bl	409b58 <__aeabi_dcmple>
  406794:	2800      	cmp	r0, #0
  406796:	f040 8340 	bne.w	406e1a <_svfprintf_r+0xe3e>
  40679a:	a815      	add	r0, sp, #84	; 0x54
  40679c:	c80d      	ldmia	r0, {r0, r2, r3}
  40679e:	9914      	ldr	r1, [sp, #80]	; 0x50
  4067a0:	f003 f9d0 	bl	409b44 <__aeabi_dcmplt>
  4067a4:	2800      	cmp	r0, #0
  4067a6:	f040 8530 	bne.w	40720a <_svfprintf_r+0x122e>
  4067aa:	f89d 7077 	ldrb.w	r7, [sp, #119]	; 0x77
  4067ae:	4e4d      	ldr	r6, [pc, #308]	; (4068e4 <_svfprintf_r+0x908>)
  4067b0:	4b4d      	ldr	r3, [pc, #308]	; (4068e8 <_svfprintf_r+0x90c>)
  4067b2:	f02b 0080 	bic.w	r0, fp, #128	; 0x80
  4067b6:	9007      	str	r0, [sp, #28]
  4067b8:	9811      	ldr	r0, [sp, #68]	; 0x44
  4067ba:	2203      	movs	r2, #3
  4067bc:	2100      	movs	r1, #0
  4067be:	9208      	str	r2, [sp, #32]
  4067c0:	910a      	str	r1, [sp, #40]	; 0x28
  4067c2:	2847      	cmp	r0, #71	; 0x47
  4067c4:	bfd8      	it	le
  4067c6:	461e      	movle	r6, r3
  4067c8:	920e      	str	r2, [sp, #56]	; 0x38
  4067ca:	9112      	str	r1, [sp, #72]	; 0x48
  4067cc:	e51e      	b.n	40620c <_svfprintf_r+0x230>
  4067ce:	f04b 0b08 	orr.w	fp, fp, #8
  4067d2:	f89a 3000 	ldrb.w	r3, [sl]
  4067d6:	e459      	b.n	40608c <_svfprintf_r+0xb0>
  4067d8:	f1a3 0030 	sub.w	r0, r3, #48	; 0x30
  4067dc:	2300      	movs	r3, #0
  4067de:	461c      	mov	r4, r3
  4067e0:	f81a 3b01 	ldrb.w	r3, [sl], #1
  4067e4:	eb04 0484 	add.w	r4, r4, r4, lsl #2
  4067e8:	eb00 0444 	add.w	r4, r0, r4, lsl #1
  4067ec:	f1a3 0030 	sub.w	r0, r3, #48	; 0x30
  4067f0:	2809      	cmp	r0, #9
  4067f2:	d9f5      	bls.n	4067e0 <_svfprintf_r+0x804>
  4067f4:	940d      	str	r4, [sp, #52]	; 0x34
  4067f6:	e44b      	b.n	406090 <_svfprintf_r+0xb4>
  4067f8:	f04b 0b10 	orr.w	fp, fp, #16
  4067fc:	9311      	str	r3, [sp, #68]	; 0x44
  4067fe:	f01b 0320 	ands.w	r3, fp, #32
  406802:	f43f ae1d 	beq.w	406440 <_svfprintf_r+0x464>
  406806:	9d0f      	ldr	r5, [sp, #60]	; 0x3c
  406808:	3507      	adds	r5, #7
  40680a:	f025 0307 	bic.w	r3, r5, #7
  40680e:	f103 0208 	add.w	r2, r3, #8
  406812:	e9d3 4500 	ldrd	r4, r5, [r3]
  406816:	920f      	str	r2, [sp, #60]	; 0x3c
  406818:	2300      	movs	r3, #0
  40681a:	e4d2      	b.n	4061c2 <_svfprintf_r+0x1e6>
  40681c:	9311      	str	r3, [sp, #68]	; 0x44
  40681e:	2a00      	cmp	r2, #0
  406820:	f040 85e7 	bne.w	4073f2 <_svfprintf_r+0x1416>
  406824:	9a11      	ldr	r2, [sp, #68]	; 0x44
  406826:	2a00      	cmp	r2, #0
  406828:	f43f aca3 	beq.w	406172 <_svfprintf_r+0x196>
  40682c:	2300      	movs	r3, #0
  40682e:	2101      	movs	r1, #1
  406830:	461f      	mov	r7, r3
  406832:	9108      	str	r1, [sp, #32]
  406834:	f88d 20a0 	strb.w	r2, [sp, #160]	; 0xa0
  406838:	f8cd b01c 	str.w	fp, [sp, #28]
  40683c:	f88d 3077 	strb.w	r3, [sp, #119]	; 0x77
  406840:	930a      	str	r3, [sp, #40]	; 0x28
  406842:	9312      	str	r3, [sp, #72]	; 0x48
  406844:	910e      	str	r1, [sp, #56]	; 0x38
  406846:	ae28      	add	r6, sp, #160	; 0xa0
  406848:	e4e4      	b.n	406214 <_svfprintf_r+0x238>
  40684a:	9c27      	ldr	r4, [sp, #156]	; 0x9c
  40684c:	e534      	b.n	4062b8 <_svfprintf_r+0x2dc>
  40684e:	9b11      	ldr	r3, [sp, #68]	; 0x44
  406850:	2b65      	cmp	r3, #101	; 0x65
  406852:	f340 80a7 	ble.w	4069a4 <_svfprintf_r+0x9c8>
  406856:	a815      	add	r0, sp, #84	; 0x54
  406858:	c80d      	ldmia	r0, {r0, r2, r3}
  40685a:	9914      	ldr	r1, [sp, #80]	; 0x50
  40685c:	f003 f968 	bl	409b30 <__aeabi_dcmpeq>
  406860:	2800      	cmp	r0, #0
  406862:	f000 8150 	beq.w	406b06 <_svfprintf_r+0xb2a>
  406866:	9b26      	ldr	r3, [sp, #152]	; 0x98
  406868:	4a20      	ldr	r2, [pc, #128]	; (4068ec <_svfprintf_r+0x910>)
  40686a:	f8c8 2000 	str.w	r2, [r8]
  40686e:	3301      	adds	r3, #1
  406870:	3401      	adds	r4, #1
  406872:	2201      	movs	r2, #1
  406874:	2b07      	cmp	r3, #7
  406876:	9427      	str	r4, [sp, #156]	; 0x9c
  406878:	9326      	str	r3, [sp, #152]	; 0x98
  40687a:	f8c8 2004 	str.w	r2, [r8, #4]
  40687e:	f300 836a 	bgt.w	406f56 <_svfprintf_r+0xf7a>
  406882:	f108 0808 	add.w	r8, r8, #8
  406886:	9b1f      	ldr	r3, [sp, #124]	; 0x7c
  406888:	9a13      	ldr	r2, [sp, #76]	; 0x4c
  40688a:	9c27      	ldr	r4, [sp, #156]	; 0x9c
  40688c:	4293      	cmp	r3, r2
  40688e:	db03      	blt.n	406898 <_svfprintf_r+0x8bc>
  406890:	9b07      	ldr	r3, [sp, #28]
  406892:	07dd      	lsls	r5, r3, #31
  406894:	f57f ad82 	bpl.w	40639c <_svfprintf_r+0x3c0>
  406898:	9b26      	ldr	r3, [sp, #152]	; 0x98
  40689a:	9919      	ldr	r1, [sp, #100]	; 0x64
  40689c:	9a1a      	ldr	r2, [sp, #104]	; 0x68
  40689e:	f8c8 2000 	str.w	r2, [r8]
  4068a2:	3301      	adds	r3, #1
  4068a4:	440c      	add	r4, r1
  4068a6:	2b07      	cmp	r3, #7
  4068a8:	f8c8 1004 	str.w	r1, [r8, #4]
  4068ac:	9427      	str	r4, [sp, #156]	; 0x9c
  4068ae:	9326      	str	r3, [sp, #152]	; 0x98
  4068b0:	f300 839e 	bgt.w	406ff0 <_svfprintf_r+0x1014>
  4068b4:	f108 0808 	add.w	r8, r8, #8
  4068b8:	9b13      	ldr	r3, [sp, #76]	; 0x4c
  4068ba:	1e5e      	subs	r6, r3, #1
  4068bc:	2e00      	cmp	r6, #0
  4068be:	f77f ad6d 	ble.w	40639c <_svfprintf_r+0x3c0>
  4068c2:	2e10      	cmp	r6, #16
  4068c4:	9b26      	ldr	r3, [sp, #152]	; 0x98
  4068c6:	4d0a      	ldr	r5, [pc, #40]	; (4068f0 <_svfprintf_r+0x914>)
  4068c8:	f340 81f5 	ble.w	406cb6 <_svfprintf_r+0xcda>
  4068cc:	4622      	mov	r2, r4
  4068ce:	2710      	movs	r7, #16
  4068d0:	f8dd b030 	ldr.w	fp, [sp, #48]	; 0x30
  4068d4:	9c0b      	ldr	r4, [sp, #44]	; 0x2c
  4068d6:	e013      	b.n	406900 <_svfprintf_r+0x924>
  4068d8:	0040a414 	.word	0x0040a414
  4068dc:	0040a400 	.word	0x0040a400
  4068e0:	7fefffff 	.word	0x7fefffff
  4068e4:	0040a3f4 	.word	0x0040a3f4
  4068e8:	0040a3f0 	.word	0x0040a3f0
  4068ec:	0040a430 	.word	0x0040a430
  4068f0:	0040a444 	.word	0x0040a444
  4068f4:	f108 0808 	add.w	r8, r8, #8
  4068f8:	3e10      	subs	r6, #16
  4068fa:	2e10      	cmp	r6, #16
  4068fc:	f340 81da 	ble.w	406cb4 <_svfprintf_r+0xcd8>
  406900:	3301      	adds	r3, #1
  406902:	3210      	adds	r2, #16
  406904:	2b07      	cmp	r3, #7
  406906:	9227      	str	r2, [sp, #156]	; 0x9c
  406908:	9326      	str	r3, [sp, #152]	; 0x98
  40690a:	e888 00a0 	stmia.w	r8, {r5, r7}
  40690e:	ddf1      	ble.n	4068f4 <_svfprintf_r+0x918>
  406910:	aa25      	add	r2, sp, #148	; 0x94
  406912:	4621      	mov	r1, r4
  406914:	4658      	mov	r0, fp
  406916:	f002 ff97 	bl	409848 <__ssprint_r>
  40691a:	2800      	cmp	r0, #0
  40691c:	f47f ac30 	bne.w	406180 <_svfprintf_r+0x1a4>
  406920:	9a27      	ldr	r2, [sp, #156]	; 0x9c
  406922:	9b26      	ldr	r3, [sp, #152]	; 0x98
  406924:	46c8      	mov	r8, r9
  406926:	e7e7      	b.n	4068f8 <_svfprintf_r+0x91c>
  406928:	9b0d      	ldr	r3, [sp, #52]	; 0x34
  40692a:	9a08      	ldr	r2, [sp, #32]
  40692c:	1a9f      	subs	r7, r3, r2
  40692e:	2f00      	cmp	r7, #0
  406930:	f77f ace5 	ble.w	4062fe <_svfprintf_r+0x322>
  406934:	2f10      	cmp	r7, #16
  406936:	9b26      	ldr	r3, [sp, #152]	; 0x98
  406938:	4db6      	ldr	r5, [pc, #728]	; (406c14 <_svfprintf_r+0xc38>)
  40693a:	dd27      	ble.n	40698c <_svfprintf_r+0x9b0>
  40693c:	4642      	mov	r2, r8
  40693e:	4621      	mov	r1, r4
  406940:	46b0      	mov	r8, r6
  406942:	f04f 0b10 	mov.w	fp, #16
  406946:	462e      	mov	r6, r5
  406948:	9c0c      	ldr	r4, [sp, #48]	; 0x30
  40694a:	9d0b      	ldr	r5, [sp, #44]	; 0x2c
  40694c:	e004      	b.n	406958 <_svfprintf_r+0x97c>
  40694e:	3f10      	subs	r7, #16
  406950:	2f10      	cmp	r7, #16
  406952:	f102 0208 	add.w	r2, r2, #8
  406956:	dd15      	ble.n	406984 <_svfprintf_r+0x9a8>
  406958:	3301      	adds	r3, #1
  40695a:	3110      	adds	r1, #16
  40695c:	2b07      	cmp	r3, #7
  40695e:	9127      	str	r1, [sp, #156]	; 0x9c
  406960:	9326      	str	r3, [sp, #152]	; 0x98
  406962:	e882 0840 	stmia.w	r2, {r6, fp}
  406966:	ddf2      	ble.n	40694e <_svfprintf_r+0x972>
  406968:	aa25      	add	r2, sp, #148	; 0x94
  40696a:	4629      	mov	r1, r5
  40696c:	4620      	mov	r0, r4
  40696e:	f002 ff6b 	bl	409848 <__ssprint_r>
  406972:	2800      	cmp	r0, #0
  406974:	f47f ac04 	bne.w	406180 <_svfprintf_r+0x1a4>
  406978:	3f10      	subs	r7, #16
  40697a:	2f10      	cmp	r7, #16
  40697c:	9927      	ldr	r1, [sp, #156]	; 0x9c
  40697e:	9b26      	ldr	r3, [sp, #152]	; 0x98
  406980:	464a      	mov	r2, r9
  406982:	dce9      	bgt.n	406958 <_svfprintf_r+0x97c>
  406984:	4635      	mov	r5, r6
  406986:	460c      	mov	r4, r1
  406988:	4646      	mov	r6, r8
  40698a:	4690      	mov	r8, r2
  40698c:	3301      	adds	r3, #1
  40698e:	443c      	add	r4, r7
  406990:	2b07      	cmp	r3, #7
  406992:	9427      	str	r4, [sp, #156]	; 0x9c
  406994:	9326      	str	r3, [sp, #152]	; 0x98
  406996:	e888 00a0 	stmia.w	r8, {r5, r7}
  40699a:	f300 8232 	bgt.w	406e02 <_svfprintf_r+0xe26>
  40699e:	f108 0808 	add.w	r8, r8, #8
  4069a2:	e4ac      	b.n	4062fe <_svfprintf_r+0x322>
  4069a4:	9b13      	ldr	r3, [sp, #76]	; 0x4c
  4069a6:	9f26      	ldr	r7, [sp, #152]	; 0x98
  4069a8:	2b01      	cmp	r3, #1
  4069aa:	f340 81fe 	ble.w	406daa <_svfprintf_r+0xdce>
  4069ae:	3701      	adds	r7, #1
  4069b0:	3401      	adds	r4, #1
  4069b2:	2301      	movs	r3, #1
  4069b4:	2f07      	cmp	r7, #7
  4069b6:	9427      	str	r4, [sp, #156]	; 0x9c
  4069b8:	9726      	str	r7, [sp, #152]	; 0x98
  4069ba:	f8c8 6000 	str.w	r6, [r8]
  4069be:	f8c8 3004 	str.w	r3, [r8, #4]
  4069c2:	f300 8203 	bgt.w	406dcc <_svfprintf_r+0xdf0>
  4069c6:	f108 0808 	add.w	r8, r8, #8
  4069ca:	9a19      	ldr	r2, [sp, #100]	; 0x64
  4069cc:	9b1a      	ldr	r3, [sp, #104]	; 0x68
  4069ce:	f8c8 3000 	str.w	r3, [r8]
  4069d2:	3701      	adds	r7, #1
  4069d4:	4414      	add	r4, r2
  4069d6:	2f07      	cmp	r7, #7
  4069d8:	9427      	str	r4, [sp, #156]	; 0x9c
  4069da:	9726      	str	r7, [sp, #152]	; 0x98
  4069dc:	f8c8 2004 	str.w	r2, [r8, #4]
  4069e0:	f300 8200 	bgt.w	406de4 <_svfprintf_r+0xe08>
  4069e4:	f108 0808 	add.w	r8, r8, #8
  4069e8:	a815      	add	r0, sp, #84	; 0x54
  4069ea:	c80d      	ldmia	r0, {r0, r2, r3}
  4069ec:	9914      	ldr	r1, [sp, #80]	; 0x50
  4069ee:	f003 f89f 	bl	409b30 <__aeabi_dcmpeq>
  4069f2:	9b13      	ldr	r3, [sp, #76]	; 0x4c
  4069f4:	2800      	cmp	r0, #0
  4069f6:	f040 8101 	bne.w	406bfc <_svfprintf_r+0xc20>
  4069fa:	3b01      	subs	r3, #1
  4069fc:	3701      	adds	r7, #1
  4069fe:	3601      	adds	r6, #1
  406a00:	441c      	add	r4, r3
  406a02:	2f07      	cmp	r7, #7
  406a04:	9726      	str	r7, [sp, #152]	; 0x98
  406a06:	9427      	str	r4, [sp, #156]	; 0x9c
  406a08:	f8c8 6000 	str.w	r6, [r8]
  406a0c:	f8c8 3004 	str.w	r3, [r8, #4]
  406a10:	f300 8127 	bgt.w	406c62 <_svfprintf_r+0xc86>
  406a14:	f108 0808 	add.w	r8, r8, #8
  406a18:	9a1b      	ldr	r2, [sp, #108]	; 0x6c
  406a1a:	f8c8 2004 	str.w	r2, [r8, #4]
  406a1e:	3701      	adds	r7, #1
  406a20:	4414      	add	r4, r2
  406a22:	ab21      	add	r3, sp, #132	; 0x84
  406a24:	2f07      	cmp	r7, #7
  406a26:	9427      	str	r4, [sp, #156]	; 0x9c
  406a28:	9726      	str	r7, [sp, #152]	; 0x98
  406a2a:	f8c8 3000 	str.w	r3, [r8]
  406a2e:	f77f acb3 	ble.w	406398 <_svfprintf_r+0x3bc>
  406a32:	aa25      	add	r2, sp, #148	; 0x94
  406a34:	990b      	ldr	r1, [sp, #44]	; 0x2c
  406a36:	980c      	ldr	r0, [sp, #48]	; 0x30
  406a38:	f002 ff06 	bl	409848 <__ssprint_r>
  406a3c:	2800      	cmp	r0, #0
  406a3e:	f47f ab9f 	bne.w	406180 <_svfprintf_r+0x1a4>
  406a42:	9c27      	ldr	r4, [sp, #156]	; 0x9c
  406a44:	46c8      	mov	r8, r9
  406a46:	e4a9      	b.n	40639c <_svfprintf_r+0x3c0>
  406a48:	aa25      	add	r2, sp, #148	; 0x94
  406a4a:	990b      	ldr	r1, [sp, #44]	; 0x2c
  406a4c:	980c      	ldr	r0, [sp, #48]	; 0x30
  406a4e:	f002 fefb 	bl	409848 <__ssprint_r>
  406a52:	2800      	cmp	r0, #0
  406a54:	f43f aceb 	beq.w	40642e <_svfprintf_r+0x452>
  406a58:	f7ff bb92 	b.w	406180 <_svfprintf_r+0x1a4>
  406a5c:	f8dd b01c 	ldr.w	fp, [sp, #28]
  406a60:	2b01      	cmp	r3, #1
  406a62:	f000 8134 	beq.w	406cce <_svfprintf_r+0xcf2>
  406a66:	2b02      	cmp	r3, #2
  406a68:	d125      	bne.n	406ab6 <_svfprintf_r+0xada>
  406a6a:	f8cd b01c 	str.w	fp, [sp, #28]
  406a6e:	2400      	movs	r4, #0
  406a70:	2500      	movs	r5, #0
  406a72:	e61e      	b.n	4066b2 <_svfprintf_r+0x6d6>
  406a74:	aa25      	add	r2, sp, #148	; 0x94
  406a76:	990b      	ldr	r1, [sp, #44]	; 0x2c
  406a78:	980c      	ldr	r0, [sp, #48]	; 0x30
  406a7a:	f002 fee5 	bl	409848 <__ssprint_r>
  406a7e:	2800      	cmp	r0, #0
  406a80:	f47f ab7e 	bne.w	406180 <_svfprintf_r+0x1a4>
  406a84:	9c27      	ldr	r4, [sp, #156]	; 0x9c
  406a86:	46c8      	mov	r8, r9
  406a88:	e475      	b.n	406376 <_svfprintf_r+0x39a>
  406a8a:	aa25      	add	r2, sp, #148	; 0x94
  406a8c:	990b      	ldr	r1, [sp, #44]	; 0x2c
  406a8e:	980c      	ldr	r0, [sp, #48]	; 0x30
  406a90:	f002 feda 	bl	409848 <__ssprint_r>
  406a94:	2800      	cmp	r0, #0
  406a96:	f47f ab73 	bne.w	406180 <_svfprintf_r+0x1a4>
  406a9a:	9c27      	ldr	r4, [sp, #156]	; 0x9c
  406a9c:	46c8      	mov	r8, r9
  406a9e:	e41b      	b.n	4062d8 <_svfprintf_r+0x2fc>
  406aa0:	aa25      	add	r2, sp, #148	; 0x94
  406aa2:	990b      	ldr	r1, [sp, #44]	; 0x2c
  406aa4:	980c      	ldr	r0, [sp, #48]	; 0x30
  406aa6:	f002 fecf 	bl	409848 <__ssprint_r>
  406aaa:	2800      	cmp	r0, #0
  406aac:	f47f ab68 	bne.w	406180 <_svfprintf_r+0x1a4>
  406ab0:	9c27      	ldr	r4, [sp, #156]	; 0x9c
  406ab2:	46c8      	mov	r8, r9
  406ab4:	e420      	b.n	4062f8 <_svfprintf_r+0x31c>
  406ab6:	f8cd b01c 	str.w	fp, [sp, #28]
  406aba:	2400      	movs	r4, #0
  406abc:	2500      	movs	r5, #0
  406abe:	4649      	mov	r1, r9
  406ac0:	e000      	b.n	406ac4 <_svfprintf_r+0xae8>
  406ac2:	4631      	mov	r1, r6
  406ac4:	08e2      	lsrs	r2, r4, #3
  406ac6:	ea42 7245 	orr.w	r2, r2, r5, lsl #29
  406aca:	08e8      	lsrs	r0, r5, #3
  406acc:	f004 0307 	and.w	r3, r4, #7
  406ad0:	4605      	mov	r5, r0
  406ad2:	4614      	mov	r4, r2
  406ad4:	3330      	adds	r3, #48	; 0x30
  406ad6:	ea54 0205 	orrs.w	r2, r4, r5
  406ada:	f801 3c01 	strb.w	r3, [r1, #-1]
  406ade:	f101 36ff 	add.w	r6, r1, #4294967295
  406ae2:	d1ee      	bne.n	406ac2 <_svfprintf_r+0xae6>
  406ae4:	9a07      	ldr	r2, [sp, #28]
  406ae6:	07d2      	lsls	r2, r2, #31
  406ae8:	f57f adf3 	bpl.w	4066d2 <_svfprintf_r+0x6f6>
  406aec:	2b30      	cmp	r3, #48	; 0x30
  406aee:	f43f adf0 	beq.w	4066d2 <_svfprintf_r+0x6f6>
  406af2:	3902      	subs	r1, #2
  406af4:	2330      	movs	r3, #48	; 0x30
  406af6:	f806 3c01 	strb.w	r3, [r6, #-1]
  406afa:	eba9 0301 	sub.w	r3, r9, r1
  406afe:	930e      	str	r3, [sp, #56]	; 0x38
  406b00:	460e      	mov	r6, r1
  406b02:	f7ff bb7b 	b.w	4061fc <_svfprintf_r+0x220>
  406b06:	991f      	ldr	r1, [sp, #124]	; 0x7c
  406b08:	2900      	cmp	r1, #0
  406b0a:	f340 822e 	ble.w	406f6a <_svfprintf_r+0xf8e>
  406b0e:	9b12      	ldr	r3, [sp, #72]	; 0x48
  406b10:	9a13      	ldr	r2, [sp, #76]	; 0x4c
  406b12:	4293      	cmp	r3, r2
  406b14:	bfa8      	it	ge
  406b16:	4613      	movge	r3, r2
  406b18:	2b00      	cmp	r3, #0
  406b1a:	461f      	mov	r7, r3
  406b1c:	dd0d      	ble.n	406b3a <_svfprintf_r+0xb5e>
  406b1e:	9b26      	ldr	r3, [sp, #152]	; 0x98
  406b20:	f8c8 6000 	str.w	r6, [r8]
  406b24:	3301      	adds	r3, #1
  406b26:	443c      	add	r4, r7
  406b28:	2b07      	cmp	r3, #7
  406b2a:	9427      	str	r4, [sp, #156]	; 0x9c
  406b2c:	f8c8 7004 	str.w	r7, [r8, #4]
  406b30:	9326      	str	r3, [sp, #152]	; 0x98
  406b32:	f300 831f 	bgt.w	407174 <_svfprintf_r+0x1198>
  406b36:	f108 0808 	add.w	r8, r8, #8
  406b3a:	9b12      	ldr	r3, [sp, #72]	; 0x48
  406b3c:	2f00      	cmp	r7, #0
  406b3e:	bfa8      	it	ge
  406b40:	1bdb      	subge	r3, r3, r7
  406b42:	2b00      	cmp	r3, #0
  406b44:	461f      	mov	r7, r3
  406b46:	f340 80d6 	ble.w	406cf6 <_svfprintf_r+0xd1a>
  406b4a:	2f10      	cmp	r7, #16
  406b4c:	9b26      	ldr	r3, [sp, #152]	; 0x98
  406b4e:	4d31      	ldr	r5, [pc, #196]	; (406c14 <_svfprintf_r+0xc38>)
  406b50:	f340 81ed 	ble.w	406f2e <_svfprintf_r+0xf52>
  406b54:	4642      	mov	r2, r8
  406b56:	4621      	mov	r1, r4
  406b58:	46b0      	mov	r8, r6
  406b5a:	f04f 0b10 	mov.w	fp, #16
  406b5e:	462e      	mov	r6, r5
  406b60:	9c0c      	ldr	r4, [sp, #48]	; 0x30
  406b62:	9d0b      	ldr	r5, [sp, #44]	; 0x2c
  406b64:	e004      	b.n	406b70 <_svfprintf_r+0xb94>
  406b66:	3208      	adds	r2, #8
  406b68:	3f10      	subs	r7, #16
  406b6a:	2f10      	cmp	r7, #16
  406b6c:	f340 81db 	ble.w	406f26 <_svfprintf_r+0xf4a>
  406b70:	3301      	adds	r3, #1
  406b72:	3110      	adds	r1, #16
  406b74:	2b07      	cmp	r3, #7
  406b76:	9127      	str	r1, [sp, #156]	; 0x9c
  406b78:	9326      	str	r3, [sp, #152]	; 0x98
  406b7a:	e882 0840 	stmia.w	r2, {r6, fp}
  406b7e:	ddf2      	ble.n	406b66 <_svfprintf_r+0xb8a>
  406b80:	aa25      	add	r2, sp, #148	; 0x94
  406b82:	4629      	mov	r1, r5
  406b84:	4620      	mov	r0, r4
  406b86:	f002 fe5f 	bl	409848 <__ssprint_r>
  406b8a:	2800      	cmp	r0, #0
  406b8c:	f47f aaf8 	bne.w	406180 <_svfprintf_r+0x1a4>
  406b90:	9927      	ldr	r1, [sp, #156]	; 0x9c
  406b92:	9b26      	ldr	r3, [sp, #152]	; 0x98
  406b94:	464a      	mov	r2, r9
  406b96:	e7e7      	b.n	406b68 <_svfprintf_r+0xb8c>
  406b98:	9b0a      	ldr	r3, [sp, #40]	; 0x28
  406b9a:	930e      	str	r3, [sp, #56]	; 0x38
  406b9c:	464e      	mov	r6, r9
  406b9e:	f7ff bb2d 	b.w	4061fc <_svfprintf_r+0x220>
  406ba2:	2d00      	cmp	r5, #0
  406ba4:	bf08      	it	eq
  406ba6:	2c0a      	cmpeq	r4, #10
  406ba8:	f0c0 808f 	bcc.w	406cca <_svfprintf_r+0xcee>
  406bac:	464e      	mov	r6, r9
  406bae:	4620      	mov	r0, r4
  406bb0:	4629      	mov	r1, r5
  406bb2:	220a      	movs	r2, #10
  406bb4:	2300      	movs	r3, #0
  406bb6:	f7fe fda3 	bl	405700 <__aeabi_uldivmod>
  406bba:	3230      	adds	r2, #48	; 0x30
  406bbc:	f806 2d01 	strb.w	r2, [r6, #-1]!
  406bc0:	4620      	mov	r0, r4
  406bc2:	4629      	mov	r1, r5
  406bc4:	2300      	movs	r3, #0
  406bc6:	220a      	movs	r2, #10
  406bc8:	f7fe fd9a 	bl	405700 <__aeabi_uldivmod>
  406bcc:	4604      	mov	r4, r0
  406bce:	460d      	mov	r5, r1
  406bd0:	ea54 0305 	orrs.w	r3, r4, r5
  406bd4:	d1eb      	bne.n	406bae <_svfprintf_r+0xbd2>
  406bd6:	eba9 0306 	sub.w	r3, r9, r6
  406bda:	930e      	str	r3, [sp, #56]	; 0x38
  406bdc:	f7ff bb0e 	b.w	4061fc <_svfprintf_r+0x220>
  406be0:	aa25      	add	r2, sp, #148	; 0x94
  406be2:	990b      	ldr	r1, [sp, #44]	; 0x2c
  406be4:	980c      	ldr	r0, [sp, #48]	; 0x30
  406be6:	f002 fe2f 	bl	409848 <__ssprint_r>
  406bea:	2800      	cmp	r0, #0
  406bec:	f47f aac8 	bne.w	406180 <_svfprintf_r+0x1a4>
  406bf0:	f89d 7077 	ldrb.w	r7, [sp, #119]	; 0x77
  406bf4:	9c27      	ldr	r4, [sp, #156]	; 0x9c
  406bf6:	46c8      	mov	r8, r9
  406bf8:	f7ff bb5e 	b.w	4062b8 <_svfprintf_r+0x2dc>
  406bfc:	1e5e      	subs	r6, r3, #1
  406bfe:	2e00      	cmp	r6, #0
  406c00:	f77f af0a 	ble.w	406a18 <_svfprintf_r+0xa3c>
  406c04:	2e10      	cmp	r6, #16
  406c06:	4d03      	ldr	r5, [pc, #12]	; (406c14 <_svfprintf_r+0xc38>)
  406c08:	dd22      	ble.n	406c50 <_svfprintf_r+0xc74>
  406c0a:	4622      	mov	r2, r4
  406c0c:	f04f 0b10 	mov.w	fp, #16
  406c10:	9c0c      	ldr	r4, [sp, #48]	; 0x30
  406c12:	e006      	b.n	406c22 <_svfprintf_r+0xc46>
  406c14:	0040a444 	.word	0x0040a444
  406c18:	3e10      	subs	r6, #16
  406c1a:	2e10      	cmp	r6, #16
  406c1c:	f108 0808 	add.w	r8, r8, #8
  406c20:	dd15      	ble.n	406c4e <_svfprintf_r+0xc72>
  406c22:	3701      	adds	r7, #1
  406c24:	3210      	adds	r2, #16
  406c26:	2f07      	cmp	r7, #7
  406c28:	9227      	str	r2, [sp, #156]	; 0x9c
  406c2a:	9726      	str	r7, [sp, #152]	; 0x98
  406c2c:	e888 0820 	stmia.w	r8, {r5, fp}
  406c30:	ddf2      	ble.n	406c18 <_svfprintf_r+0xc3c>
  406c32:	aa25      	add	r2, sp, #148	; 0x94
  406c34:	990b      	ldr	r1, [sp, #44]	; 0x2c
  406c36:	4620      	mov	r0, r4
  406c38:	f002 fe06 	bl	409848 <__ssprint_r>
  406c3c:	2800      	cmp	r0, #0
  406c3e:	f47f aa9f 	bne.w	406180 <_svfprintf_r+0x1a4>
  406c42:	3e10      	subs	r6, #16
  406c44:	2e10      	cmp	r6, #16
  406c46:	9a27      	ldr	r2, [sp, #156]	; 0x9c
  406c48:	9f26      	ldr	r7, [sp, #152]	; 0x98
  406c4a:	46c8      	mov	r8, r9
  406c4c:	dce9      	bgt.n	406c22 <_svfprintf_r+0xc46>
  406c4e:	4614      	mov	r4, r2
  406c50:	3701      	adds	r7, #1
  406c52:	4434      	add	r4, r6
  406c54:	2f07      	cmp	r7, #7
  406c56:	9427      	str	r4, [sp, #156]	; 0x9c
  406c58:	9726      	str	r7, [sp, #152]	; 0x98
  406c5a:	e888 0060 	stmia.w	r8, {r5, r6}
  406c5e:	f77f aed9 	ble.w	406a14 <_svfprintf_r+0xa38>
  406c62:	aa25      	add	r2, sp, #148	; 0x94
  406c64:	990b      	ldr	r1, [sp, #44]	; 0x2c
  406c66:	980c      	ldr	r0, [sp, #48]	; 0x30
  406c68:	f002 fdee 	bl	409848 <__ssprint_r>
  406c6c:	2800      	cmp	r0, #0
  406c6e:	f47f aa87 	bne.w	406180 <_svfprintf_r+0x1a4>
  406c72:	9c27      	ldr	r4, [sp, #156]	; 0x9c
  406c74:	9f26      	ldr	r7, [sp, #152]	; 0x98
  406c76:	46c8      	mov	r8, r9
  406c78:	e6ce      	b.n	406a18 <_svfprintf_r+0xa3c>
  406c7a:	9a0f      	ldr	r2, [sp, #60]	; 0x3c
  406c7c:	6814      	ldr	r4, [r2, #0]
  406c7e:	4613      	mov	r3, r2
  406c80:	3304      	adds	r3, #4
  406c82:	17e5      	asrs	r5, r4, #31
  406c84:	930f      	str	r3, [sp, #60]	; 0x3c
  406c86:	4622      	mov	r2, r4
  406c88:	462b      	mov	r3, r5
  406c8a:	e4fa      	b.n	406682 <_svfprintf_r+0x6a6>
  406c8c:	3204      	adds	r2, #4
  406c8e:	681c      	ldr	r4, [r3, #0]
  406c90:	920f      	str	r2, [sp, #60]	; 0x3c
  406c92:	2301      	movs	r3, #1
  406c94:	2500      	movs	r5, #0
  406c96:	f7ff ba94 	b.w	4061c2 <_svfprintf_r+0x1e6>
  406c9a:	681c      	ldr	r4, [r3, #0]
  406c9c:	3304      	adds	r3, #4
  406c9e:	930f      	str	r3, [sp, #60]	; 0x3c
  406ca0:	2500      	movs	r5, #0
  406ca2:	e421      	b.n	4064e8 <_svfprintf_r+0x50c>
  406ca4:	990f      	ldr	r1, [sp, #60]	; 0x3c
  406ca6:	460a      	mov	r2, r1
  406ca8:	3204      	adds	r2, #4
  406caa:	680c      	ldr	r4, [r1, #0]
  406cac:	920f      	str	r2, [sp, #60]	; 0x3c
  406cae:	2500      	movs	r5, #0
  406cb0:	f7ff ba87 	b.w	4061c2 <_svfprintf_r+0x1e6>
  406cb4:	4614      	mov	r4, r2
  406cb6:	3301      	adds	r3, #1
  406cb8:	4434      	add	r4, r6
  406cba:	2b07      	cmp	r3, #7
  406cbc:	9427      	str	r4, [sp, #156]	; 0x9c
  406cbe:	9326      	str	r3, [sp, #152]	; 0x98
  406cc0:	e888 0060 	stmia.w	r8, {r5, r6}
  406cc4:	f77f ab68 	ble.w	406398 <_svfprintf_r+0x3bc>
  406cc8:	e6b3      	b.n	406a32 <_svfprintf_r+0xa56>
  406cca:	f8dd b01c 	ldr.w	fp, [sp, #28]
  406cce:	f8cd b01c 	str.w	fp, [sp, #28]
  406cd2:	ae42      	add	r6, sp, #264	; 0x108
  406cd4:	3430      	adds	r4, #48	; 0x30
  406cd6:	2301      	movs	r3, #1
  406cd8:	f806 4d41 	strb.w	r4, [r6, #-65]!
  406cdc:	930e      	str	r3, [sp, #56]	; 0x38
  406cde:	f7ff ba8d 	b.w	4061fc <_svfprintf_r+0x220>
  406ce2:	aa25      	add	r2, sp, #148	; 0x94
  406ce4:	990b      	ldr	r1, [sp, #44]	; 0x2c
  406ce6:	980c      	ldr	r0, [sp, #48]	; 0x30
  406ce8:	f002 fdae 	bl	409848 <__ssprint_r>
  406cec:	2800      	cmp	r0, #0
  406cee:	f47f aa47 	bne.w	406180 <_svfprintf_r+0x1a4>
  406cf2:	9c27      	ldr	r4, [sp, #156]	; 0x9c
  406cf4:	46c8      	mov	r8, r9
  406cf6:	9a1f      	ldr	r2, [sp, #124]	; 0x7c
  406cf8:	9b13      	ldr	r3, [sp, #76]	; 0x4c
  406cfa:	429a      	cmp	r2, r3
  406cfc:	db44      	blt.n	406d88 <_svfprintf_r+0xdac>
  406cfe:	9b07      	ldr	r3, [sp, #28]
  406d00:	07d9      	lsls	r1, r3, #31
  406d02:	d441      	bmi.n	406d88 <_svfprintf_r+0xdac>
  406d04:	9b13      	ldr	r3, [sp, #76]	; 0x4c
  406d06:	9812      	ldr	r0, [sp, #72]	; 0x48
  406d08:	1a9a      	subs	r2, r3, r2
  406d0a:	1a1d      	subs	r5, r3, r0
  406d0c:	4295      	cmp	r5, r2
  406d0e:	bfa8      	it	ge
  406d10:	4615      	movge	r5, r2
  406d12:	2d00      	cmp	r5, #0
  406d14:	dd0e      	ble.n	406d34 <_svfprintf_r+0xd58>
  406d16:	9926      	ldr	r1, [sp, #152]	; 0x98
  406d18:	f8c8 5004 	str.w	r5, [r8, #4]
  406d1c:	3101      	adds	r1, #1
  406d1e:	4406      	add	r6, r0
  406d20:	442c      	add	r4, r5
  406d22:	2907      	cmp	r1, #7
  406d24:	f8c8 6000 	str.w	r6, [r8]
  406d28:	9427      	str	r4, [sp, #156]	; 0x9c
  406d2a:	9126      	str	r1, [sp, #152]	; 0x98
  406d2c:	f300 823b 	bgt.w	4071a6 <_svfprintf_r+0x11ca>
  406d30:	f108 0808 	add.w	r8, r8, #8
  406d34:	2d00      	cmp	r5, #0
  406d36:	bfac      	ite	ge
  406d38:	1b56      	subge	r6, r2, r5
  406d3a:	4616      	movlt	r6, r2
  406d3c:	2e00      	cmp	r6, #0
  406d3e:	f77f ab2d 	ble.w	40639c <_svfprintf_r+0x3c0>
  406d42:	2e10      	cmp	r6, #16
  406d44:	9b26      	ldr	r3, [sp, #152]	; 0x98
  406d46:	4db0      	ldr	r5, [pc, #704]	; (407008 <_svfprintf_r+0x102c>)
  406d48:	ddb5      	ble.n	406cb6 <_svfprintf_r+0xcda>
  406d4a:	4622      	mov	r2, r4
  406d4c:	2710      	movs	r7, #16
  406d4e:	f8dd b030 	ldr.w	fp, [sp, #48]	; 0x30
  406d52:	9c0b      	ldr	r4, [sp, #44]	; 0x2c
  406d54:	e004      	b.n	406d60 <_svfprintf_r+0xd84>
  406d56:	f108 0808 	add.w	r8, r8, #8
  406d5a:	3e10      	subs	r6, #16
  406d5c:	2e10      	cmp	r6, #16
  406d5e:	dda9      	ble.n	406cb4 <_svfprintf_r+0xcd8>
  406d60:	3301      	adds	r3, #1
  406d62:	3210      	adds	r2, #16
  406d64:	2b07      	cmp	r3, #7
  406d66:	9227      	str	r2, [sp, #156]	; 0x9c
  406d68:	9326      	str	r3, [sp, #152]	; 0x98
  406d6a:	e888 00a0 	stmia.w	r8, {r5, r7}
  406d6e:	ddf2      	ble.n	406d56 <_svfprintf_r+0xd7a>
  406d70:	aa25      	add	r2, sp, #148	; 0x94
  406d72:	4621      	mov	r1, r4
  406d74:	4658      	mov	r0, fp
  406d76:	f002 fd67 	bl	409848 <__ssprint_r>
  406d7a:	2800      	cmp	r0, #0
  406d7c:	f47f aa00 	bne.w	406180 <_svfprintf_r+0x1a4>
  406d80:	9a27      	ldr	r2, [sp, #156]	; 0x9c
  406d82:	9b26      	ldr	r3, [sp, #152]	; 0x98
  406d84:	46c8      	mov	r8, r9
  406d86:	e7e8      	b.n	406d5a <_svfprintf_r+0xd7e>
  406d88:	9b26      	ldr	r3, [sp, #152]	; 0x98
  406d8a:	9819      	ldr	r0, [sp, #100]	; 0x64
  406d8c:	991a      	ldr	r1, [sp, #104]	; 0x68
  406d8e:	f8c8 1000 	str.w	r1, [r8]
  406d92:	3301      	adds	r3, #1
  406d94:	4404      	add	r4, r0
  406d96:	2b07      	cmp	r3, #7
  406d98:	9427      	str	r4, [sp, #156]	; 0x9c
  406d9a:	f8c8 0004 	str.w	r0, [r8, #4]
  406d9e:	9326      	str	r3, [sp, #152]	; 0x98
  406da0:	f300 81f5 	bgt.w	40718e <_svfprintf_r+0x11b2>
  406da4:	f108 0808 	add.w	r8, r8, #8
  406da8:	e7ac      	b.n	406d04 <_svfprintf_r+0xd28>
  406daa:	9b07      	ldr	r3, [sp, #28]
  406dac:	07da      	lsls	r2, r3, #31
  406dae:	f53f adfe 	bmi.w	4069ae <_svfprintf_r+0x9d2>
  406db2:	3701      	adds	r7, #1
  406db4:	3401      	adds	r4, #1
  406db6:	2301      	movs	r3, #1
  406db8:	2f07      	cmp	r7, #7
  406dba:	9427      	str	r4, [sp, #156]	; 0x9c
  406dbc:	9726      	str	r7, [sp, #152]	; 0x98
  406dbe:	f8c8 6000 	str.w	r6, [r8]
  406dc2:	f8c8 3004 	str.w	r3, [r8, #4]
  406dc6:	f77f ae25 	ble.w	406a14 <_svfprintf_r+0xa38>
  406dca:	e74a      	b.n	406c62 <_svfprintf_r+0xc86>
  406dcc:	aa25      	add	r2, sp, #148	; 0x94
  406dce:	990b      	ldr	r1, [sp, #44]	; 0x2c
  406dd0:	980c      	ldr	r0, [sp, #48]	; 0x30
  406dd2:	f002 fd39 	bl	409848 <__ssprint_r>
  406dd6:	2800      	cmp	r0, #0
  406dd8:	f47f a9d2 	bne.w	406180 <_svfprintf_r+0x1a4>
  406ddc:	9c27      	ldr	r4, [sp, #156]	; 0x9c
  406dde:	9f26      	ldr	r7, [sp, #152]	; 0x98
  406de0:	46c8      	mov	r8, r9
  406de2:	e5f2      	b.n	4069ca <_svfprintf_r+0x9ee>
  406de4:	aa25      	add	r2, sp, #148	; 0x94
  406de6:	990b      	ldr	r1, [sp, #44]	; 0x2c
  406de8:	980c      	ldr	r0, [sp, #48]	; 0x30
  406dea:	f002 fd2d 	bl	409848 <__ssprint_r>
  406dee:	2800      	cmp	r0, #0
  406df0:	f47f a9c6 	bne.w	406180 <_svfprintf_r+0x1a4>
  406df4:	9c27      	ldr	r4, [sp, #156]	; 0x9c
  406df6:	9f26      	ldr	r7, [sp, #152]	; 0x98
  406df8:	46c8      	mov	r8, r9
  406dfa:	e5f5      	b.n	4069e8 <_svfprintf_r+0xa0c>
  406dfc:	464e      	mov	r6, r9
  406dfe:	f7ff b9fd 	b.w	4061fc <_svfprintf_r+0x220>
  406e02:	aa25      	add	r2, sp, #148	; 0x94
  406e04:	990b      	ldr	r1, [sp, #44]	; 0x2c
  406e06:	980c      	ldr	r0, [sp, #48]	; 0x30
  406e08:	f002 fd1e 	bl	409848 <__ssprint_r>
  406e0c:	2800      	cmp	r0, #0
  406e0e:	f47f a9b7 	bne.w	406180 <_svfprintf_r+0x1a4>
  406e12:	9c27      	ldr	r4, [sp, #156]	; 0x9c
  406e14:	46c8      	mov	r8, r9
  406e16:	f7ff ba72 	b.w	4062fe <_svfprintf_r+0x322>
  406e1a:	9c15      	ldr	r4, [sp, #84]	; 0x54
  406e1c:	4622      	mov	r2, r4
  406e1e:	4620      	mov	r0, r4
  406e20:	9c14      	ldr	r4, [sp, #80]	; 0x50
  406e22:	4623      	mov	r3, r4
  406e24:	4621      	mov	r1, r4
  406e26:	f002 feb5 	bl	409b94 <__aeabi_dcmpun>
  406e2a:	2800      	cmp	r0, #0
  406e2c:	f040 8286 	bne.w	40733c <_svfprintf_r+0x1360>
  406e30:	9b0a      	ldr	r3, [sp, #40]	; 0x28
  406e32:	3301      	adds	r3, #1
  406e34:	9b11      	ldr	r3, [sp, #68]	; 0x44
  406e36:	f023 0320 	bic.w	r3, r3, #32
  406e3a:	930e      	str	r3, [sp, #56]	; 0x38
  406e3c:	f000 81e2 	beq.w	407204 <_svfprintf_r+0x1228>
  406e40:	2b47      	cmp	r3, #71	; 0x47
  406e42:	f000 811e 	beq.w	407082 <_svfprintf_r+0x10a6>
  406e46:	f44b 7380 	orr.w	r3, fp, #256	; 0x100
  406e4a:	9307      	str	r3, [sp, #28]
  406e4c:	9b14      	ldr	r3, [sp, #80]	; 0x50
  406e4e:	1e1f      	subs	r7, r3, #0
  406e50:	9b15      	ldr	r3, [sp, #84]	; 0x54
  406e52:	9308      	str	r3, [sp, #32]
  406e54:	bfbb      	ittet	lt
  406e56:	463b      	movlt	r3, r7
  406e58:	f103 4700 	addlt.w	r7, r3, #2147483648	; 0x80000000
  406e5c:	2300      	movge	r3, #0
  406e5e:	232d      	movlt	r3, #45	; 0x2d
  406e60:	9310      	str	r3, [sp, #64]	; 0x40
  406e62:	9b11      	ldr	r3, [sp, #68]	; 0x44
  406e64:	2b66      	cmp	r3, #102	; 0x66
  406e66:	f000 81bb 	beq.w	4071e0 <_svfprintf_r+0x1204>
  406e6a:	2b46      	cmp	r3, #70	; 0x46
  406e6c:	f000 80df 	beq.w	40702e <_svfprintf_r+0x1052>
  406e70:	9b0e      	ldr	r3, [sp, #56]	; 0x38
  406e72:	9a08      	ldr	r2, [sp, #32]
  406e74:	2b45      	cmp	r3, #69	; 0x45
  406e76:	bf0c      	ite	eq
  406e78:	9b0a      	ldreq	r3, [sp, #40]	; 0x28
  406e7a:	9d0a      	ldrne	r5, [sp, #40]	; 0x28
  406e7c:	a823      	add	r0, sp, #140	; 0x8c
  406e7e:	a920      	add	r1, sp, #128	; 0x80
  406e80:	bf08      	it	eq
  406e82:	1c5d      	addeq	r5, r3, #1
  406e84:	9004      	str	r0, [sp, #16]
  406e86:	9103      	str	r1, [sp, #12]
  406e88:	a81f      	add	r0, sp, #124	; 0x7c
  406e8a:	2102      	movs	r1, #2
  406e8c:	463b      	mov	r3, r7
  406e8e:	9002      	str	r0, [sp, #8]
  406e90:	9501      	str	r5, [sp, #4]
  406e92:	9100      	str	r1, [sp, #0]
  406e94:	980c      	ldr	r0, [sp, #48]	; 0x30
  406e96:	f000 fb73 	bl	407580 <_dtoa_r>
  406e9a:	9b11      	ldr	r3, [sp, #68]	; 0x44
  406e9c:	2b67      	cmp	r3, #103	; 0x67
  406e9e:	4606      	mov	r6, r0
  406ea0:	f040 81e0 	bne.w	407264 <_svfprintf_r+0x1288>
  406ea4:	f01b 0f01 	tst.w	fp, #1
  406ea8:	f000 8246 	beq.w	407338 <_svfprintf_r+0x135c>
  406eac:	1974      	adds	r4, r6, r5
  406eae:	9a16      	ldr	r2, [sp, #88]	; 0x58
  406eb0:	9808      	ldr	r0, [sp, #32]
  406eb2:	9b17      	ldr	r3, [sp, #92]	; 0x5c
  406eb4:	4639      	mov	r1, r7
  406eb6:	f002 fe3b 	bl	409b30 <__aeabi_dcmpeq>
  406eba:	2800      	cmp	r0, #0
  406ebc:	f040 8165 	bne.w	40718a <_svfprintf_r+0x11ae>
  406ec0:	9b23      	ldr	r3, [sp, #140]	; 0x8c
  406ec2:	42a3      	cmp	r3, r4
  406ec4:	d206      	bcs.n	406ed4 <_svfprintf_r+0xef8>
  406ec6:	2130      	movs	r1, #48	; 0x30
  406ec8:	1c5a      	adds	r2, r3, #1
  406eca:	9223      	str	r2, [sp, #140]	; 0x8c
  406ecc:	7019      	strb	r1, [r3, #0]
  406ece:	9b23      	ldr	r3, [sp, #140]	; 0x8c
  406ed0:	429c      	cmp	r4, r3
  406ed2:	d8f9      	bhi.n	406ec8 <_svfprintf_r+0xeec>
  406ed4:	1b9b      	subs	r3, r3, r6
  406ed6:	9313      	str	r3, [sp, #76]	; 0x4c
  406ed8:	9b0e      	ldr	r3, [sp, #56]	; 0x38
  406eda:	2b47      	cmp	r3, #71	; 0x47
  406edc:	f000 80e9 	beq.w	4070b2 <_svfprintf_r+0x10d6>
  406ee0:	9b11      	ldr	r3, [sp, #68]	; 0x44
  406ee2:	2b65      	cmp	r3, #101	; 0x65
  406ee4:	f340 81cd 	ble.w	407282 <_svfprintf_r+0x12a6>
  406ee8:	9b11      	ldr	r3, [sp, #68]	; 0x44
  406eea:	2b66      	cmp	r3, #102	; 0x66
  406eec:	9b1f      	ldr	r3, [sp, #124]	; 0x7c
  406eee:	9312      	str	r3, [sp, #72]	; 0x48
  406ef0:	f000 819e 	beq.w	407230 <_svfprintf_r+0x1254>
  406ef4:	9b13      	ldr	r3, [sp, #76]	; 0x4c
  406ef6:	9a12      	ldr	r2, [sp, #72]	; 0x48
  406ef8:	4619      	mov	r1, r3
  406efa:	4291      	cmp	r1, r2
  406efc:	f300 818a 	bgt.w	407214 <_svfprintf_r+0x1238>
  406f00:	f01b 0f01 	tst.w	fp, #1
  406f04:	f040 8213 	bne.w	40732e <_svfprintf_r+0x1352>
  406f08:	ea22 73e2 	bic.w	r3, r2, r2, asr #31
  406f0c:	9308      	str	r3, [sp, #32]
  406f0e:	2367      	movs	r3, #103	; 0x67
  406f10:	920e      	str	r2, [sp, #56]	; 0x38
  406f12:	9311      	str	r3, [sp, #68]	; 0x44
  406f14:	9b10      	ldr	r3, [sp, #64]	; 0x40
  406f16:	2b00      	cmp	r3, #0
  406f18:	f040 80c4 	bne.w	4070a4 <_svfprintf_r+0x10c8>
  406f1c:	930a      	str	r3, [sp, #40]	; 0x28
  406f1e:	f89d 7077 	ldrb.w	r7, [sp, #119]	; 0x77
  406f22:	f7ff b973 	b.w	40620c <_svfprintf_r+0x230>
  406f26:	4635      	mov	r5, r6
  406f28:	460c      	mov	r4, r1
  406f2a:	4646      	mov	r6, r8
  406f2c:	4690      	mov	r8, r2
  406f2e:	3301      	adds	r3, #1
  406f30:	443c      	add	r4, r7
  406f32:	2b07      	cmp	r3, #7
  406f34:	9427      	str	r4, [sp, #156]	; 0x9c
  406f36:	9326      	str	r3, [sp, #152]	; 0x98
  406f38:	e888 00a0 	stmia.w	r8, {r5, r7}
  406f3c:	f73f aed1 	bgt.w	406ce2 <_svfprintf_r+0xd06>
  406f40:	f108 0808 	add.w	r8, r8, #8
  406f44:	e6d7      	b.n	406cf6 <_svfprintf_r+0xd1a>
  406f46:	9a0f      	ldr	r2, [sp, #60]	; 0x3c
  406f48:	6813      	ldr	r3, [r2, #0]
  406f4a:	3204      	adds	r2, #4
  406f4c:	920f      	str	r2, [sp, #60]	; 0x3c
  406f4e:	9a09      	ldr	r2, [sp, #36]	; 0x24
  406f50:	601a      	str	r2, [r3, #0]
  406f52:	f7ff b86a 	b.w	40602a <_svfprintf_r+0x4e>
  406f56:	aa25      	add	r2, sp, #148	; 0x94
  406f58:	990b      	ldr	r1, [sp, #44]	; 0x2c
  406f5a:	980c      	ldr	r0, [sp, #48]	; 0x30
  406f5c:	f002 fc74 	bl	409848 <__ssprint_r>
  406f60:	2800      	cmp	r0, #0
  406f62:	f47f a90d 	bne.w	406180 <_svfprintf_r+0x1a4>
  406f66:	46c8      	mov	r8, r9
  406f68:	e48d      	b.n	406886 <_svfprintf_r+0x8aa>
  406f6a:	9b26      	ldr	r3, [sp, #152]	; 0x98
  406f6c:	4a27      	ldr	r2, [pc, #156]	; (40700c <_svfprintf_r+0x1030>)
  406f6e:	f8c8 2000 	str.w	r2, [r8]
  406f72:	3301      	adds	r3, #1
  406f74:	3401      	adds	r4, #1
  406f76:	2201      	movs	r2, #1
  406f78:	2b07      	cmp	r3, #7
  406f7a:	9427      	str	r4, [sp, #156]	; 0x9c
  406f7c:	9326      	str	r3, [sp, #152]	; 0x98
  406f7e:	f8c8 2004 	str.w	r2, [r8, #4]
  406f82:	dc72      	bgt.n	40706a <_svfprintf_r+0x108e>
  406f84:	f108 0808 	add.w	r8, r8, #8
  406f88:	b929      	cbnz	r1, 406f96 <_svfprintf_r+0xfba>
  406f8a:	9b13      	ldr	r3, [sp, #76]	; 0x4c
  406f8c:	b91b      	cbnz	r3, 406f96 <_svfprintf_r+0xfba>
  406f8e:	9b07      	ldr	r3, [sp, #28]
  406f90:	07d8      	lsls	r0, r3, #31
  406f92:	f57f aa03 	bpl.w	40639c <_svfprintf_r+0x3c0>
  406f96:	9b26      	ldr	r3, [sp, #152]	; 0x98
  406f98:	9819      	ldr	r0, [sp, #100]	; 0x64
  406f9a:	9a1a      	ldr	r2, [sp, #104]	; 0x68
  406f9c:	f8c8 2000 	str.w	r2, [r8]
  406fa0:	3301      	adds	r3, #1
  406fa2:	4602      	mov	r2, r0
  406fa4:	4422      	add	r2, r4
  406fa6:	2b07      	cmp	r3, #7
  406fa8:	9227      	str	r2, [sp, #156]	; 0x9c
  406faa:	f8c8 0004 	str.w	r0, [r8, #4]
  406fae:	9326      	str	r3, [sp, #152]	; 0x98
  406fb0:	f300 818d 	bgt.w	4072ce <_svfprintf_r+0x12f2>
  406fb4:	f108 0808 	add.w	r8, r8, #8
  406fb8:	2900      	cmp	r1, #0
  406fba:	f2c0 8165 	blt.w	407288 <_svfprintf_r+0x12ac>
  406fbe:	9913      	ldr	r1, [sp, #76]	; 0x4c
  406fc0:	f8c8 6000 	str.w	r6, [r8]
  406fc4:	3301      	adds	r3, #1
  406fc6:	188c      	adds	r4, r1, r2
  406fc8:	2b07      	cmp	r3, #7
  406fca:	9427      	str	r4, [sp, #156]	; 0x9c
  406fcc:	9326      	str	r3, [sp, #152]	; 0x98
  406fce:	f8c8 1004 	str.w	r1, [r8, #4]
  406fd2:	f77f a9e1 	ble.w	406398 <_svfprintf_r+0x3bc>
  406fd6:	e52c      	b.n	406a32 <_svfprintf_r+0xa56>
  406fd8:	9a0f      	ldr	r2, [sp, #60]	; 0x3c
  406fda:	9909      	ldr	r1, [sp, #36]	; 0x24
  406fdc:	6813      	ldr	r3, [r2, #0]
  406fde:	17cd      	asrs	r5, r1, #31
  406fe0:	4608      	mov	r0, r1
  406fe2:	3204      	adds	r2, #4
  406fe4:	4629      	mov	r1, r5
  406fe6:	920f      	str	r2, [sp, #60]	; 0x3c
  406fe8:	e9c3 0100 	strd	r0, r1, [r3]
  406fec:	f7ff b81d 	b.w	40602a <_svfprintf_r+0x4e>
  406ff0:	aa25      	add	r2, sp, #148	; 0x94
  406ff2:	990b      	ldr	r1, [sp, #44]	; 0x2c
  406ff4:	980c      	ldr	r0, [sp, #48]	; 0x30
  406ff6:	f002 fc27 	bl	409848 <__ssprint_r>
  406ffa:	2800      	cmp	r0, #0
  406ffc:	f47f a8c0 	bne.w	406180 <_svfprintf_r+0x1a4>
  407000:	9c27      	ldr	r4, [sp, #156]	; 0x9c
  407002:	46c8      	mov	r8, r9
  407004:	e458      	b.n	4068b8 <_svfprintf_r+0x8dc>
  407006:	bf00      	nop
  407008:	0040a444 	.word	0x0040a444
  40700c:	0040a430 	.word	0x0040a430
  407010:	2140      	movs	r1, #64	; 0x40
  407012:	980c      	ldr	r0, [sp, #48]	; 0x30
  407014:	f001 fb40 	bl	408698 <_malloc_r>
  407018:	9a0b      	ldr	r2, [sp, #44]	; 0x2c
  40701a:	6010      	str	r0, [r2, #0]
  40701c:	6110      	str	r0, [r2, #16]
  40701e:	2800      	cmp	r0, #0
  407020:	f000 81f2 	beq.w	407408 <_svfprintf_r+0x142c>
  407024:	9a0b      	ldr	r2, [sp, #44]	; 0x2c
  407026:	2340      	movs	r3, #64	; 0x40
  407028:	6153      	str	r3, [r2, #20]
  40702a:	f7fe bfee 	b.w	40600a <_svfprintf_r+0x2e>
  40702e:	a823      	add	r0, sp, #140	; 0x8c
  407030:	a920      	add	r1, sp, #128	; 0x80
  407032:	9c0a      	ldr	r4, [sp, #40]	; 0x28
  407034:	9004      	str	r0, [sp, #16]
  407036:	9103      	str	r1, [sp, #12]
  407038:	a81f      	add	r0, sp, #124	; 0x7c
  40703a:	2103      	movs	r1, #3
  40703c:	9002      	str	r0, [sp, #8]
  40703e:	9a08      	ldr	r2, [sp, #32]
  407040:	9401      	str	r4, [sp, #4]
  407042:	463b      	mov	r3, r7
  407044:	9100      	str	r1, [sp, #0]
  407046:	980c      	ldr	r0, [sp, #48]	; 0x30
  407048:	f000 fa9a 	bl	407580 <_dtoa_r>
  40704c:	4625      	mov	r5, r4
  40704e:	4606      	mov	r6, r0
  407050:	9b11      	ldr	r3, [sp, #68]	; 0x44
  407052:	2b46      	cmp	r3, #70	; 0x46
  407054:	eb06 0405 	add.w	r4, r6, r5
  407058:	f47f af29 	bne.w	406eae <_svfprintf_r+0xed2>
  40705c:	7833      	ldrb	r3, [r6, #0]
  40705e:	2b30      	cmp	r3, #48	; 0x30
  407060:	f000 8178 	beq.w	407354 <_svfprintf_r+0x1378>
  407064:	9d1f      	ldr	r5, [sp, #124]	; 0x7c
  407066:	442c      	add	r4, r5
  407068:	e721      	b.n	406eae <_svfprintf_r+0xed2>
  40706a:	aa25      	add	r2, sp, #148	; 0x94
  40706c:	990b      	ldr	r1, [sp, #44]	; 0x2c
  40706e:	980c      	ldr	r0, [sp, #48]	; 0x30
  407070:	f002 fbea 	bl	409848 <__ssprint_r>
  407074:	2800      	cmp	r0, #0
  407076:	f47f a883 	bne.w	406180 <_svfprintf_r+0x1a4>
  40707a:	991f      	ldr	r1, [sp, #124]	; 0x7c
  40707c:	9c27      	ldr	r4, [sp, #156]	; 0x9c
  40707e:	46c8      	mov	r8, r9
  407080:	e782      	b.n	406f88 <_svfprintf_r+0xfac>
  407082:	9b0a      	ldr	r3, [sp, #40]	; 0x28
  407084:	2b00      	cmp	r3, #0
  407086:	bf08      	it	eq
  407088:	2301      	moveq	r3, #1
  40708a:	930a      	str	r3, [sp, #40]	; 0x28
  40708c:	e6db      	b.n	406e46 <_svfprintf_r+0xe6a>
  40708e:	4630      	mov	r0, r6
  407090:	940a      	str	r4, [sp, #40]	; 0x28
  407092:	f7fe ff35 	bl	405f00 <strlen>
  407096:	950f      	str	r5, [sp, #60]	; 0x3c
  407098:	900e      	str	r0, [sp, #56]	; 0x38
  40709a:	f8cd b01c 	str.w	fp, [sp, #28]
  40709e:	4603      	mov	r3, r0
  4070a0:	f7ff b9f9 	b.w	406496 <_svfprintf_r+0x4ba>
  4070a4:	272d      	movs	r7, #45	; 0x2d
  4070a6:	2300      	movs	r3, #0
  4070a8:	f88d 7077 	strb.w	r7, [sp, #119]	; 0x77
  4070ac:	930a      	str	r3, [sp, #40]	; 0x28
  4070ae:	f7ff b8ae 	b.w	40620e <_svfprintf_r+0x232>
  4070b2:	9b1f      	ldr	r3, [sp, #124]	; 0x7c
  4070b4:	9312      	str	r3, [sp, #72]	; 0x48
  4070b6:	461a      	mov	r2, r3
  4070b8:	3303      	adds	r3, #3
  4070ba:	db04      	blt.n	4070c6 <_svfprintf_r+0x10ea>
  4070bc:	9b0a      	ldr	r3, [sp, #40]	; 0x28
  4070be:	4619      	mov	r1, r3
  4070c0:	4291      	cmp	r1, r2
  4070c2:	f6bf af17 	bge.w	406ef4 <_svfprintf_r+0xf18>
  4070c6:	9b11      	ldr	r3, [sp, #68]	; 0x44
  4070c8:	3b02      	subs	r3, #2
  4070ca:	9311      	str	r3, [sp, #68]	; 0x44
  4070cc:	f89d 3044 	ldrb.w	r3, [sp, #68]	; 0x44
  4070d0:	f88d 3084 	strb.w	r3, [sp, #132]	; 0x84
  4070d4:	9b12      	ldr	r3, [sp, #72]	; 0x48
  4070d6:	3b01      	subs	r3, #1
  4070d8:	2b00      	cmp	r3, #0
  4070da:	931f      	str	r3, [sp, #124]	; 0x7c
  4070dc:	bfbd      	ittte	lt
  4070de:	9b12      	ldrlt	r3, [sp, #72]	; 0x48
  4070e0:	f1c3 0301 	rsblt	r3, r3, #1
  4070e4:	222d      	movlt	r2, #45	; 0x2d
  4070e6:	222b      	movge	r2, #43	; 0x2b
  4070e8:	2b09      	cmp	r3, #9
  4070ea:	f88d 2085 	strb.w	r2, [sp, #133]	; 0x85
  4070ee:	f340 8116 	ble.w	40731e <_svfprintf_r+0x1342>
  4070f2:	f10d 0493 	add.w	r4, sp, #147	; 0x93
  4070f6:	4620      	mov	r0, r4
  4070f8:	4dab      	ldr	r5, [pc, #684]	; (4073a8 <_svfprintf_r+0x13cc>)
  4070fa:	e000      	b.n	4070fe <_svfprintf_r+0x1122>
  4070fc:	4610      	mov	r0, r2
  4070fe:	fb85 1203 	smull	r1, r2, r5, r3
  407102:	17d9      	asrs	r1, r3, #31
  407104:	ebc1 01a2 	rsb	r1, r1, r2, asr #2
  407108:	eb01 0281 	add.w	r2, r1, r1, lsl #2
  40710c:	eba3 0242 	sub.w	r2, r3, r2, lsl #1
  407110:	3230      	adds	r2, #48	; 0x30
  407112:	2909      	cmp	r1, #9
  407114:	f800 2c01 	strb.w	r2, [r0, #-1]
  407118:	460b      	mov	r3, r1
  40711a:	f100 32ff 	add.w	r2, r0, #4294967295
  40711e:	dced      	bgt.n	4070fc <_svfprintf_r+0x1120>
  407120:	3330      	adds	r3, #48	; 0x30
  407122:	3802      	subs	r0, #2
  407124:	b2d9      	uxtb	r1, r3
  407126:	4284      	cmp	r4, r0
  407128:	f802 1c01 	strb.w	r1, [r2, #-1]
  40712c:	f240 8165 	bls.w	4073fa <_svfprintf_r+0x141e>
  407130:	f10d 0086 	add.w	r0, sp, #134	; 0x86
  407134:	4613      	mov	r3, r2
  407136:	e001      	b.n	40713c <_svfprintf_r+0x1160>
  407138:	f813 1b01 	ldrb.w	r1, [r3], #1
  40713c:	f800 1b01 	strb.w	r1, [r0], #1
  407140:	42a3      	cmp	r3, r4
  407142:	d1f9      	bne.n	407138 <_svfprintf_r+0x115c>
  407144:	3301      	adds	r3, #1
  407146:	1a9b      	subs	r3, r3, r2
  407148:	f10d 0286 	add.w	r2, sp, #134	; 0x86
  40714c:	4413      	add	r3, r2
  40714e:	aa21      	add	r2, sp, #132	; 0x84
  407150:	1a9b      	subs	r3, r3, r2
  407152:	9a13      	ldr	r2, [sp, #76]	; 0x4c
  407154:	931b      	str	r3, [sp, #108]	; 0x6c
  407156:	2a01      	cmp	r2, #1
  407158:	4413      	add	r3, r2
  40715a:	930e      	str	r3, [sp, #56]	; 0x38
  40715c:	f340 8119 	ble.w	407392 <_svfprintf_r+0x13b6>
  407160:	9b0e      	ldr	r3, [sp, #56]	; 0x38
  407162:	9a19      	ldr	r2, [sp, #100]	; 0x64
  407164:	4413      	add	r3, r2
  407166:	930e      	str	r3, [sp, #56]	; 0x38
  407168:	ea23 73e3 	bic.w	r3, r3, r3, asr #31
  40716c:	9308      	str	r3, [sp, #32]
  40716e:	2300      	movs	r3, #0
  407170:	9312      	str	r3, [sp, #72]	; 0x48
  407172:	e6cf      	b.n	406f14 <_svfprintf_r+0xf38>
  407174:	aa25      	add	r2, sp, #148	; 0x94
  407176:	990b      	ldr	r1, [sp, #44]	; 0x2c
  407178:	980c      	ldr	r0, [sp, #48]	; 0x30
  40717a:	f002 fb65 	bl	409848 <__ssprint_r>
  40717e:	2800      	cmp	r0, #0
  407180:	f47e affe 	bne.w	406180 <_svfprintf_r+0x1a4>
  407184:	9c27      	ldr	r4, [sp, #156]	; 0x9c
  407186:	46c8      	mov	r8, r9
  407188:	e4d7      	b.n	406b3a <_svfprintf_r+0xb5e>
  40718a:	4623      	mov	r3, r4
  40718c:	e6a2      	b.n	406ed4 <_svfprintf_r+0xef8>
  40718e:	aa25      	add	r2, sp, #148	; 0x94
  407190:	990b      	ldr	r1, [sp, #44]	; 0x2c
  407192:	980c      	ldr	r0, [sp, #48]	; 0x30
  407194:	f002 fb58 	bl	409848 <__ssprint_r>
  407198:	2800      	cmp	r0, #0
  40719a:	f47e aff1 	bne.w	406180 <_svfprintf_r+0x1a4>
  40719e:	9a1f      	ldr	r2, [sp, #124]	; 0x7c
  4071a0:	9c27      	ldr	r4, [sp, #156]	; 0x9c
  4071a2:	46c8      	mov	r8, r9
  4071a4:	e5ae      	b.n	406d04 <_svfprintf_r+0xd28>
  4071a6:	aa25      	add	r2, sp, #148	; 0x94
  4071a8:	990b      	ldr	r1, [sp, #44]	; 0x2c
  4071aa:	980c      	ldr	r0, [sp, #48]	; 0x30
  4071ac:	f002 fb4c 	bl	409848 <__ssprint_r>
  4071b0:	2800      	cmp	r0, #0
  4071b2:	f47e afe5 	bne.w	406180 <_svfprintf_r+0x1a4>
  4071b6:	9a1f      	ldr	r2, [sp, #124]	; 0x7c
  4071b8:	9b13      	ldr	r3, [sp, #76]	; 0x4c
  4071ba:	9c27      	ldr	r4, [sp, #156]	; 0x9c
  4071bc:	1a9a      	subs	r2, r3, r2
  4071be:	46c8      	mov	r8, r9
  4071c0:	e5b8      	b.n	406d34 <_svfprintf_r+0xd58>
  4071c2:	9b0a      	ldr	r3, [sp, #40]	; 0x28
  4071c4:	9612      	str	r6, [sp, #72]	; 0x48
  4071c6:	2b06      	cmp	r3, #6
  4071c8:	bf28      	it	cs
  4071ca:	2306      	movcs	r3, #6
  4071cc:	960a      	str	r6, [sp, #40]	; 0x28
  4071ce:	4637      	mov	r7, r6
  4071d0:	9308      	str	r3, [sp, #32]
  4071d2:	950f      	str	r5, [sp, #60]	; 0x3c
  4071d4:	f8cd b01c 	str.w	fp, [sp, #28]
  4071d8:	930e      	str	r3, [sp, #56]	; 0x38
  4071da:	4e74      	ldr	r6, [pc, #464]	; (4073ac <_svfprintf_r+0x13d0>)
  4071dc:	f7ff b816 	b.w	40620c <_svfprintf_r+0x230>
  4071e0:	a823      	add	r0, sp, #140	; 0x8c
  4071e2:	a920      	add	r1, sp, #128	; 0x80
  4071e4:	9d0a      	ldr	r5, [sp, #40]	; 0x28
  4071e6:	9004      	str	r0, [sp, #16]
  4071e8:	9103      	str	r1, [sp, #12]
  4071ea:	a81f      	add	r0, sp, #124	; 0x7c
  4071ec:	2103      	movs	r1, #3
  4071ee:	9002      	str	r0, [sp, #8]
  4071f0:	9a08      	ldr	r2, [sp, #32]
  4071f2:	9501      	str	r5, [sp, #4]
  4071f4:	463b      	mov	r3, r7
  4071f6:	9100      	str	r1, [sp, #0]
  4071f8:	980c      	ldr	r0, [sp, #48]	; 0x30
  4071fa:	f000 f9c1 	bl	407580 <_dtoa_r>
  4071fe:	4606      	mov	r6, r0
  407200:	1944      	adds	r4, r0, r5
  407202:	e72b      	b.n	40705c <_svfprintf_r+0x1080>
  407204:	2306      	movs	r3, #6
  407206:	930a      	str	r3, [sp, #40]	; 0x28
  407208:	e61d      	b.n	406e46 <_svfprintf_r+0xe6a>
  40720a:	272d      	movs	r7, #45	; 0x2d
  40720c:	f88d 7077 	strb.w	r7, [sp, #119]	; 0x77
  407210:	f7ff bacd 	b.w	4067ae <_svfprintf_r+0x7d2>
  407214:	9a19      	ldr	r2, [sp, #100]	; 0x64
  407216:	9b13      	ldr	r3, [sp, #76]	; 0x4c
  407218:	4413      	add	r3, r2
  40721a:	9a12      	ldr	r2, [sp, #72]	; 0x48
  40721c:	930e      	str	r3, [sp, #56]	; 0x38
  40721e:	2a00      	cmp	r2, #0
  407220:	f340 80b0 	ble.w	407384 <_svfprintf_r+0x13a8>
  407224:	ea23 73e3 	bic.w	r3, r3, r3, asr #31
  407228:	9308      	str	r3, [sp, #32]
  40722a:	2367      	movs	r3, #103	; 0x67
  40722c:	9311      	str	r3, [sp, #68]	; 0x44
  40722e:	e671      	b.n	406f14 <_svfprintf_r+0xf38>
  407230:	2b00      	cmp	r3, #0
  407232:	f340 80c3 	ble.w	4073bc <_svfprintf_r+0x13e0>
  407236:	9a0a      	ldr	r2, [sp, #40]	; 0x28
  407238:	2a00      	cmp	r2, #0
  40723a:	f040 8099 	bne.w	407370 <_svfprintf_r+0x1394>
  40723e:	f01b 0f01 	tst.w	fp, #1
  407242:	f040 8095 	bne.w	407370 <_svfprintf_r+0x1394>
  407246:	9308      	str	r3, [sp, #32]
  407248:	930e      	str	r3, [sp, #56]	; 0x38
  40724a:	e663      	b.n	406f14 <_svfprintf_r+0xf38>
  40724c:	9b0a      	ldr	r3, [sp, #40]	; 0x28
  40724e:	9308      	str	r3, [sp, #32]
  407250:	930e      	str	r3, [sp, #56]	; 0x38
  407252:	900a      	str	r0, [sp, #40]	; 0x28
  407254:	950f      	str	r5, [sp, #60]	; 0x3c
  407256:	f8cd b01c 	str.w	fp, [sp, #28]
  40725a:	9012      	str	r0, [sp, #72]	; 0x48
  40725c:	f89d 7077 	ldrb.w	r7, [sp, #119]	; 0x77
  407260:	f7fe bfd4 	b.w	40620c <_svfprintf_r+0x230>
  407264:	9b11      	ldr	r3, [sp, #68]	; 0x44
  407266:	2b47      	cmp	r3, #71	; 0x47
  407268:	f47f ae20 	bne.w	406eac <_svfprintf_r+0xed0>
  40726c:	f01b 0f01 	tst.w	fp, #1
  407270:	f47f aeee 	bne.w	407050 <_svfprintf_r+0x1074>
  407274:	9b23      	ldr	r3, [sp, #140]	; 0x8c
  407276:	1b9b      	subs	r3, r3, r6
  407278:	9313      	str	r3, [sp, #76]	; 0x4c
  40727a:	9b0e      	ldr	r3, [sp, #56]	; 0x38
  40727c:	2b47      	cmp	r3, #71	; 0x47
  40727e:	f43f af18 	beq.w	4070b2 <_svfprintf_r+0x10d6>
  407282:	9b1f      	ldr	r3, [sp, #124]	; 0x7c
  407284:	9312      	str	r3, [sp, #72]	; 0x48
  407286:	e721      	b.n	4070cc <_svfprintf_r+0x10f0>
  407288:	424f      	negs	r7, r1
  40728a:	3110      	adds	r1, #16
  40728c:	4d48      	ldr	r5, [pc, #288]	; (4073b0 <_svfprintf_r+0x13d4>)
  40728e:	da2f      	bge.n	4072f0 <_svfprintf_r+0x1314>
  407290:	2410      	movs	r4, #16
  407292:	f8dd b030 	ldr.w	fp, [sp, #48]	; 0x30
  407296:	e004      	b.n	4072a2 <_svfprintf_r+0x12c6>
  407298:	f108 0808 	add.w	r8, r8, #8
  40729c:	3f10      	subs	r7, #16
  40729e:	2f10      	cmp	r7, #16
  4072a0:	dd26      	ble.n	4072f0 <_svfprintf_r+0x1314>
  4072a2:	3301      	adds	r3, #1
  4072a4:	3210      	adds	r2, #16
  4072a6:	2b07      	cmp	r3, #7
  4072a8:	9227      	str	r2, [sp, #156]	; 0x9c
  4072aa:	9326      	str	r3, [sp, #152]	; 0x98
  4072ac:	f8c8 5000 	str.w	r5, [r8]
  4072b0:	f8c8 4004 	str.w	r4, [r8, #4]
  4072b4:	ddf0      	ble.n	407298 <_svfprintf_r+0x12bc>
  4072b6:	aa25      	add	r2, sp, #148	; 0x94
  4072b8:	990b      	ldr	r1, [sp, #44]	; 0x2c
  4072ba:	4658      	mov	r0, fp
  4072bc:	f002 fac4 	bl	409848 <__ssprint_r>
  4072c0:	2800      	cmp	r0, #0
  4072c2:	f47e af5d 	bne.w	406180 <_svfprintf_r+0x1a4>
  4072c6:	9a27      	ldr	r2, [sp, #156]	; 0x9c
  4072c8:	9b26      	ldr	r3, [sp, #152]	; 0x98
  4072ca:	46c8      	mov	r8, r9
  4072cc:	e7e6      	b.n	40729c <_svfprintf_r+0x12c0>
  4072ce:	aa25      	add	r2, sp, #148	; 0x94
  4072d0:	990b      	ldr	r1, [sp, #44]	; 0x2c
  4072d2:	980c      	ldr	r0, [sp, #48]	; 0x30
  4072d4:	f002 fab8 	bl	409848 <__ssprint_r>
  4072d8:	2800      	cmp	r0, #0
  4072da:	f47e af51 	bne.w	406180 <_svfprintf_r+0x1a4>
  4072de:	991f      	ldr	r1, [sp, #124]	; 0x7c
  4072e0:	9a27      	ldr	r2, [sp, #156]	; 0x9c
  4072e2:	9b26      	ldr	r3, [sp, #152]	; 0x98
  4072e4:	46c8      	mov	r8, r9
  4072e6:	e667      	b.n	406fb8 <_svfprintf_r+0xfdc>
  4072e8:	2000      	movs	r0, #0
  4072ea:	900a      	str	r0, [sp, #40]	; 0x28
  4072ec:	f7fe bed0 	b.w	406090 <_svfprintf_r+0xb4>
  4072f0:	3301      	adds	r3, #1
  4072f2:	443a      	add	r2, r7
  4072f4:	2b07      	cmp	r3, #7
  4072f6:	e888 00a0 	stmia.w	r8, {r5, r7}
  4072fa:	9227      	str	r2, [sp, #156]	; 0x9c
  4072fc:	9326      	str	r3, [sp, #152]	; 0x98
  4072fe:	f108 0808 	add.w	r8, r8, #8
  407302:	f77f ae5c 	ble.w	406fbe <_svfprintf_r+0xfe2>
  407306:	aa25      	add	r2, sp, #148	; 0x94
  407308:	990b      	ldr	r1, [sp, #44]	; 0x2c
  40730a:	980c      	ldr	r0, [sp, #48]	; 0x30
  40730c:	f002 fa9c 	bl	409848 <__ssprint_r>
  407310:	2800      	cmp	r0, #0
  407312:	f47e af35 	bne.w	406180 <_svfprintf_r+0x1a4>
  407316:	9a27      	ldr	r2, [sp, #156]	; 0x9c
  407318:	9b26      	ldr	r3, [sp, #152]	; 0x98
  40731a:	46c8      	mov	r8, r9
  40731c:	e64f      	b.n	406fbe <_svfprintf_r+0xfe2>
  40731e:	3330      	adds	r3, #48	; 0x30
  407320:	2230      	movs	r2, #48	; 0x30
  407322:	f88d 3087 	strb.w	r3, [sp, #135]	; 0x87
  407326:	f88d 2086 	strb.w	r2, [sp, #134]	; 0x86
  40732a:	ab22      	add	r3, sp, #136	; 0x88
  40732c:	e70f      	b.n	40714e <_svfprintf_r+0x1172>
  40732e:	9b12      	ldr	r3, [sp, #72]	; 0x48
  407330:	9a19      	ldr	r2, [sp, #100]	; 0x64
  407332:	4413      	add	r3, r2
  407334:	930e      	str	r3, [sp, #56]	; 0x38
  407336:	e775      	b.n	407224 <_svfprintf_r+0x1248>
  407338:	9b23      	ldr	r3, [sp, #140]	; 0x8c
  40733a:	e5cb      	b.n	406ed4 <_svfprintf_r+0xef8>
  40733c:	9b14      	ldr	r3, [sp, #80]	; 0x50
  40733e:	4e1d      	ldr	r6, [pc, #116]	; (4073b4 <_svfprintf_r+0x13d8>)
  407340:	2b00      	cmp	r3, #0
  407342:	bfb6      	itet	lt
  407344:	272d      	movlt	r7, #45	; 0x2d
  407346:	f89d 7077 	ldrbge.w	r7, [sp, #119]	; 0x77
  40734a:	f88d 7077 	strblt.w	r7, [sp, #119]	; 0x77
  40734e:	4b1a      	ldr	r3, [pc, #104]	; (4073b8 <_svfprintf_r+0x13dc>)
  407350:	f7ff ba2f 	b.w	4067b2 <_svfprintf_r+0x7d6>
  407354:	9a16      	ldr	r2, [sp, #88]	; 0x58
  407356:	9808      	ldr	r0, [sp, #32]
  407358:	9b17      	ldr	r3, [sp, #92]	; 0x5c
  40735a:	4639      	mov	r1, r7
  40735c:	f002 fbe8 	bl	409b30 <__aeabi_dcmpeq>
  407360:	2800      	cmp	r0, #0
  407362:	f47f ae7f 	bne.w	407064 <_svfprintf_r+0x1088>
  407366:	f1c5 0501 	rsb	r5, r5, #1
  40736a:	951f      	str	r5, [sp, #124]	; 0x7c
  40736c:	442c      	add	r4, r5
  40736e:	e59e      	b.n	406eae <_svfprintf_r+0xed2>
  407370:	9b12      	ldr	r3, [sp, #72]	; 0x48
  407372:	9a19      	ldr	r2, [sp, #100]	; 0x64
  407374:	4413      	add	r3, r2
  407376:	9a0a      	ldr	r2, [sp, #40]	; 0x28
  407378:	441a      	add	r2, r3
  40737a:	ea22 73e2 	bic.w	r3, r2, r2, asr #31
  40737e:	920e      	str	r2, [sp, #56]	; 0x38
  407380:	9308      	str	r3, [sp, #32]
  407382:	e5c7      	b.n	406f14 <_svfprintf_r+0xf38>
  407384:	9b12      	ldr	r3, [sp, #72]	; 0x48
  407386:	9a0e      	ldr	r2, [sp, #56]	; 0x38
  407388:	f1c3 0301 	rsb	r3, r3, #1
  40738c:	441a      	add	r2, r3
  40738e:	4613      	mov	r3, r2
  407390:	e7d0      	b.n	407334 <_svfprintf_r+0x1358>
  407392:	f01b 0301 	ands.w	r3, fp, #1
  407396:	9312      	str	r3, [sp, #72]	; 0x48
  407398:	f47f aee2 	bne.w	407160 <_svfprintf_r+0x1184>
  40739c:	9b0e      	ldr	r3, [sp, #56]	; 0x38
  40739e:	ea23 73e3 	bic.w	r3, r3, r3, asr #31
  4073a2:	9308      	str	r3, [sp, #32]
  4073a4:	e5b6      	b.n	406f14 <_svfprintf_r+0xf38>
  4073a6:	bf00      	nop
  4073a8:	66666667 	.word	0x66666667
  4073ac:	0040a428 	.word	0x0040a428
  4073b0:	0040a444 	.word	0x0040a444
  4073b4:	0040a3fc 	.word	0x0040a3fc
  4073b8:	0040a3f8 	.word	0x0040a3f8
  4073bc:	9b0a      	ldr	r3, [sp, #40]	; 0x28
  4073be:	b913      	cbnz	r3, 4073c6 <_svfprintf_r+0x13ea>
  4073c0:	f01b 0f01 	tst.w	fp, #1
  4073c4:	d002      	beq.n	4073cc <_svfprintf_r+0x13f0>
  4073c6:	9b19      	ldr	r3, [sp, #100]	; 0x64
  4073c8:	3301      	adds	r3, #1
  4073ca:	e7d4      	b.n	407376 <_svfprintf_r+0x139a>
  4073cc:	2301      	movs	r3, #1
  4073ce:	e73a      	b.n	407246 <_svfprintf_r+0x126a>
  4073d0:	9d0f      	ldr	r5, [sp, #60]	; 0x3c
  4073d2:	f89a 3001 	ldrb.w	r3, [sl, #1]
  4073d6:	6828      	ldr	r0, [r5, #0]
  4073d8:	ea40 70e0 	orr.w	r0, r0, r0, asr #31
  4073dc:	900a      	str	r0, [sp, #40]	; 0x28
  4073de:	4628      	mov	r0, r5
  4073e0:	3004      	adds	r0, #4
  4073e2:	46a2      	mov	sl, r4
  4073e4:	900f      	str	r0, [sp, #60]	; 0x3c
  4073e6:	f7fe be51 	b.w	40608c <_svfprintf_r+0xb0>
  4073ea:	f88d 1077 	strb.w	r1, [sp, #119]	; 0x77
  4073ee:	f7ff b867 	b.w	4064c0 <_svfprintf_r+0x4e4>
  4073f2:	f88d 1077 	strb.w	r1, [sp, #119]	; 0x77
  4073f6:	f7ff ba15 	b.w	406824 <_svfprintf_r+0x848>
  4073fa:	f10d 0386 	add.w	r3, sp, #134	; 0x86
  4073fe:	e6a6      	b.n	40714e <_svfprintf_r+0x1172>
  407400:	f88d 1077 	strb.w	r1, [sp, #119]	; 0x77
  407404:	f7ff b8eb 	b.w	4065de <_svfprintf_r+0x602>
  407408:	9a0c      	ldr	r2, [sp, #48]	; 0x30
  40740a:	230c      	movs	r3, #12
  40740c:	6013      	str	r3, [r2, #0]
  40740e:	f04f 33ff 	mov.w	r3, #4294967295
  407412:	9309      	str	r3, [sp, #36]	; 0x24
  407414:	f7fe bebd 	b.w	406192 <_svfprintf_r+0x1b6>
  407418:	f88d 1077 	strb.w	r1, [sp, #119]	; 0x77
  40741c:	f7ff b99a 	b.w	406754 <_svfprintf_r+0x778>
  407420:	f88d 1077 	strb.w	r1, [sp, #119]	; 0x77
  407424:	f7ff b976 	b.w	406714 <_svfprintf_r+0x738>
  407428:	f88d 1077 	strb.w	r1, [sp, #119]	; 0x77
  40742c:	f7ff b959 	b.w	4066e2 <_svfprintf_r+0x706>
  407430:	f88d 1077 	strb.w	r1, [sp, #119]	; 0x77
  407434:	f7ff b912 	b.w	40665c <_svfprintf_r+0x680>

00407438 <register_fini>:
  407438:	4b02      	ldr	r3, [pc, #8]	; (407444 <register_fini+0xc>)
  40743a:	b113      	cbz	r3, 407442 <register_fini+0xa>
  40743c:	4802      	ldr	r0, [pc, #8]	; (407448 <register_fini+0x10>)
  40743e:	f000 b805 	b.w	40744c <atexit>
  407442:	4770      	bx	lr
  407444:	00000000 	.word	0x00000000
  407448:	004083d5 	.word	0x004083d5

0040744c <atexit>:
  40744c:	2300      	movs	r3, #0
  40744e:	4601      	mov	r1, r0
  407450:	461a      	mov	r2, r3
  407452:	4618      	mov	r0, r3
  407454:	f002 ba84 	b.w	409960 <__register_exitproc>

00407458 <quorem>:
  407458:	6902      	ldr	r2, [r0, #16]
  40745a:	690b      	ldr	r3, [r1, #16]
  40745c:	4293      	cmp	r3, r2
  40745e:	f300 808d 	bgt.w	40757c <quorem+0x124>
  407462:	e92d 4ff0 	stmdb	sp!, {r4, r5, r6, r7, r8, r9, sl, fp, lr}
  407466:	f103 38ff 	add.w	r8, r3, #4294967295
  40746a:	f101 0714 	add.w	r7, r1, #20
  40746e:	f100 0b14 	add.w	fp, r0, #20
  407472:	f857 2028 	ldr.w	r2, [r7, r8, lsl #2]
  407476:	f85b 3028 	ldr.w	r3, [fp, r8, lsl #2]
  40747a:	ea4f 0488 	mov.w	r4, r8, lsl #2
  40747e:	b083      	sub	sp, #12
  407480:	3201      	adds	r2, #1
  407482:	fbb3 f9f2 	udiv	r9, r3, r2
  407486:	eb0b 0304 	add.w	r3, fp, r4
  40748a:	9400      	str	r4, [sp, #0]
  40748c:	eb07 0a04 	add.w	sl, r7, r4
  407490:	9301      	str	r3, [sp, #4]
  407492:	f1b9 0f00 	cmp.w	r9, #0
  407496:	d039      	beq.n	40750c <quorem+0xb4>
  407498:	2500      	movs	r5, #0
  40749a:	462e      	mov	r6, r5
  40749c:	46bc      	mov	ip, r7
  40749e:	46de      	mov	lr, fp
  4074a0:	f85c 4b04 	ldr.w	r4, [ip], #4
  4074a4:	f8de 3000 	ldr.w	r3, [lr]
  4074a8:	b2a2      	uxth	r2, r4
  4074aa:	fb09 5502 	mla	r5, r9, r2, r5
  4074ae:	0c22      	lsrs	r2, r4, #16
  4074b0:	0c2c      	lsrs	r4, r5, #16
  4074b2:	fb09 4202 	mla	r2, r9, r2, r4
  4074b6:	b2ad      	uxth	r5, r5
  4074b8:	1b75      	subs	r5, r6, r5
  4074ba:	b296      	uxth	r6, r2
  4074bc:	ebc6 4613 	rsb	r6, r6, r3, lsr #16
  4074c0:	fa15 f383 	uxtah	r3, r5, r3
  4074c4:	eb06 4623 	add.w	r6, r6, r3, asr #16
  4074c8:	b29b      	uxth	r3, r3
  4074ca:	ea43 4306 	orr.w	r3, r3, r6, lsl #16
  4074ce:	45e2      	cmp	sl, ip
  4074d0:	ea4f 4512 	mov.w	r5, r2, lsr #16
  4074d4:	f84e 3b04 	str.w	r3, [lr], #4
  4074d8:	ea4f 4626 	mov.w	r6, r6, asr #16
  4074dc:	d2e0      	bcs.n	4074a0 <quorem+0x48>
  4074de:	9b00      	ldr	r3, [sp, #0]
  4074e0:	f85b 3003 	ldr.w	r3, [fp, r3]
  4074e4:	b993      	cbnz	r3, 40750c <quorem+0xb4>
  4074e6:	9c01      	ldr	r4, [sp, #4]
  4074e8:	1f23      	subs	r3, r4, #4
  4074ea:	459b      	cmp	fp, r3
  4074ec:	d20c      	bcs.n	407508 <quorem+0xb0>
  4074ee:	f854 3c04 	ldr.w	r3, [r4, #-4]
  4074f2:	b94b      	cbnz	r3, 407508 <quorem+0xb0>
  4074f4:	f1a4 0308 	sub.w	r3, r4, #8
  4074f8:	e002      	b.n	407500 <quorem+0xa8>
  4074fa:	681a      	ldr	r2, [r3, #0]
  4074fc:	3b04      	subs	r3, #4
  4074fe:	b91a      	cbnz	r2, 407508 <quorem+0xb0>
  407500:	459b      	cmp	fp, r3
  407502:	f108 38ff 	add.w	r8, r8, #4294967295
  407506:	d3f8      	bcc.n	4074fa <quorem+0xa2>
  407508:	f8c0 8010 	str.w	r8, [r0, #16]
  40750c:	4604      	mov	r4, r0
  40750e:	f001 fee7 	bl	4092e0 <__mcmp>
  407512:	2800      	cmp	r0, #0
  407514:	db2e      	blt.n	407574 <quorem+0x11c>
  407516:	f109 0901 	add.w	r9, r9, #1
  40751a:	465d      	mov	r5, fp
  40751c:	2300      	movs	r3, #0
  40751e:	f857 1b04 	ldr.w	r1, [r7], #4
  407522:	6828      	ldr	r0, [r5, #0]
  407524:	b28a      	uxth	r2, r1
  407526:	1a9a      	subs	r2, r3, r2
  407528:	0c0b      	lsrs	r3, r1, #16
  40752a:	fa12 f280 	uxtah	r2, r2, r0
  40752e:	ebc3 4310 	rsb	r3, r3, r0, lsr #16
  407532:	eb03 4322 	add.w	r3, r3, r2, asr #16
  407536:	b292      	uxth	r2, r2
  407538:	ea42 4203 	orr.w	r2, r2, r3, lsl #16
  40753c:	45ba      	cmp	sl, r7
  40753e:	f845 2b04 	str.w	r2, [r5], #4
  407542:	ea4f 4323 	mov.w	r3, r3, asr #16
  407546:	d2ea      	bcs.n	40751e <quorem+0xc6>
  407548:	f85b 2028 	ldr.w	r2, [fp, r8, lsl #2]
  40754c:	eb0b 0388 	add.w	r3, fp, r8, lsl #2
  407550:	b982      	cbnz	r2, 407574 <quorem+0x11c>
  407552:	1f1a      	subs	r2, r3, #4
  407554:	4593      	cmp	fp, r2
  407556:	d20b      	bcs.n	407570 <quorem+0x118>
  407558:	f853 2c04 	ldr.w	r2, [r3, #-4]
  40755c:	b942      	cbnz	r2, 407570 <quorem+0x118>
  40755e:	3b08      	subs	r3, #8
  407560:	e002      	b.n	407568 <quorem+0x110>
  407562:	681a      	ldr	r2, [r3, #0]
  407564:	3b04      	subs	r3, #4
  407566:	b91a      	cbnz	r2, 407570 <quorem+0x118>
  407568:	459b      	cmp	fp, r3
  40756a:	f108 38ff 	add.w	r8, r8, #4294967295
  40756e:	d3f8      	bcc.n	407562 <quorem+0x10a>
  407570:	f8c4 8010 	str.w	r8, [r4, #16]
  407574:	4648      	mov	r0, r9
  407576:	b003      	add	sp, #12
  407578:	e8bd 8ff0 	ldmia.w	sp!, {r4, r5, r6, r7, r8, r9, sl, fp, pc}
  40757c:	2000      	movs	r0, #0
  40757e:	4770      	bx	lr

00407580 <_dtoa_r>:
  407580:	e92d 4ff0 	stmdb	sp!, {r4, r5, r6, r7, r8, r9, sl, fp, lr}
  407584:	6c01      	ldr	r1, [r0, #64]	; 0x40
  407586:	b09b      	sub	sp, #108	; 0x6c
  407588:	4604      	mov	r4, r0
  40758a:	9e27      	ldr	r6, [sp, #156]	; 0x9c
  40758c:	4692      	mov	sl, r2
  40758e:	469b      	mov	fp, r3
  407590:	b141      	cbz	r1, 4075a4 <_dtoa_r+0x24>
  407592:	6c42      	ldr	r2, [r0, #68]	; 0x44
  407594:	604a      	str	r2, [r1, #4]
  407596:	2301      	movs	r3, #1
  407598:	4093      	lsls	r3, r2
  40759a:	608b      	str	r3, [r1, #8]
  40759c:	f001 fcc8 	bl	408f30 <_Bfree>
  4075a0:	2300      	movs	r3, #0
  4075a2:	6423      	str	r3, [r4, #64]	; 0x40
  4075a4:	f1bb 0f00 	cmp.w	fp, #0
  4075a8:	465d      	mov	r5, fp
  4075aa:	db35      	blt.n	407618 <_dtoa_r+0x98>
  4075ac:	2300      	movs	r3, #0
  4075ae:	6033      	str	r3, [r6, #0]
  4075b0:	4b9d      	ldr	r3, [pc, #628]	; (407828 <_dtoa_r+0x2a8>)
  4075b2:	43ab      	bics	r3, r5
  4075b4:	d015      	beq.n	4075e2 <_dtoa_r+0x62>
  4075b6:	4650      	mov	r0, sl
  4075b8:	4659      	mov	r1, fp
  4075ba:	2200      	movs	r2, #0
  4075bc:	2300      	movs	r3, #0
  4075be:	f002 fab7 	bl	409b30 <__aeabi_dcmpeq>
  4075c2:	4680      	mov	r8, r0
  4075c4:	2800      	cmp	r0, #0
  4075c6:	d02d      	beq.n	407624 <_dtoa_r+0xa4>
  4075c8:	9a26      	ldr	r2, [sp, #152]	; 0x98
  4075ca:	2301      	movs	r3, #1
  4075cc:	6013      	str	r3, [r2, #0]
  4075ce:	9b28      	ldr	r3, [sp, #160]	; 0xa0
  4075d0:	2b00      	cmp	r3, #0
  4075d2:	f000 80bd 	beq.w	407750 <_dtoa_r+0x1d0>
  4075d6:	4895      	ldr	r0, [pc, #596]	; (40782c <_dtoa_r+0x2ac>)
  4075d8:	6018      	str	r0, [r3, #0]
  4075da:	3801      	subs	r0, #1
  4075dc:	b01b      	add	sp, #108	; 0x6c
  4075de:	e8bd 8ff0 	ldmia.w	sp!, {r4, r5, r6, r7, r8, r9, sl, fp, pc}
  4075e2:	9a26      	ldr	r2, [sp, #152]	; 0x98
  4075e4:	f242 730f 	movw	r3, #9999	; 0x270f
  4075e8:	6013      	str	r3, [r2, #0]
  4075ea:	f1ba 0f00 	cmp.w	sl, #0
  4075ee:	d10d      	bne.n	40760c <_dtoa_r+0x8c>
  4075f0:	f3c5 0513 	ubfx	r5, r5, #0, #20
  4075f4:	b955      	cbnz	r5, 40760c <_dtoa_r+0x8c>
  4075f6:	9b28      	ldr	r3, [sp, #160]	; 0xa0
  4075f8:	488d      	ldr	r0, [pc, #564]	; (407830 <_dtoa_r+0x2b0>)
  4075fa:	2b00      	cmp	r3, #0
  4075fc:	d0ee      	beq.n	4075dc <_dtoa_r+0x5c>
  4075fe:	f100 0308 	add.w	r3, r0, #8
  407602:	9a28      	ldr	r2, [sp, #160]	; 0xa0
  407604:	6013      	str	r3, [r2, #0]
  407606:	b01b      	add	sp, #108	; 0x6c
  407608:	e8bd 8ff0 	ldmia.w	sp!, {r4, r5, r6, r7, r8, r9, sl, fp, pc}
  40760c:	9b28      	ldr	r3, [sp, #160]	; 0xa0
  40760e:	4889      	ldr	r0, [pc, #548]	; (407834 <_dtoa_r+0x2b4>)
  407610:	2b00      	cmp	r3, #0
  407612:	d0e3      	beq.n	4075dc <_dtoa_r+0x5c>
  407614:	1cc3      	adds	r3, r0, #3
  407616:	e7f4      	b.n	407602 <_dtoa_r+0x82>
  407618:	2301      	movs	r3, #1
  40761a:	f02b 4500 	bic.w	r5, fp, #2147483648	; 0x80000000
  40761e:	6033      	str	r3, [r6, #0]
  407620:	46ab      	mov	fp, r5
  407622:	e7c5      	b.n	4075b0 <_dtoa_r+0x30>
  407624:	aa18      	add	r2, sp, #96	; 0x60
  407626:	ab19      	add	r3, sp, #100	; 0x64
  407628:	9201      	str	r2, [sp, #4]
  40762a:	9300      	str	r3, [sp, #0]
  40762c:	4652      	mov	r2, sl
  40762e:	465b      	mov	r3, fp
  407630:	4620      	mov	r0, r4
  407632:	f001 fef5 	bl	409420 <__d2b>
  407636:	0d2b      	lsrs	r3, r5, #20
  407638:	4681      	mov	r9, r0
  40763a:	d071      	beq.n	407720 <_dtoa_r+0x1a0>
  40763c:	f3cb 0213 	ubfx	r2, fp, #0, #20
  407640:	f042 517f 	orr.w	r1, r2, #1069547520	; 0x3fc00000
  407644:	9f18      	ldr	r7, [sp, #96]	; 0x60
  407646:	f8cd 8050 	str.w	r8, [sp, #80]	; 0x50
  40764a:	4650      	mov	r0, sl
  40764c:	f2a3 36ff 	subw	r6, r3, #1023	; 0x3ff
  407650:	f441 1140 	orr.w	r1, r1, #3145728	; 0x300000
  407654:	2200      	movs	r2, #0
  407656:	4b78      	ldr	r3, [pc, #480]	; (407838 <_dtoa_r+0x2b8>)
  407658:	f7fd fc8c 	bl	404f74 <__aeabi_dsub>
  40765c:	a36c      	add	r3, pc, #432	; (adr r3, 407810 <_dtoa_r+0x290>)
  40765e:	e9d3 2300 	ldrd	r2, r3, [r3]
  407662:	f7fd fe3b 	bl	4052dc <__aeabi_dmul>
  407666:	a36c      	add	r3, pc, #432	; (adr r3, 407818 <_dtoa_r+0x298>)
  407668:	e9d3 2300 	ldrd	r2, r3, [r3]
  40766c:	f7fd fc84 	bl	404f78 <__adddf3>
  407670:	e9cd 0102 	strd	r0, r1, [sp, #8]
  407674:	4630      	mov	r0, r6
  407676:	f7fd fdcb 	bl	405210 <__aeabi_i2d>
  40767a:	a369      	add	r3, pc, #420	; (adr r3, 407820 <_dtoa_r+0x2a0>)
  40767c:	e9d3 2300 	ldrd	r2, r3, [r3]
  407680:	f7fd fe2c 	bl	4052dc <__aeabi_dmul>
  407684:	4602      	mov	r2, r0
  407686:	460b      	mov	r3, r1
  407688:	e9dd 0102 	ldrd	r0, r1, [sp, #8]
  40768c:	f7fd fc74 	bl	404f78 <__adddf3>
  407690:	e9cd 0104 	strd	r0, r1, [sp, #16]
  407694:	f002 fa94 	bl	409bc0 <__aeabi_d2iz>
  407698:	2200      	movs	r2, #0
  40769a:	9002      	str	r0, [sp, #8]
  40769c:	2300      	movs	r3, #0
  40769e:	e9dd 0104 	ldrd	r0, r1, [sp, #16]
  4076a2:	f002 fa4f 	bl	409b44 <__aeabi_dcmplt>
  4076a6:	2800      	cmp	r0, #0
  4076a8:	f040 8173 	bne.w	407992 <_dtoa_r+0x412>
  4076ac:	9d02      	ldr	r5, [sp, #8]
  4076ae:	2d16      	cmp	r5, #22
  4076b0:	f200 815d 	bhi.w	40796e <_dtoa_r+0x3ee>
  4076b4:	4b61      	ldr	r3, [pc, #388]	; (40783c <_dtoa_r+0x2bc>)
  4076b6:	eb03 03c5 	add.w	r3, r3, r5, lsl #3
  4076ba:	e9d3 0100 	ldrd	r0, r1, [r3]
  4076be:	4652      	mov	r2, sl
  4076c0:	465b      	mov	r3, fp
  4076c2:	f002 fa5d 	bl	409b80 <__aeabi_dcmpgt>
  4076c6:	2800      	cmp	r0, #0
  4076c8:	f000 81c5 	beq.w	407a56 <_dtoa_r+0x4d6>
  4076cc:	1e6b      	subs	r3, r5, #1
  4076ce:	9302      	str	r3, [sp, #8]
  4076d0:	2300      	movs	r3, #0
  4076d2:	930e      	str	r3, [sp, #56]	; 0x38
  4076d4:	1bbf      	subs	r7, r7, r6
  4076d6:	1e7b      	subs	r3, r7, #1
  4076d8:	9306      	str	r3, [sp, #24]
  4076da:	f100 8154 	bmi.w	407986 <_dtoa_r+0x406>
  4076de:	2300      	movs	r3, #0
  4076e0:	9308      	str	r3, [sp, #32]
  4076e2:	9b02      	ldr	r3, [sp, #8]
  4076e4:	2b00      	cmp	r3, #0
  4076e6:	f2c0 8145 	blt.w	407974 <_dtoa_r+0x3f4>
  4076ea:	9a06      	ldr	r2, [sp, #24]
  4076ec:	930d      	str	r3, [sp, #52]	; 0x34
  4076ee:	4611      	mov	r1, r2
  4076f0:	4419      	add	r1, r3
  4076f2:	2300      	movs	r3, #0
  4076f4:	9106      	str	r1, [sp, #24]
  4076f6:	930c      	str	r3, [sp, #48]	; 0x30
  4076f8:	9b24      	ldr	r3, [sp, #144]	; 0x90
  4076fa:	2b09      	cmp	r3, #9
  4076fc:	d82a      	bhi.n	407754 <_dtoa_r+0x1d4>
  4076fe:	2b05      	cmp	r3, #5
  407700:	f340 865b 	ble.w	4083ba <_dtoa_r+0xe3a>
  407704:	3b04      	subs	r3, #4
  407706:	9324      	str	r3, [sp, #144]	; 0x90
  407708:	2500      	movs	r5, #0
  40770a:	9b24      	ldr	r3, [sp, #144]	; 0x90
  40770c:	3b02      	subs	r3, #2
  40770e:	2b03      	cmp	r3, #3
  407710:	f200 8642 	bhi.w	408398 <_dtoa_r+0xe18>
  407714:	e8df f013 	tbh	[pc, r3, lsl #1]
  407718:	02c903d4 	.word	0x02c903d4
  40771c:	046103df 	.word	0x046103df
  407720:	9f18      	ldr	r7, [sp, #96]	; 0x60
  407722:	9e19      	ldr	r6, [sp, #100]	; 0x64
  407724:	443e      	add	r6, r7
  407726:	f206 4332 	addw	r3, r6, #1074	; 0x432
  40772a:	2b20      	cmp	r3, #32
  40772c:	f340 818e 	ble.w	407a4c <_dtoa_r+0x4cc>
  407730:	f1c3 0340 	rsb	r3, r3, #64	; 0x40
  407734:	f206 4012 	addw	r0, r6, #1042	; 0x412
  407738:	409d      	lsls	r5, r3
  40773a:	fa2a f000 	lsr.w	r0, sl, r0
  40773e:	4328      	orrs	r0, r5
  407740:	f7fd fd56 	bl	4051f0 <__aeabi_ui2d>
  407744:	2301      	movs	r3, #1
  407746:	3e01      	subs	r6, #1
  407748:	f1a1 71f8 	sub.w	r1, r1, #32505856	; 0x1f00000
  40774c:	9314      	str	r3, [sp, #80]	; 0x50
  40774e:	e781      	b.n	407654 <_dtoa_r+0xd4>
  407750:	483b      	ldr	r0, [pc, #236]	; (407840 <_dtoa_r+0x2c0>)
  407752:	e743      	b.n	4075dc <_dtoa_r+0x5c>
  407754:	2100      	movs	r1, #0
  407756:	6461      	str	r1, [r4, #68]	; 0x44
  407758:	4620      	mov	r0, r4
  40775a:	9125      	str	r1, [sp, #148]	; 0x94
  40775c:	f001 fbc2 	bl	408ee4 <_Balloc>
  407760:	f04f 33ff 	mov.w	r3, #4294967295
  407764:	930a      	str	r3, [sp, #40]	; 0x28
  407766:	9a25      	ldr	r2, [sp, #148]	; 0x94
  407768:	930f      	str	r3, [sp, #60]	; 0x3c
  40776a:	2301      	movs	r3, #1
  40776c:	9004      	str	r0, [sp, #16]
  40776e:	6420      	str	r0, [r4, #64]	; 0x40
  407770:	9224      	str	r2, [sp, #144]	; 0x90
  407772:	930b      	str	r3, [sp, #44]	; 0x2c
  407774:	9b19      	ldr	r3, [sp, #100]	; 0x64
  407776:	2b00      	cmp	r3, #0
  407778:	f2c0 80d9 	blt.w	40792e <_dtoa_r+0x3ae>
  40777c:	9a02      	ldr	r2, [sp, #8]
  40777e:	2a0e      	cmp	r2, #14
  407780:	f300 80d5 	bgt.w	40792e <_dtoa_r+0x3ae>
  407784:	4b2d      	ldr	r3, [pc, #180]	; (40783c <_dtoa_r+0x2bc>)
  407786:	eb03 03c2 	add.w	r3, r3, r2, lsl #3
  40778a:	e9d3 2300 	ldrd	r2, r3, [r3]
  40778e:	e9cd 2308 	strd	r2, r3, [sp, #32]
  407792:	9b25      	ldr	r3, [sp, #148]	; 0x94
  407794:	2b00      	cmp	r3, #0
  407796:	f2c0 83ba 	blt.w	407f0e <_dtoa_r+0x98e>
  40779a:	e9dd 5608 	ldrd	r5, r6, [sp, #32]
  40779e:	4650      	mov	r0, sl
  4077a0:	462a      	mov	r2, r5
  4077a2:	4633      	mov	r3, r6
  4077a4:	4659      	mov	r1, fp
  4077a6:	f7fd fec3 	bl	405530 <__aeabi_ddiv>
  4077aa:	f002 fa09 	bl	409bc0 <__aeabi_d2iz>
  4077ae:	4680      	mov	r8, r0
  4077b0:	f7fd fd2e 	bl	405210 <__aeabi_i2d>
  4077b4:	462a      	mov	r2, r5
  4077b6:	4633      	mov	r3, r6
  4077b8:	f7fd fd90 	bl	4052dc <__aeabi_dmul>
  4077bc:	460b      	mov	r3, r1
  4077be:	4602      	mov	r2, r0
  4077c0:	4659      	mov	r1, fp
  4077c2:	4650      	mov	r0, sl
  4077c4:	f7fd fbd6 	bl	404f74 <__aeabi_dsub>
  4077c8:	9d04      	ldr	r5, [sp, #16]
  4077ca:	f108 0330 	add.w	r3, r8, #48	; 0x30
  4077ce:	702b      	strb	r3, [r5, #0]
  4077d0:	9b0a      	ldr	r3, [sp, #40]	; 0x28
  4077d2:	2b01      	cmp	r3, #1
  4077d4:	4606      	mov	r6, r0
  4077d6:	460f      	mov	r7, r1
  4077d8:	f105 0501 	add.w	r5, r5, #1
  4077dc:	d068      	beq.n	4078b0 <_dtoa_r+0x330>
  4077de:	2200      	movs	r2, #0
  4077e0:	4b18      	ldr	r3, [pc, #96]	; (407844 <_dtoa_r+0x2c4>)
  4077e2:	f7fd fd7b 	bl	4052dc <__aeabi_dmul>
  4077e6:	2200      	movs	r2, #0
  4077e8:	2300      	movs	r3, #0
  4077ea:	4606      	mov	r6, r0
  4077ec:	460f      	mov	r7, r1
  4077ee:	f002 f99f 	bl	409b30 <__aeabi_dcmpeq>
  4077f2:	2800      	cmp	r0, #0
  4077f4:	f040 8088 	bne.w	407908 <_dtoa_r+0x388>
  4077f8:	f8cd 902c 	str.w	r9, [sp, #44]	; 0x2c
  4077fc:	f04f 0a00 	mov.w	sl, #0
  407800:	f8df b040 	ldr.w	fp, [pc, #64]	; 407844 <_dtoa_r+0x2c4>
  407804:	940c      	str	r4, [sp, #48]	; 0x30
  407806:	e9dd 8908 	ldrd	r8, r9, [sp, #32]
  40780a:	e028      	b.n	40785e <_dtoa_r+0x2de>
  40780c:	f3af 8000 	nop.w
  407810:	636f4361 	.word	0x636f4361
  407814:	3fd287a7 	.word	0x3fd287a7
  407818:	8b60c8b3 	.word	0x8b60c8b3
  40781c:	3fc68a28 	.word	0x3fc68a28
  407820:	509f79fb 	.word	0x509f79fb
  407824:	3fd34413 	.word	0x3fd34413
  407828:	7ff00000 	.word	0x7ff00000
  40782c:	0040a431 	.word	0x0040a431
  407830:	0040a454 	.word	0x0040a454
  407834:	0040a460 	.word	0x0040a460
  407838:	3ff80000 	.word	0x3ff80000
  40783c:	0040a4a0 	.word	0x0040a4a0
  407840:	0040a430 	.word	0x0040a430
  407844:	40240000 	.word	0x40240000
  407848:	f7fd fd48 	bl	4052dc <__aeabi_dmul>
  40784c:	2200      	movs	r2, #0
  40784e:	2300      	movs	r3, #0
  407850:	4606      	mov	r6, r0
  407852:	460f      	mov	r7, r1
  407854:	f002 f96c 	bl	409b30 <__aeabi_dcmpeq>
  407858:	2800      	cmp	r0, #0
  40785a:	f040 83c1 	bne.w	407fe0 <_dtoa_r+0xa60>
  40785e:	4642      	mov	r2, r8
  407860:	464b      	mov	r3, r9
  407862:	4630      	mov	r0, r6
  407864:	4639      	mov	r1, r7
  407866:	f7fd fe63 	bl	405530 <__aeabi_ddiv>
  40786a:	f002 f9a9 	bl	409bc0 <__aeabi_d2iz>
  40786e:	4604      	mov	r4, r0
  407870:	f7fd fcce 	bl	405210 <__aeabi_i2d>
  407874:	4642      	mov	r2, r8
  407876:	464b      	mov	r3, r9
  407878:	f7fd fd30 	bl	4052dc <__aeabi_dmul>
  40787c:	4602      	mov	r2, r0
  40787e:	460b      	mov	r3, r1
  407880:	4630      	mov	r0, r6
  407882:	4639      	mov	r1, r7
  407884:	f7fd fb76 	bl	404f74 <__aeabi_dsub>
  407888:	f104 0e30 	add.w	lr, r4, #48	; 0x30
  40788c:	9e04      	ldr	r6, [sp, #16]
  40788e:	f805 eb01 	strb.w	lr, [r5], #1
  407892:	eba5 0e06 	sub.w	lr, r5, r6
  407896:	9e0a      	ldr	r6, [sp, #40]	; 0x28
  407898:	45b6      	cmp	lr, r6
  40789a:	e9cd 0106 	strd	r0, r1, [sp, #24]
  40789e:	4652      	mov	r2, sl
  4078a0:	465b      	mov	r3, fp
  4078a2:	d1d1      	bne.n	407848 <_dtoa_r+0x2c8>
  4078a4:	46a0      	mov	r8, r4
  4078a6:	f8dd 902c 	ldr.w	r9, [sp, #44]	; 0x2c
  4078aa:	9c0c      	ldr	r4, [sp, #48]	; 0x30
  4078ac:	4606      	mov	r6, r0
  4078ae:	460f      	mov	r7, r1
  4078b0:	4632      	mov	r2, r6
  4078b2:	463b      	mov	r3, r7
  4078b4:	4630      	mov	r0, r6
  4078b6:	4639      	mov	r1, r7
  4078b8:	f7fd fb5e 	bl	404f78 <__adddf3>
  4078bc:	4606      	mov	r6, r0
  4078be:	460f      	mov	r7, r1
  4078c0:	4602      	mov	r2, r0
  4078c2:	460b      	mov	r3, r1
  4078c4:	e9dd 0108 	ldrd	r0, r1, [sp, #32]
  4078c8:	f002 f93c 	bl	409b44 <__aeabi_dcmplt>
  4078cc:	b948      	cbnz	r0, 4078e2 <_dtoa_r+0x362>
  4078ce:	4632      	mov	r2, r6
  4078d0:	463b      	mov	r3, r7
  4078d2:	e9dd 0108 	ldrd	r0, r1, [sp, #32]
  4078d6:	f002 f92b 	bl	409b30 <__aeabi_dcmpeq>
  4078da:	b1a8      	cbz	r0, 407908 <_dtoa_r+0x388>
  4078dc:	f018 0f01 	tst.w	r8, #1
  4078e0:	d012      	beq.n	407908 <_dtoa_r+0x388>
  4078e2:	f815 8c01 	ldrb.w	r8, [r5, #-1]
  4078e6:	9a04      	ldr	r2, [sp, #16]
  4078e8:	1e6b      	subs	r3, r5, #1
  4078ea:	e004      	b.n	4078f6 <_dtoa_r+0x376>
  4078ec:	429a      	cmp	r2, r3
  4078ee:	f000 8401 	beq.w	4080f4 <_dtoa_r+0xb74>
  4078f2:	f813 8d01 	ldrb.w	r8, [r3, #-1]!
  4078f6:	f1b8 0f39 	cmp.w	r8, #57	; 0x39
  4078fa:	f103 0501 	add.w	r5, r3, #1
  4078fe:	d0f5      	beq.n	4078ec <_dtoa_r+0x36c>
  407900:	f108 0801 	add.w	r8, r8, #1
  407904:	f883 8000 	strb.w	r8, [r3]
  407908:	4649      	mov	r1, r9
  40790a:	4620      	mov	r0, r4
  40790c:	f001 fb10 	bl	408f30 <_Bfree>
  407910:	2200      	movs	r2, #0
  407912:	9b02      	ldr	r3, [sp, #8]
  407914:	702a      	strb	r2, [r5, #0]
  407916:	9a26      	ldr	r2, [sp, #152]	; 0x98
  407918:	3301      	adds	r3, #1
  40791a:	6013      	str	r3, [r2, #0]
  40791c:	9b28      	ldr	r3, [sp, #160]	; 0xa0
  40791e:	2b00      	cmp	r3, #0
  407920:	f000 839e 	beq.w	408060 <_dtoa_r+0xae0>
  407924:	9804      	ldr	r0, [sp, #16]
  407926:	601d      	str	r5, [r3, #0]
  407928:	b01b      	add	sp, #108	; 0x6c
  40792a:	e8bd 8ff0 	ldmia.w	sp!, {r4, r5, r6, r7, r8, r9, sl, fp, pc}
  40792e:	9a0b      	ldr	r2, [sp, #44]	; 0x2c
  407930:	2a00      	cmp	r2, #0
  407932:	d03e      	beq.n	4079b2 <_dtoa_r+0x432>
  407934:	9a24      	ldr	r2, [sp, #144]	; 0x90
  407936:	2a01      	cmp	r2, #1
  407938:	f340 8311 	ble.w	407f5e <_dtoa_r+0x9de>
  40793c:	9b0a      	ldr	r3, [sp, #40]	; 0x28
  40793e:	9a0c      	ldr	r2, [sp, #48]	; 0x30
  407940:	1e5f      	subs	r7, r3, #1
  407942:	42ba      	cmp	r2, r7
  407944:	f2c0 838f 	blt.w	408066 <_dtoa_r+0xae6>
  407948:	1bd7      	subs	r7, r2, r7
  40794a:	9b0a      	ldr	r3, [sp, #40]	; 0x28
  40794c:	2b00      	cmp	r3, #0
  40794e:	f2c0 848b 	blt.w	408268 <_dtoa_r+0xce8>
  407952:	9d08      	ldr	r5, [sp, #32]
  407954:	9b0a      	ldr	r3, [sp, #40]	; 0x28
  407956:	9a08      	ldr	r2, [sp, #32]
  407958:	441a      	add	r2, r3
  40795a:	9208      	str	r2, [sp, #32]
  40795c:	9a06      	ldr	r2, [sp, #24]
  40795e:	2101      	movs	r1, #1
  407960:	441a      	add	r2, r3
  407962:	4620      	mov	r0, r4
  407964:	9206      	str	r2, [sp, #24]
  407966:	f001 fb7d 	bl	409064 <__i2b>
  40796a:	4606      	mov	r6, r0
  40796c:	e024      	b.n	4079b8 <_dtoa_r+0x438>
  40796e:	2301      	movs	r3, #1
  407970:	930e      	str	r3, [sp, #56]	; 0x38
  407972:	e6af      	b.n	4076d4 <_dtoa_r+0x154>
  407974:	9a08      	ldr	r2, [sp, #32]
  407976:	9b02      	ldr	r3, [sp, #8]
  407978:	1ad2      	subs	r2, r2, r3
  40797a:	425b      	negs	r3, r3
  40797c:	930c      	str	r3, [sp, #48]	; 0x30
  40797e:	2300      	movs	r3, #0
  407980:	9208      	str	r2, [sp, #32]
  407982:	930d      	str	r3, [sp, #52]	; 0x34
  407984:	e6b8      	b.n	4076f8 <_dtoa_r+0x178>
  407986:	f1c7 0301 	rsb	r3, r7, #1
  40798a:	9308      	str	r3, [sp, #32]
  40798c:	2300      	movs	r3, #0
  40798e:	9306      	str	r3, [sp, #24]
  407990:	e6a7      	b.n	4076e2 <_dtoa_r+0x162>
  407992:	9d02      	ldr	r5, [sp, #8]
  407994:	4628      	mov	r0, r5
  407996:	f7fd fc3b 	bl	405210 <__aeabi_i2d>
  40799a:	4602      	mov	r2, r0
  40799c:	460b      	mov	r3, r1
  40799e:	e9dd 0104 	ldrd	r0, r1, [sp, #16]
  4079a2:	f002 f8c5 	bl	409b30 <__aeabi_dcmpeq>
  4079a6:	2800      	cmp	r0, #0
  4079a8:	f47f ae80 	bne.w	4076ac <_dtoa_r+0x12c>
  4079ac:	1e6b      	subs	r3, r5, #1
  4079ae:	9302      	str	r3, [sp, #8]
  4079b0:	e67c      	b.n	4076ac <_dtoa_r+0x12c>
  4079b2:	9f0c      	ldr	r7, [sp, #48]	; 0x30
  4079b4:	9d08      	ldr	r5, [sp, #32]
  4079b6:	9e0b      	ldr	r6, [sp, #44]	; 0x2c
  4079b8:	2d00      	cmp	r5, #0
  4079ba:	dd0c      	ble.n	4079d6 <_dtoa_r+0x456>
  4079bc:	9906      	ldr	r1, [sp, #24]
  4079be:	2900      	cmp	r1, #0
  4079c0:	460b      	mov	r3, r1
  4079c2:	dd08      	ble.n	4079d6 <_dtoa_r+0x456>
  4079c4:	42a9      	cmp	r1, r5
  4079c6:	9a08      	ldr	r2, [sp, #32]
  4079c8:	bfa8      	it	ge
  4079ca:	462b      	movge	r3, r5
  4079cc:	1ad2      	subs	r2, r2, r3
  4079ce:	1aed      	subs	r5, r5, r3
  4079d0:	1acb      	subs	r3, r1, r3
  4079d2:	9208      	str	r2, [sp, #32]
  4079d4:	9306      	str	r3, [sp, #24]
  4079d6:	9b0c      	ldr	r3, [sp, #48]	; 0x30
  4079d8:	b1d3      	cbz	r3, 407a10 <_dtoa_r+0x490>
  4079da:	9b0b      	ldr	r3, [sp, #44]	; 0x2c
  4079dc:	2b00      	cmp	r3, #0
  4079de:	f000 82b7 	beq.w	407f50 <_dtoa_r+0x9d0>
  4079e2:	2f00      	cmp	r7, #0
  4079e4:	dd10      	ble.n	407a08 <_dtoa_r+0x488>
  4079e6:	4631      	mov	r1, r6
  4079e8:	463a      	mov	r2, r7
  4079ea:	4620      	mov	r0, r4
  4079ec:	f001 fbd6 	bl	40919c <__pow5mult>
  4079f0:	464a      	mov	r2, r9
  4079f2:	4601      	mov	r1, r0
  4079f4:	4606      	mov	r6, r0
  4079f6:	4620      	mov	r0, r4
  4079f8:	f001 fb3e 	bl	409078 <__multiply>
  4079fc:	4649      	mov	r1, r9
  4079fe:	4680      	mov	r8, r0
  407a00:	4620      	mov	r0, r4
  407a02:	f001 fa95 	bl	408f30 <_Bfree>
  407a06:	46c1      	mov	r9, r8
  407a08:	9b0c      	ldr	r3, [sp, #48]	; 0x30
  407a0a:	1bda      	subs	r2, r3, r7
  407a0c:	f040 82a1 	bne.w	407f52 <_dtoa_r+0x9d2>
  407a10:	2101      	movs	r1, #1
  407a12:	4620      	mov	r0, r4
  407a14:	f001 fb26 	bl	409064 <__i2b>
  407a18:	9b0d      	ldr	r3, [sp, #52]	; 0x34
  407a1a:	2b00      	cmp	r3, #0
  407a1c:	4680      	mov	r8, r0
  407a1e:	dd1c      	ble.n	407a5a <_dtoa_r+0x4da>
  407a20:	4601      	mov	r1, r0
  407a22:	461a      	mov	r2, r3
  407a24:	4620      	mov	r0, r4
  407a26:	f001 fbb9 	bl	40919c <__pow5mult>
  407a2a:	9b24      	ldr	r3, [sp, #144]	; 0x90
  407a2c:	2b01      	cmp	r3, #1
  407a2e:	4680      	mov	r8, r0
  407a30:	f340 8254 	ble.w	407edc <_dtoa_r+0x95c>
  407a34:	2300      	movs	r3, #0
  407a36:	930c      	str	r3, [sp, #48]	; 0x30
  407a38:	f8d8 3010 	ldr.w	r3, [r8, #16]
  407a3c:	eb08 0383 	add.w	r3, r8, r3, lsl #2
  407a40:	6918      	ldr	r0, [r3, #16]
  407a42:	f001 fabf 	bl	408fc4 <__hi0bits>
  407a46:	f1c0 0020 	rsb	r0, r0, #32
  407a4a:	e010      	b.n	407a6e <_dtoa_r+0x4ee>
  407a4c:	f1c3 0520 	rsb	r5, r3, #32
  407a50:	fa0a f005 	lsl.w	r0, sl, r5
  407a54:	e674      	b.n	407740 <_dtoa_r+0x1c0>
  407a56:	900e      	str	r0, [sp, #56]	; 0x38
  407a58:	e63c      	b.n	4076d4 <_dtoa_r+0x154>
  407a5a:	9b24      	ldr	r3, [sp, #144]	; 0x90
  407a5c:	2b01      	cmp	r3, #1
  407a5e:	f340 8287 	ble.w	407f70 <_dtoa_r+0x9f0>
  407a62:	2300      	movs	r3, #0
  407a64:	930c      	str	r3, [sp, #48]	; 0x30
  407a66:	9b0d      	ldr	r3, [sp, #52]	; 0x34
  407a68:	2001      	movs	r0, #1
  407a6a:	2b00      	cmp	r3, #0
  407a6c:	d1e4      	bne.n	407a38 <_dtoa_r+0x4b8>
  407a6e:	9a06      	ldr	r2, [sp, #24]
  407a70:	4410      	add	r0, r2
  407a72:	f010 001f 	ands.w	r0, r0, #31
  407a76:	f000 80a1 	beq.w	407bbc <_dtoa_r+0x63c>
  407a7a:	f1c0 0320 	rsb	r3, r0, #32
  407a7e:	2b04      	cmp	r3, #4
  407a80:	f340 849e 	ble.w	4083c0 <_dtoa_r+0xe40>
  407a84:	9b08      	ldr	r3, [sp, #32]
  407a86:	f1c0 001c 	rsb	r0, r0, #28
  407a8a:	4403      	add	r3, r0
  407a8c:	9308      	str	r3, [sp, #32]
  407a8e:	4613      	mov	r3, r2
  407a90:	4403      	add	r3, r0
  407a92:	4405      	add	r5, r0
  407a94:	9306      	str	r3, [sp, #24]
  407a96:	9b08      	ldr	r3, [sp, #32]
  407a98:	2b00      	cmp	r3, #0
  407a9a:	dd05      	ble.n	407aa8 <_dtoa_r+0x528>
  407a9c:	4649      	mov	r1, r9
  407a9e:	461a      	mov	r2, r3
  407aa0:	4620      	mov	r0, r4
  407aa2:	f001 fbcb 	bl	40923c <__lshift>
  407aa6:	4681      	mov	r9, r0
  407aa8:	9b06      	ldr	r3, [sp, #24]
  407aaa:	2b00      	cmp	r3, #0
  407aac:	dd05      	ble.n	407aba <_dtoa_r+0x53a>
  407aae:	4641      	mov	r1, r8
  407ab0:	461a      	mov	r2, r3
  407ab2:	4620      	mov	r0, r4
  407ab4:	f001 fbc2 	bl	40923c <__lshift>
  407ab8:	4680      	mov	r8, r0
  407aba:	9b0e      	ldr	r3, [sp, #56]	; 0x38
  407abc:	2b00      	cmp	r3, #0
  407abe:	f040 8086 	bne.w	407bce <_dtoa_r+0x64e>
  407ac2:	9b0a      	ldr	r3, [sp, #40]	; 0x28
  407ac4:	2b00      	cmp	r3, #0
  407ac6:	f340 8266 	ble.w	407f96 <_dtoa_r+0xa16>
  407aca:	9b0b      	ldr	r3, [sp, #44]	; 0x2c
  407acc:	2b00      	cmp	r3, #0
  407ace:	f000 8098 	beq.w	407c02 <_dtoa_r+0x682>
  407ad2:	2d00      	cmp	r5, #0
  407ad4:	dd05      	ble.n	407ae2 <_dtoa_r+0x562>
  407ad6:	4631      	mov	r1, r6
  407ad8:	462a      	mov	r2, r5
  407ada:	4620      	mov	r0, r4
  407adc:	f001 fbae 	bl	40923c <__lshift>
  407ae0:	4606      	mov	r6, r0
  407ae2:	9b0c      	ldr	r3, [sp, #48]	; 0x30
  407ae4:	2b00      	cmp	r3, #0
  407ae6:	f040 8337 	bne.w	408158 <_dtoa_r+0xbd8>
  407aea:	9606      	str	r6, [sp, #24]
  407aec:	9b0a      	ldr	r3, [sp, #40]	; 0x28
  407aee:	9a04      	ldr	r2, [sp, #16]
  407af0:	f8dd b018 	ldr.w	fp, [sp, #24]
  407af4:	3b01      	subs	r3, #1
  407af6:	18d3      	adds	r3, r2, r3
  407af8:	930b      	str	r3, [sp, #44]	; 0x2c
  407afa:	f00a 0301 	and.w	r3, sl, #1
  407afe:	930c      	str	r3, [sp, #48]	; 0x30
  407b00:	4617      	mov	r7, r2
  407b02:	46c2      	mov	sl, r8
  407b04:	4651      	mov	r1, sl
  407b06:	4648      	mov	r0, r9
  407b08:	f7ff fca6 	bl	407458 <quorem>
  407b0c:	4631      	mov	r1, r6
  407b0e:	4605      	mov	r5, r0
  407b10:	4648      	mov	r0, r9
  407b12:	f001 fbe5 	bl	4092e0 <__mcmp>
  407b16:	465a      	mov	r2, fp
  407b18:	900a      	str	r0, [sp, #40]	; 0x28
  407b1a:	4651      	mov	r1, sl
  407b1c:	4620      	mov	r0, r4
  407b1e:	f001 fbfb 	bl	409318 <__mdiff>
  407b22:	68c2      	ldr	r2, [r0, #12]
  407b24:	4680      	mov	r8, r0
  407b26:	f105 0330 	add.w	r3, r5, #48	; 0x30
  407b2a:	2a00      	cmp	r2, #0
  407b2c:	f040 822b 	bne.w	407f86 <_dtoa_r+0xa06>
  407b30:	4601      	mov	r1, r0
  407b32:	4648      	mov	r0, r9
  407b34:	9308      	str	r3, [sp, #32]
  407b36:	f001 fbd3 	bl	4092e0 <__mcmp>
  407b3a:	4641      	mov	r1, r8
  407b3c:	9006      	str	r0, [sp, #24]
  407b3e:	4620      	mov	r0, r4
  407b40:	f001 f9f6 	bl	408f30 <_Bfree>
  407b44:	9a06      	ldr	r2, [sp, #24]
  407b46:	9b08      	ldr	r3, [sp, #32]
  407b48:	b932      	cbnz	r2, 407b58 <_dtoa_r+0x5d8>
  407b4a:	9924      	ldr	r1, [sp, #144]	; 0x90
  407b4c:	b921      	cbnz	r1, 407b58 <_dtoa_r+0x5d8>
  407b4e:	9a0c      	ldr	r2, [sp, #48]	; 0x30
  407b50:	2a00      	cmp	r2, #0
  407b52:	f000 83ef 	beq.w	408334 <_dtoa_r+0xdb4>
  407b56:	9a24      	ldr	r2, [sp, #144]	; 0x90
  407b58:	990a      	ldr	r1, [sp, #40]	; 0x28
  407b5a:	2900      	cmp	r1, #0
  407b5c:	f2c0 829f 	blt.w	40809e <_dtoa_r+0xb1e>
  407b60:	d105      	bne.n	407b6e <_dtoa_r+0x5ee>
  407b62:	9924      	ldr	r1, [sp, #144]	; 0x90
  407b64:	b919      	cbnz	r1, 407b6e <_dtoa_r+0x5ee>
  407b66:	990c      	ldr	r1, [sp, #48]	; 0x30
  407b68:	2900      	cmp	r1, #0
  407b6a:	f000 8298 	beq.w	40809e <_dtoa_r+0xb1e>
  407b6e:	2a00      	cmp	r2, #0
  407b70:	f300 8306 	bgt.w	408180 <_dtoa_r+0xc00>
  407b74:	9a0b      	ldr	r2, [sp, #44]	; 0x2c
  407b76:	703b      	strb	r3, [r7, #0]
  407b78:	f107 0801 	add.w	r8, r7, #1
  407b7c:	4297      	cmp	r7, r2
  407b7e:	4645      	mov	r5, r8
  407b80:	f000 830c 	beq.w	40819c <_dtoa_r+0xc1c>
  407b84:	4649      	mov	r1, r9
  407b86:	2300      	movs	r3, #0
  407b88:	220a      	movs	r2, #10
  407b8a:	4620      	mov	r0, r4
  407b8c:	f001 f9da 	bl	408f44 <__multadd>
  407b90:	455e      	cmp	r6, fp
  407b92:	4681      	mov	r9, r0
  407b94:	4631      	mov	r1, r6
  407b96:	f04f 0300 	mov.w	r3, #0
  407b9a:	f04f 020a 	mov.w	r2, #10
  407b9e:	4620      	mov	r0, r4
  407ba0:	f000 81eb 	beq.w	407f7a <_dtoa_r+0x9fa>
  407ba4:	f001 f9ce 	bl	408f44 <__multadd>
  407ba8:	4659      	mov	r1, fp
  407baa:	4606      	mov	r6, r0
  407bac:	2300      	movs	r3, #0
  407bae:	220a      	movs	r2, #10
  407bb0:	4620      	mov	r0, r4
  407bb2:	f001 f9c7 	bl	408f44 <__multadd>
  407bb6:	4647      	mov	r7, r8
  407bb8:	4683      	mov	fp, r0
  407bba:	e7a3      	b.n	407b04 <_dtoa_r+0x584>
  407bbc:	201c      	movs	r0, #28
  407bbe:	9b08      	ldr	r3, [sp, #32]
  407bc0:	4403      	add	r3, r0
  407bc2:	9308      	str	r3, [sp, #32]
  407bc4:	9b06      	ldr	r3, [sp, #24]
  407bc6:	4403      	add	r3, r0
  407bc8:	4405      	add	r5, r0
  407bca:	9306      	str	r3, [sp, #24]
  407bcc:	e763      	b.n	407a96 <_dtoa_r+0x516>
  407bce:	4641      	mov	r1, r8
  407bd0:	4648      	mov	r0, r9
  407bd2:	f001 fb85 	bl	4092e0 <__mcmp>
  407bd6:	2800      	cmp	r0, #0
  407bd8:	f6bf af73 	bge.w	407ac2 <_dtoa_r+0x542>
  407bdc:	9f02      	ldr	r7, [sp, #8]
  407bde:	4649      	mov	r1, r9
  407be0:	2300      	movs	r3, #0
  407be2:	220a      	movs	r2, #10
  407be4:	4620      	mov	r0, r4
  407be6:	3f01      	subs	r7, #1
  407be8:	9702      	str	r7, [sp, #8]
  407bea:	f001 f9ab 	bl	408f44 <__multadd>
  407bee:	9b0b      	ldr	r3, [sp, #44]	; 0x2c
  407bf0:	4681      	mov	r9, r0
  407bf2:	2b00      	cmp	r3, #0
  407bf4:	f040 83b6 	bne.w	408364 <_dtoa_r+0xde4>
  407bf8:	9b0f      	ldr	r3, [sp, #60]	; 0x3c
  407bfa:	2b00      	cmp	r3, #0
  407bfc:	f340 83bf 	ble.w	40837e <_dtoa_r+0xdfe>
  407c00:	930a      	str	r3, [sp, #40]	; 0x28
  407c02:	f8dd b010 	ldr.w	fp, [sp, #16]
  407c06:	9f0a      	ldr	r7, [sp, #40]	; 0x28
  407c08:	465d      	mov	r5, fp
  407c0a:	e002      	b.n	407c12 <_dtoa_r+0x692>
  407c0c:	f001 f99a 	bl	408f44 <__multadd>
  407c10:	4681      	mov	r9, r0
  407c12:	4641      	mov	r1, r8
  407c14:	4648      	mov	r0, r9
  407c16:	f7ff fc1f 	bl	407458 <quorem>
  407c1a:	f100 0a30 	add.w	sl, r0, #48	; 0x30
  407c1e:	f805 ab01 	strb.w	sl, [r5], #1
  407c22:	eba5 030b 	sub.w	r3, r5, fp
  407c26:	42bb      	cmp	r3, r7
  407c28:	f04f 020a 	mov.w	r2, #10
  407c2c:	f04f 0300 	mov.w	r3, #0
  407c30:	4649      	mov	r1, r9
  407c32:	4620      	mov	r0, r4
  407c34:	dbea      	blt.n	407c0c <_dtoa_r+0x68c>
  407c36:	9b04      	ldr	r3, [sp, #16]
  407c38:	9a0a      	ldr	r2, [sp, #40]	; 0x28
  407c3a:	2a01      	cmp	r2, #1
  407c3c:	bfac      	ite	ge
  407c3e:	189b      	addge	r3, r3, r2
  407c40:	3301      	addlt	r3, #1
  407c42:	461d      	mov	r5, r3
  407c44:	f04f 0b00 	mov.w	fp, #0
  407c48:	4649      	mov	r1, r9
  407c4a:	2201      	movs	r2, #1
  407c4c:	4620      	mov	r0, r4
  407c4e:	f001 faf5 	bl	40923c <__lshift>
  407c52:	4641      	mov	r1, r8
  407c54:	4681      	mov	r9, r0
  407c56:	f001 fb43 	bl	4092e0 <__mcmp>
  407c5a:	2800      	cmp	r0, #0
  407c5c:	f340 823d 	ble.w	4080da <_dtoa_r+0xb5a>
  407c60:	f815 2c01 	ldrb.w	r2, [r5, #-1]
  407c64:	9904      	ldr	r1, [sp, #16]
  407c66:	1e6b      	subs	r3, r5, #1
  407c68:	e004      	b.n	407c74 <_dtoa_r+0x6f4>
  407c6a:	428b      	cmp	r3, r1
  407c6c:	f000 81ae 	beq.w	407fcc <_dtoa_r+0xa4c>
  407c70:	f813 2d01 	ldrb.w	r2, [r3, #-1]!
  407c74:	2a39      	cmp	r2, #57	; 0x39
  407c76:	f103 0501 	add.w	r5, r3, #1
  407c7a:	d0f6      	beq.n	407c6a <_dtoa_r+0x6ea>
  407c7c:	3201      	adds	r2, #1
  407c7e:	701a      	strb	r2, [r3, #0]
  407c80:	4641      	mov	r1, r8
  407c82:	4620      	mov	r0, r4
  407c84:	f001 f954 	bl	408f30 <_Bfree>
  407c88:	2e00      	cmp	r6, #0
  407c8a:	f43f ae3d 	beq.w	407908 <_dtoa_r+0x388>
  407c8e:	f1bb 0f00 	cmp.w	fp, #0
  407c92:	d005      	beq.n	407ca0 <_dtoa_r+0x720>
  407c94:	45b3      	cmp	fp, r6
  407c96:	d003      	beq.n	407ca0 <_dtoa_r+0x720>
  407c98:	4659      	mov	r1, fp
  407c9a:	4620      	mov	r0, r4
  407c9c:	f001 f948 	bl	408f30 <_Bfree>
  407ca0:	4631      	mov	r1, r6
  407ca2:	4620      	mov	r0, r4
  407ca4:	f001 f944 	bl	408f30 <_Bfree>
  407ca8:	e62e      	b.n	407908 <_dtoa_r+0x388>
  407caa:	2300      	movs	r3, #0
  407cac:	930b      	str	r3, [sp, #44]	; 0x2c
  407cae:	9b02      	ldr	r3, [sp, #8]
  407cb0:	9a25      	ldr	r2, [sp, #148]	; 0x94
  407cb2:	4413      	add	r3, r2
  407cb4:	930f      	str	r3, [sp, #60]	; 0x3c
  407cb6:	3301      	adds	r3, #1
  407cb8:	2b01      	cmp	r3, #1
  407cba:	461f      	mov	r7, r3
  407cbc:	461e      	mov	r6, r3
  407cbe:	930a      	str	r3, [sp, #40]	; 0x28
  407cc0:	bfb8      	it	lt
  407cc2:	2701      	movlt	r7, #1
  407cc4:	2100      	movs	r1, #0
  407cc6:	2f17      	cmp	r7, #23
  407cc8:	6461      	str	r1, [r4, #68]	; 0x44
  407cca:	d90a      	bls.n	407ce2 <_dtoa_r+0x762>
  407ccc:	2201      	movs	r2, #1
  407cce:	2304      	movs	r3, #4
  407cd0:	005b      	lsls	r3, r3, #1
  407cd2:	f103 0014 	add.w	r0, r3, #20
  407cd6:	4287      	cmp	r7, r0
  407cd8:	4611      	mov	r1, r2
  407cda:	f102 0201 	add.w	r2, r2, #1
  407cde:	d2f7      	bcs.n	407cd0 <_dtoa_r+0x750>
  407ce0:	6461      	str	r1, [r4, #68]	; 0x44
  407ce2:	4620      	mov	r0, r4
  407ce4:	f001 f8fe 	bl	408ee4 <_Balloc>
  407ce8:	2e0e      	cmp	r6, #14
  407cea:	9004      	str	r0, [sp, #16]
  407cec:	6420      	str	r0, [r4, #64]	; 0x40
  407cee:	f63f ad41 	bhi.w	407774 <_dtoa_r+0x1f4>
  407cf2:	2d00      	cmp	r5, #0
  407cf4:	f43f ad3e 	beq.w	407774 <_dtoa_r+0x1f4>
  407cf8:	9902      	ldr	r1, [sp, #8]
  407cfa:	2900      	cmp	r1, #0
  407cfc:	e9cd ab10 	strd	sl, fp, [sp, #64]	; 0x40
  407d00:	f340 8202 	ble.w	408108 <_dtoa_r+0xb88>
  407d04:	4bb8      	ldr	r3, [pc, #736]	; (407fe8 <_dtoa_r+0xa68>)
  407d06:	f001 020f 	and.w	r2, r1, #15
  407d0a:	110d      	asrs	r5, r1, #4
  407d0c:	eb03 03c2 	add.w	r3, r3, r2, lsl #3
  407d10:	06e9      	lsls	r1, r5, #27
  407d12:	e9d3 6700 	ldrd	r6, r7, [r3]
  407d16:	f140 81ae 	bpl.w	408076 <_dtoa_r+0xaf6>
  407d1a:	4bb4      	ldr	r3, [pc, #720]	; (407fec <_dtoa_r+0xa6c>)
  407d1c:	4650      	mov	r0, sl
  407d1e:	4659      	mov	r1, fp
  407d20:	e9d3 2308 	ldrd	r2, r3, [r3, #32]
  407d24:	f7fd fc04 	bl	405530 <__aeabi_ddiv>
  407d28:	e9cd 0112 	strd	r0, r1, [sp, #72]	; 0x48
  407d2c:	f005 050f 	and.w	r5, r5, #15
  407d30:	f04f 0a03 	mov.w	sl, #3
  407d34:	b18d      	cbz	r5, 407d5a <_dtoa_r+0x7da>
  407d36:	f8df 82b4 	ldr.w	r8, [pc, #692]	; 407fec <_dtoa_r+0xa6c>
  407d3a:	07ea      	lsls	r2, r5, #31
  407d3c:	d509      	bpl.n	407d52 <_dtoa_r+0x7d2>
  407d3e:	4630      	mov	r0, r6
  407d40:	4639      	mov	r1, r7
  407d42:	e9d8 2300 	ldrd	r2, r3, [r8]
  407d46:	f7fd fac9 	bl	4052dc <__aeabi_dmul>
  407d4a:	f10a 0a01 	add.w	sl, sl, #1
  407d4e:	4606      	mov	r6, r0
  407d50:	460f      	mov	r7, r1
  407d52:	106d      	asrs	r5, r5, #1
  407d54:	f108 0808 	add.w	r8, r8, #8
  407d58:	d1ef      	bne.n	407d3a <_dtoa_r+0x7ba>
  407d5a:	463b      	mov	r3, r7
  407d5c:	4632      	mov	r2, r6
  407d5e:	e9dd 0112 	ldrd	r0, r1, [sp, #72]	; 0x48
  407d62:	f7fd fbe5 	bl	405530 <__aeabi_ddiv>
  407d66:	4607      	mov	r7, r0
  407d68:	4688      	mov	r8, r1
  407d6a:	9b0e      	ldr	r3, [sp, #56]	; 0x38
  407d6c:	b143      	cbz	r3, 407d80 <_dtoa_r+0x800>
  407d6e:	2200      	movs	r2, #0
  407d70:	4b9f      	ldr	r3, [pc, #636]	; (407ff0 <_dtoa_r+0xa70>)
  407d72:	4638      	mov	r0, r7
  407d74:	4641      	mov	r1, r8
  407d76:	f001 fee5 	bl	409b44 <__aeabi_dcmplt>
  407d7a:	2800      	cmp	r0, #0
  407d7c:	f040 8286 	bne.w	40828c <_dtoa_r+0xd0c>
  407d80:	4650      	mov	r0, sl
  407d82:	f7fd fa45 	bl	405210 <__aeabi_i2d>
  407d86:	463a      	mov	r2, r7
  407d88:	4643      	mov	r3, r8
  407d8a:	f7fd faa7 	bl	4052dc <__aeabi_dmul>
  407d8e:	4b99      	ldr	r3, [pc, #612]	; (407ff4 <_dtoa_r+0xa74>)
  407d90:	2200      	movs	r2, #0
  407d92:	f7fd f8f1 	bl	404f78 <__adddf3>
  407d96:	9b0a      	ldr	r3, [sp, #40]	; 0x28
  407d98:	4605      	mov	r5, r0
  407d9a:	f1a1 7650 	sub.w	r6, r1, #54525952	; 0x3400000
  407d9e:	2b00      	cmp	r3, #0
  407da0:	f000 813e 	beq.w	408020 <_dtoa_r+0xaa0>
  407da4:	9b02      	ldr	r3, [sp, #8]
  407da6:	9315      	str	r3, [sp, #84]	; 0x54
  407da8:	9b0a      	ldr	r3, [sp, #40]	; 0x28
  407daa:	9312      	str	r3, [sp, #72]	; 0x48
  407dac:	9b0b      	ldr	r3, [sp, #44]	; 0x2c
  407dae:	2b00      	cmp	r3, #0
  407db0:	f000 81fa 	beq.w	4081a8 <_dtoa_r+0xc28>
  407db4:	9a12      	ldr	r2, [sp, #72]	; 0x48
  407db6:	4b8c      	ldr	r3, [pc, #560]	; (407fe8 <_dtoa_r+0xa68>)
  407db8:	498f      	ldr	r1, [pc, #572]	; (407ff8 <_dtoa_r+0xa78>)
  407dba:	eb03 03c2 	add.w	r3, r3, r2, lsl #3
  407dbe:	e953 2302 	ldrd	r2, r3, [r3, #-8]
  407dc2:	2000      	movs	r0, #0
  407dc4:	f7fd fbb4 	bl	405530 <__aeabi_ddiv>
  407dc8:	462a      	mov	r2, r5
  407dca:	4633      	mov	r3, r6
  407dcc:	f7fd f8d2 	bl	404f74 <__aeabi_dsub>
  407dd0:	4682      	mov	sl, r0
  407dd2:	468b      	mov	fp, r1
  407dd4:	4638      	mov	r0, r7
  407dd6:	4641      	mov	r1, r8
  407dd8:	f001 fef2 	bl	409bc0 <__aeabi_d2iz>
  407ddc:	4605      	mov	r5, r0
  407dde:	f7fd fa17 	bl	405210 <__aeabi_i2d>
  407de2:	4602      	mov	r2, r0
  407de4:	460b      	mov	r3, r1
  407de6:	4638      	mov	r0, r7
  407de8:	4641      	mov	r1, r8
  407dea:	f7fd f8c3 	bl	404f74 <__aeabi_dsub>
  407dee:	3530      	adds	r5, #48	; 0x30
  407df0:	fa5f f885 	uxtb.w	r8, r5
  407df4:	9d04      	ldr	r5, [sp, #16]
  407df6:	4606      	mov	r6, r0
  407df8:	460f      	mov	r7, r1
  407dfa:	f885 8000 	strb.w	r8, [r5]
  407dfe:	4602      	mov	r2, r0
  407e00:	460b      	mov	r3, r1
  407e02:	4650      	mov	r0, sl
  407e04:	4659      	mov	r1, fp
  407e06:	3501      	adds	r5, #1
  407e08:	f001 feba 	bl	409b80 <__aeabi_dcmpgt>
  407e0c:	2800      	cmp	r0, #0
  407e0e:	d154      	bne.n	407eba <_dtoa_r+0x93a>
  407e10:	4632      	mov	r2, r6
  407e12:	463b      	mov	r3, r7
  407e14:	2000      	movs	r0, #0
  407e16:	4976      	ldr	r1, [pc, #472]	; (407ff0 <_dtoa_r+0xa70>)
  407e18:	f7fd f8ac 	bl	404f74 <__aeabi_dsub>
  407e1c:	4602      	mov	r2, r0
  407e1e:	460b      	mov	r3, r1
  407e20:	4650      	mov	r0, sl
  407e22:	4659      	mov	r1, fp
  407e24:	f001 feac 	bl	409b80 <__aeabi_dcmpgt>
  407e28:	2800      	cmp	r0, #0
  407e2a:	f040 8270 	bne.w	40830e <_dtoa_r+0xd8e>
  407e2e:	9a12      	ldr	r2, [sp, #72]	; 0x48
  407e30:	2a01      	cmp	r2, #1
  407e32:	f000 8111 	beq.w	408058 <_dtoa_r+0xad8>
  407e36:	9b12      	ldr	r3, [sp, #72]	; 0x48
  407e38:	9a04      	ldr	r2, [sp, #16]
  407e3a:	f8cd 9048 	str.w	r9, [sp, #72]	; 0x48
  407e3e:	4413      	add	r3, r2
  407e40:	4699      	mov	r9, r3
  407e42:	e00d      	b.n	407e60 <_dtoa_r+0x8e0>
  407e44:	2000      	movs	r0, #0
  407e46:	496a      	ldr	r1, [pc, #424]	; (407ff0 <_dtoa_r+0xa70>)
  407e48:	f7fd f894 	bl	404f74 <__aeabi_dsub>
  407e4c:	4652      	mov	r2, sl
  407e4e:	465b      	mov	r3, fp
  407e50:	f001 fe78 	bl	409b44 <__aeabi_dcmplt>
  407e54:	2800      	cmp	r0, #0
  407e56:	f040 8258 	bne.w	40830a <_dtoa_r+0xd8a>
  407e5a:	454d      	cmp	r5, r9
  407e5c:	f000 80fa 	beq.w	408054 <_dtoa_r+0xad4>
  407e60:	4650      	mov	r0, sl
  407e62:	4659      	mov	r1, fp
  407e64:	2200      	movs	r2, #0
  407e66:	4b65      	ldr	r3, [pc, #404]	; (407ffc <_dtoa_r+0xa7c>)
  407e68:	f7fd fa38 	bl	4052dc <__aeabi_dmul>
  407e6c:	2200      	movs	r2, #0
  407e6e:	4b63      	ldr	r3, [pc, #396]	; (407ffc <_dtoa_r+0xa7c>)
  407e70:	4682      	mov	sl, r0
  407e72:	468b      	mov	fp, r1
  407e74:	4630      	mov	r0, r6
  407e76:	4639      	mov	r1, r7
  407e78:	f7fd fa30 	bl	4052dc <__aeabi_dmul>
  407e7c:	460f      	mov	r7, r1
  407e7e:	4606      	mov	r6, r0
  407e80:	f001 fe9e 	bl	409bc0 <__aeabi_d2iz>
  407e84:	4680      	mov	r8, r0
  407e86:	f7fd f9c3 	bl	405210 <__aeabi_i2d>
  407e8a:	4602      	mov	r2, r0
  407e8c:	460b      	mov	r3, r1
  407e8e:	4630      	mov	r0, r6
  407e90:	4639      	mov	r1, r7
  407e92:	f7fd f86f 	bl	404f74 <__aeabi_dsub>
  407e96:	f108 0830 	add.w	r8, r8, #48	; 0x30
  407e9a:	fa5f f888 	uxtb.w	r8, r8
  407e9e:	4652      	mov	r2, sl
  407ea0:	465b      	mov	r3, fp
  407ea2:	f805 8b01 	strb.w	r8, [r5], #1
  407ea6:	4606      	mov	r6, r0
  407ea8:	460f      	mov	r7, r1
  407eaa:	f001 fe4b 	bl	409b44 <__aeabi_dcmplt>
  407eae:	4632      	mov	r2, r6
  407eb0:	463b      	mov	r3, r7
  407eb2:	2800      	cmp	r0, #0
  407eb4:	d0c6      	beq.n	407e44 <_dtoa_r+0x8c4>
  407eb6:	f8dd 9048 	ldr.w	r9, [sp, #72]	; 0x48
  407eba:	9b15      	ldr	r3, [sp, #84]	; 0x54
  407ebc:	9302      	str	r3, [sp, #8]
  407ebe:	e523      	b.n	407908 <_dtoa_r+0x388>
  407ec0:	2300      	movs	r3, #0
  407ec2:	930b      	str	r3, [sp, #44]	; 0x2c
  407ec4:	9b25      	ldr	r3, [sp, #148]	; 0x94
  407ec6:	2b00      	cmp	r3, #0
  407ec8:	f340 80dc 	ble.w	408084 <_dtoa_r+0xb04>
  407ecc:	461f      	mov	r7, r3
  407ece:	461e      	mov	r6, r3
  407ed0:	930f      	str	r3, [sp, #60]	; 0x3c
  407ed2:	930a      	str	r3, [sp, #40]	; 0x28
  407ed4:	e6f6      	b.n	407cc4 <_dtoa_r+0x744>
  407ed6:	2301      	movs	r3, #1
  407ed8:	930b      	str	r3, [sp, #44]	; 0x2c
  407eda:	e7f3      	b.n	407ec4 <_dtoa_r+0x944>
  407edc:	f1ba 0f00 	cmp.w	sl, #0
  407ee0:	f47f ada8 	bne.w	407a34 <_dtoa_r+0x4b4>
  407ee4:	f3cb 0313 	ubfx	r3, fp, #0, #20
  407ee8:	2b00      	cmp	r3, #0
  407eea:	f47f adba 	bne.w	407a62 <_dtoa_r+0x4e2>
  407eee:	f02b 4700 	bic.w	r7, fp, #2147483648	; 0x80000000
  407ef2:	0d3f      	lsrs	r7, r7, #20
  407ef4:	053f      	lsls	r7, r7, #20
  407ef6:	2f00      	cmp	r7, #0
  407ef8:	f000 820d 	beq.w	408316 <_dtoa_r+0xd96>
  407efc:	9b08      	ldr	r3, [sp, #32]
  407efe:	3301      	adds	r3, #1
  407f00:	9308      	str	r3, [sp, #32]
  407f02:	9b06      	ldr	r3, [sp, #24]
  407f04:	3301      	adds	r3, #1
  407f06:	9306      	str	r3, [sp, #24]
  407f08:	2301      	movs	r3, #1
  407f0a:	930c      	str	r3, [sp, #48]	; 0x30
  407f0c:	e5ab      	b.n	407a66 <_dtoa_r+0x4e6>
  407f0e:	9b0a      	ldr	r3, [sp, #40]	; 0x28
  407f10:	2b00      	cmp	r3, #0
  407f12:	f73f ac42 	bgt.w	40779a <_dtoa_r+0x21a>
  407f16:	f040 8221 	bne.w	40835c <_dtoa_r+0xddc>
  407f1a:	2200      	movs	r2, #0
  407f1c:	4b38      	ldr	r3, [pc, #224]	; (408000 <_dtoa_r+0xa80>)
  407f1e:	e9dd 0108 	ldrd	r0, r1, [sp, #32]
  407f22:	f7fd f9db 	bl	4052dc <__aeabi_dmul>
  407f26:	4652      	mov	r2, sl
  407f28:	465b      	mov	r3, fp
  407f2a:	f001 fe1f 	bl	409b6c <__aeabi_dcmpge>
  407f2e:	f8dd 8028 	ldr.w	r8, [sp, #40]	; 0x28
  407f32:	4646      	mov	r6, r8
  407f34:	2800      	cmp	r0, #0
  407f36:	d041      	beq.n	407fbc <_dtoa_r+0xa3c>
  407f38:	9b25      	ldr	r3, [sp, #148]	; 0x94
  407f3a:	9d04      	ldr	r5, [sp, #16]
  407f3c:	43db      	mvns	r3, r3
  407f3e:	9302      	str	r3, [sp, #8]
  407f40:	4641      	mov	r1, r8
  407f42:	4620      	mov	r0, r4
  407f44:	f000 fff4 	bl	408f30 <_Bfree>
  407f48:	2e00      	cmp	r6, #0
  407f4a:	f43f acdd 	beq.w	407908 <_dtoa_r+0x388>
  407f4e:	e6a7      	b.n	407ca0 <_dtoa_r+0x720>
  407f50:	9a0c      	ldr	r2, [sp, #48]	; 0x30
  407f52:	4649      	mov	r1, r9
  407f54:	4620      	mov	r0, r4
  407f56:	f001 f921 	bl	40919c <__pow5mult>
  407f5a:	4681      	mov	r9, r0
  407f5c:	e558      	b.n	407a10 <_dtoa_r+0x490>
  407f5e:	9a14      	ldr	r2, [sp, #80]	; 0x50
  407f60:	2a00      	cmp	r2, #0
  407f62:	f000 8187 	beq.w	408274 <_dtoa_r+0xcf4>
  407f66:	f203 4333 	addw	r3, r3, #1075	; 0x433
  407f6a:	9f0c      	ldr	r7, [sp, #48]	; 0x30
  407f6c:	9d08      	ldr	r5, [sp, #32]
  407f6e:	e4f2      	b.n	407956 <_dtoa_r+0x3d6>
  407f70:	f1ba 0f00 	cmp.w	sl, #0
  407f74:	f47f ad75 	bne.w	407a62 <_dtoa_r+0x4e2>
  407f78:	e7b4      	b.n	407ee4 <_dtoa_r+0x964>
  407f7a:	f000 ffe3 	bl	408f44 <__multadd>
  407f7e:	4647      	mov	r7, r8
  407f80:	4606      	mov	r6, r0
  407f82:	4683      	mov	fp, r0
  407f84:	e5be      	b.n	407b04 <_dtoa_r+0x584>
  407f86:	4601      	mov	r1, r0
  407f88:	4620      	mov	r0, r4
  407f8a:	9306      	str	r3, [sp, #24]
  407f8c:	f000 ffd0 	bl	408f30 <_Bfree>
  407f90:	2201      	movs	r2, #1
  407f92:	9b06      	ldr	r3, [sp, #24]
  407f94:	e5e0      	b.n	407b58 <_dtoa_r+0x5d8>
  407f96:	9b24      	ldr	r3, [sp, #144]	; 0x90
  407f98:	2b02      	cmp	r3, #2
  407f9a:	f77f ad96 	ble.w	407aca <_dtoa_r+0x54a>
  407f9e:	9b0a      	ldr	r3, [sp, #40]	; 0x28
  407fa0:	2b00      	cmp	r3, #0
  407fa2:	d1c9      	bne.n	407f38 <_dtoa_r+0x9b8>
  407fa4:	4641      	mov	r1, r8
  407fa6:	2205      	movs	r2, #5
  407fa8:	4620      	mov	r0, r4
  407faa:	f000 ffcb 	bl	408f44 <__multadd>
  407fae:	4601      	mov	r1, r0
  407fb0:	4680      	mov	r8, r0
  407fb2:	4648      	mov	r0, r9
  407fb4:	f001 f994 	bl	4092e0 <__mcmp>
  407fb8:	2800      	cmp	r0, #0
  407fba:	ddbd      	ble.n	407f38 <_dtoa_r+0x9b8>
  407fbc:	9a02      	ldr	r2, [sp, #8]
  407fbe:	9904      	ldr	r1, [sp, #16]
  407fc0:	2331      	movs	r3, #49	; 0x31
  407fc2:	3201      	adds	r2, #1
  407fc4:	9202      	str	r2, [sp, #8]
  407fc6:	700b      	strb	r3, [r1, #0]
  407fc8:	1c4d      	adds	r5, r1, #1
  407fca:	e7b9      	b.n	407f40 <_dtoa_r+0x9c0>
  407fcc:	9a02      	ldr	r2, [sp, #8]
  407fce:	3201      	adds	r2, #1
  407fd0:	9202      	str	r2, [sp, #8]
  407fd2:	9a04      	ldr	r2, [sp, #16]
  407fd4:	2331      	movs	r3, #49	; 0x31
  407fd6:	7013      	strb	r3, [r2, #0]
  407fd8:	e652      	b.n	407c80 <_dtoa_r+0x700>
  407fda:	2301      	movs	r3, #1
  407fdc:	930b      	str	r3, [sp, #44]	; 0x2c
  407fde:	e666      	b.n	407cae <_dtoa_r+0x72e>
  407fe0:	f8dd 902c 	ldr.w	r9, [sp, #44]	; 0x2c
  407fe4:	9c0c      	ldr	r4, [sp, #48]	; 0x30
  407fe6:	e48f      	b.n	407908 <_dtoa_r+0x388>
  407fe8:	0040a4a0 	.word	0x0040a4a0
  407fec:	0040a478 	.word	0x0040a478
  407ff0:	3ff00000 	.word	0x3ff00000
  407ff4:	401c0000 	.word	0x401c0000
  407ff8:	3fe00000 	.word	0x3fe00000
  407ffc:	40240000 	.word	0x40240000
  408000:	40140000 	.word	0x40140000
  408004:	4650      	mov	r0, sl
  408006:	f7fd f903 	bl	405210 <__aeabi_i2d>
  40800a:	463a      	mov	r2, r7
  40800c:	4643      	mov	r3, r8
  40800e:	f7fd f965 	bl	4052dc <__aeabi_dmul>
  408012:	2200      	movs	r2, #0
  408014:	4bc1      	ldr	r3, [pc, #772]	; (40831c <_dtoa_r+0xd9c>)
  408016:	f7fc ffaf 	bl	404f78 <__adddf3>
  40801a:	4605      	mov	r5, r0
  40801c:	f1a1 7650 	sub.w	r6, r1, #54525952	; 0x3400000
  408020:	4641      	mov	r1, r8
  408022:	2200      	movs	r2, #0
  408024:	4bbe      	ldr	r3, [pc, #760]	; (408320 <_dtoa_r+0xda0>)
  408026:	4638      	mov	r0, r7
  408028:	f7fc ffa4 	bl	404f74 <__aeabi_dsub>
  40802c:	462a      	mov	r2, r5
  40802e:	4633      	mov	r3, r6
  408030:	4682      	mov	sl, r0
  408032:	468b      	mov	fp, r1
  408034:	f001 fda4 	bl	409b80 <__aeabi_dcmpgt>
  408038:	4680      	mov	r8, r0
  40803a:	2800      	cmp	r0, #0
  40803c:	f040 8110 	bne.w	408260 <_dtoa_r+0xce0>
  408040:	462a      	mov	r2, r5
  408042:	f106 4300 	add.w	r3, r6, #2147483648	; 0x80000000
  408046:	4650      	mov	r0, sl
  408048:	4659      	mov	r1, fp
  40804a:	f001 fd7b 	bl	409b44 <__aeabi_dcmplt>
  40804e:	b118      	cbz	r0, 408058 <_dtoa_r+0xad8>
  408050:	4646      	mov	r6, r8
  408052:	e771      	b.n	407f38 <_dtoa_r+0x9b8>
  408054:	f8dd 9048 	ldr.w	r9, [sp, #72]	; 0x48
  408058:	e9dd ab10 	ldrd	sl, fp, [sp, #64]	; 0x40
  40805c:	f7ff bb8a 	b.w	407774 <_dtoa_r+0x1f4>
  408060:	9804      	ldr	r0, [sp, #16]
  408062:	f7ff babb 	b.w	4075dc <_dtoa_r+0x5c>
  408066:	9b0c      	ldr	r3, [sp, #48]	; 0x30
  408068:	9a0d      	ldr	r2, [sp, #52]	; 0x34
  40806a:	970c      	str	r7, [sp, #48]	; 0x30
  40806c:	1afb      	subs	r3, r7, r3
  40806e:	441a      	add	r2, r3
  408070:	920d      	str	r2, [sp, #52]	; 0x34
  408072:	2700      	movs	r7, #0
  408074:	e469      	b.n	40794a <_dtoa_r+0x3ca>
  408076:	e9dd 2310 	ldrd	r2, r3, [sp, #64]	; 0x40
  40807a:	f04f 0a02 	mov.w	sl, #2
  40807e:	e9cd 2312 	strd	r2, r3, [sp, #72]	; 0x48
  408082:	e657      	b.n	407d34 <_dtoa_r+0x7b4>
  408084:	2100      	movs	r1, #0
  408086:	2301      	movs	r3, #1
  408088:	6461      	str	r1, [r4, #68]	; 0x44
  40808a:	4620      	mov	r0, r4
  40808c:	9325      	str	r3, [sp, #148]	; 0x94
  40808e:	f000 ff29 	bl	408ee4 <_Balloc>
  408092:	9b25      	ldr	r3, [sp, #148]	; 0x94
  408094:	9004      	str	r0, [sp, #16]
  408096:	6420      	str	r0, [r4, #64]	; 0x40
  408098:	930a      	str	r3, [sp, #40]	; 0x28
  40809a:	930f      	str	r3, [sp, #60]	; 0x3c
  40809c:	e629      	b.n	407cf2 <_dtoa_r+0x772>
  40809e:	2a00      	cmp	r2, #0
  4080a0:	46d0      	mov	r8, sl
  4080a2:	f8cd b018 	str.w	fp, [sp, #24]
  4080a6:	469a      	mov	sl, r3
  4080a8:	dd11      	ble.n	4080ce <_dtoa_r+0xb4e>
  4080aa:	4649      	mov	r1, r9
  4080ac:	2201      	movs	r2, #1
  4080ae:	4620      	mov	r0, r4
  4080b0:	f001 f8c4 	bl	40923c <__lshift>
  4080b4:	4641      	mov	r1, r8
  4080b6:	4681      	mov	r9, r0
  4080b8:	f001 f912 	bl	4092e0 <__mcmp>
  4080bc:	2800      	cmp	r0, #0
  4080be:	f340 8146 	ble.w	40834e <_dtoa_r+0xdce>
  4080c2:	f1ba 0f39 	cmp.w	sl, #57	; 0x39
  4080c6:	f000 8106 	beq.w	4082d6 <_dtoa_r+0xd56>
  4080ca:	f105 0a31 	add.w	sl, r5, #49	; 0x31
  4080ce:	46b3      	mov	fp, r6
  4080d0:	f887 a000 	strb.w	sl, [r7]
  4080d4:	1c7d      	adds	r5, r7, #1
  4080d6:	9e06      	ldr	r6, [sp, #24]
  4080d8:	e5d2      	b.n	407c80 <_dtoa_r+0x700>
  4080da:	d104      	bne.n	4080e6 <_dtoa_r+0xb66>
  4080dc:	f01a 0f01 	tst.w	sl, #1
  4080e0:	d001      	beq.n	4080e6 <_dtoa_r+0xb66>
  4080e2:	e5bd      	b.n	407c60 <_dtoa_r+0x6e0>
  4080e4:	4615      	mov	r5, r2
  4080e6:	f815 3c01 	ldrb.w	r3, [r5, #-1]
  4080ea:	2b30      	cmp	r3, #48	; 0x30
  4080ec:	f105 32ff 	add.w	r2, r5, #4294967295
  4080f0:	d0f8      	beq.n	4080e4 <_dtoa_r+0xb64>
  4080f2:	e5c5      	b.n	407c80 <_dtoa_r+0x700>
  4080f4:	9904      	ldr	r1, [sp, #16]
  4080f6:	2230      	movs	r2, #48	; 0x30
  4080f8:	700a      	strb	r2, [r1, #0]
  4080fa:	9a02      	ldr	r2, [sp, #8]
  4080fc:	f815 8c01 	ldrb.w	r8, [r5, #-1]
  408100:	3201      	adds	r2, #1
  408102:	9202      	str	r2, [sp, #8]
  408104:	f7ff bbfc 	b.w	407900 <_dtoa_r+0x380>
  408108:	f000 80bb 	beq.w	408282 <_dtoa_r+0xd02>
  40810c:	9b02      	ldr	r3, [sp, #8]
  40810e:	425d      	negs	r5, r3
  408110:	4b84      	ldr	r3, [pc, #528]	; (408324 <_dtoa_r+0xda4>)
  408112:	f005 020f 	and.w	r2, r5, #15
  408116:	eb03 03c2 	add.w	r3, r3, r2, lsl #3
  40811a:	e9d3 2300 	ldrd	r2, r3, [r3]
  40811e:	e9dd 0110 	ldrd	r0, r1, [sp, #64]	; 0x40
  408122:	f7fd f8db 	bl	4052dc <__aeabi_dmul>
  408126:	112d      	asrs	r5, r5, #4
  408128:	4607      	mov	r7, r0
  40812a:	4688      	mov	r8, r1
  40812c:	f000 812c 	beq.w	408388 <_dtoa_r+0xe08>
  408130:	4e7d      	ldr	r6, [pc, #500]	; (408328 <_dtoa_r+0xda8>)
  408132:	f04f 0a02 	mov.w	sl, #2
  408136:	07eb      	lsls	r3, r5, #31
  408138:	d509      	bpl.n	40814e <_dtoa_r+0xbce>
  40813a:	4638      	mov	r0, r7
  40813c:	4641      	mov	r1, r8
  40813e:	e9d6 2300 	ldrd	r2, r3, [r6]
  408142:	f7fd f8cb 	bl	4052dc <__aeabi_dmul>
  408146:	f10a 0a01 	add.w	sl, sl, #1
  40814a:	4607      	mov	r7, r0
  40814c:	4688      	mov	r8, r1
  40814e:	106d      	asrs	r5, r5, #1
  408150:	f106 0608 	add.w	r6, r6, #8
  408154:	d1ef      	bne.n	408136 <_dtoa_r+0xbb6>
  408156:	e608      	b.n	407d6a <_dtoa_r+0x7ea>
  408158:	6871      	ldr	r1, [r6, #4]
  40815a:	4620      	mov	r0, r4
  40815c:	f000 fec2 	bl	408ee4 <_Balloc>
  408160:	6933      	ldr	r3, [r6, #16]
  408162:	3302      	adds	r3, #2
  408164:	009a      	lsls	r2, r3, #2
  408166:	4605      	mov	r5, r0
  408168:	f106 010c 	add.w	r1, r6, #12
  40816c:	300c      	adds	r0, #12
  40816e:	f000 fdaf 	bl	408cd0 <memcpy>
  408172:	4629      	mov	r1, r5
  408174:	2201      	movs	r2, #1
  408176:	4620      	mov	r0, r4
  408178:	f001 f860 	bl	40923c <__lshift>
  40817c:	9006      	str	r0, [sp, #24]
  40817e:	e4b5      	b.n	407aec <_dtoa_r+0x56c>
  408180:	2b39      	cmp	r3, #57	; 0x39
  408182:	f8cd b018 	str.w	fp, [sp, #24]
  408186:	46d0      	mov	r8, sl
  408188:	f000 80a5 	beq.w	4082d6 <_dtoa_r+0xd56>
  40818c:	f103 0a01 	add.w	sl, r3, #1
  408190:	46b3      	mov	fp, r6
  408192:	f887 a000 	strb.w	sl, [r7]
  408196:	1c7d      	adds	r5, r7, #1
  408198:	9e06      	ldr	r6, [sp, #24]
  40819a:	e571      	b.n	407c80 <_dtoa_r+0x700>
  40819c:	465a      	mov	r2, fp
  40819e:	46d0      	mov	r8, sl
  4081a0:	46b3      	mov	fp, r6
  4081a2:	469a      	mov	sl, r3
  4081a4:	4616      	mov	r6, r2
  4081a6:	e54f      	b.n	407c48 <_dtoa_r+0x6c8>
  4081a8:	9b12      	ldr	r3, [sp, #72]	; 0x48
  4081aa:	495e      	ldr	r1, [pc, #376]	; (408324 <_dtoa_r+0xda4>)
  4081ac:	eb01 01c3 	add.w	r1, r1, r3, lsl #3
  4081b0:	462a      	mov	r2, r5
  4081b2:	4633      	mov	r3, r6
  4081b4:	e951 0102 	ldrd	r0, r1, [r1, #-8]
  4081b8:	f7fd f890 	bl	4052dc <__aeabi_dmul>
  4081bc:	e9cd 0116 	strd	r0, r1, [sp, #88]	; 0x58
  4081c0:	4638      	mov	r0, r7
  4081c2:	4641      	mov	r1, r8
  4081c4:	f001 fcfc 	bl	409bc0 <__aeabi_d2iz>
  4081c8:	4605      	mov	r5, r0
  4081ca:	f7fd f821 	bl	405210 <__aeabi_i2d>
  4081ce:	460b      	mov	r3, r1
  4081d0:	4602      	mov	r2, r0
  4081d2:	4641      	mov	r1, r8
  4081d4:	4638      	mov	r0, r7
  4081d6:	f7fc fecd 	bl	404f74 <__aeabi_dsub>
  4081da:	9b12      	ldr	r3, [sp, #72]	; 0x48
  4081dc:	460f      	mov	r7, r1
  4081de:	9904      	ldr	r1, [sp, #16]
  4081e0:	3530      	adds	r5, #48	; 0x30
  4081e2:	2b01      	cmp	r3, #1
  4081e4:	700d      	strb	r5, [r1, #0]
  4081e6:	4606      	mov	r6, r0
  4081e8:	f101 0501 	add.w	r5, r1, #1
  4081ec:	d026      	beq.n	40823c <_dtoa_r+0xcbc>
  4081ee:	9b12      	ldr	r3, [sp, #72]	; 0x48
  4081f0:	9a04      	ldr	r2, [sp, #16]
  4081f2:	f8df b13c 	ldr.w	fp, [pc, #316]	; 408330 <_dtoa_r+0xdb0>
  4081f6:	f8cd 9048 	str.w	r9, [sp, #72]	; 0x48
  4081fa:	4413      	add	r3, r2
  4081fc:	f04f 0a00 	mov.w	sl, #0
  408200:	4699      	mov	r9, r3
  408202:	4652      	mov	r2, sl
  408204:	465b      	mov	r3, fp
  408206:	4630      	mov	r0, r6
  408208:	4639      	mov	r1, r7
  40820a:	f7fd f867 	bl	4052dc <__aeabi_dmul>
  40820e:	460f      	mov	r7, r1
  408210:	4606      	mov	r6, r0
  408212:	f001 fcd5 	bl	409bc0 <__aeabi_d2iz>
  408216:	4680      	mov	r8, r0
  408218:	f7fc fffa 	bl	405210 <__aeabi_i2d>
  40821c:	f108 0830 	add.w	r8, r8, #48	; 0x30
  408220:	4602      	mov	r2, r0
  408222:	460b      	mov	r3, r1
  408224:	4630      	mov	r0, r6
  408226:	4639      	mov	r1, r7
  408228:	f7fc fea4 	bl	404f74 <__aeabi_dsub>
  40822c:	f805 8b01 	strb.w	r8, [r5], #1
  408230:	454d      	cmp	r5, r9
  408232:	4606      	mov	r6, r0
  408234:	460f      	mov	r7, r1
  408236:	d1e4      	bne.n	408202 <_dtoa_r+0xc82>
  408238:	f8dd 9048 	ldr.w	r9, [sp, #72]	; 0x48
  40823c:	4b3b      	ldr	r3, [pc, #236]	; (40832c <_dtoa_r+0xdac>)
  40823e:	2200      	movs	r2, #0
  408240:	e9dd 0116 	ldrd	r0, r1, [sp, #88]	; 0x58
  408244:	f7fc fe98 	bl	404f78 <__adddf3>
  408248:	4632      	mov	r2, r6
  40824a:	463b      	mov	r3, r7
  40824c:	f001 fc7a 	bl	409b44 <__aeabi_dcmplt>
  408250:	2800      	cmp	r0, #0
  408252:	d046      	beq.n	4082e2 <_dtoa_r+0xd62>
  408254:	9b15      	ldr	r3, [sp, #84]	; 0x54
  408256:	9302      	str	r3, [sp, #8]
  408258:	f815 8c01 	ldrb.w	r8, [r5, #-1]
  40825c:	f7ff bb43 	b.w	4078e6 <_dtoa_r+0x366>
  408260:	f04f 0800 	mov.w	r8, #0
  408264:	4646      	mov	r6, r8
  408266:	e6a9      	b.n	407fbc <_dtoa_r+0xa3c>
  408268:	9b08      	ldr	r3, [sp, #32]
  40826a:	9a0a      	ldr	r2, [sp, #40]	; 0x28
  40826c:	1a9d      	subs	r5, r3, r2
  40826e:	2300      	movs	r3, #0
  408270:	f7ff bb71 	b.w	407956 <_dtoa_r+0x3d6>
  408274:	9b18      	ldr	r3, [sp, #96]	; 0x60
  408276:	9f0c      	ldr	r7, [sp, #48]	; 0x30
  408278:	9d08      	ldr	r5, [sp, #32]
  40827a:	f1c3 0336 	rsb	r3, r3, #54	; 0x36
  40827e:	f7ff bb6a 	b.w	407956 <_dtoa_r+0x3d6>
  408282:	e9dd 7810 	ldrd	r7, r8, [sp, #64]	; 0x40
  408286:	f04f 0a02 	mov.w	sl, #2
  40828a:	e56e      	b.n	407d6a <_dtoa_r+0x7ea>
  40828c:	9b0a      	ldr	r3, [sp, #40]	; 0x28
  40828e:	2b00      	cmp	r3, #0
  408290:	f43f aeb8 	beq.w	408004 <_dtoa_r+0xa84>
  408294:	9b0f      	ldr	r3, [sp, #60]	; 0x3c
  408296:	2b00      	cmp	r3, #0
  408298:	f77f aede 	ble.w	408058 <_dtoa_r+0xad8>
  40829c:	2200      	movs	r2, #0
  40829e:	4b24      	ldr	r3, [pc, #144]	; (408330 <_dtoa_r+0xdb0>)
  4082a0:	4638      	mov	r0, r7
  4082a2:	4641      	mov	r1, r8
  4082a4:	f7fd f81a 	bl	4052dc <__aeabi_dmul>
  4082a8:	4607      	mov	r7, r0
  4082aa:	4688      	mov	r8, r1
  4082ac:	f10a 0001 	add.w	r0, sl, #1
  4082b0:	f7fc ffae 	bl	405210 <__aeabi_i2d>
  4082b4:	463a      	mov	r2, r7
  4082b6:	4643      	mov	r3, r8
  4082b8:	f7fd f810 	bl	4052dc <__aeabi_dmul>
  4082bc:	2200      	movs	r2, #0
  4082be:	4b17      	ldr	r3, [pc, #92]	; (40831c <_dtoa_r+0xd9c>)
  4082c0:	f7fc fe5a 	bl	404f78 <__adddf3>
  4082c4:	9a02      	ldr	r2, [sp, #8]
  4082c6:	9b0f      	ldr	r3, [sp, #60]	; 0x3c
  4082c8:	9312      	str	r3, [sp, #72]	; 0x48
  4082ca:	3a01      	subs	r2, #1
  4082cc:	4605      	mov	r5, r0
  4082ce:	f1a1 7650 	sub.w	r6, r1, #54525952	; 0x3400000
  4082d2:	9215      	str	r2, [sp, #84]	; 0x54
  4082d4:	e56a      	b.n	407dac <_dtoa_r+0x82c>
  4082d6:	2239      	movs	r2, #57	; 0x39
  4082d8:	46b3      	mov	fp, r6
  4082da:	703a      	strb	r2, [r7, #0]
  4082dc:	9e06      	ldr	r6, [sp, #24]
  4082de:	1c7d      	adds	r5, r7, #1
  4082e0:	e4c0      	b.n	407c64 <_dtoa_r+0x6e4>
  4082e2:	e9dd 2316 	ldrd	r2, r3, [sp, #88]	; 0x58
  4082e6:	2000      	movs	r0, #0
  4082e8:	4910      	ldr	r1, [pc, #64]	; (40832c <_dtoa_r+0xdac>)
  4082ea:	f7fc fe43 	bl	404f74 <__aeabi_dsub>
  4082ee:	4632      	mov	r2, r6
  4082f0:	463b      	mov	r3, r7
  4082f2:	f001 fc45 	bl	409b80 <__aeabi_dcmpgt>
  4082f6:	b908      	cbnz	r0, 4082fc <_dtoa_r+0xd7c>
  4082f8:	e6ae      	b.n	408058 <_dtoa_r+0xad8>
  4082fa:	4615      	mov	r5, r2
  4082fc:	f815 3c01 	ldrb.w	r3, [r5, #-1]
  408300:	2b30      	cmp	r3, #48	; 0x30
  408302:	f105 32ff 	add.w	r2, r5, #4294967295
  408306:	d0f8      	beq.n	4082fa <_dtoa_r+0xd7a>
  408308:	e5d7      	b.n	407eba <_dtoa_r+0x93a>
  40830a:	f8dd 9048 	ldr.w	r9, [sp, #72]	; 0x48
  40830e:	9b15      	ldr	r3, [sp, #84]	; 0x54
  408310:	9302      	str	r3, [sp, #8]
  408312:	f7ff bae8 	b.w	4078e6 <_dtoa_r+0x366>
  408316:	970c      	str	r7, [sp, #48]	; 0x30
  408318:	f7ff bba5 	b.w	407a66 <_dtoa_r+0x4e6>
  40831c:	401c0000 	.word	0x401c0000
  408320:	40140000 	.word	0x40140000
  408324:	0040a4a0 	.word	0x0040a4a0
  408328:	0040a478 	.word	0x0040a478
  40832c:	3fe00000 	.word	0x3fe00000
  408330:	40240000 	.word	0x40240000
  408334:	2b39      	cmp	r3, #57	; 0x39
  408336:	f8cd b018 	str.w	fp, [sp, #24]
  40833a:	46d0      	mov	r8, sl
  40833c:	f8dd b028 	ldr.w	fp, [sp, #40]	; 0x28
  408340:	469a      	mov	sl, r3
  408342:	d0c8      	beq.n	4082d6 <_dtoa_r+0xd56>
  408344:	f1bb 0f00 	cmp.w	fp, #0
  408348:	f73f aebf 	bgt.w	4080ca <_dtoa_r+0xb4a>
  40834c:	e6bf      	b.n	4080ce <_dtoa_r+0xb4e>
  40834e:	f47f aebe 	bne.w	4080ce <_dtoa_r+0xb4e>
  408352:	f01a 0f01 	tst.w	sl, #1
  408356:	f43f aeba 	beq.w	4080ce <_dtoa_r+0xb4e>
  40835a:	e6b2      	b.n	4080c2 <_dtoa_r+0xb42>
  40835c:	f04f 0800 	mov.w	r8, #0
  408360:	4646      	mov	r6, r8
  408362:	e5e9      	b.n	407f38 <_dtoa_r+0x9b8>
  408364:	4631      	mov	r1, r6
  408366:	2300      	movs	r3, #0
  408368:	220a      	movs	r2, #10
  40836a:	4620      	mov	r0, r4
  40836c:	f000 fdea 	bl	408f44 <__multadd>
  408370:	9b0f      	ldr	r3, [sp, #60]	; 0x3c
  408372:	2b00      	cmp	r3, #0
  408374:	4606      	mov	r6, r0
  408376:	dd0a      	ble.n	40838e <_dtoa_r+0xe0e>
  408378:	930a      	str	r3, [sp, #40]	; 0x28
  40837a:	f7ff bbaa 	b.w	407ad2 <_dtoa_r+0x552>
  40837e:	9b24      	ldr	r3, [sp, #144]	; 0x90
  408380:	2b02      	cmp	r3, #2
  408382:	dc23      	bgt.n	4083cc <_dtoa_r+0xe4c>
  408384:	9b0f      	ldr	r3, [sp, #60]	; 0x3c
  408386:	e43b      	b.n	407c00 <_dtoa_r+0x680>
  408388:	f04f 0a02 	mov.w	sl, #2
  40838c:	e4ed      	b.n	407d6a <_dtoa_r+0x7ea>
  40838e:	9b24      	ldr	r3, [sp, #144]	; 0x90
  408390:	2b02      	cmp	r3, #2
  408392:	dc1b      	bgt.n	4083cc <_dtoa_r+0xe4c>
  408394:	9b0f      	ldr	r3, [sp, #60]	; 0x3c
  408396:	e7ef      	b.n	408378 <_dtoa_r+0xdf8>
  408398:	2500      	movs	r5, #0
  40839a:	6465      	str	r5, [r4, #68]	; 0x44
  40839c:	4629      	mov	r1, r5
  40839e:	4620      	mov	r0, r4
  4083a0:	f000 fda0 	bl	408ee4 <_Balloc>
  4083a4:	f04f 33ff 	mov.w	r3, #4294967295
  4083a8:	930a      	str	r3, [sp, #40]	; 0x28
  4083aa:	930f      	str	r3, [sp, #60]	; 0x3c
  4083ac:	2301      	movs	r3, #1
  4083ae:	9004      	str	r0, [sp, #16]
  4083b0:	9525      	str	r5, [sp, #148]	; 0x94
  4083b2:	6420      	str	r0, [r4, #64]	; 0x40
  4083b4:	930b      	str	r3, [sp, #44]	; 0x2c
  4083b6:	f7ff b9dd 	b.w	407774 <_dtoa_r+0x1f4>
  4083ba:	2501      	movs	r5, #1
  4083bc:	f7ff b9a5 	b.w	40770a <_dtoa_r+0x18a>
  4083c0:	f43f ab69 	beq.w	407a96 <_dtoa_r+0x516>
  4083c4:	f1c0 003c 	rsb	r0, r0, #60	; 0x3c
  4083c8:	f7ff bbf9 	b.w	407bbe <_dtoa_r+0x63e>
  4083cc:	9b0f      	ldr	r3, [sp, #60]	; 0x3c
  4083ce:	930a      	str	r3, [sp, #40]	; 0x28
  4083d0:	e5e5      	b.n	407f9e <_dtoa_r+0xa1e>
  4083d2:	bf00      	nop

004083d4 <__libc_fini_array>:
  4083d4:	b538      	push	{r3, r4, r5, lr}
  4083d6:	4c0a      	ldr	r4, [pc, #40]	; (408400 <__libc_fini_array+0x2c>)
  4083d8:	4d0a      	ldr	r5, [pc, #40]	; (408404 <__libc_fini_array+0x30>)
  4083da:	1b64      	subs	r4, r4, r5
  4083dc:	10a4      	asrs	r4, r4, #2
  4083de:	d00a      	beq.n	4083f6 <__libc_fini_array+0x22>
  4083e0:	f104 4380 	add.w	r3, r4, #1073741824	; 0x40000000
  4083e4:	3b01      	subs	r3, #1
  4083e6:	eb05 0583 	add.w	r5, r5, r3, lsl #2
  4083ea:	3c01      	subs	r4, #1
  4083ec:	f855 3904 	ldr.w	r3, [r5], #-4
  4083f0:	4798      	blx	r3
  4083f2:	2c00      	cmp	r4, #0
  4083f4:	d1f9      	bne.n	4083ea <__libc_fini_array+0x16>
  4083f6:	e8bd 4038 	ldmia.w	sp!, {r3, r4, r5, lr}
  4083fa:	f002 b947 	b.w	40a68c <_fini>
  4083fe:	bf00      	nop
  408400:	0040a69c 	.word	0x0040a69c
  408404:	0040a698 	.word	0x0040a698

00408408 <_malloc_trim_r>:
  408408:	b5f8      	push	{r3, r4, r5, r6, r7, lr}
  40840a:	4f24      	ldr	r7, [pc, #144]	; (40849c <_malloc_trim_r+0x94>)
  40840c:	460c      	mov	r4, r1
  40840e:	4606      	mov	r6, r0
  408410:	f000 fd5c 	bl	408ecc <__malloc_lock>
  408414:	68bb      	ldr	r3, [r7, #8]
  408416:	685d      	ldr	r5, [r3, #4]
  408418:	f5c4 617e 	rsb	r1, r4, #4064	; 0xfe0
  40841c:	310f      	adds	r1, #15
  40841e:	f025 0503 	bic.w	r5, r5, #3
  408422:	4429      	add	r1, r5
  408424:	f421 617f 	bic.w	r1, r1, #4080	; 0xff0
  408428:	f021 010f 	bic.w	r1, r1, #15
  40842c:	f5a1 5480 	sub.w	r4, r1, #4096	; 0x1000
  408430:	f5b4 5f80 	cmp.w	r4, #4096	; 0x1000
  408434:	db07      	blt.n	408446 <_malloc_trim_r+0x3e>
  408436:	2100      	movs	r1, #0
  408438:	4630      	mov	r0, r6
  40843a:	f001 f9f3 	bl	409824 <_sbrk_r>
  40843e:	68bb      	ldr	r3, [r7, #8]
  408440:	442b      	add	r3, r5
  408442:	4298      	cmp	r0, r3
  408444:	d004      	beq.n	408450 <_malloc_trim_r+0x48>
  408446:	4630      	mov	r0, r6
  408448:	f000 fd46 	bl	408ed8 <__malloc_unlock>
  40844c:	2000      	movs	r0, #0
  40844e:	bdf8      	pop	{r3, r4, r5, r6, r7, pc}
  408450:	4261      	negs	r1, r4
  408452:	4630      	mov	r0, r6
  408454:	f001 f9e6 	bl	409824 <_sbrk_r>
  408458:	3001      	adds	r0, #1
  40845a:	d00d      	beq.n	408478 <_malloc_trim_r+0x70>
  40845c:	4b10      	ldr	r3, [pc, #64]	; (4084a0 <_malloc_trim_r+0x98>)
  40845e:	68ba      	ldr	r2, [r7, #8]
  408460:	6819      	ldr	r1, [r3, #0]
  408462:	1b2d      	subs	r5, r5, r4
  408464:	f045 0501 	orr.w	r5, r5, #1
  408468:	4630      	mov	r0, r6
  40846a:	1b09      	subs	r1, r1, r4
  40846c:	6055      	str	r5, [r2, #4]
  40846e:	6019      	str	r1, [r3, #0]
  408470:	f000 fd32 	bl	408ed8 <__malloc_unlock>
  408474:	2001      	movs	r0, #1
  408476:	bdf8      	pop	{r3, r4, r5, r6, r7, pc}
  408478:	2100      	movs	r1, #0
  40847a:	4630      	mov	r0, r6
  40847c:	f001 f9d2 	bl	409824 <_sbrk_r>
  408480:	68ba      	ldr	r2, [r7, #8]
  408482:	1a83      	subs	r3, r0, r2
  408484:	2b0f      	cmp	r3, #15
  408486:	ddde      	ble.n	408446 <_malloc_trim_r+0x3e>
  408488:	4c06      	ldr	r4, [pc, #24]	; (4084a4 <_malloc_trim_r+0x9c>)
  40848a:	4905      	ldr	r1, [pc, #20]	; (4084a0 <_malloc_trim_r+0x98>)
  40848c:	6824      	ldr	r4, [r4, #0]
  40848e:	f043 0301 	orr.w	r3, r3, #1
  408492:	1b00      	subs	r0, r0, r4
  408494:	6053      	str	r3, [r2, #4]
  408496:	6008      	str	r0, [r1, #0]
  408498:	e7d5      	b.n	408446 <_malloc_trim_r+0x3e>
  40849a:	bf00      	nop
  40849c:	200009e8 	.word	0x200009e8
  4084a0:	20001114 	.word	0x20001114
  4084a4:	20000df0 	.word	0x20000df0

004084a8 <_free_r>:
  4084a8:	2900      	cmp	r1, #0
  4084aa:	d044      	beq.n	408536 <_free_r+0x8e>
  4084ac:	e92d 41f0 	stmdb	sp!, {r4, r5, r6, r7, r8, lr}
  4084b0:	460d      	mov	r5, r1
  4084b2:	4680      	mov	r8, r0
  4084b4:	f000 fd0a 	bl	408ecc <__malloc_lock>
  4084b8:	f855 7c04 	ldr.w	r7, [r5, #-4]
  4084bc:	4969      	ldr	r1, [pc, #420]	; (408664 <_free_r+0x1bc>)
  4084be:	f027 0301 	bic.w	r3, r7, #1
  4084c2:	f1a5 0408 	sub.w	r4, r5, #8
  4084c6:	18e2      	adds	r2, r4, r3
  4084c8:	688e      	ldr	r6, [r1, #8]
  4084ca:	6850      	ldr	r0, [r2, #4]
  4084cc:	42b2      	cmp	r2, r6
  4084ce:	f020 0003 	bic.w	r0, r0, #3
  4084d2:	d05e      	beq.n	408592 <_free_r+0xea>
  4084d4:	07fe      	lsls	r6, r7, #31
  4084d6:	6050      	str	r0, [r2, #4]
  4084d8:	d40b      	bmi.n	4084f2 <_free_r+0x4a>
  4084da:	f855 7c08 	ldr.w	r7, [r5, #-8]
  4084de:	1be4      	subs	r4, r4, r7
  4084e0:	f101 0e08 	add.w	lr, r1, #8
  4084e4:	68a5      	ldr	r5, [r4, #8]
  4084e6:	4575      	cmp	r5, lr
  4084e8:	443b      	add	r3, r7
  4084ea:	d06d      	beq.n	4085c8 <_free_r+0x120>
  4084ec:	68e7      	ldr	r7, [r4, #12]
  4084ee:	60ef      	str	r7, [r5, #12]
  4084f0:	60bd      	str	r5, [r7, #8]
  4084f2:	1815      	adds	r5, r2, r0
  4084f4:	686d      	ldr	r5, [r5, #4]
  4084f6:	07ed      	lsls	r5, r5, #31
  4084f8:	d53e      	bpl.n	408578 <_free_r+0xd0>
  4084fa:	f043 0201 	orr.w	r2, r3, #1
  4084fe:	6062      	str	r2, [r4, #4]
  408500:	50e3      	str	r3, [r4, r3]
  408502:	f5b3 7f00 	cmp.w	r3, #512	; 0x200
  408506:	d217      	bcs.n	408538 <_free_r+0x90>
  408508:	08db      	lsrs	r3, r3, #3
  40850a:	1c58      	adds	r0, r3, #1
  40850c:	109a      	asrs	r2, r3, #2
  40850e:	684d      	ldr	r5, [r1, #4]
  408510:	f851 7030 	ldr.w	r7, [r1, r0, lsl #3]
  408514:	60a7      	str	r7, [r4, #8]
  408516:	2301      	movs	r3, #1
  408518:	4093      	lsls	r3, r2
  40851a:	eb01 02c0 	add.w	r2, r1, r0, lsl #3
  40851e:	432b      	orrs	r3, r5
  408520:	3a08      	subs	r2, #8
  408522:	60e2      	str	r2, [r4, #12]
  408524:	604b      	str	r3, [r1, #4]
  408526:	f841 4030 	str.w	r4, [r1, r0, lsl #3]
  40852a:	60fc      	str	r4, [r7, #12]
  40852c:	4640      	mov	r0, r8
  40852e:	e8bd 41f0 	ldmia.w	sp!, {r4, r5, r6, r7, r8, lr}
  408532:	f000 bcd1 	b.w	408ed8 <__malloc_unlock>
  408536:	4770      	bx	lr
  408538:	0a5a      	lsrs	r2, r3, #9
  40853a:	2a04      	cmp	r2, #4
  40853c:	d852      	bhi.n	4085e4 <_free_r+0x13c>
  40853e:	099a      	lsrs	r2, r3, #6
  408540:	f102 0739 	add.w	r7, r2, #57	; 0x39
  408544:	00ff      	lsls	r7, r7, #3
  408546:	f102 0538 	add.w	r5, r2, #56	; 0x38
  40854a:	19c8      	adds	r0, r1, r7
  40854c:	59ca      	ldr	r2, [r1, r7]
  40854e:	3808      	subs	r0, #8
  408550:	4290      	cmp	r0, r2
  408552:	d04f      	beq.n	4085f4 <_free_r+0x14c>
  408554:	6851      	ldr	r1, [r2, #4]
  408556:	f021 0103 	bic.w	r1, r1, #3
  40855a:	428b      	cmp	r3, r1
  40855c:	d232      	bcs.n	4085c4 <_free_r+0x11c>
  40855e:	6892      	ldr	r2, [r2, #8]
  408560:	4290      	cmp	r0, r2
  408562:	d1f7      	bne.n	408554 <_free_r+0xac>
  408564:	68c3      	ldr	r3, [r0, #12]
  408566:	60a0      	str	r0, [r4, #8]
  408568:	60e3      	str	r3, [r4, #12]
  40856a:	609c      	str	r4, [r3, #8]
  40856c:	60c4      	str	r4, [r0, #12]
  40856e:	4640      	mov	r0, r8
  408570:	e8bd 41f0 	ldmia.w	sp!, {r4, r5, r6, r7, r8, lr}
  408574:	f000 bcb0 	b.w	408ed8 <__malloc_unlock>
  408578:	6895      	ldr	r5, [r2, #8]
  40857a:	4f3b      	ldr	r7, [pc, #236]	; (408668 <_free_r+0x1c0>)
  40857c:	42bd      	cmp	r5, r7
  40857e:	4403      	add	r3, r0
  408580:	d040      	beq.n	408604 <_free_r+0x15c>
  408582:	68d0      	ldr	r0, [r2, #12]
  408584:	60e8      	str	r0, [r5, #12]
  408586:	f043 0201 	orr.w	r2, r3, #1
  40858a:	6085      	str	r5, [r0, #8]
  40858c:	6062      	str	r2, [r4, #4]
  40858e:	50e3      	str	r3, [r4, r3]
  408590:	e7b7      	b.n	408502 <_free_r+0x5a>
  408592:	07ff      	lsls	r7, r7, #31
  408594:	4403      	add	r3, r0
  408596:	d407      	bmi.n	4085a8 <_free_r+0x100>
  408598:	f855 2c08 	ldr.w	r2, [r5, #-8]
  40859c:	1aa4      	subs	r4, r4, r2
  40859e:	4413      	add	r3, r2
  4085a0:	68a0      	ldr	r0, [r4, #8]
  4085a2:	68e2      	ldr	r2, [r4, #12]
  4085a4:	60c2      	str	r2, [r0, #12]
  4085a6:	6090      	str	r0, [r2, #8]
  4085a8:	4a30      	ldr	r2, [pc, #192]	; (40866c <_free_r+0x1c4>)
  4085aa:	6812      	ldr	r2, [r2, #0]
  4085ac:	f043 0001 	orr.w	r0, r3, #1
  4085b0:	4293      	cmp	r3, r2
  4085b2:	6060      	str	r0, [r4, #4]
  4085b4:	608c      	str	r4, [r1, #8]
  4085b6:	d3b9      	bcc.n	40852c <_free_r+0x84>
  4085b8:	4b2d      	ldr	r3, [pc, #180]	; (408670 <_free_r+0x1c8>)
  4085ba:	4640      	mov	r0, r8
  4085bc:	6819      	ldr	r1, [r3, #0]
  4085be:	f7ff ff23 	bl	408408 <_malloc_trim_r>
  4085c2:	e7b3      	b.n	40852c <_free_r+0x84>
  4085c4:	4610      	mov	r0, r2
  4085c6:	e7cd      	b.n	408564 <_free_r+0xbc>
  4085c8:	1811      	adds	r1, r2, r0
  4085ca:	6849      	ldr	r1, [r1, #4]
  4085cc:	07c9      	lsls	r1, r1, #31
  4085ce:	d444      	bmi.n	40865a <_free_r+0x1b2>
  4085d0:	6891      	ldr	r1, [r2, #8]
  4085d2:	68d2      	ldr	r2, [r2, #12]
  4085d4:	60ca      	str	r2, [r1, #12]
  4085d6:	4403      	add	r3, r0
  4085d8:	f043 0001 	orr.w	r0, r3, #1
  4085dc:	6091      	str	r1, [r2, #8]
  4085de:	6060      	str	r0, [r4, #4]
  4085e0:	50e3      	str	r3, [r4, r3]
  4085e2:	e7a3      	b.n	40852c <_free_r+0x84>
  4085e4:	2a14      	cmp	r2, #20
  4085e6:	d816      	bhi.n	408616 <_free_r+0x16e>
  4085e8:	f102 075c 	add.w	r7, r2, #92	; 0x5c
  4085ec:	00ff      	lsls	r7, r7, #3
  4085ee:	f102 055b 	add.w	r5, r2, #91	; 0x5b
  4085f2:	e7aa      	b.n	40854a <_free_r+0xa2>
  4085f4:	10aa      	asrs	r2, r5, #2
  4085f6:	2301      	movs	r3, #1
  4085f8:	684d      	ldr	r5, [r1, #4]
  4085fa:	4093      	lsls	r3, r2
  4085fc:	432b      	orrs	r3, r5
  4085fe:	604b      	str	r3, [r1, #4]
  408600:	4603      	mov	r3, r0
  408602:	e7b0      	b.n	408566 <_free_r+0xbe>
  408604:	f043 0201 	orr.w	r2, r3, #1
  408608:	614c      	str	r4, [r1, #20]
  40860a:	610c      	str	r4, [r1, #16]
  40860c:	60e5      	str	r5, [r4, #12]
  40860e:	60a5      	str	r5, [r4, #8]
  408610:	6062      	str	r2, [r4, #4]
  408612:	50e3      	str	r3, [r4, r3]
  408614:	e78a      	b.n	40852c <_free_r+0x84>
  408616:	2a54      	cmp	r2, #84	; 0x54
  408618:	d806      	bhi.n	408628 <_free_r+0x180>
  40861a:	0b1a      	lsrs	r2, r3, #12
  40861c:	f102 076f 	add.w	r7, r2, #111	; 0x6f
  408620:	00ff      	lsls	r7, r7, #3
  408622:	f102 056e 	add.w	r5, r2, #110	; 0x6e
  408626:	e790      	b.n	40854a <_free_r+0xa2>
  408628:	f5b2 7faa 	cmp.w	r2, #340	; 0x154
  40862c:	d806      	bhi.n	40863c <_free_r+0x194>
  40862e:	0bda      	lsrs	r2, r3, #15
  408630:	f102 0778 	add.w	r7, r2, #120	; 0x78
  408634:	00ff      	lsls	r7, r7, #3
  408636:	f102 0577 	add.w	r5, r2, #119	; 0x77
  40863a:	e786      	b.n	40854a <_free_r+0xa2>
  40863c:	f240 5054 	movw	r0, #1364	; 0x554
  408640:	4282      	cmp	r2, r0
  408642:	d806      	bhi.n	408652 <_free_r+0x1aa>
  408644:	0c9a      	lsrs	r2, r3, #18
  408646:	f102 077d 	add.w	r7, r2, #125	; 0x7d
  40864a:	00ff      	lsls	r7, r7, #3
  40864c:	f102 057c 	add.w	r5, r2, #124	; 0x7c
  408650:	e77b      	b.n	40854a <_free_r+0xa2>
  408652:	f44f 777e 	mov.w	r7, #1016	; 0x3f8
  408656:	257e      	movs	r5, #126	; 0x7e
  408658:	e777      	b.n	40854a <_free_r+0xa2>
  40865a:	f043 0101 	orr.w	r1, r3, #1
  40865e:	6061      	str	r1, [r4, #4]
  408660:	6013      	str	r3, [r2, #0]
  408662:	e763      	b.n	40852c <_free_r+0x84>
  408664:	200009e8 	.word	0x200009e8
  408668:	200009f0 	.word	0x200009f0
  40866c:	20000df4 	.word	0x20000df4
  408670:	20001144 	.word	0x20001144

00408674 <_localeconv_r>:
  408674:	4a04      	ldr	r2, [pc, #16]	; (408688 <_localeconv_r+0x14>)
  408676:	4b05      	ldr	r3, [pc, #20]	; (40868c <_localeconv_r+0x18>)
  408678:	6812      	ldr	r2, [r2, #0]
  40867a:	6b50      	ldr	r0, [r2, #52]	; 0x34
  40867c:	2800      	cmp	r0, #0
  40867e:	bf08      	it	eq
  408680:	4618      	moveq	r0, r3
  408682:	30f0      	adds	r0, #240	; 0xf0
  408684:	4770      	bx	lr
  408686:	bf00      	nop
  408688:	20000448 	.word	0x20000448
  40868c:	2000087c 	.word	0x2000087c

00408690 <__retarget_lock_acquire_recursive>:
  408690:	4770      	bx	lr
  408692:	bf00      	nop

00408694 <__retarget_lock_release_recursive>:
  408694:	4770      	bx	lr
  408696:	bf00      	nop

00408698 <_malloc_r>:
  408698:	e92d 4ff0 	stmdb	sp!, {r4, r5, r6, r7, r8, r9, sl, fp, lr}
  40869c:	f101 060b 	add.w	r6, r1, #11
  4086a0:	2e16      	cmp	r6, #22
  4086a2:	b083      	sub	sp, #12
  4086a4:	4605      	mov	r5, r0
  4086a6:	f240 809e 	bls.w	4087e6 <_malloc_r+0x14e>
  4086aa:	f036 0607 	bics.w	r6, r6, #7
  4086ae:	f100 80bd 	bmi.w	40882c <_malloc_r+0x194>
  4086b2:	42b1      	cmp	r1, r6
  4086b4:	f200 80ba 	bhi.w	40882c <_malloc_r+0x194>
  4086b8:	f000 fc08 	bl	408ecc <__malloc_lock>
  4086bc:	f5b6 7ffc 	cmp.w	r6, #504	; 0x1f8
  4086c0:	f0c0 8293 	bcc.w	408bea <_malloc_r+0x552>
  4086c4:	0a73      	lsrs	r3, r6, #9
  4086c6:	f000 80b8 	beq.w	40883a <_malloc_r+0x1a2>
  4086ca:	2b04      	cmp	r3, #4
  4086cc:	f200 8179 	bhi.w	4089c2 <_malloc_r+0x32a>
  4086d0:	09b3      	lsrs	r3, r6, #6
  4086d2:	f103 0039 	add.w	r0, r3, #57	; 0x39
  4086d6:	f103 0e38 	add.w	lr, r3, #56	; 0x38
  4086da:	00c3      	lsls	r3, r0, #3
  4086dc:	4fbf      	ldr	r7, [pc, #764]	; (4089dc <_malloc_r+0x344>)
  4086de:	443b      	add	r3, r7
  4086e0:	f1a3 0108 	sub.w	r1, r3, #8
  4086e4:	685c      	ldr	r4, [r3, #4]
  4086e6:	42a1      	cmp	r1, r4
  4086e8:	d106      	bne.n	4086f8 <_malloc_r+0x60>
  4086ea:	e00c      	b.n	408706 <_malloc_r+0x6e>
  4086ec:	2a00      	cmp	r2, #0
  4086ee:	f280 80aa 	bge.w	408846 <_malloc_r+0x1ae>
  4086f2:	68e4      	ldr	r4, [r4, #12]
  4086f4:	42a1      	cmp	r1, r4
  4086f6:	d006      	beq.n	408706 <_malloc_r+0x6e>
  4086f8:	6863      	ldr	r3, [r4, #4]
  4086fa:	f023 0303 	bic.w	r3, r3, #3
  4086fe:	1b9a      	subs	r2, r3, r6
  408700:	2a0f      	cmp	r2, #15
  408702:	ddf3      	ble.n	4086ec <_malloc_r+0x54>
  408704:	4670      	mov	r0, lr
  408706:	693c      	ldr	r4, [r7, #16]
  408708:	f8df e2e4 	ldr.w	lr, [pc, #740]	; 4089f0 <_malloc_r+0x358>
  40870c:	4574      	cmp	r4, lr
  40870e:	f000 81ab 	beq.w	408a68 <_malloc_r+0x3d0>
  408712:	6863      	ldr	r3, [r4, #4]
  408714:	f023 0303 	bic.w	r3, r3, #3
  408718:	1b9a      	subs	r2, r3, r6
  40871a:	2a0f      	cmp	r2, #15
  40871c:	f300 8190 	bgt.w	408a40 <_malloc_r+0x3a8>
  408720:	2a00      	cmp	r2, #0
  408722:	f8c7 e014 	str.w	lr, [r7, #20]
  408726:	f8c7 e010 	str.w	lr, [r7, #16]
  40872a:	f280 809d 	bge.w	408868 <_malloc_r+0x1d0>
  40872e:	f5b3 7f00 	cmp.w	r3, #512	; 0x200
  408732:	f080 8161 	bcs.w	4089f8 <_malloc_r+0x360>
  408736:	08db      	lsrs	r3, r3, #3
  408738:	f103 0c01 	add.w	ip, r3, #1
  40873c:	1099      	asrs	r1, r3, #2
  40873e:	687a      	ldr	r2, [r7, #4]
  408740:	f857 803c 	ldr.w	r8, [r7, ip, lsl #3]
  408744:	f8c4 8008 	str.w	r8, [r4, #8]
  408748:	2301      	movs	r3, #1
  40874a:	408b      	lsls	r3, r1
  40874c:	eb07 01cc 	add.w	r1, r7, ip, lsl #3
  408750:	4313      	orrs	r3, r2
  408752:	3908      	subs	r1, #8
  408754:	60e1      	str	r1, [r4, #12]
  408756:	607b      	str	r3, [r7, #4]
  408758:	f847 403c 	str.w	r4, [r7, ip, lsl #3]
  40875c:	f8c8 400c 	str.w	r4, [r8, #12]
  408760:	1082      	asrs	r2, r0, #2
  408762:	2401      	movs	r4, #1
  408764:	4094      	lsls	r4, r2
  408766:	429c      	cmp	r4, r3
  408768:	f200 808b 	bhi.w	408882 <_malloc_r+0x1ea>
  40876c:	421c      	tst	r4, r3
  40876e:	d106      	bne.n	40877e <_malloc_r+0xe6>
  408770:	f020 0003 	bic.w	r0, r0, #3
  408774:	0064      	lsls	r4, r4, #1
  408776:	421c      	tst	r4, r3
  408778:	f100 0004 	add.w	r0, r0, #4
  40877c:	d0fa      	beq.n	408774 <_malloc_r+0xdc>
  40877e:	eb07 09c0 	add.w	r9, r7, r0, lsl #3
  408782:	46cc      	mov	ip, r9
  408784:	4680      	mov	r8, r0
  408786:	f8dc 300c 	ldr.w	r3, [ip, #12]
  40878a:	459c      	cmp	ip, r3
  40878c:	d107      	bne.n	40879e <_malloc_r+0x106>
  40878e:	e16d      	b.n	408a6c <_malloc_r+0x3d4>
  408790:	2a00      	cmp	r2, #0
  408792:	f280 817b 	bge.w	408a8c <_malloc_r+0x3f4>
  408796:	68db      	ldr	r3, [r3, #12]
  408798:	459c      	cmp	ip, r3
  40879a:	f000 8167 	beq.w	408a6c <_malloc_r+0x3d4>
  40879e:	6859      	ldr	r1, [r3, #4]
  4087a0:	f021 0103 	bic.w	r1, r1, #3
  4087a4:	1b8a      	subs	r2, r1, r6
  4087a6:	2a0f      	cmp	r2, #15
  4087a8:	ddf2      	ble.n	408790 <_malloc_r+0xf8>
  4087aa:	f8d3 c00c 	ldr.w	ip, [r3, #12]
  4087ae:	f8d3 8008 	ldr.w	r8, [r3, #8]
  4087b2:	9300      	str	r3, [sp, #0]
  4087b4:	199c      	adds	r4, r3, r6
  4087b6:	4628      	mov	r0, r5
  4087b8:	f046 0601 	orr.w	r6, r6, #1
  4087bc:	f042 0501 	orr.w	r5, r2, #1
  4087c0:	605e      	str	r6, [r3, #4]
  4087c2:	f8c8 c00c 	str.w	ip, [r8, #12]
  4087c6:	f8cc 8008 	str.w	r8, [ip, #8]
  4087ca:	617c      	str	r4, [r7, #20]
  4087cc:	613c      	str	r4, [r7, #16]
  4087ce:	f8c4 e00c 	str.w	lr, [r4, #12]
  4087d2:	f8c4 e008 	str.w	lr, [r4, #8]
  4087d6:	6065      	str	r5, [r4, #4]
  4087d8:	505a      	str	r2, [r3, r1]
  4087da:	f000 fb7d 	bl	408ed8 <__malloc_unlock>
  4087de:	9b00      	ldr	r3, [sp, #0]
  4087e0:	f103 0408 	add.w	r4, r3, #8
  4087e4:	e01e      	b.n	408824 <_malloc_r+0x18c>
  4087e6:	2910      	cmp	r1, #16
  4087e8:	d820      	bhi.n	40882c <_malloc_r+0x194>
  4087ea:	f000 fb6f 	bl	408ecc <__malloc_lock>
  4087ee:	2610      	movs	r6, #16
  4087f0:	2318      	movs	r3, #24
  4087f2:	2002      	movs	r0, #2
  4087f4:	4f79      	ldr	r7, [pc, #484]	; (4089dc <_malloc_r+0x344>)
  4087f6:	443b      	add	r3, r7
  4087f8:	f1a3 0208 	sub.w	r2, r3, #8
  4087fc:	685c      	ldr	r4, [r3, #4]
  4087fe:	4294      	cmp	r4, r2
  408800:	f000 813d 	beq.w	408a7e <_malloc_r+0x3e6>
  408804:	6863      	ldr	r3, [r4, #4]
  408806:	68e1      	ldr	r1, [r4, #12]
  408808:	68a6      	ldr	r6, [r4, #8]
  40880a:	f023 0303 	bic.w	r3, r3, #3
  40880e:	4423      	add	r3, r4
  408810:	4628      	mov	r0, r5
  408812:	685a      	ldr	r2, [r3, #4]
  408814:	60f1      	str	r1, [r6, #12]
  408816:	f042 0201 	orr.w	r2, r2, #1
  40881a:	608e      	str	r6, [r1, #8]
  40881c:	605a      	str	r2, [r3, #4]
  40881e:	f000 fb5b 	bl	408ed8 <__malloc_unlock>
  408822:	3408      	adds	r4, #8
  408824:	4620      	mov	r0, r4
  408826:	b003      	add	sp, #12
  408828:	e8bd 8ff0 	ldmia.w	sp!, {r4, r5, r6, r7, r8, r9, sl, fp, pc}
  40882c:	2400      	movs	r4, #0
  40882e:	230c      	movs	r3, #12
  408830:	4620      	mov	r0, r4
  408832:	602b      	str	r3, [r5, #0]
  408834:	b003      	add	sp, #12
  408836:	e8bd 8ff0 	ldmia.w	sp!, {r4, r5, r6, r7, r8, r9, sl, fp, pc}
  40883a:	2040      	movs	r0, #64	; 0x40
  40883c:	f44f 7300 	mov.w	r3, #512	; 0x200
  408840:	f04f 0e3f 	mov.w	lr, #63	; 0x3f
  408844:	e74a      	b.n	4086dc <_malloc_r+0x44>
  408846:	4423      	add	r3, r4
  408848:	68e1      	ldr	r1, [r4, #12]
  40884a:	685a      	ldr	r2, [r3, #4]
  40884c:	68a6      	ldr	r6, [r4, #8]
  40884e:	f042 0201 	orr.w	r2, r2, #1
  408852:	60f1      	str	r1, [r6, #12]
  408854:	4628      	mov	r0, r5
  408856:	608e      	str	r6, [r1, #8]
  408858:	605a      	str	r2, [r3, #4]
  40885a:	f000 fb3d 	bl	408ed8 <__malloc_unlock>
  40885e:	3408      	adds	r4, #8
  408860:	4620      	mov	r0, r4
  408862:	b003      	add	sp, #12
  408864:	e8bd 8ff0 	ldmia.w	sp!, {r4, r5, r6, r7, r8, r9, sl, fp, pc}
  408868:	4423      	add	r3, r4
  40886a:	4628      	mov	r0, r5
  40886c:	685a      	ldr	r2, [r3, #4]
  40886e:	f042 0201 	orr.w	r2, r2, #1
  408872:	605a      	str	r2, [r3, #4]
  408874:	f000 fb30 	bl	408ed8 <__malloc_unlock>
  408878:	3408      	adds	r4, #8
  40887a:	4620      	mov	r0, r4
  40887c:	b003      	add	sp, #12
  40887e:	e8bd 8ff0 	ldmia.w	sp!, {r4, r5, r6, r7, r8, r9, sl, fp, pc}
  408882:	68bc      	ldr	r4, [r7, #8]
  408884:	6863      	ldr	r3, [r4, #4]
  408886:	f023 0803 	bic.w	r8, r3, #3
  40888a:	45b0      	cmp	r8, r6
  40888c:	d304      	bcc.n	408898 <_malloc_r+0x200>
  40888e:	eba8 0306 	sub.w	r3, r8, r6
  408892:	2b0f      	cmp	r3, #15
  408894:	f300 8085 	bgt.w	4089a2 <_malloc_r+0x30a>
  408898:	f8df 9158 	ldr.w	r9, [pc, #344]	; 4089f4 <_malloc_r+0x35c>
  40889c:	4b50      	ldr	r3, [pc, #320]	; (4089e0 <_malloc_r+0x348>)
  40889e:	f8d9 2000 	ldr.w	r2, [r9]
  4088a2:	681b      	ldr	r3, [r3, #0]
  4088a4:	3201      	adds	r2, #1
  4088a6:	4433      	add	r3, r6
  4088a8:	eb04 0a08 	add.w	sl, r4, r8
  4088ac:	f000 8155 	beq.w	408b5a <_malloc_r+0x4c2>
  4088b0:	f503 5380 	add.w	r3, r3, #4096	; 0x1000
  4088b4:	330f      	adds	r3, #15
  4088b6:	f423 6b7f 	bic.w	fp, r3, #4080	; 0xff0
  4088ba:	f02b 0b0f 	bic.w	fp, fp, #15
  4088be:	4659      	mov	r1, fp
  4088c0:	4628      	mov	r0, r5
  4088c2:	f000 ffaf 	bl	409824 <_sbrk_r>
  4088c6:	1c41      	adds	r1, r0, #1
  4088c8:	4602      	mov	r2, r0
  4088ca:	f000 80fc 	beq.w	408ac6 <_malloc_r+0x42e>
  4088ce:	4582      	cmp	sl, r0
  4088d0:	f200 80f7 	bhi.w	408ac2 <_malloc_r+0x42a>
  4088d4:	4b43      	ldr	r3, [pc, #268]	; (4089e4 <_malloc_r+0x34c>)
  4088d6:	6819      	ldr	r1, [r3, #0]
  4088d8:	4459      	add	r1, fp
  4088da:	6019      	str	r1, [r3, #0]
  4088dc:	f000 814d 	beq.w	408b7a <_malloc_r+0x4e2>
  4088e0:	f8d9 0000 	ldr.w	r0, [r9]
  4088e4:	3001      	adds	r0, #1
  4088e6:	bf1b      	ittet	ne
  4088e8:	eba2 0a0a 	subne.w	sl, r2, sl
  4088ec:	4451      	addne	r1, sl
  4088ee:	f8c9 2000 	streq.w	r2, [r9]
  4088f2:	6019      	strne	r1, [r3, #0]
  4088f4:	f012 0107 	ands.w	r1, r2, #7
  4088f8:	f000 8115 	beq.w	408b26 <_malloc_r+0x48e>
  4088fc:	f1c1 0008 	rsb	r0, r1, #8
  408900:	f5c1 5180 	rsb	r1, r1, #4096	; 0x1000
  408904:	4402      	add	r2, r0
  408906:	3108      	adds	r1, #8
  408908:	eb02 090b 	add.w	r9, r2, fp
  40890c:	f3c9 090b 	ubfx	r9, r9, #0, #12
  408910:	eba1 0909 	sub.w	r9, r1, r9
  408914:	4649      	mov	r1, r9
  408916:	4628      	mov	r0, r5
  408918:	9301      	str	r3, [sp, #4]
  40891a:	9200      	str	r2, [sp, #0]
  40891c:	f000 ff82 	bl	409824 <_sbrk_r>
  408920:	1c43      	adds	r3, r0, #1
  408922:	e89d 000c 	ldmia.w	sp, {r2, r3}
  408926:	f000 8143 	beq.w	408bb0 <_malloc_r+0x518>
  40892a:	1a80      	subs	r0, r0, r2
  40892c:	4448      	add	r0, r9
  40892e:	f040 0001 	orr.w	r0, r0, #1
  408932:	6819      	ldr	r1, [r3, #0]
  408934:	60ba      	str	r2, [r7, #8]
  408936:	4449      	add	r1, r9
  408938:	42bc      	cmp	r4, r7
  40893a:	6050      	str	r0, [r2, #4]
  40893c:	6019      	str	r1, [r3, #0]
  40893e:	d017      	beq.n	408970 <_malloc_r+0x2d8>
  408940:	f1b8 0f0f 	cmp.w	r8, #15
  408944:	f240 80fb 	bls.w	408b3e <_malloc_r+0x4a6>
  408948:	6860      	ldr	r0, [r4, #4]
  40894a:	f1a8 020c 	sub.w	r2, r8, #12
  40894e:	f022 0207 	bic.w	r2, r2, #7
  408952:	eb04 0e02 	add.w	lr, r4, r2
  408956:	f000 0001 	and.w	r0, r0, #1
  40895a:	f04f 0c05 	mov.w	ip, #5
  40895e:	4310      	orrs	r0, r2
  408960:	2a0f      	cmp	r2, #15
  408962:	6060      	str	r0, [r4, #4]
  408964:	f8ce c004 	str.w	ip, [lr, #4]
  408968:	f8ce c008 	str.w	ip, [lr, #8]
  40896c:	f200 8117 	bhi.w	408b9e <_malloc_r+0x506>
  408970:	4b1d      	ldr	r3, [pc, #116]	; (4089e8 <_malloc_r+0x350>)
  408972:	68bc      	ldr	r4, [r7, #8]
  408974:	681a      	ldr	r2, [r3, #0]
  408976:	4291      	cmp	r1, r2
  408978:	bf88      	it	hi
  40897a:	6019      	strhi	r1, [r3, #0]
  40897c:	4b1b      	ldr	r3, [pc, #108]	; (4089ec <_malloc_r+0x354>)
  40897e:	681a      	ldr	r2, [r3, #0]
  408980:	4291      	cmp	r1, r2
  408982:	6862      	ldr	r2, [r4, #4]
  408984:	bf88      	it	hi
  408986:	6019      	strhi	r1, [r3, #0]
  408988:	f022 0203 	bic.w	r2, r2, #3
  40898c:	4296      	cmp	r6, r2
  40898e:	eba2 0306 	sub.w	r3, r2, r6
  408992:	d801      	bhi.n	408998 <_malloc_r+0x300>
  408994:	2b0f      	cmp	r3, #15
  408996:	dc04      	bgt.n	4089a2 <_malloc_r+0x30a>
  408998:	4628      	mov	r0, r5
  40899a:	f000 fa9d 	bl	408ed8 <__malloc_unlock>
  40899e:	2400      	movs	r4, #0
  4089a0:	e740      	b.n	408824 <_malloc_r+0x18c>
  4089a2:	19a2      	adds	r2, r4, r6
  4089a4:	f043 0301 	orr.w	r3, r3, #1
  4089a8:	f046 0601 	orr.w	r6, r6, #1
  4089ac:	6066      	str	r6, [r4, #4]
  4089ae:	4628      	mov	r0, r5
  4089b0:	60ba      	str	r2, [r7, #8]
  4089b2:	6053      	str	r3, [r2, #4]
  4089b4:	f000 fa90 	bl	408ed8 <__malloc_unlock>
  4089b8:	3408      	adds	r4, #8
  4089ba:	4620      	mov	r0, r4
  4089bc:	b003      	add	sp, #12
  4089be:	e8bd 8ff0 	ldmia.w	sp!, {r4, r5, r6, r7, r8, r9, sl, fp, pc}
  4089c2:	2b14      	cmp	r3, #20
  4089c4:	d971      	bls.n	408aaa <_malloc_r+0x412>
  4089c6:	2b54      	cmp	r3, #84	; 0x54
  4089c8:	f200 80a3 	bhi.w	408b12 <_malloc_r+0x47a>
  4089cc:	0b33      	lsrs	r3, r6, #12
  4089ce:	f103 006f 	add.w	r0, r3, #111	; 0x6f
  4089d2:	f103 0e6e 	add.w	lr, r3, #110	; 0x6e
  4089d6:	00c3      	lsls	r3, r0, #3
  4089d8:	e680      	b.n	4086dc <_malloc_r+0x44>
  4089da:	bf00      	nop
  4089dc:	200009e8 	.word	0x200009e8
  4089e0:	20001144 	.word	0x20001144
  4089e4:	20001114 	.word	0x20001114
  4089e8:	2000113c 	.word	0x2000113c
  4089ec:	20001140 	.word	0x20001140
  4089f0:	200009f0 	.word	0x200009f0
  4089f4:	20000df0 	.word	0x20000df0
  4089f8:	0a5a      	lsrs	r2, r3, #9
  4089fa:	2a04      	cmp	r2, #4
  4089fc:	d95b      	bls.n	408ab6 <_malloc_r+0x41e>
  4089fe:	2a14      	cmp	r2, #20
  408a00:	f200 80ae 	bhi.w	408b60 <_malloc_r+0x4c8>
  408a04:	f102 015c 	add.w	r1, r2, #92	; 0x5c
  408a08:	00c9      	lsls	r1, r1, #3
  408a0a:	325b      	adds	r2, #91	; 0x5b
  408a0c:	eb07 0c01 	add.w	ip, r7, r1
  408a10:	5879      	ldr	r1, [r7, r1]
  408a12:	f1ac 0c08 	sub.w	ip, ip, #8
  408a16:	458c      	cmp	ip, r1
  408a18:	f000 8088 	beq.w	408b2c <_malloc_r+0x494>
  408a1c:	684a      	ldr	r2, [r1, #4]
  408a1e:	f022 0203 	bic.w	r2, r2, #3
  408a22:	4293      	cmp	r3, r2
  408a24:	d273      	bcs.n	408b0e <_malloc_r+0x476>
  408a26:	6889      	ldr	r1, [r1, #8]
  408a28:	458c      	cmp	ip, r1
  408a2a:	d1f7      	bne.n	408a1c <_malloc_r+0x384>
  408a2c:	f8dc 200c 	ldr.w	r2, [ip, #12]
  408a30:	687b      	ldr	r3, [r7, #4]
  408a32:	60e2      	str	r2, [r4, #12]
  408a34:	f8c4 c008 	str.w	ip, [r4, #8]
  408a38:	6094      	str	r4, [r2, #8]
  408a3a:	f8cc 400c 	str.w	r4, [ip, #12]
  408a3e:	e68f      	b.n	408760 <_malloc_r+0xc8>
  408a40:	19a1      	adds	r1, r4, r6
  408a42:	f046 0c01 	orr.w	ip, r6, #1
  408a46:	f042 0601 	orr.w	r6, r2, #1
  408a4a:	f8c4 c004 	str.w	ip, [r4, #4]
  408a4e:	4628      	mov	r0, r5
  408a50:	6179      	str	r1, [r7, #20]
  408a52:	6139      	str	r1, [r7, #16]
  408a54:	f8c1 e00c 	str.w	lr, [r1, #12]
  408a58:	f8c1 e008 	str.w	lr, [r1, #8]
  408a5c:	604e      	str	r6, [r1, #4]
  408a5e:	50e2      	str	r2, [r4, r3]
  408a60:	f000 fa3a 	bl	408ed8 <__malloc_unlock>
  408a64:	3408      	adds	r4, #8
  408a66:	e6dd      	b.n	408824 <_malloc_r+0x18c>
  408a68:	687b      	ldr	r3, [r7, #4]
  408a6a:	e679      	b.n	408760 <_malloc_r+0xc8>
  408a6c:	f108 0801 	add.w	r8, r8, #1
  408a70:	f018 0f03 	tst.w	r8, #3
  408a74:	f10c 0c08 	add.w	ip, ip, #8
  408a78:	f47f ae85 	bne.w	408786 <_malloc_r+0xee>
  408a7c:	e02d      	b.n	408ada <_malloc_r+0x442>
  408a7e:	68dc      	ldr	r4, [r3, #12]
  408a80:	42a3      	cmp	r3, r4
  408a82:	bf08      	it	eq
  408a84:	3002      	addeq	r0, #2
  408a86:	f43f ae3e 	beq.w	408706 <_malloc_r+0x6e>
  408a8a:	e6bb      	b.n	408804 <_malloc_r+0x16c>
  408a8c:	4419      	add	r1, r3
  408a8e:	461c      	mov	r4, r3
  408a90:	684a      	ldr	r2, [r1, #4]
  408a92:	68db      	ldr	r3, [r3, #12]
  408a94:	f854 6f08 	ldr.w	r6, [r4, #8]!
  408a98:	f042 0201 	orr.w	r2, r2, #1
  408a9c:	604a      	str	r2, [r1, #4]
  408a9e:	4628      	mov	r0, r5
  408aa0:	60f3      	str	r3, [r6, #12]
  408aa2:	609e      	str	r6, [r3, #8]
  408aa4:	f000 fa18 	bl	408ed8 <__malloc_unlock>
  408aa8:	e6bc      	b.n	408824 <_malloc_r+0x18c>
  408aaa:	f103 005c 	add.w	r0, r3, #92	; 0x5c
  408aae:	f103 0e5b 	add.w	lr, r3, #91	; 0x5b
  408ab2:	00c3      	lsls	r3, r0, #3
  408ab4:	e612      	b.n	4086dc <_malloc_r+0x44>
  408ab6:	099a      	lsrs	r2, r3, #6
  408ab8:	f102 0139 	add.w	r1, r2, #57	; 0x39
  408abc:	00c9      	lsls	r1, r1, #3
  408abe:	3238      	adds	r2, #56	; 0x38
  408ac0:	e7a4      	b.n	408a0c <_malloc_r+0x374>
  408ac2:	42bc      	cmp	r4, r7
  408ac4:	d054      	beq.n	408b70 <_malloc_r+0x4d8>
  408ac6:	68bc      	ldr	r4, [r7, #8]
  408ac8:	6862      	ldr	r2, [r4, #4]
  408aca:	f022 0203 	bic.w	r2, r2, #3
  408ace:	e75d      	b.n	40898c <_malloc_r+0x2f4>
  408ad0:	f859 3908 	ldr.w	r3, [r9], #-8
  408ad4:	4599      	cmp	r9, r3
  408ad6:	f040 8086 	bne.w	408be6 <_malloc_r+0x54e>
  408ada:	f010 0f03 	tst.w	r0, #3
  408ade:	f100 30ff 	add.w	r0, r0, #4294967295
  408ae2:	d1f5      	bne.n	408ad0 <_malloc_r+0x438>
  408ae4:	687b      	ldr	r3, [r7, #4]
  408ae6:	ea23 0304 	bic.w	r3, r3, r4
  408aea:	607b      	str	r3, [r7, #4]
  408aec:	0064      	lsls	r4, r4, #1
  408aee:	429c      	cmp	r4, r3
  408af0:	f63f aec7 	bhi.w	408882 <_malloc_r+0x1ea>
  408af4:	2c00      	cmp	r4, #0
  408af6:	f43f aec4 	beq.w	408882 <_malloc_r+0x1ea>
  408afa:	421c      	tst	r4, r3
  408afc:	4640      	mov	r0, r8
  408afe:	f47f ae3e 	bne.w	40877e <_malloc_r+0xe6>
  408b02:	0064      	lsls	r4, r4, #1
  408b04:	421c      	tst	r4, r3
  408b06:	f100 0004 	add.w	r0, r0, #4
  408b0a:	d0fa      	beq.n	408b02 <_malloc_r+0x46a>
  408b0c:	e637      	b.n	40877e <_malloc_r+0xe6>
  408b0e:	468c      	mov	ip, r1
  408b10:	e78c      	b.n	408a2c <_malloc_r+0x394>
  408b12:	f5b3 7faa 	cmp.w	r3, #340	; 0x154
  408b16:	d815      	bhi.n	408b44 <_malloc_r+0x4ac>
  408b18:	0bf3      	lsrs	r3, r6, #15
  408b1a:	f103 0078 	add.w	r0, r3, #120	; 0x78
  408b1e:	f103 0e77 	add.w	lr, r3, #119	; 0x77
  408b22:	00c3      	lsls	r3, r0, #3
  408b24:	e5da      	b.n	4086dc <_malloc_r+0x44>
  408b26:	f44f 5180 	mov.w	r1, #4096	; 0x1000
  408b2a:	e6ed      	b.n	408908 <_malloc_r+0x270>
  408b2c:	687b      	ldr	r3, [r7, #4]
  408b2e:	1092      	asrs	r2, r2, #2
  408b30:	2101      	movs	r1, #1
  408b32:	fa01 f202 	lsl.w	r2, r1, r2
  408b36:	4313      	orrs	r3, r2
  408b38:	607b      	str	r3, [r7, #4]
  408b3a:	4662      	mov	r2, ip
  408b3c:	e779      	b.n	408a32 <_malloc_r+0x39a>
  408b3e:	2301      	movs	r3, #1
  408b40:	6053      	str	r3, [r2, #4]
  408b42:	e729      	b.n	408998 <_malloc_r+0x300>
  408b44:	f240 5254 	movw	r2, #1364	; 0x554
  408b48:	4293      	cmp	r3, r2
  408b4a:	d822      	bhi.n	408b92 <_malloc_r+0x4fa>
  408b4c:	0cb3      	lsrs	r3, r6, #18
  408b4e:	f103 007d 	add.w	r0, r3, #125	; 0x7d
  408b52:	f103 0e7c 	add.w	lr, r3, #124	; 0x7c
  408b56:	00c3      	lsls	r3, r0, #3
  408b58:	e5c0      	b.n	4086dc <_malloc_r+0x44>
  408b5a:	f103 0b10 	add.w	fp, r3, #16
  408b5e:	e6ae      	b.n	4088be <_malloc_r+0x226>
  408b60:	2a54      	cmp	r2, #84	; 0x54
  408b62:	d829      	bhi.n	408bb8 <_malloc_r+0x520>
  408b64:	0b1a      	lsrs	r2, r3, #12
  408b66:	f102 016f 	add.w	r1, r2, #111	; 0x6f
  408b6a:	00c9      	lsls	r1, r1, #3
  408b6c:	326e      	adds	r2, #110	; 0x6e
  408b6e:	e74d      	b.n	408a0c <_malloc_r+0x374>
  408b70:	4b20      	ldr	r3, [pc, #128]	; (408bf4 <_malloc_r+0x55c>)
  408b72:	6819      	ldr	r1, [r3, #0]
  408b74:	4459      	add	r1, fp
  408b76:	6019      	str	r1, [r3, #0]
  408b78:	e6b2      	b.n	4088e0 <_malloc_r+0x248>
  408b7a:	f3ca 000b 	ubfx	r0, sl, #0, #12
  408b7e:	2800      	cmp	r0, #0
  408b80:	f47f aeae 	bne.w	4088e0 <_malloc_r+0x248>
  408b84:	eb08 030b 	add.w	r3, r8, fp
  408b88:	68ba      	ldr	r2, [r7, #8]
  408b8a:	f043 0301 	orr.w	r3, r3, #1
  408b8e:	6053      	str	r3, [r2, #4]
  408b90:	e6ee      	b.n	408970 <_malloc_r+0x2d8>
  408b92:	207f      	movs	r0, #127	; 0x7f
  408b94:	f44f 737e 	mov.w	r3, #1016	; 0x3f8
  408b98:	f04f 0e7e 	mov.w	lr, #126	; 0x7e
  408b9c:	e59e      	b.n	4086dc <_malloc_r+0x44>
  408b9e:	f104 0108 	add.w	r1, r4, #8
  408ba2:	4628      	mov	r0, r5
  408ba4:	9300      	str	r3, [sp, #0]
  408ba6:	f7ff fc7f 	bl	4084a8 <_free_r>
  408baa:	9b00      	ldr	r3, [sp, #0]
  408bac:	6819      	ldr	r1, [r3, #0]
  408bae:	e6df      	b.n	408970 <_malloc_r+0x2d8>
  408bb0:	2001      	movs	r0, #1
  408bb2:	f04f 0900 	mov.w	r9, #0
  408bb6:	e6bc      	b.n	408932 <_malloc_r+0x29a>
  408bb8:	f5b2 7faa 	cmp.w	r2, #340	; 0x154
  408bbc:	d805      	bhi.n	408bca <_malloc_r+0x532>
  408bbe:	0bda      	lsrs	r2, r3, #15
  408bc0:	f102 0178 	add.w	r1, r2, #120	; 0x78
  408bc4:	00c9      	lsls	r1, r1, #3
  408bc6:	3277      	adds	r2, #119	; 0x77
  408bc8:	e720      	b.n	408a0c <_malloc_r+0x374>
  408bca:	f240 5154 	movw	r1, #1364	; 0x554
  408bce:	428a      	cmp	r2, r1
  408bd0:	d805      	bhi.n	408bde <_malloc_r+0x546>
  408bd2:	0c9a      	lsrs	r2, r3, #18
  408bd4:	f102 017d 	add.w	r1, r2, #125	; 0x7d
  408bd8:	00c9      	lsls	r1, r1, #3
  408bda:	327c      	adds	r2, #124	; 0x7c
  408bdc:	e716      	b.n	408a0c <_malloc_r+0x374>
  408bde:	f44f 717e 	mov.w	r1, #1016	; 0x3f8
  408be2:	227e      	movs	r2, #126	; 0x7e
  408be4:	e712      	b.n	408a0c <_malloc_r+0x374>
  408be6:	687b      	ldr	r3, [r7, #4]
  408be8:	e780      	b.n	408aec <_malloc_r+0x454>
  408bea:	08f0      	lsrs	r0, r6, #3
  408bec:	f106 0308 	add.w	r3, r6, #8
  408bf0:	e600      	b.n	4087f4 <_malloc_r+0x15c>
  408bf2:	bf00      	nop
  408bf4:	20001114 	.word	0x20001114

00408bf8 <__ascii_mbtowc>:
  408bf8:	b082      	sub	sp, #8
  408bfa:	b149      	cbz	r1, 408c10 <__ascii_mbtowc+0x18>
  408bfc:	b15a      	cbz	r2, 408c16 <__ascii_mbtowc+0x1e>
  408bfe:	b16b      	cbz	r3, 408c1c <__ascii_mbtowc+0x24>
  408c00:	7813      	ldrb	r3, [r2, #0]
  408c02:	600b      	str	r3, [r1, #0]
  408c04:	7812      	ldrb	r2, [r2, #0]
  408c06:	1c10      	adds	r0, r2, #0
  408c08:	bf18      	it	ne
  408c0a:	2001      	movne	r0, #1
  408c0c:	b002      	add	sp, #8
  408c0e:	4770      	bx	lr
  408c10:	a901      	add	r1, sp, #4
  408c12:	2a00      	cmp	r2, #0
  408c14:	d1f3      	bne.n	408bfe <__ascii_mbtowc+0x6>
  408c16:	4610      	mov	r0, r2
  408c18:	b002      	add	sp, #8
  408c1a:	4770      	bx	lr
  408c1c:	f06f 0001 	mvn.w	r0, #1
  408c20:	e7f4      	b.n	408c0c <__ascii_mbtowc+0x14>
  408c22:	bf00      	nop
	...

00408c30 <memchr>:
  408c30:	f001 01ff 	and.w	r1, r1, #255	; 0xff
  408c34:	2a10      	cmp	r2, #16
  408c36:	db2b      	blt.n	408c90 <memchr+0x60>
  408c38:	f010 0f07 	tst.w	r0, #7
  408c3c:	d008      	beq.n	408c50 <memchr+0x20>
  408c3e:	f810 3b01 	ldrb.w	r3, [r0], #1
  408c42:	3a01      	subs	r2, #1
  408c44:	428b      	cmp	r3, r1
  408c46:	d02d      	beq.n	408ca4 <memchr+0x74>
  408c48:	f010 0f07 	tst.w	r0, #7
  408c4c:	b342      	cbz	r2, 408ca0 <memchr+0x70>
  408c4e:	d1f6      	bne.n	408c3e <memchr+0xe>
  408c50:	b4f0      	push	{r4, r5, r6, r7}
  408c52:	ea41 2101 	orr.w	r1, r1, r1, lsl #8
  408c56:	ea41 4101 	orr.w	r1, r1, r1, lsl #16
  408c5a:	f022 0407 	bic.w	r4, r2, #7
  408c5e:	f07f 0700 	mvns.w	r7, #0
  408c62:	2300      	movs	r3, #0
  408c64:	e8f0 5602 	ldrd	r5, r6, [r0], #8
  408c68:	3c08      	subs	r4, #8
  408c6a:	ea85 0501 	eor.w	r5, r5, r1
  408c6e:	ea86 0601 	eor.w	r6, r6, r1
  408c72:	fa85 f547 	uadd8	r5, r5, r7
  408c76:	faa3 f587 	sel	r5, r3, r7
  408c7a:	fa86 f647 	uadd8	r6, r6, r7
  408c7e:	faa5 f687 	sel	r6, r5, r7
  408c82:	b98e      	cbnz	r6, 408ca8 <memchr+0x78>
  408c84:	d1ee      	bne.n	408c64 <memchr+0x34>
  408c86:	bcf0      	pop	{r4, r5, r6, r7}
  408c88:	f001 01ff 	and.w	r1, r1, #255	; 0xff
  408c8c:	f002 0207 	and.w	r2, r2, #7
  408c90:	b132      	cbz	r2, 408ca0 <memchr+0x70>
  408c92:	f810 3b01 	ldrb.w	r3, [r0], #1
  408c96:	3a01      	subs	r2, #1
  408c98:	ea83 0301 	eor.w	r3, r3, r1
  408c9c:	b113      	cbz	r3, 408ca4 <memchr+0x74>
  408c9e:	d1f8      	bne.n	408c92 <memchr+0x62>
  408ca0:	2000      	movs	r0, #0
  408ca2:	4770      	bx	lr
  408ca4:	3801      	subs	r0, #1
  408ca6:	4770      	bx	lr
  408ca8:	2d00      	cmp	r5, #0
  408caa:	bf06      	itte	eq
  408cac:	4635      	moveq	r5, r6
  408cae:	3803      	subeq	r0, #3
  408cb0:	3807      	subne	r0, #7
  408cb2:	f015 0f01 	tst.w	r5, #1
  408cb6:	d107      	bne.n	408cc8 <memchr+0x98>
  408cb8:	3001      	adds	r0, #1
  408cba:	f415 7f80 	tst.w	r5, #256	; 0x100
  408cbe:	bf02      	ittt	eq
  408cc0:	3001      	addeq	r0, #1
  408cc2:	f415 3fc0 	tsteq.w	r5, #98304	; 0x18000
  408cc6:	3001      	addeq	r0, #1
  408cc8:	bcf0      	pop	{r4, r5, r6, r7}
  408cca:	3801      	subs	r0, #1
  408ccc:	4770      	bx	lr
  408cce:	bf00      	nop

00408cd0 <memcpy>:
  408cd0:	4684      	mov	ip, r0
  408cd2:	ea41 0300 	orr.w	r3, r1, r0
  408cd6:	f013 0303 	ands.w	r3, r3, #3
  408cda:	d16d      	bne.n	408db8 <memcpy+0xe8>
  408cdc:	3a40      	subs	r2, #64	; 0x40
  408cde:	d341      	bcc.n	408d64 <memcpy+0x94>
  408ce0:	f851 3b04 	ldr.w	r3, [r1], #4
  408ce4:	f840 3b04 	str.w	r3, [r0], #4
  408ce8:	f851 3b04 	ldr.w	r3, [r1], #4
  408cec:	f840 3b04 	str.w	r3, [r0], #4
  408cf0:	f851 3b04 	ldr.w	r3, [r1], #4
  408cf4:	f840 3b04 	str.w	r3, [r0], #4
  408cf8:	f851 3b04 	ldr.w	r3, [r1], #4
  408cfc:	f840 3b04 	str.w	r3, [r0], #4
  408d00:	f851 3b04 	ldr.w	r3, [r1], #4
  408d04:	f840 3b04 	str.w	r3, [r0], #4
  408d08:	f851 3b04 	ldr.w	r3, [r1], #4
  408d0c:	f840 3b04 	str.w	r3, [r0], #4
  408d10:	f851 3b04 	ldr.w	r3, [r1], #4
  408d14:	f840 3b04 	str.w	r3, [r0], #4
  408d18:	f851 3b04 	ldr.w	r3, [r1], #4
  408d1c:	f840 3b04 	str.w	r3, [r0], #4
  408d20:	f851 3b04 	ldr.w	r3, [r1], #4
  408d24:	f840 3b04 	str.w	r3, [r0], #4
  408d28:	f851 3b04 	ldr.w	r3, [r1], #4
  408d2c:	f840 3b04 	str.w	r3, [r0], #4
  408d30:	f851 3b04 	ldr.w	r3, [r1], #4
  408d34:	f840 3b04 	str.w	r3, [r0], #4
  408d38:	f851 3b04 	ldr.w	r3, [r1], #4
  408d3c:	f840 3b04 	str.w	r3, [r0], #4
  408d40:	f851 3b04 	ldr.w	r3, [r1], #4
  408d44:	f840 3b04 	str.w	r3, [r0], #4
  408d48:	f851 3b04 	ldr.w	r3, [r1], #4
  408d4c:	f840 3b04 	str.w	r3, [r0], #4
  408d50:	f851 3b04 	ldr.w	r3, [r1], #4
  408d54:	f840 3b04 	str.w	r3, [r0], #4
  408d58:	f851 3b04 	ldr.w	r3, [r1], #4
  408d5c:	f840 3b04 	str.w	r3, [r0], #4
  408d60:	3a40      	subs	r2, #64	; 0x40
  408d62:	d2bd      	bcs.n	408ce0 <memcpy+0x10>
  408d64:	3230      	adds	r2, #48	; 0x30
  408d66:	d311      	bcc.n	408d8c <memcpy+0xbc>
  408d68:	f851 3b04 	ldr.w	r3, [r1], #4
  408d6c:	f840 3b04 	str.w	r3, [r0], #4
  408d70:	f851 3b04 	ldr.w	r3, [r1], #4
  408d74:	f840 3b04 	str.w	r3, [r0], #4
  408d78:	f851 3b04 	ldr.w	r3, [r1], #4
  408d7c:	f840 3b04 	str.w	r3, [r0], #4
  408d80:	f851 3b04 	ldr.w	r3, [r1], #4
  408d84:	f840 3b04 	str.w	r3, [r0], #4
  408d88:	3a10      	subs	r2, #16
  408d8a:	d2ed      	bcs.n	408d68 <memcpy+0x98>
  408d8c:	320c      	adds	r2, #12
  408d8e:	d305      	bcc.n	408d9c <memcpy+0xcc>
  408d90:	f851 3b04 	ldr.w	r3, [r1], #4
  408d94:	f840 3b04 	str.w	r3, [r0], #4
  408d98:	3a04      	subs	r2, #4
  408d9a:	d2f9      	bcs.n	408d90 <memcpy+0xc0>
  408d9c:	3204      	adds	r2, #4
  408d9e:	d008      	beq.n	408db2 <memcpy+0xe2>
  408da0:	07d2      	lsls	r2, r2, #31
  408da2:	bf1c      	itt	ne
  408da4:	f811 3b01 	ldrbne.w	r3, [r1], #1
  408da8:	f800 3b01 	strbne.w	r3, [r0], #1
  408dac:	d301      	bcc.n	408db2 <memcpy+0xe2>
  408dae:	880b      	ldrh	r3, [r1, #0]
  408db0:	8003      	strh	r3, [r0, #0]
  408db2:	4660      	mov	r0, ip
  408db4:	4770      	bx	lr
  408db6:	bf00      	nop
  408db8:	2a08      	cmp	r2, #8
  408dba:	d313      	bcc.n	408de4 <memcpy+0x114>
  408dbc:	078b      	lsls	r3, r1, #30
  408dbe:	d08d      	beq.n	408cdc <memcpy+0xc>
  408dc0:	f010 0303 	ands.w	r3, r0, #3
  408dc4:	d08a      	beq.n	408cdc <memcpy+0xc>
  408dc6:	f1c3 0304 	rsb	r3, r3, #4
  408dca:	1ad2      	subs	r2, r2, r3
  408dcc:	07db      	lsls	r3, r3, #31
  408dce:	bf1c      	itt	ne
  408dd0:	f811 3b01 	ldrbne.w	r3, [r1], #1
  408dd4:	f800 3b01 	strbne.w	r3, [r0], #1
  408dd8:	d380      	bcc.n	408cdc <memcpy+0xc>
  408dda:	f831 3b02 	ldrh.w	r3, [r1], #2
  408dde:	f820 3b02 	strh.w	r3, [r0], #2
  408de2:	e77b      	b.n	408cdc <memcpy+0xc>
  408de4:	3a04      	subs	r2, #4
  408de6:	d3d9      	bcc.n	408d9c <memcpy+0xcc>
  408de8:	3a01      	subs	r2, #1
  408dea:	f811 3b01 	ldrb.w	r3, [r1], #1
  408dee:	f800 3b01 	strb.w	r3, [r0], #1
  408df2:	d2f9      	bcs.n	408de8 <memcpy+0x118>
  408df4:	780b      	ldrb	r3, [r1, #0]
  408df6:	7003      	strb	r3, [r0, #0]
  408df8:	784b      	ldrb	r3, [r1, #1]
  408dfa:	7043      	strb	r3, [r0, #1]
  408dfc:	788b      	ldrb	r3, [r1, #2]
  408dfe:	7083      	strb	r3, [r0, #2]
  408e00:	4660      	mov	r0, ip
  408e02:	4770      	bx	lr

00408e04 <memmove>:
  408e04:	4288      	cmp	r0, r1
  408e06:	b5f0      	push	{r4, r5, r6, r7, lr}
  408e08:	d90d      	bls.n	408e26 <memmove+0x22>
  408e0a:	188b      	adds	r3, r1, r2
  408e0c:	4298      	cmp	r0, r3
  408e0e:	d20a      	bcs.n	408e26 <memmove+0x22>
  408e10:	1884      	adds	r4, r0, r2
  408e12:	2a00      	cmp	r2, #0
  408e14:	d051      	beq.n	408eba <memmove+0xb6>
  408e16:	4622      	mov	r2, r4
  408e18:	f813 4d01 	ldrb.w	r4, [r3, #-1]!
  408e1c:	f802 4d01 	strb.w	r4, [r2, #-1]!
  408e20:	4299      	cmp	r1, r3
  408e22:	d1f9      	bne.n	408e18 <memmove+0x14>
  408e24:	bdf0      	pop	{r4, r5, r6, r7, pc}
  408e26:	2a0f      	cmp	r2, #15
  408e28:	d948      	bls.n	408ebc <memmove+0xb8>
  408e2a:	ea41 0300 	orr.w	r3, r1, r0
  408e2e:	079b      	lsls	r3, r3, #30
  408e30:	d146      	bne.n	408ec0 <memmove+0xbc>
  408e32:	f100 0410 	add.w	r4, r0, #16
  408e36:	f101 0310 	add.w	r3, r1, #16
  408e3a:	4615      	mov	r5, r2
  408e3c:	f853 6c10 	ldr.w	r6, [r3, #-16]
  408e40:	f844 6c10 	str.w	r6, [r4, #-16]
  408e44:	f853 6c0c 	ldr.w	r6, [r3, #-12]
  408e48:	f844 6c0c 	str.w	r6, [r4, #-12]
  408e4c:	f853 6c08 	ldr.w	r6, [r3, #-8]
  408e50:	f844 6c08 	str.w	r6, [r4, #-8]
  408e54:	3d10      	subs	r5, #16
  408e56:	f853 6c04 	ldr.w	r6, [r3, #-4]
  408e5a:	f844 6c04 	str.w	r6, [r4, #-4]
  408e5e:	2d0f      	cmp	r5, #15
  408e60:	f103 0310 	add.w	r3, r3, #16
  408e64:	f104 0410 	add.w	r4, r4, #16
  408e68:	d8e8      	bhi.n	408e3c <memmove+0x38>
  408e6a:	f1a2 0310 	sub.w	r3, r2, #16
  408e6e:	f023 030f 	bic.w	r3, r3, #15
  408e72:	f002 0e0f 	and.w	lr, r2, #15
  408e76:	3310      	adds	r3, #16
  408e78:	f1be 0f03 	cmp.w	lr, #3
  408e7c:	4419      	add	r1, r3
  408e7e:	4403      	add	r3, r0
  408e80:	d921      	bls.n	408ec6 <memmove+0xc2>
  408e82:	1f1e      	subs	r6, r3, #4
  408e84:	460d      	mov	r5, r1
  408e86:	4674      	mov	r4, lr
  408e88:	3c04      	subs	r4, #4
  408e8a:	f855 7b04 	ldr.w	r7, [r5], #4
  408e8e:	f846 7f04 	str.w	r7, [r6, #4]!
  408e92:	2c03      	cmp	r4, #3
  408e94:	d8f8      	bhi.n	408e88 <memmove+0x84>
  408e96:	f1ae 0404 	sub.w	r4, lr, #4
  408e9a:	f024 0403 	bic.w	r4, r4, #3
  408e9e:	3404      	adds	r4, #4
  408ea0:	4421      	add	r1, r4
  408ea2:	4423      	add	r3, r4
  408ea4:	f002 0203 	and.w	r2, r2, #3
  408ea8:	b162      	cbz	r2, 408ec4 <memmove+0xc0>
  408eaa:	3b01      	subs	r3, #1
  408eac:	440a      	add	r2, r1
  408eae:	f811 4b01 	ldrb.w	r4, [r1], #1
  408eb2:	f803 4f01 	strb.w	r4, [r3, #1]!
  408eb6:	428a      	cmp	r2, r1
  408eb8:	d1f9      	bne.n	408eae <memmove+0xaa>
  408eba:	bdf0      	pop	{r4, r5, r6, r7, pc}
  408ebc:	4603      	mov	r3, r0
  408ebe:	e7f3      	b.n	408ea8 <memmove+0xa4>
  408ec0:	4603      	mov	r3, r0
  408ec2:	e7f2      	b.n	408eaa <memmove+0xa6>
  408ec4:	bdf0      	pop	{r4, r5, r6, r7, pc}
  408ec6:	4672      	mov	r2, lr
  408ec8:	e7ee      	b.n	408ea8 <memmove+0xa4>
  408eca:	bf00      	nop

00408ecc <__malloc_lock>:
  408ecc:	4801      	ldr	r0, [pc, #4]	; (408ed4 <__malloc_lock+0x8>)
  408ece:	f7ff bbdf 	b.w	408690 <__retarget_lock_acquire_recursive>
  408ed2:	bf00      	nop
  408ed4:	20006190 	.word	0x20006190

00408ed8 <__malloc_unlock>:
  408ed8:	4801      	ldr	r0, [pc, #4]	; (408ee0 <__malloc_unlock+0x8>)
  408eda:	f7ff bbdb 	b.w	408694 <__retarget_lock_release_recursive>
  408ede:	bf00      	nop
  408ee0:	20006190 	.word	0x20006190

00408ee4 <_Balloc>:
  408ee4:	6cc3      	ldr	r3, [r0, #76]	; 0x4c
  408ee6:	b570      	push	{r4, r5, r6, lr}
  408ee8:	4605      	mov	r5, r0
  408eea:	460c      	mov	r4, r1
  408eec:	b14b      	cbz	r3, 408f02 <_Balloc+0x1e>
  408eee:	f853 0024 	ldr.w	r0, [r3, r4, lsl #2]
  408ef2:	b180      	cbz	r0, 408f16 <_Balloc+0x32>
  408ef4:	6802      	ldr	r2, [r0, #0]
  408ef6:	f843 2024 	str.w	r2, [r3, r4, lsl #2]
  408efa:	2300      	movs	r3, #0
  408efc:	6103      	str	r3, [r0, #16]
  408efe:	60c3      	str	r3, [r0, #12]
  408f00:	bd70      	pop	{r4, r5, r6, pc}
  408f02:	2221      	movs	r2, #33	; 0x21
  408f04:	2104      	movs	r1, #4
  408f06:	f000 fd8d 	bl	409a24 <_calloc_r>
  408f0a:	64e8      	str	r0, [r5, #76]	; 0x4c
  408f0c:	4603      	mov	r3, r0
  408f0e:	2800      	cmp	r0, #0
  408f10:	d1ed      	bne.n	408eee <_Balloc+0xa>
  408f12:	2000      	movs	r0, #0
  408f14:	bd70      	pop	{r4, r5, r6, pc}
  408f16:	2101      	movs	r1, #1
  408f18:	fa01 f604 	lsl.w	r6, r1, r4
  408f1c:	1d72      	adds	r2, r6, #5
  408f1e:	4628      	mov	r0, r5
  408f20:	0092      	lsls	r2, r2, #2
  408f22:	f000 fd7f 	bl	409a24 <_calloc_r>
  408f26:	2800      	cmp	r0, #0
  408f28:	d0f3      	beq.n	408f12 <_Balloc+0x2e>
  408f2a:	6044      	str	r4, [r0, #4]
  408f2c:	6086      	str	r6, [r0, #8]
  408f2e:	e7e4      	b.n	408efa <_Balloc+0x16>

00408f30 <_Bfree>:
  408f30:	b131      	cbz	r1, 408f40 <_Bfree+0x10>
  408f32:	6cc3      	ldr	r3, [r0, #76]	; 0x4c
  408f34:	684a      	ldr	r2, [r1, #4]
  408f36:	f853 0022 	ldr.w	r0, [r3, r2, lsl #2]
  408f3a:	6008      	str	r0, [r1, #0]
  408f3c:	f843 1022 	str.w	r1, [r3, r2, lsl #2]
  408f40:	4770      	bx	lr
  408f42:	bf00      	nop

00408f44 <__multadd>:
  408f44:	b5f0      	push	{r4, r5, r6, r7, lr}
  408f46:	690c      	ldr	r4, [r1, #16]
  408f48:	b083      	sub	sp, #12
  408f4a:	460d      	mov	r5, r1
  408f4c:	4606      	mov	r6, r0
  408f4e:	f101 0e14 	add.w	lr, r1, #20
  408f52:	2700      	movs	r7, #0
  408f54:	f8de 0000 	ldr.w	r0, [lr]
  408f58:	b281      	uxth	r1, r0
  408f5a:	fb02 3301 	mla	r3, r2, r1, r3
  408f5e:	0c01      	lsrs	r1, r0, #16
  408f60:	0c18      	lsrs	r0, r3, #16
  408f62:	fb02 0101 	mla	r1, r2, r1, r0
  408f66:	b29b      	uxth	r3, r3
  408f68:	3701      	adds	r7, #1
  408f6a:	eb03 4301 	add.w	r3, r3, r1, lsl #16
  408f6e:	42bc      	cmp	r4, r7
  408f70:	f84e 3b04 	str.w	r3, [lr], #4
  408f74:	ea4f 4311 	mov.w	r3, r1, lsr #16
  408f78:	dcec      	bgt.n	408f54 <__multadd+0x10>
  408f7a:	b13b      	cbz	r3, 408f8c <__multadd+0x48>
  408f7c:	68aa      	ldr	r2, [r5, #8]
  408f7e:	4294      	cmp	r4, r2
  408f80:	da07      	bge.n	408f92 <__multadd+0x4e>
  408f82:	eb05 0284 	add.w	r2, r5, r4, lsl #2
  408f86:	3401      	adds	r4, #1
  408f88:	6153      	str	r3, [r2, #20]
  408f8a:	612c      	str	r4, [r5, #16]
  408f8c:	4628      	mov	r0, r5
  408f8e:	b003      	add	sp, #12
  408f90:	bdf0      	pop	{r4, r5, r6, r7, pc}
  408f92:	6869      	ldr	r1, [r5, #4]
  408f94:	9301      	str	r3, [sp, #4]
  408f96:	3101      	adds	r1, #1
  408f98:	4630      	mov	r0, r6
  408f9a:	f7ff ffa3 	bl	408ee4 <_Balloc>
  408f9e:	692a      	ldr	r2, [r5, #16]
  408fa0:	3202      	adds	r2, #2
  408fa2:	f105 010c 	add.w	r1, r5, #12
  408fa6:	4607      	mov	r7, r0
  408fa8:	0092      	lsls	r2, r2, #2
  408faa:	300c      	adds	r0, #12
  408fac:	f7ff fe90 	bl	408cd0 <memcpy>
  408fb0:	6cf2      	ldr	r2, [r6, #76]	; 0x4c
  408fb2:	6869      	ldr	r1, [r5, #4]
  408fb4:	9b01      	ldr	r3, [sp, #4]
  408fb6:	f852 0021 	ldr.w	r0, [r2, r1, lsl #2]
  408fba:	6028      	str	r0, [r5, #0]
  408fbc:	f842 5021 	str.w	r5, [r2, r1, lsl #2]
  408fc0:	463d      	mov	r5, r7
  408fc2:	e7de      	b.n	408f82 <__multadd+0x3e>

00408fc4 <__hi0bits>:
  408fc4:	0c02      	lsrs	r2, r0, #16
  408fc6:	0412      	lsls	r2, r2, #16
  408fc8:	4603      	mov	r3, r0
  408fca:	b9b2      	cbnz	r2, 408ffa <__hi0bits+0x36>
  408fcc:	0403      	lsls	r3, r0, #16
  408fce:	2010      	movs	r0, #16
  408fd0:	f013 4f7f 	tst.w	r3, #4278190080	; 0xff000000
  408fd4:	bf04      	itt	eq
  408fd6:	021b      	lsleq	r3, r3, #8
  408fd8:	3008      	addeq	r0, #8
  408fda:	f013 4f70 	tst.w	r3, #4026531840	; 0xf0000000
  408fde:	bf04      	itt	eq
  408fe0:	011b      	lsleq	r3, r3, #4
  408fe2:	3004      	addeq	r0, #4
  408fe4:	f013 4f40 	tst.w	r3, #3221225472	; 0xc0000000
  408fe8:	bf04      	itt	eq
  408fea:	009b      	lsleq	r3, r3, #2
  408fec:	3002      	addeq	r0, #2
  408fee:	2b00      	cmp	r3, #0
  408ff0:	db02      	blt.n	408ff8 <__hi0bits+0x34>
  408ff2:	005b      	lsls	r3, r3, #1
  408ff4:	d403      	bmi.n	408ffe <__hi0bits+0x3a>
  408ff6:	2020      	movs	r0, #32
  408ff8:	4770      	bx	lr
  408ffa:	2000      	movs	r0, #0
  408ffc:	e7e8      	b.n	408fd0 <__hi0bits+0xc>
  408ffe:	3001      	adds	r0, #1
  409000:	4770      	bx	lr
  409002:	bf00      	nop

00409004 <__lo0bits>:
  409004:	6803      	ldr	r3, [r0, #0]
  409006:	f013 0207 	ands.w	r2, r3, #7
  40900a:	4601      	mov	r1, r0
  40900c:	d007      	beq.n	40901e <__lo0bits+0x1a>
  40900e:	07da      	lsls	r2, r3, #31
  409010:	d421      	bmi.n	409056 <__lo0bits+0x52>
  409012:	0798      	lsls	r0, r3, #30
  409014:	d421      	bmi.n	40905a <__lo0bits+0x56>
  409016:	089b      	lsrs	r3, r3, #2
  409018:	600b      	str	r3, [r1, #0]
  40901a:	2002      	movs	r0, #2
  40901c:	4770      	bx	lr
  40901e:	b298      	uxth	r0, r3
  409020:	b198      	cbz	r0, 40904a <__lo0bits+0x46>
  409022:	4610      	mov	r0, r2
  409024:	f013 0fff 	tst.w	r3, #255	; 0xff
  409028:	bf04      	itt	eq
  40902a:	0a1b      	lsreq	r3, r3, #8
  40902c:	3008      	addeq	r0, #8
  40902e:	071a      	lsls	r2, r3, #28
  409030:	bf04      	itt	eq
  409032:	091b      	lsreq	r3, r3, #4
  409034:	3004      	addeq	r0, #4
  409036:	079a      	lsls	r2, r3, #30
  409038:	bf04      	itt	eq
  40903a:	089b      	lsreq	r3, r3, #2
  40903c:	3002      	addeq	r0, #2
  40903e:	07da      	lsls	r2, r3, #31
  409040:	d407      	bmi.n	409052 <__lo0bits+0x4e>
  409042:	085b      	lsrs	r3, r3, #1
  409044:	d104      	bne.n	409050 <__lo0bits+0x4c>
  409046:	2020      	movs	r0, #32
  409048:	4770      	bx	lr
  40904a:	0c1b      	lsrs	r3, r3, #16
  40904c:	2010      	movs	r0, #16
  40904e:	e7e9      	b.n	409024 <__lo0bits+0x20>
  409050:	3001      	adds	r0, #1
  409052:	600b      	str	r3, [r1, #0]
  409054:	4770      	bx	lr
  409056:	2000      	movs	r0, #0
  409058:	4770      	bx	lr
  40905a:	085b      	lsrs	r3, r3, #1
  40905c:	600b      	str	r3, [r1, #0]
  40905e:	2001      	movs	r0, #1
  409060:	4770      	bx	lr
  409062:	bf00      	nop

00409064 <__i2b>:
  409064:	b510      	push	{r4, lr}
  409066:	460c      	mov	r4, r1
  409068:	2101      	movs	r1, #1
  40906a:	f7ff ff3b 	bl	408ee4 <_Balloc>
  40906e:	2201      	movs	r2, #1
  409070:	6144      	str	r4, [r0, #20]
  409072:	6102      	str	r2, [r0, #16]
  409074:	bd10      	pop	{r4, pc}
  409076:	bf00      	nop

00409078 <__multiply>:
  409078:	e92d 4ff0 	stmdb	sp!, {r4, r5, r6, r7, r8, r9, sl, fp, lr}
  40907c:	690c      	ldr	r4, [r1, #16]
  40907e:	6915      	ldr	r5, [r2, #16]
  409080:	42ac      	cmp	r4, r5
  409082:	b083      	sub	sp, #12
  409084:	468b      	mov	fp, r1
  409086:	4616      	mov	r6, r2
  409088:	da04      	bge.n	409094 <__multiply+0x1c>
  40908a:	4622      	mov	r2, r4
  40908c:	46b3      	mov	fp, r6
  40908e:	462c      	mov	r4, r5
  409090:	460e      	mov	r6, r1
  409092:	4615      	mov	r5, r2
  409094:	f8db 3008 	ldr.w	r3, [fp, #8]
  409098:	f8db 1004 	ldr.w	r1, [fp, #4]
  40909c:	eb04 0805 	add.w	r8, r4, r5
  4090a0:	4598      	cmp	r8, r3
  4090a2:	bfc8      	it	gt
  4090a4:	3101      	addgt	r1, #1
  4090a6:	f7ff ff1d 	bl	408ee4 <_Balloc>
  4090aa:	f100 0914 	add.w	r9, r0, #20
  4090ae:	eb09 0a88 	add.w	sl, r9, r8, lsl #2
  4090b2:	45d1      	cmp	r9, sl
  4090b4:	9000      	str	r0, [sp, #0]
  4090b6:	d205      	bcs.n	4090c4 <__multiply+0x4c>
  4090b8:	464b      	mov	r3, r9
  4090ba:	2100      	movs	r1, #0
  4090bc:	f843 1b04 	str.w	r1, [r3], #4
  4090c0:	459a      	cmp	sl, r3
  4090c2:	d8fb      	bhi.n	4090bc <__multiply+0x44>
  4090c4:	f106 0c14 	add.w	ip, r6, #20
  4090c8:	eb0c 0385 	add.w	r3, ip, r5, lsl #2
  4090cc:	f10b 0b14 	add.w	fp, fp, #20
  4090d0:	459c      	cmp	ip, r3
  4090d2:	eb0b 0e84 	add.w	lr, fp, r4, lsl #2
  4090d6:	d24c      	bcs.n	409172 <__multiply+0xfa>
  4090d8:	f8cd a004 	str.w	sl, [sp, #4]
  4090dc:	469a      	mov	sl, r3
  4090de:	f8dc 5000 	ldr.w	r5, [ip]
  4090e2:	b2af      	uxth	r7, r5
  4090e4:	b1ef      	cbz	r7, 409122 <__multiply+0xaa>
  4090e6:	2100      	movs	r1, #0
  4090e8:	464d      	mov	r5, r9
  4090ea:	465e      	mov	r6, fp
  4090ec:	460c      	mov	r4, r1
  4090ee:	f856 2b04 	ldr.w	r2, [r6], #4
  4090f2:	6828      	ldr	r0, [r5, #0]
  4090f4:	b293      	uxth	r3, r2
  4090f6:	b281      	uxth	r1, r0
  4090f8:	fb07 1303 	mla	r3, r7, r3, r1
  4090fc:	0c12      	lsrs	r2, r2, #16
  4090fe:	0c01      	lsrs	r1, r0, #16
  409100:	4423      	add	r3, r4
  409102:	fb07 1102 	mla	r1, r7, r2, r1
  409106:	eb01 4113 	add.w	r1, r1, r3, lsr #16
  40910a:	b29b      	uxth	r3, r3
  40910c:	ea43 4301 	orr.w	r3, r3, r1, lsl #16
  409110:	45b6      	cmp	lr, r6
  409112:	f845 3b04 	str.w	r3, [r5], #4
  409116:	ea4f 4411 	mov.w	r4, r1, lsr #16
  40911a:	d8e8      	bhi.n	4090ee <__multiply+0x76>
  40911c:	602c      	str	r4, [r5, #0]
  40911e:	f8dc 5000 	ldr.w	r5, [ip]
  409122:	0c2d      	lsrs	r5, r5, #16
  409124:	d01d      	beq.n	409162 <__multiply+0xea>
  409126:	f8d9 3000 	ldr.w	r3, [r9]
  40912a:	4648      	mov	r0, r9
  40912c:	461c      	mov	r4, r3
  40912e:	4659      	mov	r1, fp
  409130:	2200      	movs	r2, #0
  409132:	880e      	ldrh	r6, [r1, #0]
  409134:	0c24      	lsrs	r4, r4, #16
  409136:	fb05 4406 	mla	r4, r5, r6, r4
  40913a:	4422      	add	r2, r4
  40913c:	b29b      	uxth	r3, r3
  40913e:	ea43 4302 	orr.w	r3, r3, r2, lsl #16
  409142:	f840 3b04 	str.w	r3, [r0], #4
  409146:	f851 3b04 	ldr.w	r3, [r1], #4
  40914a:	6804      	ldr	r4, [r0, #0]
  40914c:	0c1b      	lsrs	r3, r3, #16
  40914e:	b2a6      	uxth	r6, r4
  409150:	fb05 6303 	mla	r3, r5, r3, r6
  409154:	eb03 4312 	add.w	r3, r3, r2, lsr #16
  409158:	458e      	cmp	lr, r1
  40915a:	ea4f 4213 	mov.w	r2, r3, lsr #16
  40915e:	d8e8      	bhi.n	409132 <__multiply+0xba>
  409160:	6003      	str	r3, [r0, #0]
  409162:	f10c 0c04 	add.w	ip, ip, #4
  409166:	45e2      	cmp	sl, ip
  409168:	f109 0904 	add.w	r9, r9, #4
  40916c:	d8b7      	bhi.n	4090de <__multiply+0x66>
  40916e:	f8dd a004 	ldr.w	sl, [sp, #4]
  409172:	f1b8 0f00 	cmp.w	r8, #0
  409176:	dd0b      	ble.n	409190 <__multiply+0x118>
  409178:	f85a 3c04 	ldr.w	r3, [sl, #-4]
  40917c:	f1aa 0a04 	sub.w	sl, sl, #4
  409180:	b11b      	cbz	r3, 40918a <__multiply+0x112>
  409182:	e005      	b.n	409190 <__multiply+0x118>
  409184:	f85a 3d04 	ldr.w	r3, [sl, #-4]!
  409188:	b913      	cbnz	r3, 409190 <__multiply+0x118>
  40918a:	f1b8 0801 	subs.w	r8, r8, #1
  40918e:	d1f9      	bne.n	409184 <__multiply+0x10c>
  409190:	9800      	ldr	r0, [sp, #0]
  409192:	f8c0 8010 	str.w	r8, [r0, #16]
  409196:	b003      	add	sp, #12
  409198:	e8bd 8ff0 	ldmia.w	sp!, {r4, r5, r6, r7, r8, r9, sl, fp, pc}

0040919c <__pow5mult>:
  40919c:	f012 0303 	ands.w	r3, r2, #3
  4091a0:	e92d 41f0 	stmdb	sp!, {r4, r5, r6, r7, r8, lr}
  4091a4:	4614      	mov	r4, r2
  4091a6:	4607      	mov	r7, r0
  4091a8:	d12e      	bne.n	409208 <__pow5mult+0x6c>
  4091aa:	460d      	mov	r5, r1
  4091ac:	10a4      	asrs	r4, r4, #2
  4091ae:	d01c      	beq.n	4091ea <__pow5mult+0x4e>
  4091b0:	6cbe      	ldr	r6, [r7, #72]	; 0x48
  4091b2:	b396      	cbz	r6, 40921a <__pow5mult+0x7e>
  4091b4:	07e3      	lsls	r3, r4, #31
  4091b6:	f04f 0800 	mov.w	r8, #0
  4091ba:	d406      	bmi.n	4091ca <__pow5mult+0x2e>
  4091bc:	1064      	asrs	r4, r4, #1
  4091be:	d014      	beq.n	4091ea <__pow5mult+0x4e>
  4091c0:	6830      	ldr	r0, [r6, #0]
  4091c2:	b1a8      	cbz	r0, 4091f0 <__pow5mult+0x54>
  4091c4:	4606      	mov	r6, r0
  4091c6:	07e3      	lsls	r3, r4, #31
  4091c8:	d5f8      	bpl.n	4091bc <__pow5mult+0x20>
  4091ca:	4632      	mov	r2, r6
  4091cc:	4629      	mov	r1, r5
  4091ce:	4638      	mov	r0, r7
  4091d0:	f7ff ff52 	bl	409078 <__multiply>
  4091d4:	b1b5      	cbz	r5, 409204 <__pow5mult+0x68>
  4091d6:	686a      	ldr	r2, [r5, #4]
  4091d8:	6cfb      	ldr	r3, [r7, #76]	; 0x4c
  4091da:	1064      	asrs	r4, r4, #1
  4091dc:	f853 1022 	ldr.w	r1, [r3, r2, lsl #2]
  4091e0:	6029      	str	r1, [r5, #0]
  4091e2:	f843 5022 	str.w	r5, [r3, r2, lsl #2]
  4091e6:	4605      	mov	r5, r0
  4091e8:	d1ea      	bne.n	4091c0 <__pow5mult+0x24>
  4091ea:	4628      	mov	r0, r5
  4091ec:	e8bd 81f0 	ldmia.w	sp!, {r4, r5, r6, r7, r8, pc}
  4091f0:	4632      	mov	r2, r6
  4091f2:	4631      	mov	r1, r6
  4091f4:	4638      	mov	r0, r7
  4091f6:	f7ff ff3f 	bl	409078 <__multiply>
  4091fa:	6030      	str	r0, [r6, #0]
  4091fc:	f8c0 8000 	str.w	r8, [r0]
  409200:	4606      	mov	r6, r0
  409202:	e7e0      	b.n	4091c6 <__pow5mult+0x2a>
  409204:	4605      	mov	r5, r0
  409206:	e7d9      	b.n	4091bc <__pow5mult+0x20>
  409208:	1e5a      	subs	r2, r3, #1
  40920a:	4d0b      	ldr	r5, [pc, #44]	; (409238 <__pow5mult+0x9c>)
  40920c:	2300      	movs	r3, #0
  40920e:	f855 2022 	ldr.w	r2, [r5, r2, lsl #2]
  409212:	f7ff fe97 	bl	408f44 <__multadd>
  409216:	4605      	mov	r5, r0
  409218:	e7c8      	b.n	4091ac <__pow5mult+0x10>
  40921a:	2101      	movs	r1, #1
  40921c:	4638      	mov	r0, r7
  40921e:	f7ff fe61 	bl	408ee4 <_Balloc>
  409222:	f240 2171 	movw	r1, #625	; 0x271
  409226:	2201      	movs	r2, #1
  409228:	2300      	movs	r3, #0
  40922a:	6141      	str	r1, [r0, #20]
  40922c:	6102      	str	r2, [r0, #16]
  40922e:	4606      	mov	r6, r0
  409230:	64b8      	str	r0, [r7, #72]	; 0x48
  409232:	6003      	str	r3, [r0, #0]
  409234:	e7be      	b.n	4091b4 <__pow5mult+0x18>
  409236:	bf00      	nop
  409238:	0040a568 	.word	0x0040a568

0040923c <__lshift>:
  40923c:	e92d 43f8 	stmdb	sp!, {r3, r4, r5, r6, r7, r8, r9, lr}
  409240:	4691      	mov	r9, r2
  409242:	690a      	ldr	r2, [r1, #16]
  409244:	688b      	ldr	r3, [r1, #8]
  409246:	ea4f 1469 	mov.w	r4, r9, asr #5
  40924a:	eb04 0802 	add.w	r8, r4, r2
  40924e:	f108 0501 	add.w	r5, r8, #1
  409252:	429d      	cmp	r5, r3
  409254:	460e      	mov	r6, r1
  409256:	4607      	mov	r7, r0
  409258:	6849      	ldr	r1, [r1, #4]
  40925a:	dd04      	ble.n	409266 <__lshift+0x2a>
  40925c:	005b      	lsls	r3, r3, #1
  40925e:	429d      	cmp	r5, r3
  409260:	f101 0101 	add.w	r1, r1, #1
  409264:	dcfa      	bgt.n	40925c <__lshift+0x20>
  409266:	4638      	mov	r0, r7
  409268:	f7ff fe3c 	bl	408ee4 <_Balloc>
  40926c:	2c00      	cmp	r4, #0
  40926e:	f100 0314 	add.w	r3, r0, #20
  409272:	dd06      	ble.n	409282 <__lshift+0x46>
  409274:	eb03 0284 	add.w	r2, r3, r4, lsl #2
  409278:	2100      	movs	r1, #0
  40927a:	f843 1b04 	str.w	r1, [r3], #4
  40927e:	429a      	cmp	r2, r3
  409280:	d1fb      	bne.n	40927a <__lshift+0x3e>
  409282:	6934      	ldr	r4, [r6, #16]
  409284:	f106 0114 	add.w	r1, r6, #20
  409288:	f019 091f 	ands.w	r9, r9, #31
  40928c:	eb01 0e84 	add.w	lr, r1, r4, lsl #2
  409290:	d01d      	beq.n	4092ce <__lshift+0x92>
  409292:	f1c9 0c20 	rsb	ip, r9, #32
  409296:	2200      	movs	r2, #0
  409298:	680c      	ldr	r4, [r1, #0]
  40929a:	fa04 f409 	lsl.w	r4, r4, r9
  40929e:	4314      	orrs	r4, r2
  4092a0:	f843 4b04 	str.w	r4, [r3], #4
  4092a4:	f851 2b04 	ldr.w	r2, [r1], #4
  4092a8:	458e      	cmp	lr, r1
  4092aa:	fa22 f20c 	lsr.w	r2, r2, ip
  4092ae:	d8f3      	bhi.n	409298 <__lshift+0x5c>
  4092b0:	601a      	str	r2, [r3, #0]
  4092b2:	b10a      	cbz	r2, 4092b8 <__lshift+0x7c>
  4092b4:	f108 0502 	add.w	r5, r8, #2
  4092b8:	6cfb      	ldr	r3, [r7, #76]	; 0x4c
  4092ba:	6872      	ldr	r2, [r6, #4]
  4092bc:	3d01      	subs	r5, #1
  4092be:	f853 1022 	ldr.w	r1, [r3, r2, lsl #2]
  4092c2:	6105      	str	r5, [r0, #16]
  4092c4:	6031      	str	r1, [r6, #0]
  4092c6:	f843 6022 	str.w	r6, [r3, r2, lsl #2]
  4092ca:	e8bd 83f8 	ldmia.w	sp!, {r3, r4, r5, r6, r7, r8, r9, pc}
  4092ce:	3b04      	subs	r3, #4
  4092d0:	f851 2b04 	ldr.w	r2, [r1], #4
  4092d4:	f843 2f04 	str.w	r2, [r3, #4]!
  4092d8:	458e      	cmp	lr, r1
  4092da:	d8f9      	bhi.n	4092d0 <__lshift+0x94>
  4092dc:	e7ec      	b.n	4092b8 <__lshift+0x7c>
  4092de:	bf00      	nop

004092e0 <__mcmp>:
  4092e0:	b430      	push	{r4, r5}
  4092e2:	690b      	ldr	r3, [r1, #16]
  4092e4:	4605      	mov	r5, r0
  4092e6:	6900      	ldr	r0, [r0, #16]
  4092e8:	1ac0      	subs	r0, r0, r3
  4092ea:	d10f      	bne.n	40930c <__mcmp+0x2c>
  4092ec:	009b      	lsls	r3, r3, #2
  4092ee:	3514      	adds	r5, #20
  4092f0:	3114      	adds	r1, #20
  4092f2:	4419      	add	r1, r3
  4092f4:	442b      	add	r3, r5
  4092f6:	e001      	b.n	4092fc <__mcmp+0x1c>
  4092f8:	429d      	cmp	r5, r3
  4092fa:	d207      	bcs.n	40930c <__mcmp+0x2c>
  4092fc:	f853 4d04 	ldr.w	r4, [r3, #-4]!
  409300:	f851 2d04 	ldr.w	r2, [r1, #-4]!
  409304:	4294      	cmp	r4, r2
  409306:	d0f7      	beq.n	4092f8 <__mcmp+0x18>
  409308:	d302      	bcc.n	409310 <__mcmp+0x30>
  40930a:	2001      	movs	r0, #1
  40930c:	bc30      	pop	{r4, r5}
  40930e:	4770      	bx	lr
  409310:	f04f 30ff 	mov.w	r0, #4294967295
  409314:	e7fa      	b.n	40930c <__mcmp+0x2c>
  409316:	bf00      	nop

00409318 <__mdiff>:
  409318:	e92d 41f0 	stmdb	sp!, {r4, r5, r6, r7, r8, lr}
  40931c:	690f      	ldr	r7, [r1, #16]
  40931e:	460e      	mov	r6, r1
  409320:	6911      	ldr	r1, [r2, #16]
  409322:	1a7f      	subs	r7, r7, r1
  409324:	2f00      	cmp	r7, #0
  409326:	4690      	mov	r8, r2
  409328:	d117      	bne.n	40935a <__mdiff+0x42>
  40932a:	0089      	lsls	r1, r1, #2
  40932c:	f106 0514 	add.w	r5, r6, #20
  409330:	f102 0e14 	add.w	lr, r2, #20
  409334:	186b      	adds	r3, r5, r1
  409336:	4471      	add	r1, lr
  409338:	e001      	b.n	40933e <__mdiff+0x26>
  40933a:	429d      	cmp	r5, r3
  40933c:	d25c      	bcs.n	4093f8 <__mdiff+0xe0>
  40933e:	f853 2d04 	ldr.w	r2, [r3, #-4]!
  409342:	f851 4d04 	ldr.w	r4, [r1, #-4]!
  409346:	42a2      	cmp	r2, r4
  409348:	d0f7      	beq.n	40933a <__mdiff+0x22>
  40934a:	d25e      	bcs.n	40940a <__mdiff+0xf2>
  40934c:	4633      	mov	r3, r6
  40934e:	462c      	mov	r4, r5
  409350:	4646      	mov	r6, r8
  409352:	4675      	mov	r5, lr
  409354:	4698      	mov	r8, r3
  409356:	2701      	movs	r7, #1
  409358:	e005      	b.n	409366 <__mdiff+0x4e>
  40935a:	db58      	blt.n	40940e <__mdiff+0xf6>
  40935c:	f106 0514 	add.w	r5, r6, #20
  409360:	f108 0414 	add.w	r4, r8, #20
  409364:	2700      	movs	r7, #0
  409366:	6871      	ldr	r1, [r6, #4]
  409368:	f7ff fdbc 	bl	408ee4 <_Balloc>
  40936c:	f8d8 3010 	ldr.w	r3, [r8, #16]
  409370:	6936      	ldr	r6, [r6, #16]
  409372:	60c7      	str	r7, [r0, #12]
  409374:	eb04 0c83 	add.w	ip, r4, r3, lsl #2
  409378:	46a6      	mov	lr, r4
  40937a:	eb05 0786 	add.w	r7, r5, r6, lsl #2
  40937e:	f100 0414 	add.w	r4, r0, #20
  409382:	2300      	movs	r3, #0
  409384:	f85e 1b04 	ldr.w	r1, [lr], #4
  409388:	f855 8b04 	ldr.w	r8, [r5], #4
  40938c:	b28a      	uxth	r2, r1
  40938e:	fa13 f388 	uxtah	r3, r3, r8
  409392:	0c09      	lsrs	r1, r1, #16
  409394:	1a9a      	subs	r2, r3, r2
  409396:	ebc1 4318 	rsb	r3, r1, r8, lsr #16
  40939a:	eb03 4322 	add.w	r3, r3, r2, asr #16
  40939e:	b292      	uxth	r2, r2
  4093a0:	ea42 4203 	orr.w	r2, r2, r3, lsl #16
  4093a4:	45f4      	cmp	ip, lr
  4093a6:	f844 2b04 	str.w	r2, [r4], #4
  4093aa:	ea4f 4323 	mov.w	r3, r3, asr #16
  4093ae:	d8e9      	bhi.n	409384 <__mdiff+0x6c>
  4093b0:	42af      	cmp	r7, r5
  4093b2:	d917      	bls.n	4093e4 <__mdiff+0xcc>
  4093b4:	46a4      	mov	ip, r4
  4093b6:	46ae      	mov	lr, r5
  4093b8:	f85e 2b04 	ldr.w	r2, [lr], #4
  4093bc:	fa13 f382 	uxtah	r3, r3, r2
  4093c0:	1419      	asrs	r1, r3, #16
  4093c2:	eb01 4112 	add.w	r1, r1, r2, lsr #16
  4093c6:	b29b      	uxth	r3, r3
  4093c8:	ea43 4201 	orr.w	r2, r3, r1, lsl #16
  4093cc:	4577      	cmp	r7, lr
  4093ce:	f84c 2b04 	str.w	r2, [ip], #4
  4093d2:	ea4f 4321 	mov.w	r3, r1, asr #16
  4093d6:	d8ef      	bhi.n	4093b8 <__mdiff+0xa0>
  4093d8:	43ed      	mvns	r5, r5
  4093da:	442f      	add	r7, r5
  4093dc:	f027 0703 	bic.w	r7, r7, #3
  4093e0:	3704      	adds	r7, #4
  4093e2:	443c      	add	r4, r7
  4093e4:	3c04      	subs	r4, #4
  4093e6:	b922      	cbnz	r2, 4093f2 <__mdiff+0xda>
  4093e8:	f854 3d04 	ldr.w	r3, [r4, #-4]!
  4093ec:	3e01      	subs	r6, #1
  4093ee:	2b00      	cmp	r3, #0
  4093f0:	d0fa      	beq.n	4093e8 <__mdiff+0xd0>
  4093f2:	6106      	str	r6, [r0, #16]
  4093f4:	e8bd 81f0 	ldmia.w	sp!, {r4, r5, r6, r7, r8, pc}
  4093f8:	2100      	movs	r1, #0
  4093fa:	f7ff fd73 	bl	408ee4 <_Balloc>
  4093fe:	2201      	movs	r2, #1
  409400:	2300      	movs	r3, #0
  409402:	6102      	str	r2, [r0, #16]
  409404:	6143      	str	r3, [r0, #20]
  409406:	e8bd 81f0 	ldmia.w	sp!, {r4, r5, r6, r7, r8, pc}
  40940a:	4674      	mov	r4, lr
  40940c:	e7ab      	b.n	409366 <__mdiff+0x4e>
  40940e:	4633      	mov	r3, r6
  409410:	f106 0414 	add.w	r4, r6, #20
  409414:	f102 0514 	add.w	r5, r2, #20
  409418:	4616      	mov	r6, r2
  40941a:	2701      	movs	r7, #1
  40941c:	4698      	mov	r8, r3
  40941e:	e7a2      	b.n	409366 <__mdiff+0x4e>

00409420 <__d2b>:
  409420:	e92d 41f0 	stmdb	sp!, {r4, r5, r6, r7, r8, lr}
  409424:	b082      	sub	sp, #8
  409426:	2101      	movs	r1, #1
  409428:	461c      	mov	r4, r3
  40942a:	f3c3 570a 	ubfx	r7, r3, #20, #11
  40942e:	4615      	mov	r5, r2
  409430:	9e08      	ldr	r6, [sp, #32]
  409432:	f7ff fd57 	bl	408ee4 <_Balloc>
  409436:	f3c4 0413 	ubfx	r4, r4, #0, #20
  40943a:	4680      	mov	r8, r0
  40943c:	b10f      	cbz	r7, 409442 <__d2b+0x22>
  40943e:	f444 1480 	orr.w	r4, r4, #1048576	; 0x100000
  409442:	9401      	str	r4, [sp, #4]
  409444:	b31d      	cbz	r5, 40948e <__d2b+0x6e>
  409446:	a802      	add	r0, sp, #8
  409448:	f840 5d08 	str.w	r5, [r0, #-8]!
  40944c:	f7ff fdda 	bl	409004 <__lo0bits>
  409450:	2800      	cmp	r0, #0
  409452:	d134      	bne.n	4094be <__d2b+0x9e>
  409454:	e89d 000c 	ldmia.w	sp, {r2, r3}
  409458:	f8c8 2014 	str.w	r2, [r8, #20]
  40945c:	2b00      	cmp	r3, #0
  40945e:	bf0c      	ite	eq
  409460:	2101      	moveq	r1, #1
  409462:	2102      	movne	r1, #2
  409464:	f8c8 3018 	str.w	r3, [r8, #24]
  409468:	f8c8 1010 	str.w	r1, [r8, #16]
  40946c:	b9df      	cbnz	r7, 4094a6 <__d2b+0x86>
  40946e:	eb08 0381 	add.w	r3, r8, r1, lsl #2
  409472:	f2a0 4032 	subw	r0, r0, #1074	; 0x432
  409476:	6030      	str	r0, [r6, #0]
  409478:	6918      	ldr	r0, [r3, #16]
  40947a:	f7ff fda3 	bl	408fc4 <__hi0bits>
  40947e:	9b09      	ldr	r3, [sp, #36]	; 0x24
  409480:	ebc0 1041 	rsb	r0, r0, r1, lsl #5
  409484:	6018      	str	r0, [r3, #0]
  409486:	4640      	mov	r0, r8
  409488:	b002      	add	sp, #8
  40948a:	e8bd 81f0 	ldmia.w	sp!, {r4, r5, r6, r7, r8, pc}
  40948e:	a801      	add	r0, sp, #4
  409490:	f7ff fdb8 	bl	409004 <__lo0bits>
  409494:	9b01      	ldr	r3, [sp, #4]
  409496:	f8c8 3014 	str.w	r3, [r8, #20]
  40949a:	2101      	movs	r1, #1
  40949c:	3020      	adds	r0, #32
  40949e:	f8c8 1010 	str.w	r1, [r8, #16]
  4094a2:	2f00      	cmp	r7, #0
  4094a4:	d0e3      	beq.n	40946e <__d2b+0x4e>
  4094a6:	9b09      	ldr	r3, [sp, #36]	; 0x24
  4094a8:	f2a7 4733 	subw	r7, r7, #1075	; 0x433
  4094ac:	4407      	add	r7, r0
  4094ae:	f1c0 0035 	rsb	r0, r0, #53	; 0x35
  4094b2:	6037      	str	r7, [r6, #0]
  4094b4:	6018      	str	r0, [r3, #0]
  4094b6:	4640      	mov	r0, r8
  4094b8:	b002      	add	sp, #8
  4094ba:	e8bd 81f0 	ldmia.w	sp!, {r4, r5, r6, r7, r8, pc}
  4094be:	e89d 000a 	ldmia.w	sp, {r1, r3}
  4094c2:	f1c0 0220 	rsb	r2, r0, #32
  4094c6:	fa03 f202 	lsl.w	r2, r3, r2
  4094ca:	430a      	orrs	r2, r1
  4094cc:	40c3      	lsrs	r3, r0
  4094ce:	9301      	str	r3, [sp, #4]
  4094d0:	f8c8 2014 	str.w	r2, [r8, #20]
  4094d4:	e7c2      	b.n	40945c <__d2b+0x3c>
  4094d6:	bf00      	nop

004094d8 <_realloc_r>:
  4094d8:	2900      	cmp	r1, #0
  4094da:	f000 8095 	beq.w	409608 <_realloc_r+0x130>
  4094de:	e92d 4ff0 	stmdb	sp!, {r4, r5, r6, r7, r8, r9, sl, fp, lr}
  4094e2:	460d      	mov	r5, r1
  4094e4:	4616      	mov	r6, r2
  4094e6:	b083      	sub	sp, #12
  4094e8:	4680      	mov	r8, r0
  4094ea:	f106 070b 	add.w	r7, r6, #11
  4094ee:	f7ff fced 	bl	408ecc <__malloc_lock>
  4094f2:	f855 ec04 	ldr.w	lr, [r5, #-4]
  4094f6:	2f16      	cmp	r7, #22
  4094f8:	f02e 0403 	bic.w	r4, lr, #3
  4094fc:	f1a5 0908 	sub.w	r9, r5, #8
  409500:	d83c      	bhi.n	40957c <_realloc_r+0xa4>
  409502:	2210      	movs	r2, #16
  409504:	4617      	mov	r7, r2
  409506:	42be      	cmp	r6, r7
  409508:	d83d      	bhi.n	409586 <_realloc_r+0xae>
  40950a:	4294      	cmp	r4, r2
  40950c:	da43      	bge.n	409596 <_realloc_r+0xbe>
  40950e:	4bc4      	ldr	r3, [pc, #784]	; (409820 <_realloc_r+0x348>)
  409510:	6899      	ldr	r1, [r3, #8]
  409512:	eb09 0004 	add.w	r0, r9, r4
  409516:	4288      	cmp	r0, r1
  409518:	f000 80b4 	beq.w	409684 <_realloc_r+0x1ac>
  40951c:	6843      	ldr	r3, [r0, #4]
  40951e:	f023 0101 	bic.w	r1, r3, #1
  409522:	4401      	add	r1, r0
  409524:	6849      	ldr	r1, [r1, #4]
  409526:	07c9      	lsls	r1, r1, #31
  409528:	d54c      	bpl.n	4095c4 <_realloc_r+0xec>
  40952a:	f01e 0f01 	tst.w	lr, #1
  40952e:	f000 809b 	beq.w	409668 <_realloc_r+0x190>
  409532:	4631      	mov	r1, r6
  409534:	4640      	mov	r0, r8
  409536:	f7ff f8af 	bl	408698 <_malloc_r>
  40953a:	4606      	mov	r6, r0
  40953c:	2800      	cmp	r0, #0
  40953e:	d03a      	beq.n	4095b6 <_realloc_r+0xde>
  409540:	f855 3c04 	ldr.w	r3, [r5, #-4]
  409544:	f023 0301 	bic.w	r3, r3, #1
  409548:	444b      	add	r3, r9
  40954a:	f1a0 0208 	sub.w	r2, r0, #8
  40954e:	429a      	cmp	r2, r3
  409550:	f000 8121 	beq.w	409796 <_realloc_r+0x2be>
  409554:	1f22      	subs	r2, r4, #4
  409556:	2a24      	cmp	r2, #36	; 0x24
  409558:	f200 8107 	bhi.w	40976a <_realloc_r+0x292>
  40955c:	2a13      	cmp	r2, #19
  40955e:	f200 80db 	bhi.w	409718 <_realloc_r+0x240>
  409562:	4603      	mov	r3, r0
  409564:	462a      	mov	r2, r5
  409566:	6811      	ldr	r1, [r2, #0]
  409568:	6019      	str	r1, [r3, #0]
  40956a:	6851      	ldr	r1, [r2, #4]
  40956c:	6059      	str	r1, [r3, #4]
  40956e:	6892      	ldr	r2, [r2, #8]
  409570:	609a      	str	r2, [r3, #8]
  409572:	4629      	mov	r1, r5
  409574:	4640      	mov	r0, r8
  409576:	f7fe ff97 	bl	4084a8 <_free_r>
  40957a:	e01c      	b.n	4095b6 <_realloc_r+0xde>
  40957c:	f027 0707 	bic.w	r7, r7, #7
  409580:	2f00      	cmp	r7, #0
  409582:	463a      	mov	r2, r7
  409584:	dabf      	bge.n	409506 <_realloc_r+0x2e>
  409586:	2600      	movs	r6, #0
  409588:	230c      	movs	r3, #12
  40958a:	4630      	mov	r0, r6
  40958c:	f8c8 3000 	str.w	r3, [r8]
  409590:	b003      	add	sp, #12
  409592:	e8bd 8ff0 	ldmia.w	sp!, {r4, r5, r6, r7, r8, r9, sl, fp, pc}
  409596:	462e      	mov	r6, r5
  409598:	1be3      	subs	r3, r4, r7
  40959a:	2b0f      	cmp	r3, #15
  40959c:	d81e      	bhi.n	4095dc <_realloc_r+0x104>
  40959e:	f8d9 3004 	ldr.w	r3, [r9, #4]
  4095a2:	f003 0301 	and.w	r3, r3, #1
  4095a6:	4323      	orrs	r3, r4
  4095a8:	444c      	add	r4, r9
  4095aa:	f8c9 3004 	str.w	r3, [r9, #4]
  4095ae:	6863      	ldr	r3, [r4, #4]
  4095b0:	f043 0301 	orr.w	r3, r3, #1
  4095b4:	6063      	str	r3, [r4, #4]
  4095b6:	4640      	mov	r0, r8
  4095b8:	f7ff fc8e 	bl	408ed8 <__malloc_unlock>
  4095bc:	4630      	mov	r0, r6
  4095be:	b003      	add	sp, #12
  4095c0:	e8bd 8ff0 	ldmia.w	sp!, {r4, r5, r6, r7, r8, r9, sl, fp, pc}
  4095c4:	f023 0303 	bic.w	r3, r3, #3
  4095c8:	18e1      	adds	r1, r4, r3
  4095ca:	4291      	cmp	r1, r2
  4095cc:	db1f      	blt.n	40960e <_realloc_r+0x136>
  4095ce:	68c3      	ldr	r3, [r0, #12]
  4095d0:	6882      	ldr	r2, [r0, #8]
  4095d2:	462e      	mov	r6, r5
  4095d4:	60d3      	str	r3, [r2, #12]
  4095d6:	460c      	mov	r4, r1
  4095d8:	609a      	str	r2, [r3, #8]
  4095da:	e7dd      	b.n	409598 <_realloc_r+0xc0>
  4095dc:	f8d9 2004 	ldr.w	r2, [r9, #4]
  4095e0:	eb09 0107 	add.w	r1, r9, r7
  4095e4:	f002 0201 	and.w	r2, r2, #1
  4095e8:	444c      	add	r4, r9
  4095ea:	f043 0301 	orr.w	r3, r3, #1
  4095ee:	4317      	orrs	r7, r2
  4095f0:	f8c9 7004 	str.w	r7, [r9, #4]
  4095f4:	604b      	str	r3, [r1, #4]
  4095f6:	6863      	ldr	r3, [r4, #4]
  4095f8:	f043 0301 	orr.w	r3, r3, #1
  4095fc:	3108      	adds	r1, #8
  4095fe:	6063      	str	r3, [r4, #4]
  409600:	4640      	mov	r0, r8
  409602:	f7fe ff51 	bl	4084a8 <_free_r>
  409606:	e7d6      	b.n	4095b6 <_realloc_r+0xde>
  409608:	4611      	mov	r1, r2
  40960a:	f7ff b845 	b.w	408698 <_malloc_r>
  40960e:	f01e 0f01 	tst.w	lr, #1
  409612:	d18e      	bne.n	409532 <_realloc_r+0x5a>
  409614:	f855 1c08 	ldr.w	r1, [r5, #-8]
  409618:	eba9 0a01 	sub.w	sl, r9, r1
  40961c:	f8da 1004 	ldr.w	r1, [sl, #4]
  409620:	f021 0103 	bic.w	r1, r1, #3
  409624:	440b      	add	r3, r1
  409626:	4423      	add	r3, r4
  409628:	4293      	cmp	r3, r2
  40962a:	db25      	blt.n	409678 <_realloc_r+0x1a0>
  40962c:	68c2      	ldr	r2, [r0, #12]
  40962e:	6881      	ldr	r1, [r0, #8]
  409630:	4656      	mov	r6, sl
  409632:	60ca      	str	r2, [r1, #12]
  409634:	6091      	str	r1, [r2, #8]
  409636:	f8da 100c 	ldr.w	r1, [sl, #12]
  40963a:	f856 0f08 	ldr.w	r0, [r6, #8]!
  40963e:	1f22      	subs	r2, r4, #4
  409640:	2a24      	cmp	r2, #36	; 0x24
  409642:	60c1      	str	r1, [r0, #12]
  409644:	6088      	str	r0, [r1, #8]
  409646:	f200 8094 	bhi.w	409772 <_realloc_r+0x29a>
  40964a:	2a13      	cmp	r2, #19
  40964c:	d96f      	bls.n	40972e <_realloc_r+0x256>
  40964e:	6829      	ldr	r1, [r5, #0]
  409650:	f8ca 1008 	str.w	r1, [sl, #8]
  409654:	6869      	ldr	r1, [r5, #4]
  409656:	f8ca 100c 	str.w	r1, [sl, #12]
  40965a:	2a1b      	cmp	r2, #27
  40965c:	f200 80a2 	bhi.w	4097a4 <_realloc_r+0x2cc>
  409660:	3508      	adds	r5, #8
  409662:	f10a 0210 	add.w	r2, sl, #16
  409666:	e063      	b.n	409730 <_realloc_r+0x258>
  409668:	f855 3c08 	ldr.w	r3, [r5, #-8]
  40966c:	eba9 0a03 	sub.w	sl, r9, r3
  409670:	f8da 1004 	ldr.w	r1, [sl, #4]
  409674:	f021 0103 	bic.w	r1, r1, #3
  409678:	1863      	adds	r3, r4, r1
  40967a:	4293      	cmp	r3, r2
  40967c:	f6ff af59 	blt.w	409532 <_realloc_r+0x5a>
  409680:	4656      	mov	r6, sl
  409682:	e7d8      	b.n	409636 <_realloc_r+0x15e>
  409684:	6841      	ldr	r1, [r0, #4]
  409686:	f021 0b03 	bic.w	fp, r1, #3
  40968a:	44a3      	add	fp, r4
  40968c:	f107 0010 	add.w	r0, r7, #16
  409690:	4583      	cmp	fp, r0
  409692:	da56      	bge.n	409742 <_realloc_r+0x26a>
  409694:	f01e 0f01 	tst.w	lr, #1
  409698:	f47f af4b 	bne.w	409532 <_realloc_r+0x5a>
  40969c:	f855 1c08 	ldr.w	r1, [r5, #-8]
  4096a0:	eba9 0a01 	sub.w	sl, r9, r1
  4096a4:	f8da 1004 	ldr.w	r1, [sl, #4]
  4096a8:	f021 0103 	bic.w	r1, r1, #3
  4096ac:	448b      	add	fp, r1
  4096ae:	4558      	cmp	r0, fp
  4096b0:	dce2      	bgt.n	409678 <_realloc_r+0x1a0>
  4096b2:	4656      	mov	r6, sl
  4096b4:	f8da 100c 	ldr.w	r1, [sl, #12]
  4096b8:	f856 0f08 	ldr.w	r0, [r6, #8]!
  4096bc:	1f22      	subs	r2, r4, #4
  4096be:	2a24      	cmp	r2, #36	; 0x24
  4096c0:	60c1      	str	r1, [r0, #12]
  4096c2:	6088      	str	r0, [r1, #8]
  4096c4:	f200 808f 	bhi.w	4097e6 <_realloc_r+0x30e>
  4096c8:	2a13      	cmp	r2, #19
  4096ca:	f240 808a 	bls.w	4097e2 <_realloc_r+0x30a>
  4096ce:	6829      	ldr	r1, [r5, #0]
  4096d0:	f8ca 1008 	str.w	r1, [sl, #8]
  4096d4:	6869      	ldr	r1, [r5, #4]
  4096d6:	f8ca 100c 	str.w	r1, [sl, #12]
  4096da:	2a1b      	cmp	r2, #27
  4096dc:	f200 808a 	bhi.w	4097f4 <_realloc_r+0x31c>
  4096e0:	3508      	adds	r5, #8
  4096e2:	f10a 0210 	add.w	r2, sl, #16
  4096e6:	6829      	ldr	r1, [r5, #0]
  4096e8:	6011      	str	r1, [r2, #0]
  4096ea:	6869      	ldr	r1, [r5, #4]
  4096ec:	6051      	str	r1, [r2, #4]
  4096ee:	68a9      	ldr	r1, [r5, #8]
  4096f0:	6091      	str	r1, [r2, #8]
  4096f2:	eb0a 0107 	add.w	r1, sl, r7
  4096f6:	ebab 0207 	sub.w	r2, fp, r7
  4096fa:	f042 0201 	orr.w	r2, r2, #1
  4096fe:	6099      	str	r1, [r3, #8]
  409700:	604a      	str	r2, [r1, #4]
  409702:	f8da 3004 	ldr.w	r3, [sl, #4]
  409706:	f003 0301 	and.w	r3, r3, #1
  40970a:	431f      	orrs	r7, r3
  40970c:	4640      	mov	r0, r8
  40970e:	f8ca 7004 	str.w	r7, [sl, #4]
  409712:	f7ff fbe1 	bl	408ed8 <__malloc_unlock>
  409716:	e751      	b.n	4095bc <_realloc_r+0xe4>
  409718:	682b      	ldr	r3, [r5, #0]
  40971a:	6003      	str	r3, [r0, #0]
  40971c:	686b      	ldr	r3, [r5, #4]
  40971e:	6043      	str	r3, [r0, #4]
  409720:	2a1b      	cmp	r2, #27
  409722:	d82d      	bhi.n	409780 <_realloc_r+0x2a8>
  409724:	f100 0308 	add.w	r3, r0, #8
  409728:	f105 0208 	add.w	r2, r5, #8
  40972c:	e71b      	b.n	409566 <_realloc_r+0x8e>
  40972e:	4632      	mov	r2, r6
  409730:	6829      	ldr	r1, [r5, #0]
  409732:	6011      	str	r1, [r2, #0]
  409734:	6869      	ldr	r1, [r5, #4]
  409736:	6051      	str	r1, [r2, #4]
  409738:	68a9      	ldr	r1, [r5, #8]
  40973a:	6091      	str	r1, [r2, #8]
  40973c:	461c      	mov	r4, r3
  40973e:	46d1      	mov	r9, sl
  409740:	e72a      	b.n	409598 <_realloc_r+0xc0>
  409742:	eb09 0107 	add.w	r1, r9, r7
  409746:	ebab 0b07 	sub.w	fp, fp, r7
  40974a:	f04b 0201 	orr.w	r2, fp, #1
  40974e:	6099      	str	r1, [r3, #8]
  409750:	604a      	str	r2, [r1, #4]
  409752:	f855 3c04 	ldr.w	r3, [r5, #-4]
  409756:	f003 0301 	and.w	r3, r3, #1
  40975a:	431f      	orrs	r7, r3
  40975c:	4640      	mov	r0, r8
  40975e:	f845 7c04 	str.w	r7, [r5, #-4]
  409762:	f7ff fbb9 	bl	408ed8 <__malloc_unlock>
  409766:	462e      	mov	r6, r5
  409768:	e728      	b.n	4095bc <_realloc_r+0xe4>
  40976a:	4629      	mov	r1, r5
  40976c:	f7ff fb4a 	bl	408e04 <memmove>
  409770:	e6ff      	b.n	409572 <_realloc_r+0x9a>
  409772:	4629      	mov	r1, r5
  409774:	4630      	mov	r0, r6
  409776:	461c      	mov	r4, r3
  409778:	46d1      	mov	r9, sl
  40977a:	f7ff fb43 	bl	408e04 <memmove>
  40977e:	e70b      	b.n	409598 <_realloc_r+0xc0>
  409780:	68ab      	ldr	r3, [r5, #8]
  409782:	6083      	str	r3, [r0, #8]
  409784:	68eb      	ldr	r3, [r5, #12]
  409786:	60c3      	str	r3, [r0, #12]
  409788:	2a24      	cmp	r2, #36	; 0x24
  40978a:	d017      	beq.n	4097bc <_realloc_r+0x2e4>
  40978c:	f100 0310 	add.w	r3, r0, #16
  409790:	f105 0210 	add.w	r2, r5, #16
  409794:	e6e7      	b.n	409566 <_realloc_r+0x8e>
  409796:	f850 3c04 	ldr.w	r3, [r0, #-4]
  40979a:	f023 0303 	bic.w	r3, r3, #3
  40979e:	441c      	add	r4, r3
  4097a0:	462e      	mov	r6, r5
  4097a2:	e6f9      	b.n	409598 <_realloc_r+0xc0>
  4097a4:	68a9      	ldr	r1, [r5, #8]
  4097a6:	f8ca 1010 	str.w	r1, [sl, #16]
  4097aa:	68e9      	ldr	r1, [r5, #12]
  4097ac:	f8ca 1014 	str.w	r1, [sl, #20]
  4097b0:	2a24      	cmp	r2, #36	; 0x24
  4097b2:	d00c      	beq.n	4097ce <_realloc_r+0x2f6>
  4097b4:	3510      	adds	r5, #16
  4097b6:	f10a 0218 	add.w	r2, sl, #24
  4097ba:	e7b9      	b.n	409730 <_realloc_r+0x258>
  4097bc:	692b      	ldr	r3, [r5, #16]
  4097be:	6103      	str	r3, [r0, #16]
  4097c0:	696b      	ldr	r3, [r5, #20]
  4097c2:	6143      	str	r3, [r0, #20]
  4097c4:	f105 0218 	add.w	r2, r5, #24
  4097c8:	f100 0318 	add.w	r3, r0, #24
  4097cc:	e6cb      	b.n	409566 <_realloc_r+0x8e>
  4097ce:	692a      	ldr	r2, [r5, #16]
  4097d0:	f8ca 2018 	str.w	r2, [sl, #24]
  4097d4:	696a      	ldr	r2, [r5, #20]
  4097d6:	f8ca 201c 	str.w	r2, [sl, #28]
  4097da:	3518      	adds	r5, #24
  4097dc:	f10a 0220 	add.w	r2, sl, #32
  4097e0:	e7a6      	b.n	409730 <_realloc_r+0x258>
  4097e2:	4632      	mov	r2, r6
  4097e4:	e77f      	b.n	4096e6 <_realloc_r+0x20e>
  4097e6:	4629      	mov	r1, r5
  4097e8:	4630      	mov	r0, r6
  4097ea:	9301      	str	r3, [sp, #4]
  4097ec:	f7ff fb0a 	bl	408e04 <memmove>
  4097f0:	9b01      	ldr	r3, [sp, #4]
  4097f2:	e77e      	b.n	4096f2 <_realloc_r+0x21a>
  4097f4:	68a9      	ldr	r1, [r5, #8]
  4097f6:	f8ca 1010 	str.w	r1, [sl, #16]
  4097fa:	68e9      	ldr	r1, [r5, #12]
  4097fc:	f8ca 1014 	str.w	r1, [sl, #20]
  409800:	2a24      	cmp	r2, #36	; 0x24
  409802:	d003      	beq.n	40980c <_realloc_r+0x334>
  409804:	3510      	adds	r5, #16
  409806:	f10a 0218 	add.w	r2, sl, #24
  40980a:	e76c      	b.n	4096e6 <_realloc_r+0x20e>
  40980c:	692a      	ldr	r2, [r5, #16]
  40980e:	f8ca 2018 	str.w	r2, [sl, #24]
  409812:	696a      	ldr	r2, [r5, #20]
  409814:	f8ca 201c 	str.w	r2, [sl, #28]
  409818:	3518      	adds	r5, #24
  40981a:	f10a 0220 	add.w	r2, sl, #32
  40981e:	e762      	b.n	4096e6 <_realloc_r+0x20e>
  409820:	200009e8 	.word	0x200009e8

00409824 <_sbrk_r>:
  409824:	b538      	push	{r3, r4, r5, lr}
  409826:	4c07      	ldr	r4, [pc, #28]	; (409844 <_sbrk_r+0x20>)
  409828:	2300      	movs	r3, #0
  40982a:	4605      	mov	r5, r0
  40982c:	4608      	mov	r0, r1
  40982e:	6023      	str	r3, [r4, #0]
  409830:	f7f9 fcfa 	bl	403228 <_sbrk>
  409834:	1c43      	adds	r3, r0, #1
  409836:	d000      	beq.n	40983a <_sbrk_r+0x16>
  409838:	bd38      	pop	{r3, r4, r5, pc}
  40983a:	6823      	ldr	r3, [r4, #0]
  40983c:	2b00      	cmp	r3, #0
  40983e:	d0fb      	beq.n	409838 <_sbrk_r+0x14>
  409840:	602b      	str	r3, [r5, #0]
  409842:	bd38      	pop	{r3, r4, r5, pc}
  409844:	200061a4 	.word	0x200061a4

00409848 <__ssprint_r>:
  409848:	e92d 4ff0 	stmdb	sp!, {r4, r5, r6, r7, r8, r9, sl, fp, lr}
  40984c:	6893      	ldr	r3, [r2, #8]
  40984e:	b083      	sub	sp, #12
  409850:	4690      	mov	r8, r2
  409852:	2b00      	cmp	r3, #0
  409854:	d070      	beq.n	409938 <__ssprint_r+0xf0>
  409856:	4682      	mov	sl, r0
  409858:	460c      	mov	r4, r1
  40985a:	6817      	ldr	r7, [r2, #0]
  40985c:	688d      	ldr	r5, [r1, #8]
  40985e:	6808      	ldr	r0, [r1, #0]
  409860:	e042      	b.n	4098e8 <__ssprint_r+0xa0>
  409862:	89a3      	ldrh	r3, [r4, #12]
  409864:	f413 6f90 	tst.w	r3, #1152	; 0x480
  409868:	d02e      	beq.n	4098c8 <__ssprint_r+0x80>
  40986a:	6965      	ldr	r5, [r4, #20]
  40986c:	6921      	ldr	r1, [r4, #16]
  40986e:	eb05 0545 	add.w	r5, r5, r5, lsl #1
  409872:	eba0 0b01 	sub.w	fp, r0, r1
  409876:	eb05 75d5 	add.w	r5, r5, r5, lsr #31
  40987a:	f10b 0001 	add.w	r0, fp, #1
  40987e:	106d      	asrs	r5, r5, #1
  409880:	4430      	add	r0, r6
  409882:	42a8      	cmp	r0, r5
  409884:	462a      	mov	r2, r5
  409886:	bf84      	itt	hi
  409888:	4605      	movhi	r5, r0
  40988a:	462a      	movhi	r2, r5
  40988c:	055b      	lsls	r3, r3, #21
  40988e:	d538      	bpl.n	409902 <__ssprint_r+0xba>
  409890:	4611      	mov	r1, r2
  409892:	4650      	mov	r0, sl
  409894:	f7fe ff00 	bl	408698 <_malloc_r>
  409898:	2800      	cmp	r0, #0
  40989a:	d03c      	beq.n	409916 <__ssprint_r+0xce>
  40989c:	465a      	mov	r2, fp
  40989e:	6921      	ldr	r1, [r4, #16]
  4098a0:	9001      	str	r0, [sp, #4]
  4098a2:	f7ff fa15 	bl	408cd0 <memcpy>
  4098a6:	89a2      	ldrh	r2, [r4, #12]
  4098a8:	9b01      	ldr	r3, [sp, #4]
  4098aa:	f422 6290 	bic.w	r2, r2, #1152	; 0x480
  4098ae:	f042 0280 	orr.w	r2, r2, #128	; 0x80
  4098b2:	81a2      	strh	r2, [r4, #12]
  4098b4:	eba5 020b 	sub.w	r2, r5, fp
  4098b8:	eb03 000b 	add.w	r0, r3, fp
  4098bc:	6165      	str	r5, [r4, #20]
  4098be:	6123      	str	r3, [r4, #16]
  4098c0:	6020      	str	r0, [r4, #0]
  4098c2:	60a2      	str	r2, [r4, #8]
  4098c4:	4635      	mov	r5, r6
  4098c6:	46b3      	mov	fp, r6
  4098c8:	465a      	mov	r2, fp
  4098ca:	4649      	mov	r1, r9
  4098cc:	f7ff fa9a 	bl	408e04 <memmove>
  4098d0:	f8d8 3008 	ldr.w	r3, [r8, #8]
  4098d4:	68a2      	ldr	r2, [r4, #8]
  4098d6:	6820      	ldr	r0, [r4, #0]
  4098d8:	1b55      	subs	r5, r2, r5
  4098da:	4458      	add	r0, fp
  4098dc:	1b9e      	subs	r6, r3, r6
  4098de:	60a5      	str	r5, [r4, #8]
  4098e0:	6020      	str	r0, [r4, #0]
  4098e2:	f8c8 6008 	str.w	r6, [r8, #8]
  4098e6:	b33e      	cbz	r6, 409938 <__ssprint_r+0xf0>
  4098e8:	687e      	ldr	r6, [r7, #4]
  4098ea:	463b      	mov	r3, r7
  4098ec:	3708      	adds	r7, #8
  4098ee:	2e00      	cmp	r6, #0
  4098f0:	d0fa      	beq.n	4098e8 <__ssprint_r+0xa0>
  4098f2:	42ae      	cmp	r6, r5
  4098f4:	f8d3 9000 	ldr.w	r9, [r3]
  4098f8:	46ab      	mov	fp, r5
  4098fa:	d2b2      	bcs.n	409862 <__ssprint_r+0x1a>
  4098fc:	4635      	mov	r5, r6
  4098fe:	46b3      	mov	fp, r6
  409900:	e7e2      	b.n	4098c8 <__ssprint_r+0x80>
  409902:	4650      	mov	r0, sl
  409904:	f7ff fde8 	bl	4094d8 <_realloc_r>
  409908:	4603      	mov	r3, r0
  40990a:	2800      	cmp	r0, #0
  40990c:	d1d2      	bne.n	4098b4 <__ssprint_r+0x6c>
  40990e:	6921      	ldr	r1, [r4, #16]
  409910:	4650      	mov	r0, sl
  409912:	f7fe fdc9 	bl	4084a8 <_free_r>
  409916:	230c      	movs	r3, #12
  409918:	f8ca 3000 	str.w	r3, [sl]
  40991c:	89a3      	ldrh	r3, [r4, #12]
  40991e:	2200      	movs	r2, #0
  409920:	f043 0340 	orr.w	r3, r3, #64	; 0x40
  409924:	f04f 30ff 	mov.w	r0, #4294967295
  409928:	81a3      	strh	r3, [r4, #12]
  40992a:	f8c8 2008 	str.w	r2, [r8, #8]
  40992e:	f8c8 2004 	str.w	r2, [r8, #4]
  409932:	b003      	add	sp, #12
  409934:	e8bd 8ff0 	ldmia.w	sp!, {r4, r5, r6, r7, r8, r9, sl, fp, pc}
  409938:	2000      	movs	r0, #0
  40993a:	f8c8 0004 	str.w	r0, [r8, #4]
  40993e:	b003      	add	sp, #12
  409940:	e8bd 8ff0 	ldmia.w	sp!, {r4, r5, r6, r7, r8, r9, sl, fp, pc}

00409944 <__ascii_wctomb>:
  409944:	b121      	cbz	r1, 409950 <__ascii_wctomb+0xc>
  409946:	2aff      	cmp	r2, #255	; 0xff
  409948:	d804      	bhi.n	409954 <__ascii_wctomb+0x10>
  40994a:	700a      	strb	r2, [r1, #0]
  40994c:	2001      	movs	r0, #1
  40994e:	4770      	bx	lr
  409950:	4608      	mov	r0, r1
  409952:	4770      	bx	lr
  409954:	238a      	movs	r3, #138	; 0x8a
  409956:	6003      	str	r3, [r0, #0]
  409958:	f04f 30ff 	mov.w	r0, #4294967295
  40995c:	4770      	bx	lr
  40995e:	bf00      	nop

00409960 <__register_exitproc>:
  409960:	e92d 43f8 	stmdb	sp!, {r3, r4, r5, r6, r7, r8, r9, lr}
  409964:	4d2c      	ldr	r5, [pc, #176]	; (409a18 <__register_exitproc+0xb8>)
  409966:	4606      	mov	r6, r0
  409968:	6828      	ldr	r0, [r5, #0]
  40996a:	4698      	mov	r8, r3
  40996c:	460f      	mov	r7, r1
  40996e:	4691      	mov	r9, r2
  409970:	f7fe fe8e 	bl	408690 <__retarget_lock_acquire_recursive>
  409974:	4b29      	ldr	r3, [pc, #164]	; (409a1c <__register_exitproc+0xbc>)
  409976:	681c      	ldr	r4, [r3, #0]
  409978:	f8d4 3148 	ldr.w	r3, [r4, #328]	; 0x148
  40997c:	2b00      	cmp	r3, #0
  40997e:	d03e      	beq.n	4099fe <__register_exitproc+0x9e>
  409980:	685a      	ldr	r2, [r3, #4]
  409982:	2a1f      	cmp	r2, #31
  409984:	dc1c      	bgt.n	4099c0 <__register_exitproc+0x60>
  409986:	f102 0e01 	add.w	lr, r2, #1
  40998a:	b176      	cbz	r6, 4099aa <__register_exitproc+0x4a>
  40998c:	eb03 0182 	add.w	r1, r3, r2, lsl #2
  409990:	2401      	movs	r4, #1
  409992:	f8c1 9088 	str.w	r9, [r1, #136]	; 0x88
  409996:	f8d3 0188 	ldr.w	r0, [r3, #392]	; 0x188
  40999a:	4094      	lsls	r4, r2
  40999c:	4320      	orrs	r0, r4
  40999e:	2e02      	cmp	r6, #2
  4099a0:	f8c3 0188 	str.w	r0, [r3, #392]	; 0x188
  4099a4:	f8c1 8108 	str.w	r8, [r1, #264]	; 0x108
  4099a8:	d023      	beq.n	4099f2 <__register_exitproc+0x92>
  4099aa:	3202      	adds	r2, #2
  4099ac:	f8c3 e004 	str.w	lr, [r3, #4]
  4099b0:	6828      	ldr	r0, [r5, #0]
  4099b2:	f843 7022 	str.w	r7, [r3, r2, lsl #2]
  4099b6:	f7fe fe6d 	bl	408694 <__retarget_lock_release_recursive>
  4099ba:	2000      	movs	r0, #0
  4099bc:	e8bd 83f8 	ldmia.w	sp!, {r3, r4, r5, r6, r7, r8, r9, pc}
  4099c0:	4b17      	ldr	r3, [pc, #92]	; (409a20 <__register_exitproc+0xc0>)
  4099c2:	b30b      	cbz	r3, 409a08 <__register_exitproc+0xa8>
  4099c4:	f44f 70c8 	mov.w	r0, #400	; 0x190
  4099c8:	f3af 8000 	nop.w
  4099cc:	4603      	mov	r3, r0
  4099ce:	b1d8      	cbz	r0, 409a08 <__register_exitproc+0xa8>
  4099d0:	f8d4 2148 	ldr.w	r2, [r4, #328]	; 0x148
  4099d4:	6002      	str	r2, [r0, #0]
  4099d6:	2100      	movs	r1, #0
  4099d8:	6041      	str	r1, [r0, #4]
  4099da:	460a      	mov	r2, r1
  4099dc:	f8c4 0148 	str.w	r0, [r4, #328]	; 0x148
  4099e0:	f04f 0e01 	mov.w	lr, #1
  4099e4:	f8c0 1188 	str.w	r1, [r0, #392]	; 0x188
  4099e8:	f8c0 118c 	str.w	r1, [r0, #396]	; 0x18c
  4099ec:	2e00      	cmp	r6, #0
  4099ee:	d0dc      	beq.n	4099aa <__register_exitproc+0x4a>
  4099f0:	e7cc      	b.n	40998c <__register_exitproc+0x2c>
  4099f2:	f8d3 118c 	ldr.w	r1, [r3, #396]	; 0x18c
  4099f6:	430c      	orrs	r4, r1
  4099f8:	f8c3 418c 	str.w	r4, [r3, #396]	; 0x18c
  4099fc:	e7d5      	b.n	4099aa <__register_exitproc+0x4a>
  4099fe:	f504 73a6 	add.w	r3, r4, #332	; 0x14c
  409a02:	f8c4 3148 	str.w	r3, [r4, #328]	; 0x148
  409a06:	e7bb      	b.n	409980 <__register_exitproc+0x20>
  409a08:	6828      	ldr	r0, [r5, #0]
  409a0a:	f7fe fe43 	bl	408694 <__retarget_lock_release_recursive>
  409a0e:	f04f 30ff 	mov.w	r0, #4294967295
  409a12:	e8bd 83f8 	ldmia.w	sp!, {r3, r4, r5, r6, r7, r8, r9, pc}
  409a16:	bf00      	nop
  409a18:	20000878 	.word	0x20000878
  409a1c:	0040a3ec 	.word	0x0040a3ec
  409a20:	00000000 	.word	0x00000000

00409a24 <_calloc_r>:
  409a24:	b510      	push	{r4, lr}
  409a26:	fb02 f101 	mul.w	r1, r2, r1
  409a2a:	f7fe fe35 	bl	408698 <_malloc_r>
  409a2e:	4604      	mov	r4, r0
  409a30:	b1d8      	cbz	r0, 409a6a <_calloc_r+0x46>
  409a32:	f850 2c04 	ldr.w	r2, [r0, #-4]
  409a36:	f022 0203 	bic.w	r2, r2, #3
  409a3a:	3a04      	subs	r2, #4
  409a3c:	2a24      	cmp	r2, #36	; 0x24
  409a3e:	d818      	bhi.n	409a72 <_calloc_r+0x4e>
  409a40:	2a13      	cmp	r2, #19
  409a42:	d914      	bls.n	409a6e <_calloc_r+0x4a>
  409a44:	2300      	movs	r3, #0
  409a46:	2a1b      	cmp	r2, #27
  409a48:	6003      	str	r3, [r0, #0]
  409a4a:	6043      	str	r3, [r0, #4]
  409a4c:	d916      	bls.n	409a7c <_calloc_r+0x58>
  409a4e:	2a24      	cmp	r2, #36	; 0x24
  409a50:	6083      	str	r3, [r0, #8]
  409a52:	60c3      	str	r3, [r0, #12]
  409a54:	bf11      	iteee	ne
  409a56:	f100 0210 	addne.w	r2, r0, #16
  409a5a:	6103      	streq	r3, [r0, #16]
  409a5c:	6143      	streq	r3, [r0, #20]
  409a5e:	f100 0218 	addeq.w	r2, r0, #24
  409a62:	2300      	movs	r3, #0
  409a64:	6013      	str	r3, [r2, #0]
  409a66:	6053      	str	r3, [r2, #4]
  409a68:	6093      	str	r3, [r2, #8]
  409a6a:	4620      	mov	r0, r4
  409a6c:	bd10      	pop	{r4, pc}
  409a6e:	4602      	mov	r2, r0
  409a70:	e7f7      	b.n	409a62 <_calloc_r+0x3e>
  409a72:	2100      	movs	r1, #0
  409a74:	f7fb fff4 	bl	405a60 <memset>
  409a78:	4620      	mov	r0, r4
  409a7a:	bd10      	pop	{r4, pc}
  409a7c:	f100 0208 	add.w	r2, r0, #8
  409a80:	e7ef      	b.n	409a62 <_calloc_r+0x3e>
  409a82:	bf00      	nop

00409a84 <__gedf2>:
  409a84:	f04f 3cff 	mov.w	ip, #4294967295
  409a88:	e006      	b.n	409a98 <__cmpdf2+0x4>
  409a8a:	bf00      	nop

00409a8c <__ledf2>:
  409a8c:	f04f 0c01 	mov.w	ip, #1
  409a90:	e002      	b.n	409a98 <__cmpdf2+0x4>
  409a92:	bf00      	nop

00409a94 <__cmpdf2>:
  409a94:	f04f 0c01 	mov.w	ip, #1
  409a98:	f84d cd04 	str.w	ip, [sp, #-4]!
  409a9c:	ea4f 0c41 	mov.w	ip, r1, lsl #1
  409aa0:	ea7f 5c6c 	mvns.w	ip, ip, asr #21
  409aa4:	ea4f 0c43 	mov.w	ip, r3, lsl #1
  409aa8:	bf18      	it	ne
  409aaa:	ea7f 5c6c 	mvnsne.w	ip, ip, asr #21
  409aae:	d01b      	beq.n	409ae8 <__cmpdf2+0x54>
  409ab0:	b001      	add	sp, #4
  409ab2:	ea50 0c41 	orrs.w	ip, r0, r1, lsl #1
  409ab6:	bf0c      	ite	eq
  409ab8:	ea52 0c43 	orrseq.w	ip, r2, r3, lsl #1
  409abc:	ea91 0f03 	teqne	r1, r3
  409ac0:	bf02      	ittt	eq
  409ac2:	ea90 0f02 	teqeq	r0, r2
  409ac6:	2000      	moveq	r0, #0
  409ac8:	4770      	bxeq	lr
  409aca:	f110 0f00 	cmn.w	r0, #0
  409ace:	ea91 0f03 	teq	r1, r3
  409ad2:	bf58      	it	pl
  409ad4:	4299      	cmppl	r1, r3
  409ad6:	bf08      	it	eq
  409ad8:	4290      	cmpeq	r0, r2
  409ada:	bf2c      	ite	cs
  409adc:	17d8      	asrcs	r0, r3, #31
  409ade:	ea6f 70e3 	mvncc.w	r0, r3, asr #31
  409ae2:	f040 0001 	orr.w	r0, r0, #1
  409ae6:	4770      	bx	lr
  409ae8:	ea4f 0c41 	mov.w	ip, r1, lsl #1
  409aec:	ea7f 5c6c 	mvns.w	ip, ip, asr #21
  409af0:	d102      	bne.n	409af8 <__cmpdf2+0x64>
  409af2:	ea50 3c01 	orrs.w	ip, r0, r1, lsl #12
  409af6:	d107      	bne.n	409b08 <__cmpdf2+0x74>
  409af8:	ea4f 0c43 	mov.w	ip, r3, lsl #1
  409afc:	ea7f 5c6c 	mvns.w	ip, ip, asr #21
  409b00:	d1d6      	bne.n	409ab0 <__cmpdf2+0x1c>
  409b02:	ea52 3c03 	orrs.w	ip, r2, r3, lsl #12
  409b06:	d0d3      	beq.n	409ab0 <__cmpdf2+0x1c>
  409b08:	f85d 0b04 	ldr.w	r0, [sp], #4
  409b0c:	4770      	bx	lr
  409b0e:	bf00      	nop

00409b10 <__aeabi_cdrcmple>:
  409b10:	4684      	mov	ip, r0
  409b12:	4610      	mov	r0, r2
  409b14:	4662      	mov	r2, ip
  409b16:	468c      	mov	ip, r1
  409b18:	4619      	mov	r1, r3
  409b1a:	4663      	mov	r3, ip
  409b1c:	e000      	b.n	409b20 <__aeabi_cdcmpeq>
  409b1e:	bf00      	nop

00409b20 <__aeabi_cdcmpeq>:
  409b20:	b501      	push	{r0, lr}
  409b22:	f7ff ffb7 	bl	409a94 <__cmpdf2>
  409b26:	2800      	cmp	r0, #0
  409b28:	bf48      	it	mi
  409b2a:	f110 0f00 	cmnmi.w	r0, #0
  409b2e:	bd01      	pop	{r0, pc}

00409b30 <__aeabi_dcmpeq>:
  409b30:	f84d ed08 	str.w	lr, [sp, #-8]!
  409b34:	f7ff fff4 	bl	409b20 <__aeabi_cdcmpeq>
  409b38:	bf0c      	ite	eq
  409b3a:	2001      	moveq	r0, #1
  409b3c:	2000      	movne	r0, #0
  409b3e:	f85d fb08 	ldr.w	pc, [sp], #8
  409b42:	bf00      	nop

00409b44 <__aeabi_dcmplt>:
  409b44:	f84d ed08 	str.w	lr, [sp, #-8]!
  409b48:	f7ff ffea 	bl	409b20 <__aeabi_cdcmpeq>
  409b4c:	bf34      	ite	cc
  409b4e:	2001      	movcc	r0, #1
  409b50:	2000      	movcs	r0, #0
  409b52:	f85d fb08 	ldr.w	pc, [sp], #8
  409b56:	bf00      	nop

00409b58 <__aeabi_dcmple>:
  409b58:	f84d ed08 	str.w	lr, [sp, #-8]!
  409b5c:	f7ff ffe0 	bl	409b20 <__aeabi_cdcmpeq>
  409b60:	bf94      	ite	ls
  409b62:	2001      	movls	r0, #1
  409b64:	2000      	movhi	r0, #0
  409b66:	f85d fb08 	ldr.w	pc, [sp], #8
  409b6a:	bf00      	nop

00409b6c <__aeabi_dcmpge>:
  409b6c:	f84d ed08 	str.w	lr, [sp, #-8]!
  409b70:	f7ff ffce 	bl	409b10 <__aeabi_cdrcmple>
  409b74:	bf94      	ite	ls
  409b76:	2001      	movls	r0, #1
  409b78:	2000      	movhi	r0, #0
  409b7a:	f85d fb08 	ldr.w	pc, [sp], #8
  409b7e:	bf00      	nop

00409b80 <__aeabi_dcmpgt>:
  409b80:	f84d ed08 	str.w	lr, [sp, #-8]!
  409b84:	f7ff ffc4 	bl	409b10 <__aeabi_cdrcmple>
  409b88:	bf34      	ite	cc
  409b8a:	2001      	movcc	r0, #1
  409b8c:	2000      	movcs	r0, #0
  409b8e:	f85d fb08 	ldr.w	pc, [sp], #8
  409b92:	bf00      	nop

00409b94 <__aeabi_dcmpun>:
  409b94:	ea4f 0c41 	mov.w	ip, r1, lsl #1
  409b98:	ea7f 5c6c 	mvns.w	ip, ip, asr #21
  409b9c:	d102      	bne.n	409ba4 <__aeabi_dcmpun+0x10>
  409b9e:	ea50 3c01 	orrs.w	ip, r0, r1, lsl #12
  409ba2:	d10a      	bne.n	409bba <__aeabi_dcmpun+0x26>
  409ba4:	ea4f 0c43 	mov.w	ip, r3, lsl #1
  409ba8:	ea7f 5c6c 	mvns.w	ip, ip, asr #21
  409bac:	d102      	bne.n	409bb4 <__aeabi_dcmpun+0x20>
  409bae:	ea52 3c03 	orrs.w	ip, r2, r3, lsl #12
  409bb2:	d102      	bne.n	409bba <__aeabi_dcmpun+0x26>
  409bb4:	f04f 0000 	mov.w	r0, #0
  409bb8:	4770      	bx	lr
  409bba:	f04f 0001 	mov.w	r0, #1
  409bbe:	4770      	bx	lr

00409bc0 <__aeabi_d2iz>:
  409bc0:	ea4f 0241 	mov.w	r2, r1, lsl #1
  409bc4:	f512 1200 	adds.w	r2, r2, #2097152	; 0x200000
  409bc8:	d215      	bcs.n	409bf6 <__aeabi_d2iz+0x36>
  409bca:	d511      	bpl.n	409bf0 <__aeabi_d2iz+0x30>
  409bcc:	f46f 7378 	mvn.w	r3, #992	; 0x3e0
  409bd0:	ebb3 5262 	subs.w	r2, r3, r2, asr #21
  409bd4:	d912      	bls.n	409bfc <__aeabi_d2iz+0x3c>
  409bd6:	ea4f 23c1 	mov.w	r3, r1, lsl #11
  409bda:	f043 4300 	orr.w	r3, r3, #2147483648	; 0x80000000
  409bde:	ea43 5350 	orr.w	r3, r3, r0, lsr #21
  409be2:	f011 4f00 	tst.w	r1, #2147483648	; 0x80000000
  409be6:	fa23 f002 	lsr.w	r0, r3, r2
  409bea:	bf18      	it	ne
  409bec:	4240      	negne	r0, r0
  409bee:	4770      	bx	lr
  409bf0:	f04f 0000 	mov.w	r0, #0
  409bf4:	4770      	bx	lr
  409bf6:	ea50 3001 	orrs.w	r0, r0, r1, lsl #12
  409bfa:	d105      	bne.n	409c08 <__aeabi_d2iz+0x48>
  409bfc:	f011 4000 	ands.w	r0, r1, #2147483648	; 0x80000000
  409c00:	bf08      	it	eq
  409c02:	f06f 4000 	mvneq.w	r0, #2147483648	; 0x80000000
  409c06:	4770      	bx	lr
  409c08:	f04f 0000 	mov.w	r0, #0
  409c0c:	4770      	bx	lr
  409c0e:	bf00      	nop
  409c10:	00409ca4 	.word	0x00409ca4
  409c14:	00409cac 	.word	0x00409cac
  409c18:	00409cb8 	.word	0x00409cb8
  409c1c:	00409cc0 	.word	0x00409cc0
  409c20:	00409cc8 	.word	0x00409cc8
  409c24:	00409ccc 	.word	0x00409ccc
  409c28:	00409cd4 	.word	0x00409cd4
  409c2c:	00409cdc 	.word	0x00409cdc
  409c30:	00409ce4 	.word	0x00409ce4
  409c34:	00409cf0 	.word	0x00409cf0
  409c38:	00409cf8 	.word	0x00409cf8
  409c3c:	00409d04 	.word	0x00409d04
  409c40:	63657053 	.word	0x63657053
  409c44:	20796669 	.word	0x20796669
  409c48:	656c6966 	.word	0x656c6966
  409c4c:	00000000 	.word	0x00000000
  409c50:	25207325 	.word	0x25207325
  409c54:	25202c64 	.word	0x25202c64
  409c58:	30252064 	.word	0x30252064
  409c5c:	253a6432 	.word	0x253a6432
  409c60:	3a643230 	.word	0x3a643230
  409c64:	64323025 	.word	0x64323025
  409c68:	00000000 	.word	0x00000000
  409c6c:	20207325 	.word	0x20207325
  409c70:	20202020 	.word	0x20202020
  409c74:	2e322520 	.word	0x2e322520
  409c78:	4b206631 	.word	0x4b206631
  409c7c:	00000042 	.word	0x00000042
  409c80:	66206f4e 	.word	0x66206f4e
  409c84:	73656c69 	.word	0x73656c69
  409c88:	756f6620 	.word	0x756f6620
  409c8c:	0000646e 	.word	0x0000646e
  409c90:	00000033 	.word	0x00000033
  409c94:	696e694d 	.word	0x696e694d
  409c98:	0000534f 	.word	0x0000534f
  409c9c:	25767325 	.word	0x25767325
  409ca0:	00000073 	.word	0x00000073
  409ca4:	756e614a 	.word	0x756e614a
  409ca8:	00797261 	.word	0x00797261
  409cac:	72626546 	.word	0x72626546
  409cb0:	79726175 	.word	0x79726175
  409cb4:	00000000 	.word	0x00000000
  409cb8:	6372614d 	.word	0x6372614d
  409cbc:	00000068 	.word	0x00000068
  409cc0:	69727041 	.word	0x69727041
  409cc4:	0000006c 	.word	0x0000006c
  409cc8:	0079614d 	.word	0x0079614d
  409ccc:	656e754a 	.word	0x656e754a
  409cd0:	00000000 	.word	0x00000000
  409cd4:	796c754a 	.word	0x796c754a
  409cd8:	00000000 	.word	0x00000000
  409cdc:	75677541 	.word	0x75677541
  409ce0:	00007473 	.word	0x00007473
  409ce4:	74706553 	.word	0x74706553
  409ce8:	65626d65 	.word	0x65626d65
  409cec:	00000072 	.word	0x00000072
  409cf0:	6f74634f 	.word	0x6f74634f
  409cf4:	00726562 	.word	0x00726562
  409cf8:	65766f4e 	.word	0x65766f4e
  409cfc:	7265626d 	.word	0x7265626d
  409d00:	00000000 	.word	0x00000000
  409d04:	65636544 	.word	0x65636544
  409d08:	7265626d 	.word	0x7265626d
  409d0c:	00000000 	.word	0x00000000

00409d10 <cmd_ptrs>:
  409d10:	00400179 004001fd 00400239 0040029d     y.@...@.9.@...@.
  409d20:	752d6f6e 00726573 25407325 73253a73     no-user.%s@%s:%s
  409d30:	00207325 00000024 0000007e 5d5d5b5b     %s .$...~...[[]]
  409d40:	00000000 6d6d6f43 20646e61 20746f6e     ....Command not 
  409d50:	6f636572 7a696e67 00006465 6c707041     recognized..Appl
  409d60:	74616369 206e6f69 74207369 6c206f6f     ication is too l
  409d70:	65677261 00000000 6c707041 74616369     arge....Applicat
  409d80:	206e6f69 74697865 77206465 20687469     ion exited with 
  409d90:	65646f63 00000020 25207325 00000064     code ...%s %d...
  409da0:	0000736c 00746163 65746164 00000000     ls..cat.date....
  409db0:	69737973 006f666e 656c6966 6d616e20     sysinfo.file nam
  409dc0:	6f742065 616c206f 00656772 00003a30     e too large.0:..
  409dd0:	00000000 0000000d 00000000 0000000e     ................
  409de0:	00000007 000007c7                       ........

00409de8 <mmc_trans_multipliers>:
  409de8:	00000000 0000000a 0000000c 0000000d     ................
  409df8:	0000000f 00000014 0000001a 0000001e     ................
  409e08:	00000023 00000028 0000002d 00000034     #...(...-...4...
  409e18:	00000037 0000003c 00000046 00000050     7...<...F...P...

00409e28 <sd_mmc_trans_units>:
  409e28:	0000000a 00000064 000003e8 00002710     ....d........'..
	...

00409e44 <sd_trans_multipliers>:
  409e44:	00000000 0000000a 0000000c 0000000d     ................
  409e54:	0000000f 00000014 00000019 0000001e     ................
  409e64:	00000023 00000028 0000002d 00000032     #...(...-...2...
  409e74:	00000037 0000003c 00000046 00000050     7...<...F...P...

00409e84 <LfnOfs>:
  409e84:	07050301 12100e09 1c181614 0000001e     ................

00409e94 <excvt.4558>:
  409e94:	b6909a80 808fb78e d8d4d3d2 8f8eded7     ................
  409ea4:	e2929290 ebeae399 9d9a9959 9f9e9d9c     ........Y.......
  409eb4:	e9e0d6b5 a7a6a5a5 abaaa9a8 afae21ac     .............!..
  409ec4:	b3b2b1b0 b7b6b5b4 bbbab9b8 bfbebdbc     ................
  409ed4:	c3c2c1c0 c7c7c5c4 cbcac9c8 cfcecdcc     ................
  409ee4:	d3d2d1d0 d7d6d5d4 dbdad9d8 dfdedddc     ................
  409ef4:	e3e2e1e0 e7e6e5e5 ebeae9e7 efeeeded     ................
  409f04:	f3f2f1f0 f7f6f5f4 fbfaf9f8 fffefdfc     ................
  409f14:	3c3a2a22 7f7c3f3e 00000000 3d3b2c2b     "*:<>?|.....+,;=
  409f24:	00005d5b                                []..

00409f28 <Tbl>:
  409f28:	00fc00c7 00e200e9 00e000e4 00e700e5     ................
  409f38:	00eb00ea 00ef00e8 00ec00ee 00c500c4     ................
  409f48:	00e600c9 00f400c6 00f200f6 00f900fb     ................
  409f58:	00d600ff 00f800dc 00d800a3 019200d7     ................
  409f68:	00ed00e1 00fa00f3 00d100f1 00ba00aa     ................
  409f78:	00ae00bf 00bd00ac 00a100bc 00bb00ab     ................
  409f88:	25922591 25022593 00c12524 00c000c2     .%.%.%.%$%......
  409f98:	256300a9 25572551 00a2255d 251000a5     ..c%Q%W%]%.....%
  409fa8:	25342514 251c252c 253c2500 00c300e3     .%4%,%.%.%<%....
  409fb8:	2554255a 25662569 25502560 00a4256c     Z%T%i%f%`%P%l%..
  409fc8:	00d000f0 00cb00ca 013100c8 00ce00cd     ..........1.....
  409fd8:	251800cf 2588250c 00a62584 258000cc     ...%.%.%.%.....%
  409fe8:	00df00d3 00d200d4 00d500f5 00fe00b5     ................
  409ff8:	00da00de 00d900db 00dd00fd 00b400af     ................
  40a008:	00b100ad 00be2017 00a700b6 00b800f7     ..... ..........
  40a018:	00a800b0 00b900b7 00b200b3 00a025a0     .............%..

0040a028 <tbl_lower.4308>:
  40a028:	00620061 00640063 00660065 00680067     a.b.c.d.e.f.g.h.
  40a038:	006a0069 006c006b 006e006d 0070006f     i.j.k.l.m.n.o.p.
  40a048:	00720071 00740073 00760075 00780077     q.r.s.t.u.v.w.x.
  40a058:	007a0079 00a200a1 00a500a3 00af00ac     y.z.............
  40a068:	00e100e0 00e300e2 00e500e4 00e700e6     ................
  40a078:	00e900e8 00eb00ea 00ed00ec 00ef00ee     ................
  40a088:	00f100f0 00f300f2 00f500f4 00f800f6     ................
  40a098:	00fa00f9 00fc00fb 00fe00fd 010100ff     ................
  40a0a8:	01050103 01090107 010d010b 0111010f     ................
  40a0b8:	01150113 01190117 011d011b 0121011f     ..............!.
  40a0c8:	01250123 01290127 012d012b 0131012f     #.%.'.).+.-./.1.
  40a0d8:	01350133 013a0137 013e013c 01420140     3.5.7.:.<.>.@.B.
  40a0e8:	01460144 014b0148 014f014d 01530151     D.F.H.K.M.O.Q.S.
  40a0f8:	01570155 015b0159 015f015d 01630161     U.W.Y.[.]._.a.c.
  40a108:	01670165 016b0169 016f016d 01730171     e.g.i.k.m.o.q.s.
  40a118:	01770175 017c017a 0192017e 03b203b1     u.w.z.|.~.......
  40a128:	03b403b3 03b603b5 03b803b7 03ba03b9     ................
  40a138:	03bc03bb 03be03bd 03c003bf 03c303c1     ................
  40a148:	03c503c4 03c703c6 03c903c8 043003ca     ..............0.
  40a158:	04320431 04340433 04360435 04380437     1.2.3.4.5.6.7.8.
  40a168:	043a0439 043c043b 043e043d 0440043f     9.:.;.<.=.>.?.@.
  40a178:	04420441 04440443 04460445 04480447     A.B.C.D.E.F.G.H.
  40a188:	044a0449 044c044b 044e044d 0451044f     I.J.K.L.M.N.O.Q.
  40a198:	04530452 04550454 04570456 04590458     R.S.T.U.V.W.X.Y.
  40a1a8:	045b045a 045e045c 2170045f 21722171     Z.[.\.^._.p!q!r!
  40a1b8:	21742173 21762175 21782177 217a2179     s!t!u!v!w!x!y!z!
  40a1c8:	217c217b 217e217d ff41217f ff43ff42     {!|!}!~!.!A.B.C.
  40a1d8:	ff45ff44 ff47ff46 ff49ff48 ff4bff4a     D.E.F.G.H.I.J.K.
  40a1e8:	ff4dff4c ff4fff4e ff51ff50 ff53ff52     L.M.N.O.P.Q.R.S.
  40a1f8:	ff55ff54 ff57ff56 ff59ff58 0000ff5a     T.U.V.W.X.Y.Z...

0040a208 <tbl_upper.4309>:
  40a208:	00420041 00440043 00460045 00480047     A.B.C.D.E.F.G.H.
  40a218:	004a0049 004c004b 004e004d 0050004f     I.J.K.L.M.N.O.P.
  40a228:	00520051 00540053 00560055 00580057     Q.R.S.T.U.V.W.X.
  40a238:	005a0059 ffe00021 ffe5ffe1 ffe3ffe2     Y.Z.!...........
  40a248:	00c100c0 00c300c2 00c500c4 00c700c6     ................
  40a258:	00c900c8 00cb00ca 00cd00cc 00cf00ce     ................
  40a268:	00d100d0 00d300d2 00d500d4 00d800d6     ................
  40a278:	00da00d9 00dc00db 00de00dd 01000178     ............x...
  40a288:	01040102 01080106 010c010a 0110010e     ................
  40a298:	01140112 01180116 011c011a 0120011e     .............. .
  40a2a8:	01240122 01280126 012c012a 0130012e     ".$.&.(.*.,...0.
  40a2b8:	01340132 01390136 013d013b 0141013f     2.4.6.9.;.=.?.A.
  40a2c8:	01450143 014a0147 014e014c 01520150     C.E.G.J.L.N.P.R.
  40a2d8:	01560154 015a0158 015e015c 01620160     T.V.X.Z.\.^.`.b.
  40a2e8:	01660164 016a0168 016e016c 01720170     d.f.h.j.l.n.p.r.
  40a2f8:	01760174 017b0179 0191017d 03920391     t.v.y.{.}.......
  40a308:	03940393 03960395 03980397 039a0399     ................
  40a318:	039c039b 039e039d 03a0039f 03a303a1     ................
  40a328:	03a503a4 03a703a6 03a903a8 041003aa     ................
  40a338:	04120411 04140413 04160415 04180417     ................
  40a348:	041a0419 041c041b 041e041d 0420041f     .............. .
  40a358:	04220421 04240423 04260425 04280427     !.".#.$.%.&.'.(.
  40a368:	042a0429 042c042b 042e042d 0401042f     ).*.+.,.-.../...
  40a378:	04030402 04050404 04070406 04090408     ................
  40a388:	040b040a 040e040c 2160040f 21622161     ..........`!a!b!
  40a398:	21642163 21662165 21682167 216a2169     c!d!e!f!g!h!i!j!
  40a3a8:	216c216b 216e216d ff21216f ff23ff22     k!l!m!n!o!!.".#.
  40a3b8:	ff25ff24 ff27ff26 ff29ff28 ff2bff2a     $.%.&.'.(.).*.+.
  40a3c8:	ff2dff2c ff2fff2e ff31ff30 ff33ff32     ,.-.../.0.1.2.3.
  40a3d8:	ff35ff34 ff37ff36 ff39ff38 0000ff3a     4.5.6.7.8.9.:...
  40a3e8:	00000d0a                                ....

0040a3ec <_global_impure_ptr>:
  40a3ec:	20000450 00464e49 00666e69 004e414e     P.. INF.inf.NAN.
  40a3fc:	006e616e 33323130 37363534 42413938     nan.0123456789AB
  40a40c:	46454443 00000000 33323130 37363534     CDEF....01234567
  40a41c:	62613938 66656463 00000000 6c756e28     89abcdef....(nul
  40a42c:	0000296c 00000030                       l)..0...

0040a434 <blanks.7223>:
  40a434:	20202020 20202020 20202020 20202020                     

0040a444 <zeroes.7224>:
  40a444:	30303030 30303030 30303030 30303030     0000000000000000
  40a454:	69666e49 7974696e 00000000 004e614e     Infinity....NaN.
  40a464:	00000043 49534f50 00000058 0000002e     C...POSIX.......
  40a474:	00000000                                ....

0040a478 <__mprec_bigtens>:
  40a478:	37e08000 4341c379 b5056e17 4693b8b5     ...7y.AC.n.....F
  40a488:	e93ff9f5 4d384f03 f9301d32 5a827748     ..?..O8M2.0.Hw.Z
  40a498:	7f73bf3c 75154fdd                       <.s..O.u

0040a4a0 <__mprec_tens>:
  40a4a0:	00000000 3ff00000 00000000 40240000     .......?......$@
  40a4b0:	00000000 40590000 00000000 408f4000     ......Y@.....@.@
  40a4c0:	00000000 40c38800 00000000 40f86a00     .......@.....j.@
  40a4d0:	00000000 412e8480 00000000 416312d0     .......A......cA
  40a4e0:	00000000 4197d784 00000000 41cdcd65     .......A....e..A
  40a4f0:	20000000 4202a05f e8000000 42374876     ... _..B....vH7B
  40a500:	a2000000 426d1a94 e5400000 42a2309c     ......mB..@..0.B
  40a510:	1e900000 42d6bcc4 26340000 430c6bf5     .......B..4&.k.C
  40a520:	37e08000 4341c379 85d8a000 43763457     ...7y.AC....W4vC
  40a530:	674ec800 43abc16d 60913d00 43e158e4     ..Ngm..C.=.`.X.C
  40a540:	78b58c40 4415af1d d6e2ef50 444b1ae4     @..x...DP.....KD
  40a550:	064dd592 4480f0cf c7e14af6 44b52d02     ..M....D.J...-.D
  40a560:	79d99db4 44ea7843                       ...yCx.D

0040a568 <p05.6055>:
  40a568:	00000005 00000019 0000007d              ........}...

0040a574 <_ctype_>:
  40a574:	20202000 20202020 28282020 20282828     .         ((((( 
  40a584:	20202020 20202020 20202020 20202020                     
  40a594:	10108820 10101010 10101010 10101010      ...............
  40a5a4:	04040410 04040404 10040404 10101010     ................
  40a5b4:	41411010 41414141 01010101 01010101     ..AAAAAA........
  40a5c4:	01010101 01010101 01010101 10101010     ................
  40a5d4:	42421010 42424242 02020202 02020202     ..BBBBBB........
  40a5e4:	02020202 02020202 02020202 10101010     ................
  40a5f4:	00000020 00000000 00000000 00000000      ...............
	...

0040a678 <_init>:
  40a678:	b5f8      	push	{r3, r4, r5, r6, r7, lr}
  40a67a:	bf00      	nop
  40a67c:	bcf8      	pop	{r3, r4, r5, r6, r7}
  40a67e:	bc08      	pop	{r3}
  40a680:	469e      	mov	lr, r3
  40a682:	4770      	bx	lr

0040a684 <__init_array_start>:
  40a684:	00407439 	.word	0x00407439

0040a688 <__frame_dummy_init_array_entry>:
  40a688:	004000f1                                ..@.

0040a68c <_fini>:
  40a68c:	b5f8      	push	{r3, r4, r5, r6, r7, lr}
  40a68e:	bf00      	nop
  40a690:	bcf8      	pop	{r3, r4, r5, r6, r7}
  40a692:	bc08      	pop	{r3}
  40a694:	469e      	mov	lr, r3
  40a696:	4770      	bx	lr

0040a698 <__fini_array_start>:
  40a698:	004000cd 	.word	0x004000cd

Disassembly of section .relocate:

20000000 <portable_delay_cycles>:
20000000:	f3bf 8f5f 	dmb	sy
20000004:	3801      	subs	r0, #1
20000006:	d1fb      	bne.n	20000000 <portable_delay_cycles>
20000008:	4770      	bx	lr
	...

2000000c <cmd_names>:
2000000c:	9da0 0040 9da4 0040 9da8 0040 9db0 0040     ..@...@...@...@.
2000001c:	9d3c 0040                                   <.@.

20000020 <Font08px_123>:
20000020:	1003 826c                                   ..l.

20000024 <Font08px_124>:
20000024:	fe01 0000                                   ....

20000028 <Font08px_125>:
20000028:	8203 106c                                   ..l.

2000002c <Font08px_126>:
2000002c:	1005 1008 1020 0000                         .... ...

20000034 <Font08px_32>:
20000034:	0002 0000                                   ....

20000038 <Font08px_33>:
20000038:	be01 0000                                   ....

2000003c <Font08px_34>:
2000003c:	0603 0600                                   ....

20000040 <Font08px_35>:
20000040:	2805 28fe 28fe 0000                         .(.(.(..

20000048 <Font08px_36>:
20000048:	4805 fe54 2454 0000                         .HT.T$..

20000050 <Font08px_37>:
20000050:	4605 1026 c4c8 0000                         .F&.....

20000058 <Font08px_38>:
20000058:	6c05 ac92 a040 0000                         .l..@...

20000060 <Font08px_39>:
20000060:	0601 0000                                   ....

20000064 <Font08px_40>:
20000064:	3803 8244                                   .8D.

20000068 <Font08px_41>:
20000068:	8203 3844                                   ..D8

2000006c <Font08px_42>:
2000006c:	2803 2810                                   .(.(

20000070 <Font08px_43>:
20000070:	1003 1038                                   ..8.

20000074 <Font08px_44>:
20000074:	c001 0000                                   ....

20000078 <Font08px_45>:
20000078:	1003 1010                                   ....

2000007c <Font08px_46>:
2000007c:	8001 0000                                   ....

20000080 <Font08px_47>:
20000080:	c003 0638                                   ..8.

20000084 <Font08px_58>:
20000084:	4401 0000                                   .D..

20000088 <Font08px_59>:
20000088:	c401 0000                                   ....

2000008c <Font08px_60>:
2000008c:	1004 4428 0082 0000                         ..(D....

20000094 <Font08px_61>:
20000094:	2804 2828 0028 0000                         .((((...

2000009c <Font08px_62>:
2000009c:	8204 2844 0010 0000                         ..D(....

200000a4 <Font08px_63>:
200000a4:	0405 a202 0c12 0000                         ........

200000ac <Font08px_64>:
200000ac:	3808 9244 aaaa 24ba 0018 0000               .8D....$....

200000b8 <Font08px_91>:
200000b8:	fe03 8282                                   ....

200000bc <Font08px_92>:
200000bc:	0603 c038                                   ..8.

200000c0 <Font08px_93>:
200000c0:	8203 fe82                                   ....

200000c4 <Font08px_94>:
200000c4:	0403 0402                                   ....

200000c8 <Font08px_95>:
200000c8:	8003 8080                                   ....

200000cc <Font08px_96>:
200000cc:	0202 0004                                   ....

200000d0 <Font08px_N0>:
200000d0:	7c05 92a2 7c8a 0000                         .|...|..

200000d8 <Font08px_N1>:
200000d8:	0005 fe84 0080 0000                         ........

200000e0 <Font08px_N2>:
200000e0:	8405 a2c2 8c92 0000                         ........

200000e8 <Font08px_N3>:
200000e8:	4405 9282 6c92 0000                         .D...l..

200000f0 <Font08px_N4>:
200000f0:	3005 2428 20fe 0000                         .0($. ..

200000f8 <Font08px_N5>:
200000f8:	5e05 8a8a 728a 0000                         .^...r..

20000100 <Font08px_N6>:
20000100:	7c05 9292 6492 0000                         .|...d..

20000108 <Font08px_N7>:
20000108:	0205 f202 060a 0000                         ........

20000110 <Font08px_N8>:
20000110:	6c05 9292 6c92 0000                         .l...l..

20000118 <Font08px_N9>:
20000118:	4c05 9292 7c92 0000                         .L...|..

20000120 <Font08px_UA>:
20000120:	f805 1214 f814 0000                         ........

20000128 <Font08px_UB>:
20000128:	fe04 9292 006c 0000                         ....l...

20000130 <Font08px_UC>:
20000130:	7c04 8282 0044 0000                         .|..D...

20000138 <Font08px_UD>:
20000138:	fe04 8282 007c 0000                         ....|...

20000140 <Font08px_UE>:
20000140:	fe04 9292 0082 0000                         ........

20000148 <Font08px_UF>:
20000148:	fe04 1212 0002 0000                         ........

20000150 <Font08px_UG>:
20000150:	7c05 9282 f492 0000                         .|......

20000158 <Font08px_UH>:
20000158:	fe04 1010 00fe 0000                         ........

20000160 <Font08px_UI>:
20000160:	8203 82fe                                   ....

20000164 <Font08px_UJ>:
20000164:	4004 8080 007e 0000                         .@..~...

2000016c <Font08px_UK>:
2000016c:	fe05 2810 8244 0000                         ...(D...

20000174 <Font08px_UL>:
20000174:	fe04 8080 0080 0000                         ........

2000017c <Font08px_UM>:
2000017c:	fe05 0804 fe04 0000                         ........

20000184 <Font08px_UN>:
20000184:	fe05 1804 fe60 0000                         ....`...

2000018c <Font08px_UO>:
2000018c:	7c04 8282 007c 0000                         .|..|...

20000194 <Font08px_UP>:
20000194:	fe04 1212 000c 0000                         ........

2000019c <Font08px_UQ>:
2000019c:	7c05 a282 bc42 0000                         .|..B...

200001a4 <Font08px_UR>:
200001a4:	fe04 3212 00cc 0000                         ...2....

200001ac <Font08px_US>:
200001ac:	4c04 9292 0064 0000                         .L..d...

200001b4 <Font08px_UT>:
200001b4:	0205 fe02 0202 0000                         ........

200001bc <Font08px_UU>:
200001bc:	7e04 8080 007e 0000                         .~..~...

200001c4 <Font08px_UV>:
200001c4:	0e05 c030 0e30 0000                         ..0.0...

200001cc <Font08px_UW>:
200001cc:	3e05 38c0 3ec0 0000                         .>.8.>..

200001d4 <Font08px_UX>:
200001d4:	c605 1028 c628 0000                         ..(.(...

200001dc <Font08px_UY>:
200001dc:	0605 f008 0608 0000                         ........

200001e4 <Font08px_UZ>:
200001e4:	c205 92a2 868a 0000                         ........

200001ec <Font08px_la>:
200001ec:	7004 8888 00f8 0000                         .p......

200001f4 <Font08px_lb>:
200001f4:	fe04 8888 0070 0000                         ....p...

200001fc <Font08px_lc>:
200001fc:	7004 8888 0088 0000                         .p......

20000204 <Font08px_ld>:
20000204:	7004 8888 00fe 0000                         .p......

2000020c <Font08px_le>:
2000020c:	7004 a8a8 0030 0000                         .p..0...

20000214 <Font08px_lf>:
20000214:	fc03 0212                                   ....

20000218 <Font08px_lg>:
20000218:	1004 a8a8 0078 0000                         ....x...

20000220 <Font08px_lh>:
20000220:	fe04 0810 00f0 0000                         ........

20000228 <Font08px_li>:
20000228:	fa01 0000                                   ....

2000022c <Font08px_lj>:
2000022c:	8002 007a                                   ..z.

20000230 <Font08px_lk>:
20000230:	fe04 5020 0088 0000                         .. P....

20000238 <Font08px_ll>:
20000238:	fe01 0000                                   ....

2000023c <Font08px_lm>:
2000023c:	f805 f008 f008 0000                         ........

20000244 <Font08px_ln>:
20000244:	f804 0810 00f0 0000                         ........

2000024c <Font08px_lo>:
2000024c:	7004 8888 0070 0000                         .p..p...

20000254 <Font08px_lp>:
20000254:	f804 2828 0010 0000                         ..((....

2000025c <Font08px_lq>:
2000025c:	1004 2828 00f8 0000                         ..((....

20000264 <Font08px_lr>:
20000264:	f803 0810                                   ....

20000268 <Font08px_ls>:
20000268:	9004 a8a8 0048 0000                         ....H...

20000270 <Font08px_lt>:
20000270:	0803 887c                                   ..|.

20000274 <Font08px_lu>:
20000274:	7804 8080 00f8 0000                         .x......

2000027c <Font08px_lv>:
2000027c:	1805 8060 1860 0000                         ..`.`...

20000284 <Font08px_lw>:
20000284:	3805 30c0 38c0 0000                         .8.0.8..

2000028c <Font08px_lx>:
2000028c:	8805 2050 8850 0000                         ..P P...

20000294 <Font08px_ly>:
20000294:	1804 a0a0 0078 0000                         ....x...

2000029c <Font08px_lz>:
2000029c:	c803 98a8                                   ....

200002a0 <font_table>:
200002a0:	0034 2000 0038 2000 003c 2000 0040 2000     4.. 8.. <.. @.. 
200002b0:	0048 2000 0050 2000 0058 2000 0060 2000     H.. P.. X.. `.. 
200002c0:	0064 2000 0068 2000 006c 2000 0070 2000     d.. h.. l.. p.. 
200002d0:	0074 2000 0078 2000 007c 2000 0080 2000     t.. x.. |.. ... 
200002e0:	00d0 2000 00d8 2000 00e0 2000 00e8 2000     ... ... ... ... 
200002f0:	00f0 2000 00f8 2000 0100 2000 0108 2000     ... ... ... ... 
20000300:	0110 2000 0118 2000 0084 2000 0088 2000     ... ... ... ... 
20000310:	008c 2000 0094 2000 009c 2000 00a4 2000     ... ... ... ... 
20000320:	00ac 2000 0120 2000 0128 2000 0130 2000     ...  .. (.. 0.. 
20000330:	0138 2000 0140 2000 0148 2000 0150 2000     8.. @.. H.. P.. 
20000340:	0158 2000 0160 2000 0164 2000 016c 2000     X.. `.. d.. l.. 
20000350:	0174 2000 017c 2000 0184 2000 018c 2000     t.. |.. ... ... 
20000360:	0194 2000 019c 2000 01a4 2000 01ac 2000     ... ... ... ... 
20000370:	01b4 2000 01bc 2000 01c4 2000 01cc 2000     ... ... ... ... 
20000380:	01d4 2000 01dc 2000 01e4 2000 00b8 2000     ... ... ... ... 
20000390:	00bc 2000 00c0 2000 00c4 2000 00c8 2000     ... ... ... ... 
200003a0:	00cc 2000 01ec 2000 01f4 2000 01fc 2000     ... ... ... ... 
200003b0:	0204 2000 020c 2000 0214 2000 0218 2000     ... ... ... ... 
200003c0:	0220 2000 0228 2000 022c 2000 0230 2000      .. (.. ,.. 0.. 
200003d0:	0238 2000 023c 2000 0244 2000 024c 2000     8.. <.. D.. L.. 
200003e0:	0254 2000 025c 2000 0264 2000 0268 2000     T.. \.. d.. h.. 
200003f0:	0270 2000 0274 2000 027c 2000 0284 2000     p.. t.. |.. ... 
20000400:	028c 2000 0294 2000 029c 2000 0020 2000     ... ... ...  .. 
20000410:	0024 2000 0028 2000 002c 2000               $.. (.. ,.. 

2000041c <sd_mmc_cards>:
	...
20000424:	004c 0000 0000 0000 0000 0000 0000 0000     L...............
	...

20000440 <sd_mmc_spi_devices>:
20000440:	0001 0000                                   ....

20000444 <SystemCoreClock>:
20000444:	0900 003d                                   ..=.

20000448 <_impure_ptr>:
20000448:	0450 2000 0000 0000                         P.. ....

20000450 <impure_data>:
20000450:	0000 0000 073c 2000 07a4 2000 080c 2000     ....<.. ... ... 
	...
200004f8:	0001 0000 0000 0000 330e abcd 1234 e66d     .........3..4.m.
20000508:	deec 0005 000b 0000 0000 0000 0000 0000     ................
	...

20000878 <__atexit_recursive_mutex>:
20000878:	6180 2000                                   .a. 

2000087c <__global_locale>:
2000087c:	0043 0000 0000 0000 0000 0000 0000 0000     C...............
	...
2000089c:	0043 0000 0000 0000 0000 0000 0000 0000     C...............
	...
200008bc:	0043 0000 0000 0000 0000 0000 0000 0000     C...............
	...
200008dc:	0043 0000 0000 0000 0000 0000 0000 0000     C...............
	...
200008fc:	0043 0000 0000 0000 0000 0000 0000 0000     C...............
	...
2000091c:	0043 0000 0000 0000 0000 0000 0000 0000     C...............
	...
2000093c:	0043 0000 0000 0000 0000 0000 0000 0000     C...............
	...
2000095c:	9945 0040 8bf9 0040 0000 0000 a574 0040     E.@...@.....t.@.
2000096c:	a470 0040 a410 0040 a410 0040 a410 0040     p.@...@...@...@.
2000097c:	a410 0040 a410 0040 a410 0040 a410 0040     ..@...@...@...@.
2000098c:	a410 0040 a410 0040 ffff ffff ffff ffff     ..@...@.........
2000099c:	ffff ffff ffff 0000 0001 5341 4943 0049     ..........ASCII.
	...
200009c4:	0000 5341 4943 0049 0000 0000 0000 0000     ..ASCII.........
	...

200009e8 <__malloc_av_>:
	...
200009f0:	09e8 2000 09e8 2000 09f0 2000 09f0 2000     ... ... ... ... 
20000a00:	09f8 2000 09f8 2000 0a00 2000 0a00 2000     ... ... ... ... 
20000a10:	0a08 2000 0a08 2000 0a10 2000 0a10 2000     ... ... ... ... 
20000a20:	0a18 2000 0a18 2000 0a20 2000 0a20 2000     ... ...  ..  .. 
20000a30:	0a28 2000 0a28 2000 0a30 2000 0a30 2000     (.. (.. 0.. 0.. 
20000a40:	0a38 2000 0a38 2000 0a40 2000 0a40 2000     8.. 8.. @.. @.. 
20000a50:	0a48 2000 0a48 2000 0a50 2000 0a50 2000     H.. H.. P.. P.. 
20000a60:	0a58 2000 0a58 2000 0a60 2000 0a60 2000     X.. X.. `.. `.. 
20000a70:	0a68 2000 0a68 2000 0a70 2000 0a70 2000     h.. h.. p.. p.. 
20000a80:	0a78 2000 0a78 2000 0a80 2000 0a80 2000     x.. x.. ... ... 
20000a90:	0a88 2000 0a88 2000 0a90 2000 0a90 2000     ... ... ... ... 
20000aa0:	0a98 2000 0a98 2000 0aa0 2000 0aa0 2000     ... ... ... ... 
20000ab0:	0aa8 2000 0aa8 2000 0ab0 2000 0ab0 2000     ... ... ... ... 
20000ac0:	0ab8 2000 0ab8 2000 0ac0 2000 0ac0 2000     ... ... ... ... 
20000ad0:	0ac8 2000 0ac8 2000 0ad0 2000 0ad0 2000     ... ... ... ... 
20000ae0:	0ad8 2000 0ad8 2000 0ae0 2000 0ae0 2000     ... ... ... ... 
20000af0:	0ae8 2000 0ae8 2000 0af0 2000 0af0 2000     ... ... ... ... 
20000b00:	0af8 2000 0af8 2000 0b00 2000 0b00 2000     ... ... ... ... 
20000b10:	0b08 2000 0b08 2000 0b10 2000 0b10 2000     ... ... ... ... 
20000b20:	0b18 2000 0b18 2000 0b20 2000 0b20 2000     ... ...  ..  .. 
20000b30:	0b28 2000 0b28 2000 0b30 2000 0b30 2000     (.. (.. 0.. 0.. 
20000b40:	0b38 2000 0b38 2000 0b40 2000 0b40 2000     8.. 8.. @.. @.. 
20000b50:	0b48 2000 0b48 2000 0b50 2000 0b50 2000     H.. H.. P.. P.. 
20000b60:	0b58 2000 0b58 2000 0b60 2000 0b60 2000     X.. X.. `.. `.. 
20000b70:	0b68 2000 0b68 2000 0b70 2000 0b70 2000     h.. h.. p.. p.. 
20000b80:	0b78 2000 0b78 2000 0b80 2000 0b80 2000     x.. x.. ... ... 
20000b90:	0b88 2000 0b88 2000 0b90 2000 0b90 2000     ... ... ... ... 
20000ba0:	0b98 2000 0b98 2000 0ba0 2000 0ba0 2000     ... ... ... ... 
20000bb0:	0ba8 2000 0ba8 2000 0bb0 2000 0bb0 2000     ... ... ... ... 
20000bc0:	0bb8 2000 0bb8 2000 0bc0 2000 0bc0 2000     ... ... ... ... 
20000bd0:	0bc8 2000 0bc8 2000 0bd0 2000 0bd0 2000     ... ... ... ... 
20000be0:	0bd8 2000 0bd8 2000 0be0 2000 0be0 2000     ... ... ... ... 
20000bf0:	0be8 2000 0be8 2000 0bf0 2000 0bf0 2000     ... ... ... ... 
20000c00:	0bf8 2000 0bf8 2000 0c00 2000 0c00 2000     ... ... ... ... 
20000c10:	0c08 2000 0c08 2000 0c10 2000 0c10 2000     ... ... ... ... 
20000c20:	0c18 2000 0c18 2000 0c20 2000 0c20 2000     ... ...  ..  .. 
20000c30:	0c28 2000 0c28 2000 0c30 2000 0c30 2000     (.. (.. 0.. 0.. 
20000c40:	0c38 2000 0c38 2000 0c40 2000 0c40 2000     8.. 8.. @.. @.. 
20000c50:	0c48 2000 0c48 2000 0c50 2000 0c50 2000     H.. H.. P.. P.. 
20000c60:	0c58 2000 0c58 2000 0c60 2000 0c60 2000     X.. X.. `.. `.. 
20000c70:	0c68 2000 0c68 2000 0c70 2000 0c70 2000     h.. h.. p.. p.. 
20000c80:	0c78 2000 0c78 2000 0c80 2000 0c80 2000     x.. x.. ... ... 
20000c90:	0c88 2000 0c88 2000 0c90 2000 0c90 2000     ... ... ... ... 
20000ca0:	0c98 2000 0c98 2000 0ca0 2000 0ca0 2000     ... ... ... ... 
20000cb0:	0ca8 2000 0ca8 2000 0cb0 2000 0cb0 2000     ... ... ... ... 
20000cc0:	0cb8 2000 0cb8 2000 0cc0 2000 0cc0 2000     ... ... ... ... 
20000cd0:	0cc8 2000 0cc8 2000 0cd0 2000 0cd0 2000     ... ... ... ... 
20000ce0:	0cd8 2000 0cd8 2000 0ce0 2000 0ce0 2000     ... ... ... ... 
20000cf0:	0ce8 2000 0ce8 2000 0cf0 2000 0cf0 2000     ... ... ... ... 
20000d00:	0cf8 2000 0cf8 2000 0d00 2000 0d00 2000     ... ... ... ... 
20000d10:	0d08 2000 0d08 2000 0d10 2000 0d10 2000     ... ... ... ... 
20000d20:	0d18 2000 0d18 2000 0d20 2000 0d20 2000     ... ...  ..  .. 
20000d30:	0d28 2000 0d28 2000 0d30 2000 0d30 2000     (.. (.. 0.. 0.. 
20000d40:	0d38 2000 0d38 2000 0d40 2000 0d40 2000     8.. 8.. @.. @.. 
20000d50:	0d48 2000 0d48 2000 0d50 2000 0d50 2000     H.. H.. P.. P.. 
20000d60:	0d58 2000 0d58 2000 0d60 2000 0d60 2000     X.. X.. `.. `.. 
20000d70:	0d68 2000 0d68 2000 0d70 2000 0d70 2000     h.. h.. p.. p.. 
20000d80:	0d78 2000 0d78 2000 0d80 2000 0d80 2000     x.. x.. ... ... 
20000d90:	0d88 2000 0d88 2000 0d90 2000 0d90 2000     ... ... ... ... 
20000da0:	0d98 2000 0d98 2000 0da0 2000 0da0 2000     ... ... ... ... 
20000db0:	0da8 2000 0da8 2000 0db0 2000 0db0 2000     ... ... ... ... 
20000dc0:	0db8 2000 0db8 2000 0dc0 2000 0dc0 2000     ... ... ... ... 
20000dd0:	0dc8 2000 0dc8 2000 0dd0 2000 0dd0 2000     ... ... ... ... 
20000de0:	0dd8 2000 0dd8 2000 0de0 2000 0de0 2000     ... ... ... ... 

20000df0 <__malloc_sbrk_base>:
20000df0:	ffff ffff                                   ....

20000df4 <__malloc_trim_threshold>:
20000df4:	0000 0002                                   ....
