
MiniOS.elf:     file format elf32-littlearm

Sections:
Idx Name          Size      VMA       LMA       File off  Algn
  0 .text         00003c80  00400000  00400000  00010000  2**3
                  CONTENTS, ALLOC, LOAD, READONLY, CODE
  1 .ARM.exidx    00000008  00403c80  00403c80  00013c80  2**2
                  CONTENTS, ALLOC, LOAD, READONLY, DATA
  2 .relocate     00000864  20000000  00403c88  00020000  2**3
                  CONTENTS, ALLOC, LOAD, CODE
  3 .bss          000003b8  20000864  004044ec  00020864  2**2
                  ALLOC
  4 .stack        00003004  20000c1c  004048a4  00020864  2**0
                  ALLOC
  5 .ARM.attributes 0000002a  00000000  00000000  00020864  2**0
                  CONTENTS, READONLY
  6 .comment      00000059  00000000  00000000  0002088e  2**0
                  CONTENTS, READONLY
  7 .debug_info   00029966  00000000  00000000  000208e7  2**0
                  CONTENTS, READONLY, DEBUGGING
  8 .debug_abbrev 000059cb  00000000  00000000  0004a24d  2**0
                  CONTENTS, READONLY, DEBUGGING
  9 .debug_loc    00010cf4  00000000  00000000  0004fc18  2**0
                  CONTENTS, READONLY, DEBUGGING
 10 .debug_aranges 000012d8  00000000  00000000  00060910  2**3
                  CONTENTS, READONLY, DEBUGGING
 11 .debug_ranges 000014d0  00000000  00000000  00061be8  2**0
                  CONTENTS, READONLY, DEBUGGING
 12 .debug_macro  0001ad62  00000000  00000000  000630b8  2**0
                  CONTENTS, READONLY, DEBUGGING
 13 .debug_line   000178cf  00000000  00000000  0007de1a  2**0
                  CONTENTS, READONLY, DEBUGGING
 14 .debug_str    0005e683  00000000  00000000  000956e9  2**0
                  CONTENTS, READONLY, DEBUGGING
 15 .debug_frame  00003154  00000000  00000000  000f3d6c  2**2
                  CONTENTS, READONLY, DEBUGGING

Disassembly of section .text:

00400000 <exception_table>:
  400000:	20 3c 00 20 b5 2b 40 00 b1 2b 40 00 b1 2b 40 00      <. .+@..+@..+@.
  400010:	b1 2b 40 00 b1 2b 40 00 b1 2b 40 00 00 00 00 00     .+@..+@..+@.....
	...
  40002c:	0d 02 40 00 b1 2b 40 00 00 00 00 00 b1 2b 40 00     ..@..+@......+@.
  40003c:	c1 01 40 00 b1 2b 40 00 b1 2b 40 00 b1 2b 40 00     ..@..+@..+@..+@.
  40004c:	01 04 40 00 b1 2b 40 00 b1 2b 40 00 b1 2b 40 00     ..@..+@..+@..+@.
  40005c:	b1 2b 40 00 b1 2b 40 00 35 0a 40 00 00 00 00 00     .+@..+@.5.@.....
  40006c:	b9 22 40 00 cd 22 40 00 e1 22 40 00 b1 2b 40 00     ."@.."@.."@..+@.
  40007c:	71 0a 40 00 00 00 00 00 00 00 00 00 b1 2b 40 00     q.@..........+@.
  40008c:	b1 2b 40 00 b1 2b 40 00 b1 2b 40 00 b1 2b 40 00     .+@..+@..+@..+@.
  40009c:	b1 2b 40 00 b1 2b 40 00 b1 2b 40 00 b1 2b 40 00     .+@..+@..+@..+@.
  4000ac:	b1 2b 40 00 b1 2b 40 00 b1 2b 40 00 b1 2b 40 00     .+@..+@..+@..+@.
  4000bc:	b1 2b 40 00 b1 2b 40 00 b1 2b 40 00 b1 2b 40 00     .+@..+@..+@..+@.

004000cc <__do_global_dtors_aux>:
  4000cc:	b510      	push	{r4, lr}
  4000ce:	4c05      	ldr	r4, [pc, #20]	; (4000e4 <__do_global_dtors_aux+0x18>)
  4000d0:	7823      	ldrb	r3, [r4, #0]
  4000d2:	b933      	cbnz	r3, 4000e2 <__do_global_dtors_aux+0x16>
  4000d4:	4b04      	ldr	r3, [pc, #16]	; (4000e8 <__do_global_dtors_aux+0x1c>)
  4000d6:	b113      	cbz	r3, 4000de <__do_global_dtors_aux+0x12>
  4000d8:	4804      	ldr	r0, [pc, #16]	; (4000ec <__do_global_dtors_aux+0x20>)
  4000da:	f3af 8000 	nop.w
  4000de:	2301      	movs	r3, #1
  4000e0:	7023      	strb	r3, [r4, #0]
  4000e2:	bd10      	pop	{r4, pc}
  4000e4:	20000864 	.word	0x20000864
  4000e8:	00000000 	.word	0x00000000
  4000ec:	00403c88 	.word	0x00403c88

004000f0 <frame_dummy>:
  4000f0:	4b0c      	ldr	r3, [pc, #48]	; (400124 <frame_dummy+0x34>)
  4000f2:	b143      	cbz	r3, 400106 <frame_dummy+0x16>
  4000f4:	480c      	ldr	r0, [pc, #48]	; (400128 <frame_dummy+0x38>)
  4000f6:	490d      	ldr	r1, [pc, #52]	; (40012c <frame_dummy+0x3c>)
  4000f8:	b510      	push	{r4, lr}
  4000fa:	f3af 8000 	nop.w
  4000fe:	480c      	ldr	r0, [pc, #48]	; (400130 <frame_dummy+0x40>)
  400100:	6803      	ldr	r3, [r0, #0]
  400102:	b923      	cbnz	r3, 40010e <frame_dummy+0x1e>
  400104:	bd10      	pop	{r4, pc}
  400106:	480a      	ldr	r0, [pc, #40]	; (400130 <frame_dummy+0x40>)
  400108:	6803      	ldr	r3, [r0, #0]
  40010a:	b933      	cbnz	r3, 40011a <frame_dummy+0x2a>
  40010c:	4770      	bx	lr
  40010e:	4b09      	ldr	r3, [pc, #36]	; (400134 <frame_dummy+0x44>)
  400110:	2b00      	cmp	r3, #0
  400112:	d0f7      	beq.n	400104 <frame_dummy+0x14>
  400114:	e8bd 4010 	ldmia.w	sp!, {r4, lr}
  400118:	4718      	bx	r3
  40011a:	4b06      	ldr	r3, [pc, #24]	; (400134 <frame_dummy+0x44>)
  40011c:	2b00      	cmp	r3, #0
  40011e:	d0f5      	beq.n	40010c <frame_dummy+0x1c>
  400120:	4718      	bx	r3
  400122:	bf00      	nop
  400124:	00000000 	.word	0x00000000
  400128:	00403c88 	.word	0x00403c88
  40012c:	20000868 	.word	0x20000868
  400130:	00403c88 	.word	0x00403c88
  400134:	00000000 	.word	0x00000000

00400138 <rtt_init>:
  400138:	4b03      	ldr	r3, [pc, #12]	; (400148 <rtt_init+0x10>)
  40013a:	681b      	ldr	r3, [r3, #0]
  40013c:	f443 2380 	orr.w	r3, r3, #262144	; 0x40000
  400140:	4319      	orrs	r1, r3
  400142:	6001      	str	r1, [r0, #0]
  400144:	2000      	movs	r0, #0
  400146:	4770      	bx	lr
  400148:	20000880 	.word	0x20000880

0040014c <rtt_sel_source>:
  40014c:	b941      	cbnz	r1, 400160 <rtt_sel_source+0x14>
  40014e:	4a09      	ldr	r2, [pc, #36]	; (400174 <rtt_sel_source+0x28>)
  400150:	6813      	ldr	r3, [r2, #0]
  400152:	f023 7380 	bic.w	r3, r3, #16777216	; 0x1000000
  400156:	6013      	str	r3, [r2, #0]
  400158:	6802      	ldr	r2, [r0, #0]
  40015a:	4313      	orrs	r3, r2
  40015c:	6003      	str	r3, [r0, #0]
  40015e:	4770      	bx	lr
  400160:	4a04      	ldr	r2, [pc, #16]	; (400174 <rtt_sel_source+0x28>)
  400162:	6813      	ldr	r3, [r2, #0]
  400164:	f043 7380 	orr.w	r3, r3, #16777216	; 0x1000000
  400168:	6013      	str	r3, [r2, #0]
  40016a:	6802      	ldr	r2, [r0, #0]
  40016c:	4313      	orrs	r3, r2
  40016e:	6003      	str	r3, [r0, #0]
  400170:	4770      	bx	lr
  400172:	bf00      	nop
  400174:	20000880 	.word	0x20000880

00400178 <rtt_disable_interrupt>:
  400178:	6803      	ldr	r3, [r0, #0]
  40017a:	ea23 0101 	bic.w	r1, r3, r1
  40017e:	4b02      	ldr	r3, [pc, #8]	; (400188 <rtt_disable_interrupt+0x10>)
  400180:	681b      	ldr	r3, [r3, #0]
  400182:	4319      	orrs	r1, r3
  400184:	6001      	str	r1, [r0, #0]
  400186:	4770      	bx	lr
  400188:	20000880 	.word	0x20000880

0040018c <rtt_read_timer_value>:
  40018c:	6882      	ldr	r2, [r0, #8]
  40018e:	6883      	ldr	r3, [r0, #8]
  400190:	429a      	cmp	r2, r3
  400192:	d003      	beq.n	40019c <rtt_read_timer_value+0x10>
  400194:	6882      	ldr	r2, [r0, #8]
  400196:	6883      	ldr	r3, [r0, #8]
  400198:	4293      	cmp	r3, r2
  40019a:	d1fb      	bne.n	400194 <rtt_read_timer_value+0x8>
  40019c:	4618      	mov	r0, r3
  40019e:	4770      	bx	lr

004001a0 <rtt_get_status>:
  4001a0:	68c0      	ldr	r0, [r0, #12]
  4001a2:	4770      	bx	lr

004001a4 <console_init>:
  4001a4:	4770      	bx	lr
	...

004001a8 <hal_cpu_init>:
  4001a8:	b508      	push	{r3, lr}
  4001aa:	4b01      	ldr	r3, [pc, #4]	; (4001b0 <hal_cpu_init+0x8>)
  4001ac:	4798      	blx	r3
  4001ae:	bd08      	pop	{r3, pc}
  4001b0:	00401a7d 	.word	0x00401a7d

004001b4 <hal_svc_start>:
  4001b4:	4b01      	ldr	r3, [pc, #4]	; (4001bc <hal_svc_start+0x8>)
  4001b6:	6018      	str	r0, [r3, #0]
  4001b8:	4770      	bx	lr
  4001ba:	bf00      	nop
  4001bc:	20000b80 	.word	0x20000b80

004001c0 <SysTick_Handler>:
  4001c0:	b508      	push	{r3, lr}
  4001c2:	4b02      	ldr	r3, [pc, #8]	; (4001cc <SysTick_Handler+0xc>)
  4001c4:	681b      	ldr	r3, [r3, #0]
  4001c6:	4798      	blx	r3
  4001c8:	bd08      	pop	{r3, pc}
  4001ca:	bf00      	nop
  4001cc:	20000b7c 	.word	0x20000b7c

004001d0 <hal_delay>:
  4001d0:	b538      	push	{r3, r4, r5, lr}
  4001d2:	b918      	cbnz	r0, 4001dc <hal_delay+0xc>
  4001d4:	2009      	movs	r0, #9
  4001d6:	4b0a      	ldr	r3, [pc, #40]	; (400200 <hal_delay+0x30>)
  4001d8:	4798      	blx	r3
  4001da:	bd38      	pop	{r3, r4, r5, pc}
  4001dc:	4601      	mov	r1, r0
  4001de:	f243 62b0 	movw	r2, #14000	; 0x36b0
  4001e2:	2300      	movs	r3, #0
  4001e4:	f243 64af 	movw	r4, #13999	; 0x36af
  4001e8:	2500      	movs	r5, #0
  4001ea:	4806      	ldr	r0, [pc, #24]	; (400204 <hal_delay+0x34>)
  4001ec:	fbe0 4501 	umlal	r4, r5, r0, r1
  4001f0:	4620      	mov	r0, r4
  4001f2:	4629      	mov	r1, r5
  4001f4:	4c04      	ldr	r4, [pc, #16]	; (400208 <hal_delay+0x38>)
  4001f6:	47a0      	blx	r4
  4001f8:	4b01      	ldr	r3, [pc, #4]	; (400200 <hal_delay+0x30>)
  4001fa:	4798      	blx	r3
  4001fc:	bd38      	pop	{r3, r4, r5, pc}
  4001fe:	bf00      	nop
  400200:	20000001 	.word	0x20000001
  400204:	07270e00 	.word	0x07270e00
  400208:	00403689 	.word	0x00403689

0040020c <SVC_Handler>:
  40020c:	4b0d      	ldr	r3, [pc, #52]	; (400244 <hal_cpu_set_psp+0x8>)
  40020e:	681b      	ldr	r3, [r3, #0]
  400210:	4718      	bx	r3

00400212 <hal_cpu_get_psp>:
  400212:	f3ef 8009 	mrs	r0, PSP
  400216:	4770      	bx	lr

00400218 <hal_cpu_set_unprivileged>:
  400218:	f3ef 8314 	mrs	r3, CONTROL
  40021c:	f043 0301 	orr.w	r3, r3, #1
  400220:	f383 8814 	msr	CONTROL, r3
  400224:	f3bf 8f6f 	isb	sy
  400228:	4770      	bx	lr

0040022a <hal_cpu_set_psp_active>:
  40022a:	f3ef 8314 	mrs	r3, CONTROL
  40022e:	f043 0302 	orr.w	r3, r3, #2
  400232:	f383 8814 	msr	CONTROL, r3
  400236:	f3bf 8f6f 	isb	sy
  40023a:	4770      	bx	lr

0040023c <hal_cpu_set_psp>:
  40023c:	f380 8809 	msr	PSP, r0
  400240:	4770      	bx	lr
  400242:	0000      	.short	0x0000
  400244:	20000b80 	.word	0x20000b80

00400248 <button_handler>:
  400248:	b508      	push	{r3, lr}
  40024a:	280b      	cmp	r0, #11
  40024c:	d002      	beq.n	400254 <button_handler+0xc>
  40024e:	280d      	cmp	r0, #13
  400250:	d00e      	beq.n	400270 <button_handler+0x28>
  400252:	bd08      	pop	{r3, pc}
  400254:	2904      	cmp	r1, #4
  400256:	d006      	beq.n	400266 <button_handler+0x1e>
  400258:	2901      	cmp	r1, #1
  40025a:	d1fa      	bne.n	400252 <button_handler+0xa>
  40025c:	4b0c      	ldr	r3, [pc, #48]	; (400290 <button_handler+0x48>)
  40025e:	681b      	ldr	r3, [r3, #0]
  400260:	2001      	movs	r0, #1
  400262:	4798      	blx	r3
  400264:	bd08      	pop	{r3, pc}
  400266:	4b0a      	ldr	r3, [pc, #40]	; (400290 <button_handler+0x48>)
  400268:	681b      	ldr	r3, [r3, #0]
  40026a:	2000      	movs	r0, #0
  40026c:	4798      	blx	r3
  40026e:	bd08      	pop	{r3, pc}
  400270:	f1b1 5f00 	cmp.w	r1, #536870912	; 0x20000000
  400274:	d007      	beq.n	400286 <button_handler+0x3e>
  400276:	f1b1 4f80 	cmp.w	r1, #1073741824	; 0x40000000
  40027a:	d1ea      	bne.n	400252 <button_handler+0xa>
  40027c:	4b04      	ldr	r3, [pc, #16]	; (400290 <button_handler+0x48>)
  40027e:	681b      	ldr	r3, [r3, #0]
  400280:	2003      	movs	r0, #3
  400282:	4798      	blx	r3
  400284:	e7e5      	b.n	400252 <button_handler+0xa>
  400286:	4b02      	ldr	r3, [pc, #8]	; (400290 <button_handler+0x48>)
  400288:	681b      	ldr	r3, [r3, #0]
  40028a:	2002      	movs	r0, #2
  40028c:	4798      	blx	r3
  40028e:	bd08      	pop	{r3, pc}
  400290:	20000884 	.word	0x20000884

00400294 <ssd1306_write_command>:
  400294:	b570      	push	{r4, r5, r6, lr}
  400296:	b082      	sub	sp, #8
  400298:	4606      	mov	r6, r0
  40029a:	ac02      	add	r4, sp, #8
  40029c:	2302      	movs	r3, #2
  40029e:	f844 3d04 	str.w	r3, [r4, #-4]!
  4002a2:	4d09      	ldr	r5, [pc, #36]	; (4002c8 <ssd1306_write_command+0x34>)
  4002a4:	4621      	mov	r1, r4
  4002a6:	4628      	mov	r0, r5
  4002a8:	4b08      	ldr	r3, [pc, #32]	; (4002cc <ssd1306_write_command+0x38>)
  4002aa:	4798      	blx	r3
  4002ac:	f44f 1200 	mov.w	r2, #2097152	; 0x200000
  4002b0:	4b07      	ldr	r3, [pc, #28]	; (4002d0 <ssd1306_write_command+0x3c>)
  4002b2:	635a      	str	r2, [r3, #52]	; 0x34
  4002b4:	60ee      	str	r6, [r5, #12]
  4002b6:	2056      	movs	r0, #86	; 0x56
  4002b8:	4b06      	ldr	r3, [pc, #24]	; (4002d4 <ssd1306_write_command+0x40>)
  4002ba:	4798      	blx	r3
  4002bc:	4621      	mov	r1, r4
  4002be:	4628      	mov	r0, r5
  4002c0:	4b05      	ldr	r3, [pc, #20]	; (4002d8 <ssd1306_write_command+0x44>)
  4002c2:	4798      	blx	r3
  4002c4:	b002      	add	sp, #8
  4002c6:	bd70      	pop	{r4, r5, r6, pc}
  4002c8:	40008000 	.word	0x40008000
  4002cc:	00401bb5 	.word	0x00401bb5
  4002d0:	400e1200 	.word	0x400e1200
  4002d4:	20000001 	.word	0x20000001
  4002d8:	00401be5 	.word	0x00401be5

004002dc <configure_uart1>:
  4002dc:	b530      	push	{r4, r5, lr}
  4002de:	b085      	sub	sp, #20
  4002e0:	4604      	mov	r4, r0
  4002e2:	2300      	movs	r3, #0
  4002e4:	220c      	movs	r2, #12
  4002e6:	f04f 6100 	mov.w	r1, #134217728	; 0x8000000
  4002ea:	480c      	ldr	r0, [pc, #48]	; (40031c <configure_uart1+0x40>)
  4002ec:	4d0c      	ldr	r5, [pc, #48]	; (400320 <configure_uart1+0x44>)
  4002ee:	47a8      	blx	r5
  4002f0:	2009      	movs	r0, #9
  4002f2:	4b0c      	ldr	r3, [pc, #48]	; (400324 <configure_uart1+0x48>)
  4002f4:	4798      	blx	r3
  4002f6:	4b0c      	ldr	r3, [pc, #48]	; (400328 <configure_uart1+0x4c>)
  4002f8:	9301      	str	r3, [sp, #4]
  4002fa:	9402      	str	r4, [sp, #8]
  4002fc:	f44f 6300 	mov.w	r3, #2048	; 0x800
  400300:	9303      	str	r3, [sp, #12]
  400302:	4c0a      	ldr	r4, [pc, #40]	; (40032c <configure_uart1+0x50>)
  400304:	a901      	add	r1, sp, #4
  400306:	4620      	mov	r0, r4
  400308:	4b09      	ldr	r3, [pc, #36]	; (400330 <configure_uart1+0x54>)
  40030a:	4798      	blx	r3
  40030c:	4620      	mov	r0, r4
  40030e:	4b09      	ldr	r3, [pc, #36]	; (400334 <configure_uart1+0x58>)
  400310:	4798      	blx	r3
  400312:	4620      	mov	r0, r4
  400314:	4b08      	ldr	r3, [pc, #32]	; (400338 <configure_uart1+0x5c>)
  400316:	4798      	blx	r3
  400318:	b005      	add	sp, #20
  40031a:	bd30      	pop	{r4, r5, pc}
  40031c:	400e1000 	.word	0x400e1000
  400320:	00401f01 	.word	0x00401f01
  400324:	004024a1 	.word	0x004024a1
  400328:	07270e00 	.word	0x07270e00
  40032c:	400e0800 	.word	0x400e0800
  400330:	00402a29 	.word	0x00402a29
  400334:	00402a5f 	.word	0x00402a5f
  400338:	00402a65 	.word	0x00402a65

0040033c <configure_usart1>:
  40033c:	b530      	push	{r4, r5, lr}
  40033e:	b087      	sub	sp, #28
  400340:	4605      	mov	r5, r0
  400342:	2300      	movs	r3, #0
  400344:	f44f 02c0 	mov.w	r2, #6291456	; 0x600000
  400348:	f04f 6100 	mov.w	r1, #134217728	; 0x8000000
  40034c:	480f      	ldr	r0, [pc, #60]	; (40038c <configure_usart1+0x50>)
  40034e:	4c10      	ldr	r4, [pc, #64]	; (400390 <configure_usart1+0x54>)
  400350:	47a0      	blx	r4
  400352:	200f      	movs	r0, #15
  400354:	4c0f      	ldr	r4, [pc, #60]	; (400394 <configure_usart1+0x58>)
  400356:	47a0      	blx	r4
  400358:	2300      	movs	r3, #0
  40035a:	9303      	str	r3, [sp, #12]
  40035c:	9304      	str	r3, [sp, #16]
  40035e:	9305      	str	r3, [sp, #20]
  400360:	9500      	str	r5, [sp, #0]
  400362:	23c0      	movs	r3, #192	; 0xc0
  400364:	9301      	str	r3, [sp, #4]
  400366:	f44f 6300 	mov.w	r3, #2048	; 0x800
  40036a:	9302      	str	r3, [sp, #8]
  40036c:	200f      	movs	r0, #15
  40036e:	47a0      	blx	r4
  400370:	4c09      	ldr	r4, [pc, #36]	; (400398 <configure_usart1+0x5c>)
  400372:	4a0a      	ldr	r2, [pc, #40]	; (40039c <configure_usart1+0x60>)
  400374:	4669      	mov	r1, sp
  400376:	4620      	mov	r0, r4
  400378:	4b09      	ldr	r3, [pc, #36]	; (4003a0 <configure_usart1+0x64>)
  40037a:	4798      	blx	r3
  40037c:	4620      	mov	r0, r4
  40037e:	4b09      	ldr	r3, [pc, #36]	; (4003a4 <configure_usart1+0x68>)
  400380:	4798      	blx	r3
  400382:	4620      	mov	r0, r4
  400384:	4b08      	ldr	r3, [pc, #32]	; (4003a8 <configure_usart1+0x6c>)
  400386:	4798      	blx	r3
  400388:	b007      	add	sp, #28
  40038a:	bd30      	pop	{r4, r5, pc}
  40038c:	400e0e00 	.word	0x400e0e00
  400390:	00401f01 	.word	0x00401f01
  400394:	004024a1 	.word	0x004024a1
  400398:	40028000 	.word	0x40028000
  40039c:	07270e00 	.word	0x07270e00
  4003a0:	00402b19 	.word	0x00402b19
  4003a4:	00402b6d 	.word	0x00402b6d
  4003a8:	00402b73 	.word	0x00402b73

004003ac <hal_io_init>:
  4003ac:	b510      	push	{r4, lr}
  4003ae:	4b05      	ldr	r3, [pc, #20]	; (4003c4 <hal_io_init+0x18>)
  4003b0:	4798      	blx	r3
  4003b2:	200b      	movs	r0, #11
  4003b4:	4c04      	ldr	r4, [pc, #16]	; (4003c8 <hal_io_init+0x1c>)
  4003b6:	47a0      	blx	r4
  4003b8:	200c      	movs	r0, #12
  4003ba:	47a0      	blx	r4
  4003bc:	200d      	movs	r0, #13
  4003be:	47a0      	blx	r4
  4003c0:	bd10      	pop	{r4, pc}
  4003c2:	bf00      	nop
  4003c4:	00401c8d 	.word	0x00401c8d
  4003c8:	004024a1 	.word	0x004024a1

004003cc <hal_mtimer_start>:
  4003cc:	b538      	push	{r3, r4, r5, lr}
  4003ce:	4604      	mov	r4, r0
  4003d0:	4d08      	ldr	r5, [pc, #32]	; (4003f4 <hal_mtimer_start+0x28>)
  4003d2:	2100      	movs	r1, #0
  4003d4:	4628      	mov	r0, r5
  4003d6:	4b08      	ldr	r3, [pc, #32]	; (4003f8 <hal_mtimer_start+0x2c>)
  4003d8:	4798      	blx	r3
  4003da:	eb04 1444 	add.w	r4, r4, r4, lsl #5
  4003de:	f5b4 4f00 	cmp.w	r4, #32768	; 0x8000
  4003e2:	bf28      	it	cs
  4003e4:	f44f 4400 	movcs.w	r4, #32768	; 0x8000
  4003e8:	b2a1      	uxth	r1, r4
  4003ea:	4628      	mov	r0, r5
  4003ec:	4b03      	ldr	r3, [pc, #12]	; (4003fc <hal_mtimer_start+0x30>)
  4003ee:	4798      	blx	r3
  4003f0:	bd38      	pop	{r3, r4, r5, pc}
  4003f2:	bf00      	nop
  4003f4:	400e1430 	.word	0x400e1430
  4003f8:	0040014d 	.word	0x0040014d
  4003fc:	00400139 	.word	0x00400139

00400400 <RTT_Handler>:
  400400:	b508      	push	{r3, lr}
  400402:	4805      	ldr	r0, [pc, #20]	; (400418 <RTT_Handler+0x18>)
  400404:	4b05      	ldr	r3, [pc, #20]	; (40041c <RTT_Handler+0x1c>)
  400406:	4798      	blx	r3
  400408:	f010 0f02 	tst.w	r0, #2
  40040c:	d100      	bne.n	400410 <RTT_Handler+0x10>
  40040e:	bd08      	pop	{r3, pc}
  400410:	4b03      	ldr	r3, [pc, #12]	; (400420 <RTT_Handler+0x20>)
  400412:	681b      	ldr	r3, [r3, #0]
  400414:	4798      	blx	r3
  400416:	e7fa      	b.n	40040e <RTT_Handler+0xe>
  400418:	400e1430 	.word	0x400e1430
  40041c:	004001a1 	.word	0x004001a1
  400420:	20000888 	.word	0x20000888

00400424 <hal_mtimer_stop>:
  400424:	b508      	push	{r3, lr}
  400426:	4b06      	ldr	r3, [pc, #24]	; (400440 <hal_mtimer_stop+0x1c>)
  400428:	2208      	movs	r2, #8
  40042a:	f8c3 2080 	str.w	r2, [r3, #128]	; 0x80
  40042e:	f8c3 2180 	str.w	r2, [r3, #384]	; 0x180
  400432:	f44f 3100 	mov.w	r1, #131072	; 0x20000
  400436:	4803      	ldr	r0, [pc, #12]	; (400444 <hal_mtimer_stop+0x20>)
  400438:	4b03      	ldr	r3, [pc, #12]	; (400448 <hal_mtimer_stop+0x24>)
  40043a:	4798      	blx	r3
  40043c:	bd08      	pop	{r3, pc}
  40043e:	bf00      	nop
  400440:	e000e100 	.word	0xe000e100
  400444:	400e1430 	.word	0x400e1430
  400448:	00400179 	.word	0x00400179

0040044c <hal_mtimer_read>:
  40044c:	b508      	push	{r3, lr}
  40044e:	4802      	ldr	r0, [pc, #8]	; (400458 <hal_mtimer_read+0xc>)
  400450:	4b02      	ldr	r3, [pc, #8]	; (40045c <hal_mtimer_read+0x10>)
  400452:	4798      	blx	r3
  400454:	bd08      	pop	{r3, pc}
  400456:	bf00      	nop
  400458:	400e1430 	.word	0x400e1430
  40045c:	0040018d 	.word	0x0040018d

00400460 <hal_led_start>:
  400460:	4b0f      	ldr	r3, [pc, #60]	; (4004a0 <hal_led_start+0x40>)
  400462:	f44f 0200 	mov.w	r2, #8388608	; 0x800000
  400466:	611a      	str	r2, [r3, #16]
  400468:	f8c3 20a0 	str.w	r2, [r3, #160]	; 0xa0
  40046c:	f44f 1280 	mov.w	r2, #1048576	; 0x100000
  400470:	611a      	str	r2, [r3, #16]
  400472:	f8c3 20a0 	str.w	r2, [r3, #160]	; 0xa0
  400476:	f102 4280 	add.w	r2, r2, #1073741824	; 0x40000000
  40047a:	f5a2 32f9 	sub.w	r2, r2, #127488	; 0x1f200
  40047e:	f44f 3180 	mov.w	r1, #65536	; 0x10000
  400482:	6111      	str	r1, [r2, #16]
  400484:	f8c2 10a0 	str.w	r1, [r2, #160]	; 0xa0
  400488:	f44f 0280 	mov.w	r2, #4194304	; 0x400000
  40048c:	611a      	str	r2, [r3, #16]
  40048e:	f8c3 20a0 	str.w	r2, [r3, #160]	; 0xa0
  400492:	f44f 2200 	mov.w	r2, #524288	; 0x80000
  400496:	611a      	str	r2, [r3, #16]
  400498:	f8c3 20a0 	str.w	r2, [r3, #160]	; 0xa0
  40049c:	4770      	bx	lr
  40049e:	bf00      	nop
  4004a0:	400e1200 	.word	0x400e1200

004004a4 <hal_led_write>:
  4004a4:	2804      	cmp	r0, #4
  4004a6:	d81b      	bhi.n	4004e0 <hal_led_write+0x3c>
  4004a8:	e8df f000 	tbb	[pc, r0]
  4004ac:	16141203 	.word	0x16141203
  4004b0:	18          	.byte	0x18
  4004b1:	00          	.byte	0x00
  4004b2:	2257      	movs	r2, #87	; 0x57
  4004b4:	0953      	lsrs	r3, r2, #5
  4004b6:	f503 1300 	add.w	r3, r3, #2097152	; 0x200000
  4004ba:	f203 7307 	addw	r3, r3, #1799	; 0x707
  4004be:	025b      	lsls	r3, r3, #9
  4004c0:	b181      	cbz	r1, 4004e4 <hal_led_write+0x40>
  4004c2:	f002 021f 	and.w	r2, r2, #31
  4004c6:	2101      	movs	r1, #1
  4004c8:	fa01 f202 	lsl.w	r2, r1, r2
  4004cc:	635a      	str	r2, [r3, #52]	; 0x34
  4004ce:	4770      	bx	lr
  4004d0:	2254      	movs	r2, #84	; 0x54
  4004d2:	e7ef      	b.n	4004b4 <hal_led_write+0x10>
  4004d4:	2210      	movs	r2, #16
  4004d6:	e7ed      	b.n	4004b4 <hal_led_write+0x10>
  4004d8:	2256      	movs	r2, #86	; 0x56
  4004da:	e7eb      	b.n	4004b4 <hal_led_write+0x10>
  4004dc:	2253      	movs	r2, #83	; 0x53
  4004de:	e7e9      	b.n	4004b4 <hal_led_write+0x10>
  4004e0:	2200      	movs	r2, #0
  4004e2:	e7e7      	b.n	4004b4 <hal_led_write+0x10>
  4004e4:	f002 021f 	and.w	r2, r2, #31
  4004e8:	2101      	movs	r1, #1
  4004ea:	fa01 f202 	lsl.w	r2, r1, r2
  4004ee:	631a      	str	r2, [r3, #48]	; 0x30
  4004f0:	4770      	bx	lr

004004f2 <hal_led_read>:
  4004f2:	2804      	cmp	r0, #4
  4004f4:	d81e      	bhi.n	400534 <hal_led_read+0x42>
  4004f6:	e8df f000 	tbb	[pc, r0]
  4004fa:	1503      	.short	0x1503
  4004fc:	1917      	.short	0x1917
  4004fe:	1b          	.byte	0x1b
  4004ff:	00          	.byte	0x00
  400500:	2257      	movs	r2, #87	; 0x57
  400502:	0953      	lsrs	r3, r2, #5
  400504:	f503 1300 	add.w	r3, r3, #2097152	; 0x200000
  400508:	f203 7307 	addw	r3, r3, #1799	; 0x707
  40050c:	025b      	lsls	r3, r3, #9
  40050e:	6bd9      	ldr	r1, [r3, #60]	; 0x3c
  400510:	f002 021f 	and.w	r2, r2, #31
  400514:	2301      	movs	r3, #1
  400516:	fa03 f202 	lsl.w	r2, r3, r2
  40051a:	420a      	tst	r2, r1
  40051c:	bf0c      	ite	eq
  40051e:	4618      	moveq	r0, r3
  400520:	2000      	movne	r0, #0
  400522:	4770      	bx	lr
  400524:	2254      	movs	r2, #84	; 0x54
  400526:	e7ec      	b.n	400502 <hal_led_read+0x10>
  400528:	2210      	movs	r2, #16
  40052a:	e7ea      	b.n	400502 <hal_led_read+0x10>
  40052c:	2256      	movs	r2, #86	; 0x56
  40052e:	e7e8      	b.n	400502 <hal_led_read+0x10>
  400530:	2253      	movs	r2, #83	; 0x53
  400532:	e7e6      	b.n	400502 <hal_led_read+0x10>
  400534:	2200      	movs	r2, #0
  400536:	e7e4      	b.n	400502 <hal_led_read+0x10>

00400538 <hal_clock_start>:
  400538:	b510      	push	{r4, lr}
  40053a:	2000      	movs	r0, #0
  40053c:	4b05      	ldr	r3, [pc, #20]	; (400554 <hal_clock_start+0x1c>)
  40053e:	4798      	blx	r3
  400540:	4c05      	ldr	r4, [pc, #20]	; (400558 <hal_clock_start+0x20>)
  400542:	47a0      	blx	r4
  400544:	2800      	cmp	r0, #0
  400546:	d0fc      	beq.n	400542 <hal_clock_start+0xa>
  400548:	2100      	movs	r1, #0
  40054a:	4804      	ldr	r0, [pc, #16]	; (40055c <hal_clock_start+0x24>)
  40054c:	4b04      	ldr	r3, [pc, #16]	; (400560 <hal_clock_start+0x28>)
  40054e:	4798      	blx	r3
  400550:	bd10      	pop	{r4, pc}
  400552:	bf00      	nop
  400554:	004023d9 	.word	0x004023d9
  400558:	004023fd 	.word	0x004023fd
  40055c:	400e1460 	.word	0x400e1460
  400560:	004024f5 	.word	0x004024f5

00400564 <hal_clock_write>:
  400564:	b570      	push	{r4, r5, r6, lr}
  400566:	b082      	sub	sp, #8
  400568:	4604      	mov	r4, r0
  40056a:	4d08      	ldr	r5, [pc, #32]	; (40058c <hal_clock_write+0x28>)
  40056c:	2301      	movs	r3, #1
  40056e:	9300      	str	r3, [sp, #0]
  400570:	68c3      	ldr	r3, [r0, #12]
  400572:	6902      	ldr	r2, [r0, #16]
  400574:	6941      	ldr	r1, [r0, #20]
  400576:	4628      	mov	r0, r5
  400578:	4e05      	ldr	r6, [pc, #20]	; (400590 <hal_clock_write+0x2c>)
  40057a:	47b0      	blx	r6
  40057c:	6823      	ldr	r3, [r4, #0]
  40057e:	6862      	ldr	r2, [r4, #4]
  400580:	68a1      	ldr	r1, [r4, #8]
  400582:	4628      	mov	r0, r5
  400584:	4c03      	ldr	r4, [pc, #12]	; (400594 <hal_clock_write+0x30>)
  400586:	47a0      	blx	r4
  400588:	b002      	add	sp, #8
  40058a:	bd70      	pop	{r4, r5, r6, pc}
  40058c:	400e1460 	.word	0x400e1460
  400590:	0040266d 	.word	0x0040266d
  400594:	00402565 	.word	0x00402565

00400598 <hal_clock_read>:
  400598:	b5f0      	push	{r4, r5, r6, r7, lr}
  40059a:	b085      	sub	sp, #20
  40059c:	4604      	mov	r4, r0
  40059e:	ad04      	add	r5, sp, #16
  4005a0:	2300      	movs	r3, #0
  4005a2:	f845 3d04 	str.w	r3, [r5, #-4]!
  4005a6:	4e0a      	ldr	r6, [pc, #40]	; (4005d0 <hal_clock_read+0x38>)
  4005a8:	4603      	mov	r3, r0
  4005aa:	1d02      	adds	r2, r0, #4
  4005ac:	f100 0108 	add.w	r1, r0, #8
  4005b0:	4630      	mov	r0, r6
  4005b2:	4f08      	ldr	r7, [pc, #32]	; (4005d4 <hal_clock_read+0x3c>)
  4005b4:	47b8      	blx	r7
  4005b6:	9500      	str	r5, [sp, #0]
  4005b8:	f104 030c 	add.w	r3, r4, #12
  4005bc:	f104 0210 	add.w	r2, r4, #16
  4005c0:	f104 0114 	add.w	r1, r4, #20
  4005c4:	4630      	mov	r0, r6
  4005c6:	4c04      	ldr	r4, [pc, #16]	; (4005d8 <hal_clock_read+0x40>)
  4005c8:	47a0      	blx	r4
  4005ca:	b005      	add	sp, #20
  4005cc:	bdf0      	pop	{r4, r5, r6, r7, pc}
  4005ce:	bf00      	nop
  4005d0:	400e1460 	.word	0x400e1460
  4005d4:	0040250b 	.word	0x0040250b
  4005d8:	004025f9 	.word	0x004025f9

004005dc <hal_display_start>:
  4005dc:	b508      	push	{r3, lr}
  4005de:	4b01      	ldr	r3, [pc, #4]	; (4005e4 <hal_display_start+0x8>)
  4005e0:	4798      	blx	r3
  4005e2:	bd08      	pop	{r3, pc}
  4005e4:	00400dd1 	.word	0x00400dd1

004005e8 <hal_display_putc>:
  4005e8:	e92d 47f0 	stmdb	sp!, {r4, r5, r6, r7, r8, r9, sl, lr}
  4005ec:	b082      	sub	sp, #8
  4005ee:	3820      	subs	r0, #32
  4005f0:	4b1f      	ldr	r3, [pc, #124]	; (400670 <hal_display_putc+0x88>)
  4005f2:	f853 7020 	ldr.w	r7, [r3, r0, lsl #2]
  4005f6:	783b      	ldrb	r3, [r7, #0]
  4005f8:	b303      	cbz	r3, 40063c <hal_display_putc+0x54>
  4005fa:	2401      	movs	r4, #1
  4005fc:	4e1d      	ldr	r6, [pc, #116]	; (400674 <hal_display_putc+0x8c>)
  4005fe:	f8df 9080 	ldr.w	r9, [pc, #128]	; 400680 <hal_display_putc+0x98>
  400602:	f8df 8080 	ldr.w	r8, [pc, #128]	; 400684 <hal_display_putc+0x9c>
  400606:	f817 a004 	ldrb.w	sl, [r7, r4]
  40060a:	ad02      	add	r5, sp, #8
  40060c:	2302      	movs	r3, #2
  40060e:	f845 3d04 	str.w	r3, [r5, #-4]!
  400612:	4629      	mov	r1, r5
  400614:	4630      	mov	r0, r6
  400616:	47c8      	blx	r9
  400618:	f44f 1300 	mov.w	r3, #2097152	; 0x200000
  40061c:	f8c8 3030 	str.w	r3, [r8, #48]	; 0x30
  400620:	f8c6 a00c 	str.w	sl, [r6, #12]
  400624:	2056      	movs	r0, #86	; 0x56
  400626:	4b14      	ldr	r3, [pc, #80]	; (400678 <hal_display_putc+0x90>)
  400628:	4798      	blx	r3
  40062a:	4629      	mov	r1, r5
  40062c:	4630      	mov	r0, r6
  40062e:	4b13      	ldr	r3, [pc, #76]	; (40067c <hal_display_putc+0x94>)
  400630:	4798      	blx	r3
  400632:	3401      	adds	r4, #1
  400634:	b2e4      	uxtb	r4, r4
  400636:	783b      	ldrb	r3, [r7, #0]
  400638:	42a3      	cmp	r3, r4
  40063a:	d2e4      	bcs.n	400606 <hal_display_putc+0x1e>
  40063c:	ac02      	add	r4, sp, #8
  40063e:	2302      	movs	r3, #2
  400640:	f844 3d04 	str.w	r3, [r4, #-4]!
  400644:	4d0b      	ldr	r5, [pc, #44]	; (400674 <hal_display_putc+0x8c>)
  400646:	4621      	mov	r1, r4
  400648:	4628      	mov	r0, r5
  40064a:	4b0d      	ldr	r3, [pc, #52]	; (400680 <hal_display_putc+0x98>)
  40064c:	4798      	blx	r3
  40064e:	f44f 1200 	mov.w	r2, #2097152	; 0x200000
  400652:	4b0c      	ldr	r3, [pc, #48]	; (400684 <hal_display_putc+0x9c>)
  400654:	631a      	str	r2, [r3, #48]	; 0x30
  400656:	2300      	movs	r3, #0
  400658:	60eb      	str	r3, [r5, #12]
  40065a:	2056      	movs	r0, #86	; 0x56
  40065c:	4b06      	ldr	r3, [pc, #24]	; (400678 <hal_display_putc+0x90>)
  40065e:	4798      	blx	r3
  400660:	4621      	mov	r1, r4
  400662:	4628      	mov	r0, r5
  400664:	4b05      	ldr	r3, [pc, #20]	; (40067c <hal_display_putc+0x94>)
  400666:	4798      	blx	r3
  400668:	b002      	add	sp, #8
  40066a:	e8bd 87f0 	ldmia.w	sp!, {r4, r5, r6, r7, r8, r9, sl, pc}
  40066e:	bf00      	nop
  400670:	2000028c 	.word	0x2000028c
  400674:	40008000 	.word	0x40008000
  400678:	20000001 	.word	0x20000001
  40067c:	00401be5 	.word	0x00401be5
  400680:	00401bb5 	.word	0x00401bb5
  400684:	400e1200 	.word	0x400e1200

00400688 <hal_display_cls>:
  400688:	e92d 4ff0 	stmdb	sp!, {r4, r5, r6, r7, r8, r9, sl, fp, lr}
  40068c:	b083      	sub	sp, #12
  40068e:	f04f 0a00 	mov.w	sl, #0
  400692:	f8df b078 	ldr.w	fp, [pc, #120]	; 40070c <hal_display_cls+0x84>
  400696:	4657      	mov	r7, sl
  400698:	f8df 9074 	ldr.w	r9, [pc, #116]	; 400710 <hal_display_cls+0x88>
  40069c:	f00a 0007 	and.w	r0, sl, #7
  4006a0:	f040 00b0 	orr.w	r0, r0, #176	; 0xb0
  4006a4:	47d8      	blx	fp
  4006a6:	2010      	movs	r0, #16
  4006a8:	47d8      	blx	fp
  4006aa:	4638      	mov	r0, r7
  4006ac:	47d8      	blx	fp
  4006ae:	2680      	movs	r6, #128	; 0x80
  4006b0:	4d13      	ldr	r5, [pc, #76]	; (400700 <hal_display_cls+0x78>)
  4006b2:	f8df 8060 	ldr.w	r8, [pc, #96]	; 400714 <hal_display_cls+0x8c>
  4006b6:	ac02      	add	r4, sp, #8
  4006b8:	2302      	movs	r3, #2
  4006ba:	f844 3d04 	str.w	r3, [r4, #-4]!
  4006be:	4621      	mov	r1, r4
  4006c0:	4628      	mov	r0, r5
  4006c2:	47c0      	blx	r8
  4006c4:	f44f 1300 	mov.w	r3, #2097152	; 0x200000
  4006c8:	f8c9 3030 	str.w	r3, [r9, #48]	; 0x30
  4006cc:	60ef      	str	r7, [r5, #12]
  4006ce:	2056      	movs	r0, #86	; 0x56
  4006d0:	4b0c      	ldr	r3, [pc, #48]	; (400704 <hal_display_cls+0x7c>)
  4006d2:	4798      	blx	r3
  4006d4:	4621      	mov	r1, r4
  4006d6:	4628      	mov	r0, r5
  4006d8:	4b0b      	ldr	r3, [pc, #44]	; (400708 <hal_display_cls+0x80>)
  4006da:	4798      	blx	r3
  4006dc:	3e01      	subs	r6, #1
  4006de:	d1ea      	bne.n	4006b6 <hal_display_cls+0x2e>
  4006e0:	f10a 0a01 	add.w	sl, sl, #1
  4006e4:	f1ba 0f04 	cmp.w	sl, #4
  4006e8:	d1d8      	bne.n	40069c <hal_display_cls+0x14>
  4006ea:	20b0      	movs	r0, #176	; 0xb0
  4006ec:	4c07      	ldr	r4, [pc, #28]	; (40070c <hal_display_cls+0x84>)
  4006ee:	47a0      	blx	r4
  4006f0:	2010      	movs	r0, #16
  4006f2:	47a0      	blx	r4
  4006f4:	2000      	movs	r0, #0
  4006f6:	47a0      	blx	r4
  4006f8:	b003      	add	sp, #12
  4006fa:	e8bd 8ff0 	ldmia.w	sp!, {r4, r5, r6, r7, r8, r9, sl, fp, pc}
  4006fe:	bf00      	nop
  400700:	40008000 	.word	0x40008000
  400704:	20000001 	.word	0x20000001
  400708:	00401be5 	.word	0x00401be5
  40070c:	00400295 	.word	0x00400295
  400710:	400e1200 	.word	0x400e1200
  400714:	00401bb5 	.word	0x00401bb5

00400718 <hal_display_gotoxy>:
  400718:	b570      	push	{r4, r5, r6, lr}
  40071a:	460d      	mov	r5, r1
  40071c:	b2c6      	uxtb	r6, r0
  40071e:	f3c6 1002 	ubfx	r0, r6, #4, #3
  400722:	f040 0010 	orr.w	r0, r0, #16
  400726:	4c05      	ldr	r4, [pc, #20]	; (40073c <hal_display_gotoxy+0x24>)
  400728:	47a0      	blx	r4
  40072a:	f006 000f 	and.w	r0, r6, #15
  40072e:	47a0      	blx	r4
  400730:	f005 0007 	and.w	r0, r5, #7
  400734:	f040 00b0 	orr.w	r0, r0, #176	; 0xb0
  400738:	47a0      	blx	r4
  40073a:	bd70      	pop	{r4, r5, r6, pc}
  40073c:	00400295 	.word	0x00400295

00400740 <hal_display_numlines>:
  400740:	2004      	movs	r0, #4
  400742:	4770      	bx	lr

00400744 <hal_sensor_start>:
  400744:	b538      	push	{r3, r4, r5, lr}
  400746:	b110      	cbz	r0, 40074e <hal_sensor_start+0xa>
  400748:	2801      	cmp	r0, #1
  40074a:	d01c      	beq.n	400786 <hal_sensor_start+0x42>
  40074c:	bd38      	pop	{r3, r4, r5, pc}
  40074e:	f04f 5120 	mov.w	r1, #671088640	; 0x28000000
  400752:	2020      	movs	r0, #32
  400754:	4b0d      	ldr	r3, [pc, #52]	; (40078c <hal_sensor_start+0x48>)
  400756:	4798      	blx	r3
  400758:	201d      	movs	r0, #29
  40075a:	4b0d      	ldr	r3, [pc, #52]	; (400790 <hal_sensor_start+0x4c>)
  40075c:	4798      	blx	r3
  40075e:	4c0d      	ldr	r4, [pc, #52]	; (400794 <hal_sensor_start+0x50>)
  400760:	2300      	movs	r3, #0
  400762:	4a0d      	ldr	r2, [pc, #52]	; (400798 <hal_sensor_start+0x54>)
  400764:	490d      	ldr	r1, [pc, #52]	; (40079c <hal_sensor_start+0x58>)
  400766:	4620      	mov	r0, r4
  400768:	4d0d      	ldr	r5, [pc, #52]	; (4007a0 <hal_sensor_start+0x5c>)
  40076a:	47a8      	blx	r5
  40076c:	2104      	movs	r1, #4
  40076e:	4620      	mov	r0, r4
  400770:	4b0c      	ldr	r3, [pc, #48]	; (4007a4 <hal_sensor_start+0x60>)
  400772:	4798      	blx	r3
  400774:	2201      	movs	r2, #1
  400776:	2100      	movs	r1, #0
  400778:	4620      	mov	r0, r4
  40077a:	4b0b      	ldr	r3, [pc, #44]	; (4007a8 <hal_sensor_start+0x64>)
  40077c:	4798      	blx	r3
  40077e:	4620      	mov	r0, r4
  400780:	4b0a      	ldr	r3, [pc, #40]	; (4007ac <hal_sensor_start+0x68>)
  400782:	4798      	blx	r3
  400784:	bd38      	pop	{r3, r4, r5, pc}
  400786:	4b0a      	ldr	r3, [pc, #40]	; (4007b0 <hal_sensor_start+0x6c>)
  400788:	4798      	blx	r3
  40078a:	bd38      	pop	{r3, r4, r5, pc}
  40078c:	00401fe9 	.word	0x00401fe9
  400790:	004024a1 	.word	0x004024a1
  400794:	40038000 	.word	0x40038000
  400798:	000f4240 	.word	0x000f4240
  40079c:	07270e00 	.word	0x07270e00
  4007a0:	00401d9d 	.word	0x00401d9d
  4007a4:	00401de5 	.word	0x00401de5
  4007a8:	00401dd1 	.word	0x00401dd1
  4007ac:	00401ddf 	.word	0x00401ddf
  4007b0:	00400e89 	.word	0x00400e89
  4007b4:	00000000 	.word	0x00000000

004007b8 <hal_sensor_read>:
  4007b8:	b510      	push	{r4, lr}
  4007ba:	b084      	sub	sp, #16
  4007bc:	b118      	cbz	r0, 4007c6 <hal_sensor_read+0xe>
  4007be:	2801      	cmp	r0, #1
  4007c0:	d01a      	beq.n	4007f8 <hal_sensor_read+0x40>
  4007c2:	2000      	movs	r0, #0
  4007c4:	e016      	b.n	4007f4 <hal_sensor_read+0x3c>
  4007c6:	2104      	movs	r1, #4
  4007c8:	481b      	ldr	r0, [pc, #108]	; (400838 <hal_sensor_read+0x80>)
  4007ca:	4b1c      	ldr	r3, [pc, #112]	; (40083c <hal_sensor_read+0x84>)
  4007cc:	4798      	blx	r3
  4007ce:	4b1c      	ldr	r3, [pc, #112]	; (400840 <hal_sensor_read+0x88>)
  4007d0:	4798      	blx	r3
  4007d2:	a317      	add	r3, pc, #92	; (adr r3, 400830 <hal_sensor_read+0x78>)
  4007d4:	e9d3 2300 	ldrd	r2, r3, [r3]
  4007d8:	4c1a      	ldr	r4, [pc, #104]	; (400844 <hal_sensor_read+0x8c>)
  4007da:	47a0      	blx	r4
  4007dc:	2200      	movs	r2, #0
  4007de:	4b1a      	ldr	r3, [pc, #104]	; (400848 <hal_sensor_read+0x90>)
  4007e0:	4c1a      	ldr	r4, [pc, #104]	; (40084c <hal_sensor_read+0x94>)
  4007e2:	47a0      	blx	r4
  4007e4:	4602      	mov	r2, r0
  4007e6:	460b      	mov	r3, r1
  4007e8:	2000      	movs	r0, #0
  4007ea:	4917      	ldr	r1, [pc, #92]	; (400848 <hal_sensor_read+0x90>)
  4007ec:	4c18      	ldr	r4, [pc, #96]	; (400850 <hal_sensor_read+0x98>)
  4007ee:	47a0      	blx	r4
  4007f0:	4b18      	ldr	r3, [pc, #96]	; (400854 <hal_sensor_read+0x9c>)
  4007f2:	4798      	blx	r3
  4007f4:	b004      	add	sp, #16
  4007f6:	bd10      	pop	{r4, pc}
  4007f8:	2200      	movs	r2, #0
  4007fa:	2300      	movs	r3, #0
  4007fc:	e9cd 2300 	strd	r2, r3, [sp]
  400800:	2203      	movs	r2, #3
  400802:	2300      	movs	r3, #0
  400804:	e9cd 2302 	strd	r2, r3, [sp, #8]
  400808:	4c13      	ldr	r4, [pc, #76]	; (400858 <hal_sensor_read+0xa0>)
  40080a:	4668      	mov	r0, sp
  40080c:	47a0      	blx	r4
  40080e:	b150      	cbz	r0, 400826 <hal_sensor_read+0x6e>
  400810:	e9dd 2302 	ldrd	r2, r3, [sp, #8]
  400814:	1c50      	adds	r0, r2, #1
  400816:	f143 0100 	adc.w	r1, r3, #0
  40081a:	e9cd 0102 	strd	r0, r1, [sp, #8]
  40081e:	2b00      	cmp	r3, #0
  400820:	bf08      	it	eq
  400822:	2a04      	cmpeq	r2, #4
  400824:	d3f1      	bcc.n	40080a <hal_sensor_read+0x52>
  400826:	e9dd 0100 	ldrd	r0, r1, [sp]
  40082a:	4b0a      	ldr	r3, [pc, #40]	; (400854 <hal_sensor_read+0x9c>)
  40082c:	4798      	blx	r3
  40082e:	e7e1      	b.n	4007f4 <hal_sensor_read+0x3c>
  400830:	00000000 	.word	0x00000000
  400834:	40affe00 	.word	0x40affe00
  400838:	40038000 	.word	0x40038000
  40083c:	00401def 	.word	0x00401def
  400840:	00403139 	.word	0x00403139
  400844:	00403479 	.word	0x00403479
  400848:	40590000 	.word	0x40590000
  40084c:	00403225 	.word	0x00403225
  400850:	00402ebd 	.word	0x00402ebd
  400854:	00403649 	.word	0x00403649
  400858:	00400ef5 	.word	0x00400ef5

0040085c <hal_button_start_int>:
  40085c:	e92d 4ff0 	stmdb	sp!, {r4, r5, r6, r7, r8, r9, sl, fp, lr}
  400860:	b083      	sub	sp, #12
  400862:	4b38      	ldr	r3, [pc, #224]	; (400944 <hal_button_start_int+0xe8>)
  400864:	6018      	str	r0, [r3, #0]
  400866:	200b      	movs	r0, #11
  400868:	f8df a0f4 	ldr.w	sl, [pc, #244]	; 400960 <hal_button_start_int+0x104>
  40086c:	47d0      	blx	sl
  40086e:	220a      	movs	r2, #10
  400870:	2104      	movs	r1, #4
  400872:	4835      	ldr	r0, [pc, #212]	; (400948 <hal_button_start_int+0xec>)
  400874:	f8df 90ec 	ldr.w	r9, [pc, #236]	; 400964 <hal_button_start_int+0x108>
  400878:	47c8      	blx	r9
  40087a:	f8df 80ec 	ldr.w	r8, [pc, #236]	; 400968 <hal_button_start_int+0x10c>
  40087e:	f8cd 8000 	str.w	r8, [sp]
  400882:	2379      	movs	r3, #121	; 0x79
  400884:	2204      	movs	r2, #4
  400886:	210b      	movs	r1, #11
  400888:	482f      	ldr	r0, [pc, #188]	; (400948 <hal_button_start_int+0xec>)
  40088a:	4f30      	ldr	r7, [pc, #192]	; (40094c <hal_button_start_int+0xf0>)
  40088c:	47b8      	blx	r7
  40088e:	4e30      	ldr	r6, [pc, #192]	; (400950 <hal_button_start_int+0xf4>)
  400890:	f44f 6b00 	mov.w	fp, #2048	; 0x800
  400894:	f8c6 b000 	str.w	fp, [r6]
  400898:	2205      	movs	r2, #5
  40089a:	210b      	movs	r1, #11
  40089c:	482a      	ldr	r0, [pc, #168]	; (400948 <hal_button_start_int+0xec>)
  40089e:	4d2d      	ldr	r5, [pc, #180]	; (400954 <hal_button_start_int+0xf8>)
  4008a0:	47a8      	blx	r5
  4008a2:	2104      	movs	r1, #4
  4008a4:	4828      	ldr	r0, [pc, #160]	; (400948 <hal_button_start_int+0xec>)
  4008a6:	4c2c      	ldr	r4, [pc, #176]	; (400958 <hal_button_start_int+0xfc>)
  4008a8:	47a0      	blx	r4
  4008aa:	200b      	movs	r0, #11
  4008ac:	47d0      	blx	sl
  4008ae:	220a      	movs	r2, #10
  4008b0:	2101      	movs	r1, #1
  4008b2:	4825      	ldr	r0, [pc, #148]	; (400948 <hal_button_start_int+0xec>)
  4008b4:	47c8      	blx	r9
  4008b6:	f8cd 8000 	str.w	r8, [sp]
  4008ba:	2379      	movs	r3, #121	; 0x79
  4008bc:	2201      	movs	r2, #1
  4008be:	210b      	movs	r1, #11
  4008c0:	4821      	ldr	r0, [pc, #132]	; (400948 <hal_button_start_int+0xec>)
  4008c2:	47b8      	blx	r7
  4008c4:	f8c6 b000 	str.w	fp, [r6]
  4008c8:	2205      	movs	r2, #5
  4008ca:	210b      	movs	r1, #11
  4008cc:	481e      	ldr	r0, [pc, #120]	; (400948 <hal_button_start_int+0xec>)
  4008ce:	47a8      	blx	r5
  4008d0:	2101      	movs	r1, #1
  4008d2:	481d      	ldr	r0, [pc, #116]	; (400948 <hal_button_start_int+0xec>)
  4008d4:	47a0      	blx	r4
  4008d6:	200d      	movs	r0, #13
  4008d8:	47d0      	blx	sl
  4008da:	220a      	movs	r2, #10
  4008dc:	f04f 5100 	mov.w	r1, #536870912	; 0x20000000
  4008e0:	481e      	ldr	r0, [pc, #120]	; (40095c <hal_button_start_int+0x100>)
  4008e2:	47c8      	blx	r9
  4008e4:	f8cd 8000 	str.w	r8, [sp]
  4008e8:	2379      	movs	r3, #121	; 0x79
  4008ea:	f04f 5200 	mov.w	r2, #536870912	; 0x20000000
  4008ee:	210d      	movs	r1, #13
  4008f0:	481a      	ldr	r0, [pc, #104]	; (40095c <hal_button_start_int+0x100>)
  4008f2:	47b8      	blx	r7
  4008f4:	f44f 5b00 	mov.w	fp, #8192	; 0x2000
  4008f8:	f8c6 b000 	str.w	fp, [r6]
  4008fc:	2205      	movs	r2, #5
  4008fe:	210d      	movs	r1, #13
  400900:	4816      	ldr	r0, [pc, #88]	; (40095c <hal_button_start_int+0x100>)
  400902:	47a8      	blx	r5
  400904:	f04f 5100 	mov.w	r1, #536870912	; 0x20000000
  400908:	4814      	ldr	r0, [pc, #80]	; (40095c <hal_button_start_int+0x100>)
  40090a:	47a0      	blx	r4
  40090c:	200d      	movs	r0, #13
  40090e:	47d0      	blx	sl
  400910:	220a      	movs	r2, #10
  400912:	f04f 4180 	mov.w	r1, #1073741824	; 0x40000000
  400916:	4811      	ldr	r0, [pc, #68]	; (40095c <hal_button_start_int+0x100>)
  400918:	47c8      	blx	r9
  40091a:	f8cd 8000 	str.w	r8, [sp]
  40091e:	2379      	movs	r3, #121	; 0x79
  400920:	f04f 4280 	mov.w	r2, #1073741824	; 0x40000000
  400924:	210d      	movs	r1, #13
  400926:	480d      	ldr	r0, [pc, #52]	; (40095c <hal_button_start_int+0x100>)
  400928:	47b8      	blx	r7
  40092a:	f8c6 b000 	str.w	fp, [r6]
  40092e:	2205      	movs	r2, #5
  400930:	210d      	movs	r1, #13
  400932:	480a      	ldr	r0, [pc, #40]	; (40095c <hal_button_start_int+0x100>)
  400934:	47a8      	blx	r5
  400936:	f04f 4180 	mov.w	r1, #1073741824	; 0x40000000
  40093a:	4808      	ldr	r0, [pc, #32]	; (40095c <hal_button_start_int+0x100>)
  40093c:	47a0      	blx	r4
  40093e:	b003      	add	sp, #12
  400940:	e8bd 8ff0 	ldmia.w	sp!, {r4, r5, r6, r7, r8, r9, sl, fp, pc}
  400944:	20000884 	.word	0x20000884
  400948:	400e0e00 	.word	0x400e0e00
  40094c:	00402249 	.word	0x00402249
  400950:	e000e100 	.word	0xe000e100
  400954:	004022f5 	.word	0x004022f5
  400958:	00401fbb 	.word	0x00401fbb
  40095c:	400e1200 	.word	0x400e1200
  400960:	004024a1 	.word	0x004024a1
  400964:	00401dfd 	.word	0x00401dfd
  400968:	00400249 	.word	0x00400249

0040096c <hal_serial_start>:
  40096c:	b508      	push	{r3, lr}
  40096e:	b110      	cbz	r0, 400976 <hal_serial_start+0xa>
  400970:	2801      	cmp	r0, #1
  400972:	d004      	beq.n	40097e <hal_serial_start+0x12>
  400974:	bd08      	pop	{r3, pc}
  400976:	4608      	mov	r0, r1
  400978:	4b03      	ldr	r3, [pc, #12]	; (400988 <hal_serial_start+0x1c>)
  40097a:	4798      	blx	r3
  40097c:	bd08      	pop	{r3, pc}
  40097e:	4608      	mov	r0, r1
  400980:	4b02      	ldr	r3, [pc, #8]	; (40098c <hal_serial_start+0x20>)
  400982:	4798      	blx	r3
  400984:	bd08      	pop	{r3, pc}
  400986:	bf00      	nop
  400988:	004002dd 	.word	0x004002dd
  40098c:	0040033d 	.word	0x0040033d

00400990 <hal_serial_putc>:
  400990:	b508      	push	{r3, lr}
  400992:	b110      	cbz	r0, 40099a <hal_serial_putc+0xa>
  400994:	2801      	cmp	r0, #1
  400996:	d009      	beq.n	4009ac <hal_serial_putc+0x1c>
  400998:	bd08      	pop	{r3, pc}
  40099a:	4a09      	ldr	r2, [pc, #36]	; (4009c0 <hal_serial_putc+0x30>)
  40099c:	6953      	ldr	r3, [r2, #20]
  40099e:	f013 0f02 	tst.w	r3, #2
  4009a2:	d0fb      	beq.n	40099c <hal_serial_putc+0xc>
  4009a4:	4806      	ldr	r0, [pc, #24]	; (4009c0 <hal_serial_putc+0x30>)
  4009a6:	4b07      	ldr	r3, [pc, #28]	; (4009c4 <hal_serial_putc+0x34>)
  4009a8:	4798      	blx	r3
  4009aa:	bd08      	pop	{r3, pc}
  4009ac:	4a06      	ldr	r2, [pc, #24]	; (4009c8 <hal_serial_putc+0x38>)
  4009ae:	6953      	ldr	r3, [r2, #20]
  4009b0:	f013 0f02 	tst.w	r3, #2
  4009b4:	d0fb      	beq.n	4009ae <hal_serial_putc+0x1e>
  4009b6:	4804      	ldr	r0, [pc, #16]	; (4009c8 <hal_serial_putc+0x38>)
  4009b8:	4b04      	ldr	r3, [pc, #16]	; (4009cc <hal_serial_putc+0x3c>)
  4009ba:	4798      	blx	r3
  4009bc:	bd08      	pop	{r3, pc}
  4009be:	bf00      	nop
  4009c0:	400e0800 	.word	0x400e0800
  4009c4:	00402a6f 	.word	0x00402a6f
  4009c8:	40028000 	.word	0x40028000
  4009cc:	00402b7d 	.word	0x00402b7d

004009d0 <hal_serial_getc>:
  4009d0:	b530      	push	{r4, r5, lr}
  4009d2:	b083      	sub	sp, #12
  4009d4:	2300      	movs	r3, #0
  4009d6:	f88d 3007 	strb.w	r3, [sp, #7]
  4009da:	b128      	cbz	r0, 4009e8 <hal_serial_getc+0x18>
  4009dc:	2801      	cmp	r0, #1
  4009de:	d010      	beq.n	400a02 <hal_serial_getc+0x32>
  4009e0:	f89d 0007 	ldrb.w	r0, [sp, #7]
  4009e4:	b003      	add	sp, #12
  4009e6:	bd30      	pop	{r4, r5, pc}
  4009e8:	4d0c      	ldr	r5, [pc, #48]	; (400a1c <hal_serial_getc+0x4c>)
  4009ea:	4c0d      	ldr	r4, [pc, #52]	; (400a20 <hal_serial_getc+0x50>)
  4009ec:	4628      	mov	r0, r5
  4009ee:	47a0      	blx	r4
  4009f0:	f010 0f01 	tst.w	r0, #1
  4009f4:	d0fa      	beq.n	4009ec <hal_serial_getc+0x1c>
  4009f6:	f10d 0107 	add.w	r1, sp, #7
  4009fa:	4808      	ldr	r0, [pc, #32]	; (400a1c <hal_serial_getc+0x4c>)
  4009fc:	4b09      	ldr	r3, [pc, #36]	; (400a24 <hal_serial_getc+0x54>)
  4009fe:	4798      	blx	r3
  400a00:	e7ee      	b.n	4009e0 <hal_serial_getc+0x10>
  400a02:	4d09      	ldr	r5, [pc, #36]	; (400a28 <hal_serial_getc+0x58>)
  400a04:	4c09      	ldr	r4, [pc, #36]	; (400a2c <hal_serial_getc+0x5c>)
  400a06:	4628      	mov	r0, r5
  400a08:	47a0      	blx	r4
  400a0a:	f010 0f01 	tst.w	r0, #1
  400a0e:	d0fa      	beq.n	400a06 <hal_serial_getc+0x36>
  400a10:	f10d 0107 	add.w	r1, sp, #7
  400a14:	4804      	ldr	r0, [pc, #16]	; (400a28 <hal_serial_getc+0x58>)
  400a16:	4b06      	ldr	r3, [pc, #24]	; (400a30 <hal_serial_getc+0x60>)
  400a18:	4798      	blx	r3
  400a1a:	e7e1      	b.n	4009e0 <hal_serial_getc+0x10>
  400a1c:	400e0800 	.word	0x400e0800
  400a20:	00402a6b 	.word	0x00402a6b
  400a24:	00402a7f 	.word	0x00402a7f
  400a28:	40028000 	.word	0x40028000
  400a2c:	00402b79 	.word	0x00402b79
  400a30:	00402b91 	.word	0x00402b91

00400a34 <UART1_Handler>:
  400a34:	b500      	push	{lr}
  400a36:	b083      	sub	sp, #12
  400a38:	4809      	ldr	r0, [pc, #36]	; (400a60 <UART1_Handler+0x2c>)
  400a3a:	4b0a      	ldr	r3, [pc, #40]	; (400a64 <UART1_Handler+0x30>)
  400a3c:	4798      	blx	r3
  400a3e:	f010 0f01 	tst.w	r0, #1
  400a42:	d102      	bne.n	400a4a <UART1_Handler+0x16>
  400a44:	b003      	add	sp, #12
  400a46:	f85d fb04 	ldr.w	pc, [sp], #4
  400a4a:	f10d 0107 	add.w	r1, sp, #7
  400a4e:	4804      	ldr	r0, [pc, #16]	; (400a60 <UART1_Handler+0x2c>)
  400a50:	4b05      	ldr	r3, [pc, #20]	; (400a68 <UART1_Handler+0x34>)
  400a52:	4798      	blx	r3
  400a54:	4b05      	ldr	r3, [pc, #20]	; (400a6c <UART1_Handler+0x38>)
  400a56:	681b      	ldr	r3, [r3, #0]
  400a58:	f89d 0007 	ldrb.w	r0, [sp, #7]
  400a5c:	4798      	blx	r3
  400a5e:	e7f1      	b.n	400a44 <UART1_Handler+0x10>
  400a60:	400e0800 	.word	0x400e0800
  400a64:	00402a6b 	.word	0x00402a6b
  400a68:	00402a7f 	.word	0x00402a7f
  400a6c:	2000088c 	.word	0x2000088c

00400a70 <USART1_Handler>:
  400a70:	b500      	push	{lr}
  400a72:	b083      	sub	sp, #12
  400a74:	4809      	ldr	r0, [pc, #36]	; (400a9c <USART1_Handler+0x2c>)
  400a76:	4b0a      	ldr	r3, [pc, #40]	; (400aa0 <USART1_Handler+0x30>)
  400a78:	4798      	blx	r3
  400a7a:	f010 0f01 	tst.w	r0, #1
  400a7e:	d102      	bne.n	400a86 <USART1_Handler+0x16>
  400a80:	b003      	add	sp, #12
  400a82:	f85d fb04 	ldr.w	pc, [sp], #4
  400a86:	f10d 0107 	add.w	r1, sp, #7
  400a8a:	4804      	ldr	r0, [pc, #16]	; (400a9c <USART1_Handler+0x2c>)
  400a8c:	4b05      	ldr	r3, [pc, #20]	; (400aa4 <USART1_Handler+0x34>)
  400a8e:	4798      	blx	r3
  400a90:	4b05      	ldr	r3, [pc, #20]	; (400aa8 <USART1_Handler+0x38>)
  400a92:	681b      	ldr	r3, [r3, #0]
  400a94:	f89d 0007 	ldrb.w	r0, [sp, #7]
  400a98:	4798      	blx	r3
  400a9a:	e7f1      	b.n	400a80 <USART1_Handler+0x10>
  400a9c:	40028000 	.word	0x40028000
  400aa0:	00402b79 	.word	0x00402b79
  400aa4:	00402b91 	.word	0x00402b91
  400aa8:	20000890 	.word	0x20000890

00400aac <hal_memreg_init>:
  400aac:	4770      	bx	lr

00400aae <hal_nvmem_init>:
  400aae:	4770      	bx	lr

00400ab0 <hal_nvmem_start>:
  400ab0:	2801      	cmp	r0, #1
  400ab2:	d117      	bne.n	400ae4 <hal_nvmem_start+0x34>
  400ab4:	b5f8      	push	{r3, r4, r5, r6, r7, lr}
  400ab6:	2201      	movs	r2, #1
  400ab8:	4b13      	ldr	r3, [pc, #76]	; (400b08 <hal_nvmem_start+0x58>)
  400aba:	701a      	strb	r2, [r3, #0]
  400abc:	204c      	movs	r0, #76	; 0x4c
  400abe:	4b13      	ldr	r3, [pc, #76]	; (400b0c <hal_nvmem_start+0x5c>)
  400ac0:	4798      	blx	r3
  400ac2:	b108      	cbz	r0, 400ac8 <hal_nvmem_start+0x18>
  400ac4:	2000      	movs	r0, #0
  400ac6:	bdf8      	pop	{r3, r4, r5, r6, r7, pc}
  400ac8:	4b11      	ldr	r3, [pc, #68]	; (400b10 <hal_nvmem_start+0x60>)
  400aca:	4798      	blx	r3
  400acc:	240b      	movs	r4, #11
  400ace:	4d11      	ldr	r5, [pc, #68]	; (400b14 <hal_nvmem_start+0x64>)
  400ad0:	4f11      	ldr	r7, [pc, #68]	; (400b18 <hal_nvmem_start+0x68>)
  400ad2:	4e12      	ldr	r6, [pc, #72]	; (400b1c <hal_nvmem_start+0x6c>)
  400ad4:	2000      	movs	r0, #0
  400ad6:	47a8      	blx	r5
  400ad8:	b130      	cbz	r0, 400ae8 <hal_nvmem_start+0x38>
  400ada:	3c01      	subs	r4, #1
  400adc:	d0f2      	beq.n	400ac4 <hal_nvmem_start+0x14>
  400ade:	4638      	mov	r0, r7
  400ae0:	47b0      	blx	r6
  400ae2:	e7f7      	b.n	400ad4 <hal_nvmem_start+0x24>
  400ae4:	2000      	movs	r0, #0
  400ae6:	4770      	bx	lr
  400ae8:	4c0d      	ldr	r4, [pc, #52]	; (400b20 <hal_nvmem_start+0x70>)
  400aea:	f44f 720c 	mov.w	r2, #560	; 0x230
  400aee:	2100      	movs	r1, #0
  400af0:	4620      	mov	r0, r4
  400af2:	4b0c      	ldr	r3, [pc, #48]	; (400b24 <hal_nvmem_start+0x74>)
  400af4:	4798      	blx	r3
  400af6:	4621      	mov	r1, r4
  400af8:	2000      	movs	r0, #0
  400afa:	4b0b      	ldr	r3, [pc, #44]	; (400b28 <hal_nvmem_start+0x78>)
  400afc:	4798      	blx	r3
  400afe:	fab0 f080 	clz	r0, r0
  400b02:	0940      	lsrs	r0, r0, #5
  400b04:	bdf8      	pop	{r3, r4, r5, r6, r7, pc}
  400b06:	bf00      	nop
  400b08:	20000ac4 	.word	0x20000ac4
  400b0c:	00401fcb 	.word	0x00401fcb
  400b10:	00401191 	.word	0x00401191
  400b14:	004011bd 	.word	0x004011bd
  400b18:	001a286e 	.word	0x001a286e
  400b1c:	20000001 	.word	0x20000001
  400b20:	20000894 	.word	0x20000894
  400b24:	004039e9 	.word	0x004039e9
  400b28:	00402e05 	.word	0x00402e05

00400b2c <syscalls_entry_point>:
*	   2. Based on that extract the right SP (PSP or MSP)
*	   3. The rest is the same...
*
*	There' no reason to make a syscall from the kernel though, so it's all good.
*/
void syscalls_entry_point(void){
  400b2c:	b538      	push	{r3, r4, r5, lr}
	
	uint32_t sp = hal_cpu_get_psp();
  400b2e:	4b2c      	ldr	r3, [pc, #176]	; (400be0 <syscalls_entry_point+0xb4>)
  400b30:	4798      	blx	r3
	
	//extract the number from the read instruction
	svc_number &= 0x00FF;
	
	//get arguments
	void* arg0 = ((uint32_t*)sp)[0];
  400b32:	6804      	ldr	r4, [r0, #0]
	void* arg1 = ((uint32_t*)sp)[1];
  400b34:	6845      	ldr	r5, [r0, #4]
	uint32_t svc_number = ((uint16_t*) ((uint32_t*)sp)[6])[-1];
  400b36:	6983      	ldr	r3, [r0, #24]
	void* arg2 = ((uint32_t*)sp)[2];
	void* arg3 = ((uint32_t*)sp)[3];
	
	//attend syscall
	switch(svc_number){
  400b38:	f813 3c02 	ldrb.w	r3, [r3, #-2]
  400b3c:	2b10      	cmp	r3, #16
  400b3e:	d84e      	bhi.n	400bde <syscalls_entry_point+0xb2>
  400b40:	e8df f003 	tbb	[pc, r3]
  400b44:	19151009 	.word	0x19151009
  400b48:	2a26211d 	.word	0x2a26211d
  400b4c:	3a36332e 	.word	0x3a36332e
  400b50:	474d433f 	.word	0x474d433f
  400b54:	4a          	.byte	0x4a
  400b55:	00          	.byte	0x00
		//LED
		case SVCLedWrite:
			hal_led_write( (tLedNum)arg0, (tLedState)arg1 );
  400b56:	1c29      	adds	r1, r5, #0
  400b58:	bf18      	it	ne
  400b5a:	2101      	movne	r1, #1
  400b5c:	4620      	mov	r0, r4
  400b5e:	4b21      	ldr	r3, [pc, #132]	; (400be4 <syscalls_entry_point+0xb8>)
  400b60:	4798      	blx	r3
			break;
  400b62:	bd38      	pop	{r3, r4, r5, pc}
		case SVCLedRead:
			*((tLedState*)arg1) = hal_led_read((tLedNum)arg0);
  400b64:	4620      	mov	r0, r4
  400b66:	4b20      	ldr	r3, [pc, #128]	; (400be8 <syscalls_entry_point+0xbc>)
  400b68:	4798      	blx	r3
  400b6a:	7028      	strb	r0, [r5, #0]
			break;
  400b6c:	bd38      	pop	{r3, r4, r5, pc}
		//Button
		case SVCButtonStartEv:
			hal_button_start_int((void(*)(tButtonNum)) arg0);
  400b6e:	4620      	mov	r0, r4
  400b70:	4b1e      	ldr	r3, [pc, #120]	; (400bec <syscalls_entry_point+0xc0>)
  400b72:	4798      	blx	r3
			break;
  400b74:	bd38      	pop	{r3, r4, r5, pc}
		//Clock
		case SVCClockRead:
			hal_clock_read((tTime*)arg0);
  400b76:	4620      	mov	r0, r4
  400b78:	4b1d      	ldr	r3, [pc, #116]	; (400bf0 <syscalls_entry_point+0xc4>)
  400b7a:	4798      	blx	r3
			break;
  400b7c:	bd38      	pop	{r3, r4, r5, pc}
		case SVCClockWrite:
			hal_clock_write((tTime*)arg0);
  400b7e:	4620      	mov	r0, r4
  400b80:	4b1c      	ldr	r3, [pc, #112]	; (400bf4 <syscalls_entry_point+0xc8>)
  400b82:	4798      	blx	r3
			break;
  400b84:	bd38      	pop	{r3, r4, r5, pc}
		//Serial
		case SVCSerialPutc:
			hal_serial_putc((tSerialId)arg0, (uint8_t)arg1);
  400b86:	b2e9      	uxtb	r1, r5
  400b88:	4620      	mov	r0, r4
  400b8a:	4b1b      	ldr	r3, [pc, #108]	; (400bf8 <syscalls_entry_point+0xcc>)
  400b8c:	4798      	blx	r3
			break;
  400b8e:	bd38      	pop	{r3, r4, r5, pc}
		case SVCSerialGetc:
			hal_serial_getc((tSerialId)arg0);
  400b90:	4620      	mov	r0, r4
  400b92:	4b1a      	ldr	r3, [pc, #104]	; (400bfc <syscalls_entry_point+0xd0>)
  400b94:	4798      	blx	r3
			break;
  400b96:	bd38      	pop	{r3, r4, r5, pc}
		//Sensor
		case SVCSensorStartEv:
			hal_sensor_start((tSensorId)arg0);
  400b98:	4620      	mov	r0, r4
  400b9a:	4b19      	ldr	r3, [pc, #100]	; (400c00 <syscalls_entry_point+0xd4>)
  400b9c:	4798      	blx	r3
			break;
  400b9e:	bd38      	pop	{r3, r4, r5, pc}
		case SVCSensorRead:
			*((uint32_t*)arg1) = hal_sensor_read((tSensorId)arg0);
  400ba0:	4620      	mov	r0, r4
  400ba2:	4b18      	ldr	r3, [pc, #96]	; (400c04 <syscalls_entry_point+0xd8>)
  400ba4:	4798      	blx	r3
  400ba6:	6028      	str	r0, [r5, #0]
			break;
  400ba8:	bd38      	pop	{r3, r4, r5, pc}
		//Display
		case SVCDisplayCls:
			hal_display_cls();
  400baa:	4b17      	ldr	r3, [pc, #92]	; (400c08 <syscalls_entry_point+0xdc>)
  400bac:	4798      	blx	r3
			break;
  400bae:	bd38      	pop	{r3, r4, r5, pc}
		case SVCDisplayPutc:
			hal_display_putc((uint8_t)arg0);
  400bb0:	b2e0      	uxtb	r0, r4
  400bb2:	4b16      	ldr	r3, [pc, #88]	; (400c0c <syscalls_entry_point+0xe0>)
  400bb4:	4798      	blx	r3
			break;
  400bb6:	bd38      	pop	{r3, r4, r5, pc}
		case SVCDisplayGotoxy:
			hal_display_gotoxy((uint32_t)arg0, (uint32_t)arg1);
  400bb8:	4629      	mov	r1, r5
  400bba:	4620      	mov	r0, r4
  400bbc:	4b14      	ldr	r3, [pc, #80]	; (400c10 <syscalls_entry_point+0xe4>)
  400bbe:	4798      	blx	r3
			break;
  400bc0:	bd38      	pop	{r3, r4, r5, pc}
		case SVCDisplayNumLines:
			*((uint32_t*)arg0) = hal_display_numlines();
  400bc2:	4b14      	ldr	r3, [pc, #80]	; (400c14 <syscalls_entry_point+0xe8>)
  400bc4:	4798      	blx	r3
  400bc6:	6020      	str	r0, [r4, #0]
			break;
  400bc8:	bd38      	pop	{r3, r4, r5, pc}
		//Millisecond Timer
		case SVCMtimerStartEv:
			hal_mtimer_start((uint32_t)arg0);
  400bca:	4620      	mov	r0, r4
  400bcc:	4b12      	ldr	r3, [pc, #72]	; (400c18 <syscalls_entry_point+0xec>)
  400bce:	4798      	blx	r3
			break;
  400bd0:	bd38      	pop	{r3, r4, r5, pc}
		//case SVCMtimerStartPoll:
		//	hal_mtimer_start_int((uint32_t)arg0, ((void)*(void))arg1);
		//	break;
		case SVCMtimerStop:
			hal_mtimer_stop();
  400bd2:	4b12      	ldr	r3, [pc, #72]	; (400c1c <syscalls_entry_point+0xf0>)
  400bd4:	4798      	blx	r3
			break;
  400bd6:	bd38      	pop	{r3, r4, r5, pc}
		case SVCMtimerRead:
			*((uint32_t*)arg0) = hal_mtimer_read();
  400bd8:	4b11      	ldr	r3, [pc, #68]	; (400c20 <syscalls_entry_point+0xf4>)
  400bda:	4798      	blx	r3
  400bdc:	6020      	str	r0, [r4, #0]
  400bde:	bd38      	pop	{r3, r4, r5, pc}
  400be0:	00400213 	.word	0x00400213
  400be4:	004004a5 	.word	0x004004a5
  400be8:	004004f3 	.word	0x004004f3
  400bec:	0040085d 	.word	0x0040085d
  400bf0:	00400599 	.word	0x00400599
  400bf4:	00400565 	.word	0x00400565
  400bf8:	00400991 	.word	0x00400991
  400bfc:	004009d1 	.word	0x004009d1
  400c00:	00400745 	.word	0x00400745
  400c04:	004007b9 	.word	0x004007b9
  400c08:	00400689 	.word	0x00400689
  400c0c:	004005e9 	.word	0x004005e9
  400c10:	00400719 	.word	0x00400719
  400c14:	00400741 	.word	0x00400741
  400c18:	004003cd 	.word	0x004003cd
  400c1c:	00400425 	.word	0x00400425
  400c20:	0040044d 	.word	0x0040044d

00400c24 <syscalls_init>:
void syscalls_init(void){
  400c24:	b508      	push	{r3, lr}
	hal_svc_start( syscalls_entry_point );
  400c26:	4802      	ldr	r0, [pc, #8]	; (400c30 <syscalls_init+0xc>)
  400c28:	4b02      	ldr	r3, [pc, #8]	; (400c34 <syscalls_init+0x10>)
  400c2a:	4798      	blx	r3
  400c2c:	bd08      	pop	{r3, pc}
  400c2e:	bf00      	nop
  400c30:	00400b2d 	.word	0x00400b2d
  400c34:	004001b5 	.word	0x004001b5

00400c38 <init_sequence>:
  400c38:	e92d 43f8 	stmdb	sp!, {r3, r4, r5, r6, r7, r8, r9, lr}
  400c3c:	2101      	movs	r1, #1
  400c3e:	2000      	movs	r0, #0
  400c40:	4c1a      	ldr	r4, [pc, #104]	; (400cac <init_sequence+0x74>)
  400c42:	47a0      	blx	r4
  400c44:	2101      	movs	r1, #1
  400c46:	4608      	mov	r0, r1
  400c48:	47a0      	blx	r4
  400c4a:	2101      	movs	r1, #1
  400c4c:	2002      	movs	r0, #2
  400c4e:	47a0      	blx	r4
  400c50:	2101      	movs	r1, #1
  400c52:	2003      	movs	r0, #3
  400c54:	47a0      	blx	r4
  400c56:	2101      	movs	r1, #1
  400c58:	2004      	movs	r0, #4
  400c5a:	47a0      	blx	r4
  400c5c:	2700      	movs	r7, #0
  400c5e:	46b9      	mov	r9, r7
  400c60:	f8df 8058 	ldr.w	r8, [pc, #88]	; 400cbc <init_sequence+0x84>
  400c64:	4e12      	ldr	r6, [pc, #72]	; (400cb0 <init_sequence+0x78>)
  400c66:	4639      	mov	r1, r7
  400c68:	4648      	mov	r0, r9
  400c6a:	47c0      	blx	r8
  400c6c:	245f      	movs	r4, #95	; 0x5f
  400c6e:	257c      	movs	r5, #124	; 0x7c
  400c70:	4628      	mov	r0, r5
  400c72:	47b0      	blx	r6
  400c74:	3c01      	subs	r4, #1
  400c76:	d1fb      	bne.n	400c70 <init_sequence+0x38>
  400c78:	3701      	adds	r7, #1
  400c7a:	2f04      	cmp	r7, #4
  400c7c:	d1f3      	bne.n	400c66 <init_sequence+0x2e>
  400c7e:	20c8      	movs	r0, #200	; 0xc8
  400c80:	4b0c      	ldr	r3, [pc, #48]	; (400cb4 <init_sequence+0x7c>)
  400c82:	4798      	blx	r3
  400c84:	2100      	movs	r1, #0
  400c86:	4608      	mov	r0, r1
  400c88:	4c08      	ldr	r4, [pc, #32]	; (400cac <init_sequence+0x74>)
  400c8a:	47a0      	blx	r4
  400c8c:	2100      	movs	r1, #0
  400c8e:	2001      	movs	r0, #1
  400c90:	47a0      	blx	r4
  400c92:	2100      	movs	r1, #0
  400c94:	2002      	movs	r0, #2
  400c96:	47a0      	blx	r4
  400c98:	2100      	movs	r1, #0
  400c9a:	2003      	movs	r0, #3
  400c9c:	47a0      	blx	r4
  400c9e:	2100      	movs	r1, #0
  400ca0:	2004      	movs	r0, #4
  400ca2:	47a0      	blx	r4
  400ca4:	4b04      	ldr	r3, [pc, #16]	; (400cb8 <init_sequence+0x80>)
  400ca6:	4798      	blx	r3
  400ca8:	e8bd 83f8 	ldmia.w	sp!, {r3, r4, r5, r6, r7, r8, r9, pc}
  400cac:	004004a5 	.word	0x004004a5
  400cb0:	004005e9 	.word	0x004005e9
  400cb4:	004001d1 	.word	0x004001d1
  400cb8:	00400689 	.word	0x00400689
  400cbc:	00400719 	.word	0x00400719

00400cc0 <io_init>:
  400cc0:	b530      	push	{r4, r5, lr}
  400cc2:	b087      	sub	sp, #28
  400cc4:	2000      	movs	r0, #0
  400cc6:	4c12      	ldr	r4, [pc, #72]	; (400d10 <io_init+0x50>)
  400cc8:	47a0      	blx	r4
  400cca:	2001      	movs	r0, #1
  400ccc:	47a0      	blx	r4
  400cce:	4b11      	ldr	r3, [pc, #68]	; (400d14 <io_init+0x54>)
  400cd0:	4798      	blx	r3
  400cd2:	4b11      	ldr	r3, [pc, #68]	; (400d18 <io_init+0x58>)
  400cd4:	4798      	blx	r3
  400cd6:	f44f 31e1 	mov.w	r1, #115200	; 0x1c200
  400cda:	2000      	movs	r0, #0
  400cdc:	4c0f      	ldr	r4, [pc, #60]	; (400d1c <io_init+0x5c>)
  400cde:	47a0      	blx	r4
  400ce0:	f44f 31e1 	mov.w	r1, #115200	; 0x1c200
  400ce4:	2001      	movs	r0, #1
  400ce6:	47a0      	blx	r4
  400ce8:	4b0d      	ldr	r3, [pc, #52]	; (400d20 <io_init+0x60>)
  400cea:	4798      	blx	r3
  400cec:	2001      	movs	r0, #1
  400cee:	4b0d      	ldr	r3, [pc, #52]	; (400d24 <io_init+0x64>)
  400cf0:	4798      	blx	r3
  400cf2:	466c      	mov	r4, sp
  400cf4:	4d0c      	ldr	r5, [pc, #48]	; (400d28 <io_init+0x68>)
  400cf6:	cd0f      	ldmia	r5!, {r0, r1, r2, r3}
  400cf8:	c40f      	stmia	r4!, {r0, r1, r2, r3}
  400cfa:	e895 0003 	ldmia.w	r5, {r0, r1}
  400cfe:	e884 0003 	stmia.w	r4, {r0, r1}
  400d02:	4668      	mov	r0, sp
  400d04:	4b09      	ldr	r3, [pc, #36]	; (400d2c <io_init+0x6c>)
  400d06:	4798      	blx	r3
  400d08:	4b09      	ldr	r3, [pc, #36]	; (400d30 <io_init+0x70>)
  400d0a:	4798      	blx	r3
  400d0c:	b007      	add	sp, #28
  400d0e:	bd30      	pop	{r4, r5, pc}
  400d10:	00400745 	.word	0x00400745
  400d14:	00400539 	.word	0x00400539
  400d18:	004005dd 	.word	0x004005dd
  400d1c:	0040096d 	.word	0x0040096d
  400d20:	00400461 	.word	0x00400461
  400d24:	00400ab1 	.word	0x00400ab1
  400d28:	00403ba4 	.word	0x00403ba4
  400d2c:	00400565 	.word	0x00400565
  400d30:	00400c39 	.word	0x00400c39

00400d34 <system_init>:
  400d34:	b508      	push	{r3, lr}
  400d36:	4b07      	ldr	r3, [pc, #28]	; (400d54 <system_init+0x20>)
  400d38:	4798      	blx	r3
  400d3a:	4b07      	ldr	r3, [pc, #28]	; (400d58 <system_init+0x24>)
  400d3c:	4798      	blx	r3
  400d3e:	4b07      	ldr	r3, [pc, #28]	; (400d5c <system_init+0x28>)
  400d40:	4798      	blx	r3
  400d42:	4b07      	ldr	r3, [pc, #28]	; (400d60 <system_init+0x2c>)
  400d44:	4798      	blx	r3
  400d46:	4b07      	ldr	r3, [pc, #28]	; (400d64 <system_init+0x30>)
  400d48:	4798      	blx	r3
  400d4a:	4b07      	ldr	r3, [pc, #28]	; (400d68 <system_init+0x34>)
  400d4c:	4798      	blx	r3
  400d4e:	4b07      	ldr	r3, [pc, #28]	; (400d6c <system_init+0x38>)
  400d50:	4798      	blx	r3
  400d52:	bd08      	pop	{r3, pc}
  400d54:	004001a9 	.word	0x004001a9
  400d58:	004003ad 	.word	0x004003ad
  400d5c:	00400aaf 	.word	0x00400aaf
  400d60:	00400aad 	.word	0x00400aad
  400d64:	00400cc1 	.word	0x00400cc1
  400d68:	004001a5 	.word	0x004001a5
  400d6c:	00400c25 	.word	0x00400c25

00400d70 <move_shape_up>:
void draw_shape(Shape shp) {
	
}

void move_shape_up(Shape shp)
{
  400d70:	b082      	sub	sp, #8
  400d72:	ab02      	add	r3, sp, #8
  400d74:	e903 0003 	stmdb	r3, {r0, r1}
	
}
  400d78:	b002      	add	sp, #8
  400d7a:	4770      	bx	lr

00400d7c <move_shape_down>:

void move_shape_down(Shape shp)
{
  400d7c:	b082      	sub	sp, #8
  400d7e:	ab02      	add	r3, sp, #8
  400d80:	e903 0003 	stmdb	r3, {r0, r1}
	
}
  400d84:	b002      	add	sp, #8
  400d86:	4770      	bx	lr

00400d88 <ssd1306_write_command>:
  400d88:	b570      	push	{r4, r5, r6, lr}
  400d8a:	b082      	sub	sp, #8
  400d8c:	4606      	mov	r6, r0
  400d8e:	ac02      	add	r4, sp, #8
  400d90:	2302      	movs	r3, #2
  400d92:	f844 3d04 	str.w	r3, [r4, #-4]!
  400d96:	4d09      	ldr	r5, [pc, #36]	; (400dbc <ssd1306_write_command+0x34>)
  400d98:	4621      	mov	r1, r4
  400d9a:	4628      	mov	r0, r5
  400d9c:	4b08      	ldr	r3, [pc, #32]	; (400dc0 <ssd1306_write_command+0x38>)
  400d9e:	4798      	blx	r3
  400da0:	f44f 1200 	mov.w	r2, #2097152	; 0x200000
  400da4:	4b07      	ldr	r3, [pc, #28]	; (400dc4 <ssd1306_write_command+0x3c>)
  400da6:	635a      	str	r2, [r3, #52]	; 0x34
  400da8:	60ee      	str	r6, [r5, #12]
  400daa:	2056      	movs	r0, #86	; 0x56
  400dac:	4b06      	ldr	r3, [pc, #24]	; (400dc8 <ssd1306_write_command+0x40>)
  400dae:	4798      	blx	r3
  400db0:	4621      	mov	r1, r4
  400db2:	4628      	mov	r0, r5
  400db4:	4b05      	ldr	r3, [pc, #20]	; (400dcc <ssd1306_write_command+0x44>)
  400db6:	4798      	blx	r3
  400db8:	b002      	add	sp, #8
  400dba:	bd70      	pop	{r4, r5, r6, pc}
  400dbc:	40008000 	.word	0x40008000
  400dc0:	00401bb5 	.word	0x00401bb5
  400dc4:	400e1200 	.word	0x400e1200
  400dc8:	20000001 	.word	0x20000001
  400dcc:	00401be5 	.word	0x00401be5

00400dd0 <ssd1306_init>:
  400dd0:	b5f0      	push	{r4, r5, r6, r7, lr}
  400dd2:	b085      	sub	sp, #20
  400dd4:	4d25      	ldr	r5, [pc, #148]	; (400e6c <ssd1306_init+0x9c>)
  400dd6:	f04f 4600 	mov.w	r6, #2147483648	; 0x80000000
  400dda:	636e      	str	r6, [r5, #52]	; 0x34
  400ddc:	2056      	movs	r0, #86	; 0x56
  400dde:	4c24      	ldr	r4, [pc, #144]	; (400e70 <ssd1306_init+0xa0>)
  400de0:	47a0      	blx	r4
  400de2:	632e      	str	r6, [r5, #48]	; 0x30
  400de4:	2056      	movs	r0, #86	; 0x56
  400de6:	47a0      	blx	r4
  400de8:	2702      	movs	r7, #2
  400dea:	ae04      	add	r6, sp, #16
  400dec:	f846 7d04 	str.w	r7, [r6, #-4]!
  400df0:	4c20      	ldr	r4, [pc, #128]	; (400e74 <ssd1306_init+0xa4>)
  400df2:	4620      	mov	r0, r4
  400df4:	4b20      	ldr	r3, [pc, #128]	; (400e78 <ssd1306_init+0xa8>)
  400df6:	4798      	blx	r3
  400df8:	2500      	movs	r5, #0
  400dfa:	9500      	str	r5, [sp, #0]
  400dfc:	4b1f      	ldr	r3, [pc, #124]	; (400e7c <ssd1306_init+0xac>)
  400dfe:	462a      	mov	r2, r5
  400e00:	4631      	mov	r1, r6
  400e02:	4620      	mov	r0, r4
  400e04:	4e1e      	ldr	r6, [pc, #120]	; (400e80 <ssd1306_init+0xb0>)
  400e06:	47b0      	blx	r6
  400e08:	2301      	movs	r3, #1
  400e0a:	6023      	str	r3, [r4, #0]
  400e0c:	20a8      	movs	r0, #168	; 0xa8
  400e0e:	4c1d      	ldr	r4, [pc, #116]	; (400e84 <ssd1306_init+0xb4>)
  400e10:	47a0      	blx	r4
  400e12:	201f      	movs	r0, #31
  400e14:	47a0      	blx	r4
  400e16:	20d3      	movs	r0, #211	; 0xd3
  400e18:	47a0      	blx	r4
  400e1a:	4628      	mov	r0, r5
  400e1c:	47a0      	blx	r4
  400e1e:	2040      	movs	r0, #64	; 0x40
  400e20:	47a0      	blx	r4
  400e22:	20a1      	movs	r0, #161	; 0xa1
  400e24:	47a0      	blx	r4
  400e26:	20c8      	movs	r0, #200	; 0xc8
  400e28:	47a0      	blx	r4
  400e2a:	20da      	movs	r0, #218	; 0xda
  400e2c:	47a0      	blx	r4
  400e2e:	4638      	mov	r0, r7
  400e30:	47a0      	blx	r4
  400e32:	2081      	movs	r0, #129	; 0x81
  400e34:	47a0      	blx	r4
  400e36:	208f      	movs	r0, #143	; 0x8f
  400e38:	47a0      	blx	r4
  400e3a:	20a4      	movs	r0, #164	; 0xa4
  400e3c:	47a0      	blx	r4
  400e3e:	20a6      	movs	r0, #166	; 0xa6
  400e40:	47a0      	blx	r4
  400e42:	20d5      	movs	r0, #213	; 0xd5
  400e44:	47a0      	blx	r4
  400e46:	2080      	movs	r0, #128	; 0x80
  400e48:	47a0      	blx	r4
  400e4a:	208d      	movs	r0, #141	; 0x8d
  400e4c:	47a0      	blx	r4
  400e4e:	2014      	movs	r0, #20
  400e50:	47a0      	blx	r4
  400e52:	20db      	movs	r0, #219	; 0xdb
  400e54:	47a0      	blx	r4
  400e56:	2040      	movs	r0, #64	; 0x40
  400e58:	47a0      	blx	r4
  400e5a:	20d9      	movs	r0, #217	; 0xd9
  400e5c:	47a0      	blx	r4
  400e5e:	20f1      	movs	r0, #241	; 0xf1
  400e60:	47a0      	blx	r4
  400e62:	20af      	movs	r0, #175	; 0xaf
  400e64:	47a0      	blx	r4
  400e66:	b005      	add	sp, #20
  400e68:	bdf0      	pop	{r4, r5, r6, r7, pc}
  400e6a:	bf00      	nop
  400e6c:	400e1200 	.word	0x400e1200
  400e70:	20000001 	.word	0x20000001
  400e74:	40008000 	.word	0x40008000
  400e78:	00401ae1 	.word	0x00401ae1
  400e7c:	004c4b40 	.word	0x004c4b40
  400e80:	00401b35 	.word	0x00401b35
  400e84:	00400d89 	.word	0x00400d89

00400e88 <at30tse_init>:
  400e88:	b500      	push	{lr}
  400e8a:	b085      	sub	sp, #20
  400e8c:	2300      	movs	r3, #0
  400e8e:	9303      	str	r3, [sp, #12]
  400e90:	4b07      	ldr	r3, [pc, #28]	; (400eb0 <at30tse_init+0x28>)
  400e92:	9301      	str	r3, [sp, #4]
  400e94:	f242 7310 	movw	r3, #10000	; 0x2710
  400e98:	9302      	str	r3, [sp, #8]
  400e9a:	2013      	movs	r0, #19
  400e9c:	4b05      	ldr	r3, [pc, #20]	; (400eb4 <at30tse_init+0x2c>)
  400e9e:	4798      	blx	r3
  400ea0:	a901      	add	r1, sp, #4
  400ea2:	4805      	ldr	r0, [pc, #20]	; (400eb8 <at30tse_init+0x30>)
  400ea4:	4b05      	ldr	r3, [pc, #20]	; (400ebc <at30tse_init+0x34>)
  400ea6:	4798      	blx	r3
  400ea8:	b005      	add	sp, #20
  400eaa:	f85d fb04 	ldr.w	pc, [sp], #4
  400eae:	bf00      	nop
  400eb0:	07270e00 	.word	0x07270e00
  400eb4:	004024a1 	.word	0x004024a1
  400eb8:	40018000 	.word	0x40018000
  400ebc:	00402905 	.word	0x00402905

00400ec0 <at30tse_read_register>:
  400ec0:	b510      	push	{r4, lr}
  400ec2:	b086      	sub	sp, #24
  400ec4:	2400      	movs	r4, #0
  400ec6:	9401      	str	r4, [sp, #4]
  400ec8:	9405      	str	r4, [sp, #20]
  400eca:	4301      	orrs	r1, r0
  400ecc:	f88d 1004 	strb.w	r1, [sp, #4]
  400ed0:	2101      	movs	r1, #1
  400ed2:	9102      	str	r1, [sp, #8]
  400ed4:	9303      	str	r3, [sp, #12]
  400ed6:	9204      	str	r2, [sp, #16]
  400ed8:	234f      	movs	r3, #79	; 0x4f
  400eda:	f88d 3014 	strb.w	r3, [sp, #20]
  400ede:	a901      	add	r1, sp, #4
  400ee0:	4802      	ldr	r0, [pc, #8]	; (400eec <at30tse_read_register+0x2c>)
  400ee2:	4b03      	ldr	r3, [pc, #12]	; (400ef0 <at30tse_read_register+0x30>)
  400ee4:	4798      	blx	r3
  400ee6:	b2c0      	uxtb	r0, r0
  400ee8:	b006      	add	sp, #24
  400eea:	bd10      	pop	{r4, pc}
  400eec:	40018000 	.word	0x40018000
  400ef0:	00402969 	.word	0x00402969

00400ef4 <at30tse_read_temperature>:
  400ef4:	b570      	push	{r4, r5, r6, lr}
  400ef6:	b082      	sub	sp, #8
  400ef8:	4604      	mov	r4, r0
  400efa:	2000      	movs	r0, #0
  400efc:	f88d 0004 	strb.w	r0, [sp, #4]
  400f00:	f88d 0005 	strb.w	r0, [sp, #5]
  400f04:	ab01      	add	r3, sp, #4
  400f06:	2202      	movs	r2, #2
  400f08:	4601      	mov	r1, r0
  400f0a:	4d27      	ldr	r5, [pc, #156]	; (400fa8 <at30tse_read_temperature+0xb4>)
  400f0c:	47a8      	blx	r5
  400f0e:	4605      	mov	r5, r0
  400f10:	bb10      	cbnz	r0, 400f58 <at30tse_read_temperature+0x64>
  400f12:	f89d 2004 	ldrb.w	r2, [sp, #4]
  400f16:	f89d 3005 	ldrb.w	r3, [sp, #5]
  400f1a:	ea43 2302 	orr.w	r3, r3, r2, lsl #8
  400f1e:	b21b      	sxth	r3, r3
  400f20:	b29a      	uxth	r2, r3
  400f22:	2b00      	cmp	r3, #0
  400f24:	bfba      	itte	lt
  400f26:	f3c2 020e 	ubfxlt	r2, r2, #0, #15
  400f2a:	f04f 30ff 	movlt.w	r0, #4294967295
  400f2e:	2001      	movge	r0, #1
  400f30:	4b1e      	ldr	r3, [pc, #120]	; (400fac <at30tse_read_temperature+0xb8>)
  400f32:	781b      	ldrb	r3, [r3, #0]
  400f34:	b2db      	uxtb	r3, r3
  400f36:	2b03      	cmp	r3, #3
  400f38:	d80e      	bhi.n	400f58 <at30tse_read_temperature+0x64>
  400f3a:	e8df f003 	tbb	[pc, r3]
  400f3e:	1002      	.short	0x1002
  400f40:	291c      	.short	0x291c
  400f42:	09d2      	lsrs	r2, r2, #7
  400f44:	fb00 f002 	mul.w	r0, r0, r2
  400f48:	4b19      	ldr	r3, [pc, #100]	; (400fb0 <at30tse_read_temperature+0xbc>)
  400f4a:	4798      	blx	r3
  400f4c:	2200      	movs	r2, #0
  400f4e:	4b19      	ldr	r3, [pc, #100]	; (400fb4 <at30tse_read_temperature+0xc0>)
  400f50:	4e19      	ldr	r6, [pc, #100]	; (400fb8 <at30tse_read_temperature+0xc4>)
  400f52:	47b0      	blx	r6
  400f54:	e9c4 0100 	strd	r0, r1, [r4]
  400f58:	4628      	mov	r0, r5
  400f5a:	b002      	add	sp, #8
  400f5c:	bd70      	pop	{r4, r5, r6, pc}
  400f5e:	0992      	lsrs	r2, r2, #6
  400f60:	fb00 f002 	mul.w	r0, r0, r2
  400f64:	4b12      	ldr	r3, [pc, #72]	; (400fb0 <at30tse_read_temperature+0xbc>)
  400f66:	4798      	blx	r3
  400f68:	2200      	movs	r2, #0
  400f6a:	4b14      	ldr	r3, [pc, #80]	; (400fbc <at30tse_read_temperature+0xc8>)
  400f6c:	4e12      	ldr	r6, [pc, #72]	; (400fb8 <at30tse_read_temperature+0xc4>)
  400f6e:	47b0      	blx	r6
  400f70:	e9c4 0100 	strd	r0, r1, [r4]
  400f74:	e7f0      	b.n	400f58 <at30tse_read_temperature+0x64>
  400f76:	0952      	lsrs	r2, r2, #5
  400f78:	fb00 f002 	mul.w	r0, r0, r2
  400f7c:	4b0c      	ldr	r3, [pc, #48]	; (400fb0 <at30tse_read_temperature+0xbc>)
  400f7e:	4798      	blx	r3
  400f80:	2200      	movs	r2, #0
  400f82:	f04f 537f 	mov.w	r3, #1069547520	; 0x3fc00000
  400f86:	4e0c      	ldr	r6, [pc, #48]	; (400fb8 <at30tse_read_temperature+0xc4>)
  400f88:	47b0      	blx	r6
  400f8a:	e9c4 0100 	strd	r0, r1, [r4]
  400f8e:	e7e3      	b.n	400f58 <at30tse_read_temperature+0x64>
  400f90:	0912      	lsrs	r2, r2, #4
  400f92:	fb00 f002 	mul.w	r0, r0, r2
  400f96:	4b06      	ldr	r3, [pc, #24]	; (400fb0 <at30tse_read_temperature+0xbc>)
  400f98:	4798      	blx	r3
  400f9a:	2200      	movs	r2, #0
  400f9c:	4b08      	ldr	r3, [pc, #32]	; (400fc0 <at30tse_read_temperature+0xcc>)
  400f9e:	4e06      	ldr	r6, [pc, #24]	; (400fb8 <at30tse_read_temperature+0xc4>)
  400fa0:	47b0      	blx	r6
  400fa2:	e9c4 0100 	strd	r0, r1, [r4]
  400fa6:	e7d7      	b.n	400f58 <at30tse_read_temperature+0x64>
  400fa8:	00400ec1 	.word	0x00400ec1
  400fac:	20000ac5 	.word	0x20000ac5
  400fb0:	00403159 	.word	0x00403159
  400fb4:	3fe00000 	.word	0x3fe00000
  400fb8:	00403225 	.word	0x00403225
  400fbc:	3fd00000 	.word	0x3fd00000
  400fc0:	3fb00000 	.word	0x3fb00000

00400fc4 <sd_mmc_configure_slot>:
  400fc4:	b510      	push	{r4, lr}
  400fc6:	4b07      	ldr	r3, [pc, #28]	; (400fe4 <sd_mmc_configure_slot+0x20>)
  400fc8:	6819      	ldr	r1, [r3, #0]
  400fca:	f891 3022 	ldrb.w	r3, [r1, #34]	; 0x22
  400fce:	3300      	adds	r3, #0
  400fd0:	bf18      	it	ne
  400fd2:	2301      	movne	r3, #1
  400fd4:	7c4a      	ldrb	r2, [r1, #17]
  400fd6:	6809      	ldr	r1, [r1, #0]
  400fd8:	4803      	ldr	r0, [pc, #12]	; (400fe8 <sd_mmc_configure_slot+0x24>)
  400fda:	7800      	ldrb	r0, [r0, #0]
  400fdc:	4c03      	ldr	r4, [pc, #12]	; (400fec <sd_mmc_configure_slot+0x28>)
  400fde:	47a0      	blx	r4
  400fe0:	bd10      	pop	{r4, pc}
  400fe2:	bf00      	nop
  400fe4:	20000ac8 	.word	0x20000ac8
  400fe8:	20000acd 	.word	0x20000acd
  400fec:	0040173d 	.word	0x0040173d

00400ff0 <sd_mmc_select_slot>:
  400ff0:	b108      	cbz	r0, 400ff6 <sd_mmc_select_slot+0x6>
  400ff2:	2004      	movs	r0, #4
  400ff4:	4770      	bx	lr
  400ff6:	4b33      	ldr	r3, [pc, #204]	; (4010c4 <sd_mmc_select_slot+0xd4>)
  400ff8:	689a      	ldr	r2, [r3, #8]
  400ffa:	0953      	lsrs	r3, r2, #5
  400ffc:	f503 1300 	add.w	r3, r3, #2097152	; 0x200000
  401000:	f203 7307 	addw	r3, r3, #1799	; 0x707
  401004:	025b      	lsls	r3, r3, #9
  401006:	6bd9      	ldr	r1, [r3, #60]	; 0x3c
  401008:	f002 021f 	and.w	r2, r2, #31
  40100c:	2301      	movs	r3, #1
  40100e:	fa03 f202 	lsl.w	r2, r3, r2
  401012:	420a      	tst	r2, r1
  401014:	d010      	beq.n	401038 <sd_mmc_select_slot+0x48>
  401016:	4b2b      	ldr	r3, [pc, #172]	; (4010c4 <sd_mmc_select_slot+0xd4>)
  401018:	7b9b      	ldrb	r3, [r3, #14]
  40101a:	2b01      	cmp	r3, #1
  40101c:	d004      	beq.n	401028 <sd_mmc_select_slot+0x38>
  40101e:	2204      	movs	r2, #4
  401020:	4b28      	ldr	r3, [pc, #160]	; (4010c4 <sd_mmc_select_slot+0xd4>)
  401022:	739a      	strb	r2, [r3, #14]
  401024:	2002      	movs	r0, #2
  401026:	4770      	bx	lr
  401028:	4b27      	ldr	r3, [pc, #156]	; (4010c8 <sd_mmc_select_slot+0xd8>)
  40102a:	781b      	ldrb	r3, [r3, #0]
  40102c:	2b00      	cmp	r3, #0
  40102e:	d0f6      	beq.n	40101e <sd_mmc_select_slot+0x2e>
  401030:	2200      	movs	r2, #0
  401032:	4b26      	ldr	r3, [pc, #152]	; (4010cc <sd_mmc_select_slot+0xdc>)
  401034:	601a      	str	r2, [r3, #0]
  401036:	e7f2      	b.n	40101e <sd_mmc_select_slot+0x2e>
  401038:	b510      	push	{r4, lr}
  40103a:	4b22      	ldr	r3, [pc, #136]	; (4010c4 <sd_mmc_select_slot+0xd4>)
  40103c:	7b9b      	ldrb	r3, [r3, #14]
  40103e:	2b04      	cmp	r3, #4
  401040:	d005      	beq.n	40104e <sd_mmc_select_slot+0x5e>
  401042:	2b01      	cmp	r3, #1
  401044:	d019      	beq.n	40107a <sd_mmc_select_slot+0x8a>
  401046:	2b03      	cmp	r3, #3
  401048:	d12c      	bne.n	4010a4 <sd_mmc_select_slot+0xb4>
  40104a:	2003      	movs	r0, #3
  40104c:	bd10      	pop	{r4, pc}
  40104e:	2201      	movs	r2, #1
  401050:	4b1c      	ldr	r3, [pc, #112]	; (4010c4 <sd_mmc_select_slot+0xd4>)
  401052:	739a      	strb	r2, [r3, #14]
  401054:	4b1d      	ldr	r3, [pc, #116]	; (4010cc <sd_mmc_select_slot+0xdc>)
  401056:	681b      	ldr	r3, [r3, #0]
  401058:	b93b      	cbnz	r3, 40106a <sd_mmc_select_slot+0x7a>
  40105a:	4b1b      	ldr	r3, [pc, #108]	; (4010c8 <sd_mmc_select_slot+0xd8>)
  40105c:	701a      	strb	r2, [r3, #0]
  40105e:	4b1b      	ldr	r3, [pc, #108]	; (4010cc <sd_mmc_select_slot+0xdc>)
  401060:	491b      	ldr	r1, [pc, #108]	; (4010d0 <sd_mmc_select_slot+0xe0>)
  401062:	6059      	str	r1, [r3, #4]
  401064:	601a      	str	r2, [r3, #0]
  401066:	2002      	movs	r0, #2
  401068:	bd10      	pop	{r4, pc}
  40106a:	2200      	movs	r2, #0
  40106c:	4b16      	ldr	r3, [pc, #88]	; (4010c8 <sd_mmc_select_slot+0xd8>)
  40106e:	701a      	strb	r2, [r3, #0]
  401070:	4818      	ldr	r0, [pc, #96]	; (4010d4 <sd_mmc_select_slot+0xe4>)
  401072:	4b19      	ldr	r3, [pc, #100]	; (4010d8 <sd_mmc_select_slot+0xe8>)
  401074:	4798      	blx	r3
  401076:	2002      	movs	r0, #2
  401078:	bd10      	pop	{r4, pc}
  40107a:	4b13      	ldr	r3, [pc, #76]	; (4010c8 <sd_mmc_select_slot+0xd8>)
  40107c:	781b      	ldrb	r3, [r3, #0]
  40107e:	b13b      	cbz	r3, 401090 <sd_mmc_select_slot+0xa0>
  401080:	4b12      	ldr	r3, [pc, #72]	; (4010cc <sd_mmc_select_slot+0xdc>)
  401082:	681b      	ldr	r3, [r3, #0]
  401084:	f413 3f80 	tst.w	r3, #65536	; 0x10000
  401088:	d01a      	beq.n	4010c0 <sd_mmc_select_slot+0xd0>
  40108a:	2200      	movs	r2, #0
  40108c:	4b0f      	ldr	r3, [pc, #60]	; (4010cc <sd_mmc_select_slot+0xdc>)
  40108e:	601a      	str	r2, [r3, #0]
  401090:	4b0c      	ldr	r3, [pc, #48]	; (4010c4 <sd_mmc_select_slot+0xd4>)
  401092:	2202      	movs	r2, #2
  401094:	739a      	strb	r2, [r3, #14]
  401096:	4a11      	ldr	r2, [pc, #68]	; (4010dc <sd_mmc_select_slot+0xec>)
  401098:	601a      	str	r2, [r3, #0]
  40109a:	2201      	movs	r2, #1
  40109c:	745a      	strb	r2, [r3, #17]
  40109e:	2200      	movs	r2, #0
  4010a0:	f883 2022 	strb.w	r2, [r3, #34]	; 0x22
  4010a4:	2200      	movs	r2, #0
  4010a6:	4b0e      	ldr	r3, [pc, #56]	; (4010e0 <sd_mmc_select_slot+0xf0>)
  4010a8:	701a      	strb	r2, [r3, #0]
  4010aa:	4c06      	ldr	r4, [pc, #24]	; (4010c4 <sd_mmc_select_slot+0xd4>)
  4010ac:	4b0d      	ldr	r3, [pc, #52]	; (4010e4 <sd_mmc_select_slot+0xf4>)
  4010ae:	601c      	str	r4, [r3, #0]
  4010b0:	4b0d      	ldr	r3, [pc, #52]	; (4010e8 <sd_mmc_select_slot+0xf8>)
  4010b2:	4798      	blx	r3
  4010b4:	7ba0      	ldrb	r0, [r4, #14]
  4010b6:	2802      	cmp	r0, #2
  4010b8:	bf14      	ite	ne
  4010ba:	2000      	movne	r0, #0
  4010bc:	2001      	moveq	r0, #1
  4010be:	bd10      	pop	{r4, pc}
  4010c0:	2002      	movs	r0, #2
  4010c2:	bd10      	pop	{r4, pc}
  4010c4:	20000408 	.word	0x20000408
  4010c8:	20000acc 	.word	0x20000acc
  4010cc:	e000e010 	.word	0xe000e010
  4010d0:	00e4e1c0 	.word	0x00e4e1c0
  4010d4:	0082ca25 	.word	0x0082ca25
  4010d8:	20000001 	.word	0x20000001
  4010dc:	00061a80 	.word	0x00061a80
  4010e0:	20000acd 	.word	0x20000acd
  4010e4:	20000ac8 	.word	0x20000ac8
  4010e8:	00400fc5 	.word	0x00400fc5

004010ec <sd_mmc_cmd13>:
  4010ec:	e92d 41f0 	stmdb	sp!, {r4, r5, r6, r7, r8, lr}
  4010f0:	4c09      	ldr	r4, [pc, #36]	; (401118 <sd_mmc_cmd13+0x2c>)
  4010f2:	2700      	movs	r7, #0
  4010f4:	4e09      	ldr	r6, [pc, #36]	; (40111c <sd_mmc_cmd13+0x30>)
  4010f6:	4d0a      	ldr	r5, [pc, #40]	; (401120 <sd_mmc_cmd13+0x34>)
  4010f8:	4639      	mov	r1, r7
  4010fa:	f641 300d 	movw	r0, #6925	; 0x1b0d
  4010fe:	47b0      	blx	r6
  401100:	4680      	mov	r8, r0
  401102:	b130      	cbz	r0, 401112 <sd_mmc_cmd13+0x26>
  401104:	47a8      	blx	r5
  401106:	b2c0      	uxtb	r0, r0
  401108:	b118      	cbz	r0, 401112 <sd_mmc_cmd13+0x26>
  40110a:	3c01      	subs	r4, #1
  40110c:	d1f4      	bne.n	4010f8 <sd_mmc_cmd13+0xc>
  40110e:	f04f 0800 	mov.w	r8, #0
  401112:	4640      	mov	r0, r8
  401114:	e8bd 81f0 	ldmia.w	sp!, {r4, r5, r6, r7, r8, pc}
  401118:	00030d41 	.word	0x00030d41
  40111c:	00401965 	.word	0x00401965
  401120:	0040197d 	.word	0x0040197d

00401124 <sd_mmc_cmd9_spi>:
  401124:	b510      	push	{r4, lr}
  401126:	b082      	sub	sp, #8
  401128:	4b0d      	ldr	r3, [pc, #52]	; (401160 <sd_mmc_cmd9_spi+0x3c>)
  40112a:	681b      	ldr	r3, [r3, #0]
  40112c:	8999      	ldrh	r1, [r3, #12]
  40112e:	2301      	movs	r3, #1
  401130:	9300      	str	r3, [sp, #0]
  401132:	2210      	movs	r2, #16
  401134:	4091      	lsls	r1, r2
  401136:	480b      	ldr	r0, [pc, #44]	; (401164 <sd_mmc_cmd9_spi+0x40>)
  401138:	4c0b      	ldr	r4, [pc, #44]	; (401168 <sd_mmc_cmd9_spi+0x44>)
  40113a:	47a0      	blx	r4
  40113c:	4603      	mov	r3, r0
  40113e:	b910      	cbnz	r0, 401146 <sd_mmc_cmd9_spi+0x22>
  401140:	4618      	mov	r0, r3
  401142:	b002      	add	sp, #8
  401144:	bd10      	pop	{r4, pc}
  401146:	4b06      	ldr	r3, [pc, #24]	; (401160 <sd_mmc_cmd9_spi+0x3c>)
  401148:	6818      	ldr	r0, [r3, #0]
  40114a:	2101      	movs	r1, #1
  40114c:	3012      	adds	r0, #18
  40114e:	4b07      	ldr	r3, [pc, #28]	; (40116c <sd_mmc_cmd9_spi+0x48>)
  401150:	4798      	blx	r3
  401152:	4603      	mov	r3, r0
  401154:	2800      	cmp	r0, #0
  401156:	d0f3      	beq.n	401140 <sd_mmc_cmd9_spi+0x1c>
  401158:	4b05      	ldr	r3, [pc, #20]	; (401170 <sd_mmc_cmd9_spi+0x4c>)
  40115a:	4798      	blx	r3
  40115c:	4603      	mov	r3, r0
  40115e:	e7ef      	b.n	401140 <sd_mmc_cmd9_spi+0x1c>
  401160:	20000ac8 	.word	0x20000ac8
  401164:	00081109 	.word	0x00081109
  401168:	004017dd 	.word	0x004017dd
  40116c:	004019fd 	.word	0x004019fd
  401170:	00401a79 	.word	0x00401a79

00401174 <sd_mmc_deselect_slot>:
  401174:	b508      	push	{r3, lr}
  401176:	4b04      	ldr	r3, [pc, #16]	; (401188 <sd_mmc_deselect_slot+0x14>)
  401178:	781b      	ldrb	r3, [r3, #0]
  40117a:	b103      	cbz	r3, 40117e <sd_mmc_deselect_slot+0xa>
  40117c:	bd08      	pop	{r3, pc}
  40117e:	2000      	movs	r0, #0
  401180:	4b02      	ldr	r3, [pc, #8]	; (40118c <sd_mmc_deselect_slot+0x18>)
  401182:	4798      	blx	r3
  401184:	e7fa      	b.n	40117c <sd_mmc_deselect_slot+0x8>
  401186:	bf00      	nop
  401188:	20000acd 	.word	0x20000acd
  40118c:	0040177d 	.word	0x0040177d

00401190 <sd_mmc_init>:
  401190:	b508      	push	{r3, lr}
  401192:	200d      	movs	r0, #13
  401194:	4b05      	ldr	r3, [pc, #20]	; (4011ac <sd_mmc_init+0x1c>)
  401196:	4798      	blx	r3
  401198:	2204      	movs	r2, #4
  40119a:	4b05      	ldr	r3, [pc, #20]	; (4011b0 <sd_mmc_init+0x20>)
  40119c:	739a      	strb	r2, [r3, #14]
  40119e:	22ff      	movs	r2, #255	; 0xff
  4011a0:	4b04      	ldr	r3, [pc, #16]	; (4011b4 <sd_mmc_init+0x24>)
  4011a2:	701a      	strb	r2, [r3, #0]
  4011a4:	4b04      	ldr	r3, [pc, #16]	; (4011b8 <sd_mmc_init+0x28>)
  4011a6:	4798      	blx	r3
  4011a8:	bd08      	pop	{r3, pc}
  4011aa:	bf00      	nop
  4011ac:	004024a1 	.word	0x004024a1
  4011b0:	20000408 	.word	0x20000408
  4011b4:	20000acd 	.word	0x20000acd
  4011b8:	0040170d 	.word	0x0040170d

004011bc <sd_mmc_check>:
  4011bc:	e92d 43f0 	stmdb	sp!, {r4, r5, r6, r7, r8, r9, lr}
  4011c0:	b087      	sub	sp, #28
  4011c2:	4b9a      	ldr	r3, [pc, #616]	; (40142c <sd_mmc_check+0x270>)
  4011c4:	4798      	blx	r3
  4011c6:	4604      	mov	r4, r0
  4011c8:	2801      	cmp	r0, #1
  4011ca:	d005      	beq.n	4011d8 <sd_mmc_check+0x1c>
  4011cc:	4b98      	ldr	r3, [pc, #608]	; (401430 <sd_mmc_check+0x274>)
  4011ce:	4798      	blx	r3
  4011d0:	4620      	mov	r0, r4
  4011d2:	b007      	add	sp, #28
  4011d4:	e8bd 83f0 	ldmia.w	sp!, {r4, r5, r6, r7, r8, r9, pc}
  4011d8:	4b96      	ldr	r3, [pc, #600]	; (401434 <sd_mmc_check+0x278>)
  4011da:	681b      	ldr	r3, [r3, #0]
  4011dc:	2201      	movs	r2, #1
  4011de:	73da      	strb	r2, [r3, #15]
  4011e0:	2500      	movs	r5, #0
  4011e2:	741d      	strb	r5, [r3, #16]
  4011e4:	819d      	strh	r5, [r3, #12]
  4011e6:	4b94      	ldr	r3, [pc, #592]	; (401438 <sd_mmc_check+0x27c>)
  4011e8:	4798      	blx	r3
  4011ea:	4629      	mov	r1, r5
  4011ec:	f44f 5088 	mov.w	r0, #4352	; 0x1100
  4011f0:	4b92      	ldr	r3, [pc, #584]	; (40143c <sd_mmc_check+0x280>)
  4011f2:	4798      	blx	r3
  4011f4:	b930      	cbnz	r0, 401204 <sd_mmc_check+0x48>
  4011f6:	4b8f      	ldr	r3, [pc, #572]	; (401434 <sd_mmc_check+0x278>)
  4011f8:	681b      	ldr	r3, [r3, #0]
  4011fa:	2403      	movs	r4, #3
  4011fc:	739c      	strb	r4, [r3, #14]
  4011fe:	4b8c      	ldr	r3, [pc, #560]	; (401430 <sd_mmc_check+0x274>)
  401200:	4798      	blx	r3
  401202:	e7e5      	b.n	4011d0 <sd_mmc_check+0x14>
  401204:	f44f 71d5 	mov.w	r1, #426	; 0x1aa
  401208:	f245 5008 	movw	r0, #21768	; 0x5508
  40120c:	4b8b      	ldr	r3, [pc, #556]	; (40143c <sd_mmc_check+0x280>)
  40120e:	4798      	blx	r3
  401210:	2800      	cmp	r0, #0
  401212:	d129      	bne.n	401268 <sd_mmc_check+0xac>
  401214:	2700      	movs	r7, #0
  401216:	4b87      	ldr	r3, [pc, #540]	; (401434 <sd_mmc_check+0x278>)
  401218:	681b      	ldr	r3, [r3, #0]
  40121a:	7bdb      	ldrb	r3, [r3, #15]
  40121c:	f013 0f01 	tst.w	r3, #1
  401220:	f040 81df 	bne.w	4015e2 <sd_mmc_check+0x426>
  401224:	4b83      	ldr	r3, [pc, #524]	; (401434 <sd_mmc_check+0x278>)
  401226:	681b      	ldr	r3, [r3, #0]
  401228:	7bdb      	ldrb	r3, [r3, #15]
  40122a:	f003 0309 	and.w	r3, r3, #9
  40122e:	2b01      	cmp	r3, #1
  401230:	d111      	bne.n	401256 <sd_mmc_check+0x9a>
  401232:	f44f 7100 	mov.w	r1, #512	; 0x200
  401236:	f241 1010 	movw	r0, #4368	; 0x1110
  40123a:	4b80      	ldr	r3, [pc, #512]	; (40143c <sd_mmc_check+0x280>)
  40123c:	4798      	blx	r3
  40123e:	2800      	cmp	r0, #0
  401240:	d0d9      	beq.n	4011f6 <sd_mmc_check+0x3a>
  401242:	4b7c      	ldr	r3, [pc, #496]	; (401434 <sd_mmc_check+0x278>)
  401244:	681b      	ldr	r3, [r3, #0]
  401246:	7bdb      	ldrb	r3, [r3, #15]
  401248:	f013 0f01 	tst.w	r3, #1
  40124c:	d003      	beq.n	401256 <sd_mmc_check+0x9a>
  40124e:	4b7c      	ldr	r3, [pc, #496]	; (401440 <sd_mmc_check+0x284>)
  401250:	4798      	blx	r3
  401252:	2800      	cmp	r0, #0
  401254:	d0cf      	beq.n	4011f6 <sd_mmc_check+0x3a>
  401256:	4b7b      	ldr	r3, [pc, #492]	; (401444 <sd_mmc_check+0x288>)
  401258:	4798      	blx	r3
  40125a:	4b76      	ldr	r3, [pc, #472]	; (401434 <sd_mmc_check+0x278>)
  40125c:	681b      	ldr	r3, [r3, #0]
  40125e:	2200      	movs	r2, #0
  401260:	739a      	strb	r2, [r3, #14]
  401262:	4b73      	ldr	r3, [pc, #460]	; (401430 <sd_mmc_check+0x274>)
  401264:	4798      	blx	r3
  401266:	e7b3      	b.n	4011d0 <sd_mmc_check+0x14>
  401268:	4b77      	ldr	r3, [pc, #476]	; (401448 <sd_mmc_check+0x28c>)
  40126a:	4798      	blx	r3
  40126c:	f1b0 3fff 	cmp.w	r0, #4294967295
  401270:	f000 81b5 	beq.w	4015de <sd_mmc_check+0x422>
  401274:	f3c0 000b 	ubfx	r0, r0, #0, #12
  401278:	f5b0 7fd5 	cmp.w	r0, #426	; 0x1aa
  40127c:	d1bb      	bne.n	4011f6 <sd_mmc_check+0x3a>
  40127e:	2701      	movs	r7, #1
  401280:	e7c9      	b.n	401216 <sd_mmc_check+0x5a>
  401282:	2100      	movs	r1, #0
  401284:	f240 503a 	movw	r0, #1338	; 0x53a
  401288:	4b6c      	ldr	r3, [pc, #432]	; (40143c <sd_mmc_check+0x280>)
  40128a:	4798      	blx	r3
  40128c:	b9f0      	cbnz	r0, 4012cc <sd_mmc_check+0x110>
  40128e:	4b69      	ldr	r3, [pc, #420]	; (401434 <sd_mmc_check+0x278>)
  401290:	681b      	ldr	r3, [r3, #0]
  401292:	2202      	movs	r2, #2
  401294:	73da      	strb	r2, [r3, #15]
  401296:	2100      	movs	r1, #0
  401298:	f44f 5088 	mov.w	r0, #4352	; 0x1100
  40129c:	4b67      	ldr	r3, [pc, #412]	; (40143c <sd_mmc_check+0x280>)
  40129e:	4798      	blx	r3
  4012a0:	2800      	cmp	r0, #0
  4012a2:	d0a8      	beq.n	4011f6 <sd_mmc_check+0x3a>
  4012a4:	f641 35ef 	movw	r5, #7151	; 0x1bef
  4012a8:	f04f 0800 	mov.w	r8, #0
  4012ac:	4e63      	ldr	r6, [pc, #396]	; (40143c <sd_mmc_check+0x280>)
  4012ae:	4f66      	ldr	r7, [pc, #408]	; (401448 <sd_mmc_check+0x28c>)
  4012b0:	4641      	mov	r1, r8
  4012b2:	f241 1001 	movw	r0, #4353	; 0x1101
  4012b6:	47b0      	blx	r6
  4012b8:	2800      	cmp	r0, #0
  4012ba:	d09c      	beq.n	4011f6 <sd_mmc_check+0x3a>
  4012bc:	47b8      	blx	r7
  4012be:	f010 0f01 	tst.w	r0, #1
  4012c2:	f000 8084 	beq.w	4013ce <sd_mmc_check+0x212>
  4012c6:	3d01      	subs	r5, #1
  4012c8:	d1f2      	bne.n	4012b0 <sd_mmc_check+0xf4>
  4012ca:	e794      	b.n	4011f6 <sd_mmc_check+0x3a>
  4012cc:	4b5e      	ldr	r3, [pc, #376]	; (401448 <sd_mmc_check+0x28c>)
  4012ce:	4798      	blx	r3
  4012d0:	f010 4f80 	tst.w	r0, #1073741824	; 0x40000000
  4012d4:	d005      	beq.n	4012e2 <sd_mmc_check+0x126>
  4012d6:	4b57      	ldr	r3, [pc, #348]	; (401434 <sd_mmc_check+0x278>)
  4012d8:	681a      	ldr	r2, [r3, #0]
  4012da:	7bd3      	ldrb	r3, [r2, #15]
  4012dc:	f043 0308 	orr.w	r3, r3, #8
  4012e0:	73d3      	strb	r3, [r2, #15]
  4012e2:	2100      	movs	r1, #0
  4012e4:	f241 103b 	movw	r0, #4411	; 0x113b
  4012e8:	4b54      	ldr	r3, [pc, #336]	; (40143c <sd_mmc_check+0x280>)
  4012ea:	4798      	blx	r3
  4012ec:	2800      	cmp	r0, #0
  4012ee:	d082      	beq.n	4011f6 <sd_mmc_check+0x3a>
  4012f0:	4b50      	ldr	r3, [pc, #320]	; (401434 <sd_mmc_check+0x278>)
  4012f2:	681b      	ldr	r3, [r3, #0]
  4012f4:	7bdb      	ldrb	r3, [r3, #15]
  4012f6:	f013 0f01 	tst.w	r3, #1
  4012fa:	f000 8190 	beq.w	40161e <sd_mmc_check+0x462>
  4012fe:	4b53      	ldr	r3, [pc, #332]	; (40144c <sd_mmc_check+0x290>)
  401300:	4798      	blx	r3
  401302:	2800      	cmp	r0, #0
  401304:	f43f af77 	beq.w	4011f6 <sd_mmc_check+0x3a>
  401308:	4b4a      	ldr	r3, [pc, #296]	; (401434 <sd_mmc_check+0x278>)
  40130a:	681b      	ldr	r3, [r3, #0]
  40130c:	7d5a      	ldrb	r2, [r3, #21]
  40130e:	f002 0007 	and.w	r0, r2, #7
  401312:	494f      	ldr	r1, [pc, #316]	; (401450 <sd_mmc_check+0x294>)
  401314:	f851 0020 	ldr.w	r0, [r1, r0, lsl #2]
  401318:	f44f 717a 	mov.w	r1, #1000	; 0x3e8
  40131c:	fb01 f100 	mul.w	r1, r1, r0
  401320:	f3c2 02c3 	ubfx	r2, r2, #3, #4
  401324:	484b      	ldr	r0, [pc, #300]	; (401454 <sd_mmc_check+0x298>)
  401326:	f850 2022 	ldr.w	r2, [r0, r2, lsl #2]
  40132a:	fb02 f201 	mul.w	r2, r2, r1
  40132e:	601a      	str	r2, [r3, #0]
  401330:	7c9a      	ldrb	r2, [r3, #18]
  401332:	0992      	lsrs	r2, r2, #6
  401334:	f040 812a 	bne.w	40158c <sd_mmc_check+0x3d0>
  401338:	7e99      	ldrb	r1, [r3, #26]
  40133a:	7e58      	ldrb	r0, [r3, #25]
  40133c:	7e1a      	ldrb	r2, [r3, #24]
  40133e:	0292      	lsls	r2, r2, #10
  401340:	ea42 0280 	orr.w	r2, r2, r0, lsl #2
  401344:	ea42 12a1 	orr.w	r2, r2, r1, asr #6
  401348:	7f18      	ldrb	r0, [r3, #28]
  40134a:	7ed9      	ldrb	r1, [r3, #27]
  40134c:	0049      	lsls	r1, r1, #1
  40134e:	ea41 11e0 	orr.w	r1, r1, r0, asr #7
  401352:	f3c2 020b 	ubfx	r2, r2, #0, #12
  401356:	3201      	adds	r2, #1
  401358:	f001 0107 	and.w	r1, r1, #7
  40135c:	3102      	adds	r1, #2
  40135e:	408a      	lsls	r2, r1
  401360:	7dd9      	ldrb	r1, [r3, #23]
  401362:	f001 010f 	and.w	r1, r1, #15
  401366:	408a      	lsls	r2, r1
  401368:	0a92      	lsrs	r2, r2, #10
  40136a:	605a      	str	r2, [r3, #4]
  40136c:	8999      	ldrh	r1, [r3, #12]
  40136e:	0409      	lsls	r1, r1, #16
  401370:	f241 1037 	movw	r0, #4407	; 0x1137
  401374:	4b31      	ldr	r3, [pc, #196]	; (40143c <sd_mmc_check+0x280>)
  401376:	4798      	blx	r3
  401378:	2800      	cmp	r0, #0
  40137a:	f43f af3c 	beq.w	4011f6 <sd_mmc_check+0x3a>
  40137e:	2301      	movs	r3, #1
  401380:	9300      	str	r3, [sp, #0]
  401382:	2208      	movs	r2, #8
  401384:	2100      	movs	r1, #0
  401386:	4834      	ldr	r0, [pc, #208]	; (401458 <sd_mmc_check+0x29c>)
  401388:	4d34      	ldr	r5, [pc, #208]	; (40145c <sd_mmc_check+0x2a0>)
  40138a:	47a8      	blx	r5
  40138c:	2800      	cmp	r0, #0
  40138e:	f43f af32 	beq.w	4011f6 <sd_mmc_check+0x3a>
  401392:	2101      	movs	r1, #1
  401394:	a804      	add	r0, sp, #16
  401396:	4b32      	ldr	r3, [pc, #200]	; (401460 <sd_mmc_check+0x2a4>)
  401398:	4798      	blx	r3
  40139a:	2800      	cmp	r0, #0
  40139c:	f43f af2b 	beq.w	4011f6 <sd_mmc_check+0x3a>
  4013a0:	4b30      	ldr	r3, [pc, #192]	; (401464 <sd_mmc_check+0x2a8>)
  4013a2:	4798      	blx	r3
  4013a4:	2800      	cmp	r0, #0
  4013a6:	f43f af26 	beq.w	4011f6 <sd_mmc_check+0x3a>
  4013aa:	f89d 3010 	ldrb.w	r3, [sp, #16]
  4013ae:	f003 030f 	and.w	r3, r3, #15
  4013b2:	2b01      	cmp	r3, #1
  4013b4:	f000 8104 	beq.w	4015c0 <sd_mmc_check+0x404>
  4013b8:	2b00      	cmp	r3, #0
  4013ba:	f000 80f4 	beq.w	4015a6 <sd_mmc_check+0x3ea>
  4013be:	2b02      	cmp	r3, #2
  4013c0:	f000 8103 	beq.w	4015ca <sd_mmc_check+0x40e>
  4013c4:	4b1b      	ldr	r3, [pc, #108]	; (401434 <sd_mmc_check+0x278>)
  4013c6:	681b      	ldr	r3, [r3, #0]
  4013c8:	2210      	movs	r2, #16
  4013ca:	741a      	strb	r2, [r3, #16]
  4013cc:	e0ef      	b.n	4015ae <sd_mmc_check+0x3f2>
  4013ce:	2100      	movs	r1, #0
  4013d0:	f240 503a 	movw	r0, #1338	; 0x53a
  4013d4:	4b19      	ldr	r3, [pc, #100]	; (40143c <sd_mmc_check+0x280>)
  4013d6:	4798      	blx	r3
  4013d8:	2800      	cmp	r0, #0
  4013da:	f43f af0c 	beq.w	4011f6 <sd_mmc_check+0x3a>
  4013de:	4b1a      	ldr	r3, [pc, #104]	; (401448 <sd_mmc_check+0x28c>)
  4013e0:	4798      	blx	r3
  4013e2:	f000 40c0 	and.w	r0, r0, #1610612736	; 0x60000000
  4013e6:	f1b0 4f80 	cmp.w	r0, #1073741824	; 0x40000000
  4013ea:	d105      	bne.n	4013f8 <sd_mmc_check+0x23c>
  4013ec:	4b11      	ldr	r3, [pc, #68]	; (401434 <sd_mmc_check+0x278>)
  4013ee:	681a      	ldr	r2, [r3, #0]
  4013f0:	7bd3      	ldrb	r3, [r2, #15]
  4013f2:	f043 0308 	orr.w	r3, r3, #8
  4013f6:	73d3      	strb	r3, [r2, #15]
  4013f8:	2100      	movs	r1, #0
  4013fa:	f241 103b 	movw	r0, #4411	; 0x113b
  4013fe:	4b0f      	ldr	r3, [pc, #60]	; (40143c <sd_mmc_check+0x280>)
  401400:	4798      	blx	r3
  401402:	2800      	cmp	r0, #0
  401404:	f43f aef7 	beq.w	4011f6 <sd_mmc_check+0x3a>
  401408:	4b10      	ldr	r3, [pc, #64]	; (40144c <sd_mmc_check+0x290>)
  40140a:	4798      	blx	r3
  40140c:	2800      	cmp	r0, #0
  40140e:	f43f aef2 	beq.w	4011f6 <sd_mmc_check+0x3a>
  401412:	4b08      	ldr	r3, [pc, #32]	; (401434 <sd_mmc_check+0x278>)
  401414:	681a      	ldr	r2, [r3, #0]
  401416:	7c93      	ldrb	r3, [r2, #18]
  401418:	f3c3 0383 	ubfx	r3, r3, #2, #4
  40141c:	3b01      	subs	r3, #1
  40141e:	2b03      	cmp	r3, #3
  401420:	d822      	bhi.n	401468 <sd_mmc_check+0x2ac>
  401422:	e8df f003 	tbb	[pc, r3]
  401426:	908d      	.short	0x908d
  401428:	9693      	.short	0x9693
  40142a:	bf00      	nop
  40142c:	00400ff1 	.word	0x00400ff1
  401430:	00401175 	.word	0x00401175
  401434:	20000ac8 	.word	0x20000ac8
  401438:	004017a5 	.word	0x004017a5
  40143c:	00401965 	.word	0x00401965
  401440:	004010ed 	.word	0x004010ed
  401444:	00400fc5 	.word	0x00400fc5
  401448:	0040197d 	.word	0x0040197d
  40144c:	00401125 	.word	0x00401125
  401450:	00403bfc 	.word	0x00403bfc
  401454:	00403c18 	.word	0x00403c18
  401458:	00081133 	.word	0x00081133
  40145c:	004017dd 	.word	0x004017dd
  401460:	004019fd 	.word	0x004019fd
  401464:	00401a79 	.word	0x00401a79
  401468:	2312      	movs	r3, #18
  40146a:	7413      	strb	r3, [r2, #16]
  40146c:	7d53      	ldrb	r3, [r2, #21]
  40146e:	f3c3 00c3 	ubfx	r0, r3, #3, #4
  401472:	f003 0307 	and.w	r3, r3, #7
  401476:	496d      	ldr	r1, [pc, #436]	; (40162c <sd_mmc_check+0x470>)
  401478:	f851 1023 	ldr.w	r1, [r1, r3, lsl #2]
  40147c:	f44f 737a 	mov.w	r3, #1000	; 0x3e8
  401480:	fb03 f301 	mul.w	r3, r3, r1
  401484:	496a      	ldr	r1, [pc, #424]	; (401630 <sd_mmc_check+0x474>)
  401486:	f851 1020 	ldr.w	r1, [r1, r0, lsl #2]
  40148a:	fb03 f301 	mul.w	r3, r3, r1
  40148e:	6013      	str	r3, [r2, #0]
  401490:	7e91      	ldrb	r1, [r2, #26]
  401492:	7e50      	ldrb	r0, [r2, #25]
  401494:	7e13      	ldrb	r3, [r2, #24]
  401496:	029b      	lsls	r3, r3, #10
  401498:	ea43 0380 	orr.w	r3, r3, r0, lsl #2
  40149c:	ea43 13a1 	orr.w	r3, r3, r1, asr #6
  4014a0:	f3c3 030b 	ubfx	r3, r3, #0, #12
  4014a4:	f640 71ff 	movw	r1, #4095	; 0xfff
  4014a8:	428b      	cmp	r3, r1
  4014aa:	d00f      	beq.n	4014cc <sd_mmc_check+0x310>
  4014ac:	7f10      	ldrb	r0, [r2, #28]
  4014ae:	7ed1      	ldrb	r1, [r2, #27]
  4014b0:	0049      	lsls	r1, r1, #1
  4014b2:	ea41 11e0 	orr.w	r1, r1, r0, asr #7
  4014b6:	3301      	adds	r3, #1
  4014b8:	f001 0107 	and.w	r1, r1, #7
  4014bc:	3102      	adds	r1, #2
  4014be:	408b      	lsls	r3, r1
  4014c0:	7dd1      	ldrb	r1, [r2, #23]
  4014c2:	f001 010f 	and.w	r1, r1, #15
  4014c6:	408b      	lsls	r3, r1
  4014c8:	0a9b      	lsrs	r3, r3, #10
  4014ca:	6053      	str	r3, [r2, #4]
  4014cc:	7c13      	ldrb	r3, [r2, #16]
  4014ce:	2b3f      	cmp	r3, #63	; 0x3f
  4014d0:	d94b      	bls.n	40156a <sd_mmc_check+0x3ae>
  4014d2:	2100      	movs	r1, #0
  4014d4:	9100      	str	r1, [sp, #0]
  4014d6:	2301      	movs	r3, #1
  4014d8:	f44f 7200 	mov.w	r2, #512	; 0x200
  4014dc:	4855      	ldr	r0, [pc, #340]	; (401634 <sd_mmc_check+0x478>)
  4014de:	4d56      	ldr	r5, [pc, #344]	; (401638 <sd_mmc_check+0x47c>)
  4014e0:	47a8      	blx	r5
  4014e2:	2800      	cmp	r0, #0
  4014e4:	f43f ae87 	beq.w	4011f6 <sd_mmc_check+0x3a>
  4014e8:	2500      	movs	r5, #0
  4014ea:	4e54      	ldr	r6, [pc, #336]	; (40163c <sd_mmc_check+0x480>)
  4014ec:	a803      	add	r0, sp, #12
  4014ee:	47b0      	blx	r6
  4014f0:	2800      	cmp	r0, #0
  4014f2:	f43f ae80 	beq.w	4011f6 <sd_mmc_check+0x3a>
  4014f6:	3501      	adds	r5, #1
  4014f8:	b2ad      	uxth	r5, r5
  4014fa:	2d32      	cmp	r5, #50	; 0x32
  4014fc:	d1f6      	bne.n	4014ec <sd_mmc_check+0x330>
  4014fe:	4b50      	ldr	r3, [pc, #320]	; (401640 <sd_mmc_check+0x484>)
  401500:	681b      	ldr	r3, [r3, #0]
  401502:	7e9a      	ldrb	r2, [r3, #26]
  401504:	7e59      	ldrb	r1, [r3, #25]
  401506:	7e1b      	ldrb	r3, [r3, #24]
  401508:	029b      	lsls	r3, r3, #10
  40150a:	ea43 0381 	orr.w	r3, r3, r1, lsl #2
  40150e:	ea43 13a2 	orr.w	r3, r3, r2, asr #6
  401512:	f3c3 030b 	ubfx	r3, r3, #0, #12
  401516:	f640 72ff 	movw	r2, #4095	; 0xfff
  40151a:	4293      	cmp	r3, r2
  40151c:	d10e      	bne.n	40153c <sd_mmc_check+0x380>
  40151e:	4e47      	ldr	r6, [pc, #284]	; (40163c <sd_mmc_check+0x480>)
  401520:	a804      	add	r0, sp, #16
  401522:	47b0      	blx	r6
  401524:	2800      	cmp	r0, #0
  401526:	f43f ae66 	beq.w	4011f6 <sd_mmc_check+0x3a>
  40152a:	3501      	adds	r5, #1
  40152c:	b2ad      	uxth	r5, r5
  40152e:	2d35      	cmp	r5, #53	; 0x35
  401530:	d9f6      	bls.n	401520 <sd_mmc_check+0x364>
  401532:	4b43      	ldr	r3, [pc, #268]	; (401640 <sd_mmc_check+0x484>)
  401534:	681a      	ldr	r2, [r3, #0]
  401536:	9b04      	ldr	r3, [sp, #16]
  401538:	085b      	lsrs	r3, r3, #1
  40153a:	6053      	str	r3, [r2, #4]
  40153c:	4e3f      	ldr	r6, [pc, #252]	; (40163c <sd_mmc_check+0x480>)
  40153e:	e012      	b.n	401566 <sd_mmc_check+0x3aa>
  401540:	2314      	movs	r3, #20
  401542:	7413      	strb	r3, [r2, #16]
  401544:	e792      	b.n	40146c <sd_mmc_check+0x2b0>
  401546:	2322      	movs	r3, #34	; 0x22
  401548:	7413      	strb	r3, [r2, #16]
  40154a:	e78f      	b.n	40146c <sd_mmc_check+0x2b0>
  40154c:	2330      	movs	r3, #48	; 0x30
  40154e:	7413      	strb	r3, [r2, #16]
  401550:	e78c      	b.n	40146c <sd_mmc_check+0x2b0>
  401552:	2340      	movs	r3, #64	; 0x40
  401554:	7413      	strb	r3, [r2, #16]
  401556:	e789      	b.n	40146c <sd_mmc_check+0x2b0>
  401558:	a804      	add	r0, sp, #16
  40155a:	47b0      	blx	r6
  40155c:	2800      	cmp	r0, #0
  40155e:	f43f ae4a 	beq.w	4011f6 <sd_mmc_check+0x3a>
  401562:	3501      	adds	r5, #1
  401564:	b2ad      	uxth	r5, r5
  401566:	2d7f      	cmp	r5, #127	; 0x7f
  401568:	d9f6      	bls.n	401558 <sd_mmc_check+0x39c>
  40156a:	f44f 7100 	mov.w	r1, #512	; 0x200
  40156e:	f241 1010 	movw	r0, #4368	; 0x1110
  401572:	4b34      	ldr	r3, [pc, #208]	; (401644 <sd_mmc_check+0x488>)
  401574:	4798      	blx	r3
  401576:	2800      	cmp	r0, #0
  401578:	f43f ae3d 	beq.w	4011f6 <sd_mmc_check+0x3a>
  40157c:	4b32      	ldr	r3, [pc, #200]	; (401648 <sd_mmc_check+0x48c>)
  40157e:	4798      	blx	r3
  401580:	2800      	cmp	r0, #0
  401582:	f43f ae38 	beq.w	4011f6 <sd_mmc_check+0x3a>
  401586:	4b31      	ldr	r3, [pc, #196]	; (40164c <sd_mmc_check+0x490>)
  401588:	4798      	blx	r3
  40158a:	e666      	b.n	40125a <sd_mmc_check+0x9e>
  40158c:	7ed9      	ldrb	r1, [r3, #27]
  40158e:	7e98      	ldrb	r0, [r3, #26]
  401590:	7e5a      	ldrb	r2, [r3, #25]
  401592:	0412      	lsls	r2, r2, #16
  401594:	ea42 2200 	orr.w	r2, r2, r0, lsl #8
  401598:	430a      	orrs	r2, r1
  40159a:	f3c2 0215 	ubfx	r2, r2, #0, #22
  40159e:	3201      	adds	r2, #1
  4015a0:	0252      	lsls	r2, r2, #9
  4015a2:	605a      	str	r2, [r3, #4]
  4015a4:	e6e2      	b.n	40136c <sd_mmc_check+0x1b0>
  4015a6:	4b26      	ldr	r3, [pc, #152]	; (401640 <sd_mmc_check+0x484>)
  4015a8:	681b      	ldr	r3, [r3, #0]
  4015aa:	2210      	movs	r2, #16
  4015ac:	741a      	strb	r2, [r3, #16]
  4015ae:	4b24      	ldr	r3, [pc, #144]	; (401640 <sd_mmc_check+0x484>)
  4015b0:	681b      	ldr	r3, [r3, #0]
  4015b2:	7bdb      	ldrb	r3, [r3, #15]
  4015b4:	f003 0309 	and.w	r3, r3, #9
  4015b8:	2b01      	cmp	r3, #1
  4015ba:	f47f ae42 	bne.w	401242 <sd_mmc_check+0x86>
  4015be:	e638      	b.n	401232 <sd_mmc_check+0x76>
  4015c0:	4b1f      	ldr	r3, [pc, #124]	; (401640 <sd_mmc_check+0x484>)
  4015c2:	681b      	ldr	r3, [r3, #0]
  4015c4:	221a      	movs	r2, #26
  4015c6:	741a      	strb	r2, [r3, #16]
  4015c8:	e7f1      	b.n	4015ae <sd_mmc_check+0x3f2>
  4015ca:	f89d 3012 	ldrb.w	r3, [sp, #18]
  4015ce:	09db      	lsrs	r3, r3, #7
  4015d0:	4b1b      	ldr	r3, [pc, #108]	; (401640 <sd_mmc_check+0x484>)
  4015d2:	681b      	ldr	r3, [r3, #0]
  4015d4:	bf14      	ite	ne
  4015d6:	2230      	movne	r2, #48	; 0x30
  4015d8:	2220      	moveq	r2, #32
  4015da:	741a      	strb	r2, [r3, #16]
  4015dc:	e7e7      	b.n	4015ae <sd_mmc_check+0x3f2>
  4015de:	2700      	movs	r7, #0
  4015e0:	e619      	b.n	401216 <sd_mmc_check+0x5a>
  4015e2:	07bf      	lsls	r7, r7, #30
  4015e4:	f641 35ef 	movw	r5, #7151	; 0x1bef
  4015e8:	f04f 0800 	mov.w	r8, #0
  4015ec:	4e15      	ldr	r6, [pc, #84]	; (401644 <sd_mmc_check+0x488>)
  4015ee:	f8df 9060 	ldr.w	r9, [pc, #96]	; 401650 <sd_mmc_check+0x494>
  4015f2:	4641      	mov	r1, r8
  4015f4:	f241 1037 	movw	r0, #4407	; 0x1137
  4015f8:	47b0      	blx	r6
  4015fa:	2800      	cmp	r0, #0
  4015fc:	f43f ae47 	beq.w	40128e <sd_mmc_check+0xd2>
  401600:	4639      	mov	r1, r7
  401602:	f241 1029 	movw	r0, #4393	; 0x1129
  401606:	47b0      	blx	r6
  401608:	2800      	cmp	r0, #0
  40160a:	f43f ae40 	beq.w	40128e <sd_mmc_check+0xd2>
  40160e:	47c8      	blx	r9
  401610:	f010 0f01 	tst.w	r0, #1
  401614:	f43f ae35 	beq.w	401282 <sd_mmc_check+0xc6>
  401618:	3d01      	subs	r5, #1
  40161a:	d1ea      	bne.n	4015f2 <sd_mmc_check+0x436>
  40161c:	e637      	b.n	40128e <sd_mmc_check+0xd2>
  40161e:	f003 0309 	and.w	r3, r3, #9
  401622:	2b01      	cmp	r3, #1
  401624:	f47f ae17 	bne.w	401256 <sd_mmc_check+0x9a>
  401628:	e603      	b.n	401232 <sd_mmc_check+0x76>
  40162a:	bf00      	nop
  40162c:	00403bfc 	.word	0x00403bfc
  401630:	00403bbc 	.word	0x00403bbc
  401634:	00081108 	.word	0x00081108
  401638:	004017dd 	.word	0x004017dd
  40163c:	00401989 	.word	0x00401989
  401640:	20000ac8 	.word	0x20000ac8
  401644:	00401965 	.word	0x00401965
  401648:	004010ed 	.word	0x004010ed
  40164c:	00400fc5 	.word	0x00400fc5
  401650:	0040197d 	.word	0x0040197d

00401654 <sd_mmc_spi_wait_busy>:
  401654:	b570      	push	{r4, r5, r6, lr}
  401656:	b082      	sub	sp, #8
  401658:	ac02      	add	r4, sp, #8
  40165a:	23ff      	movs	r3, #255	; 0xff
  40165c:	f804 3d01 	strb.w	r3, [r4, #-1]!
  401660:	4e0f      	ldr	r6, [pc, #60]	; (4016a0 <sd_mmc_spi_wait_busy+0x4c>)
  401662:	2201      	movs	r2, #1
  401664:	4621      	mov	r1, r4
  401666:	4630      	mov	r0, r6
  401668:	4d0e      	ldr	r5, [pc, #56]	; (4016a4 <sd_mmc_spi_wait_busy+0x50>)
  40166a:	47a8      	blx	r5
  40166c:	2201      	movs	r2, #1
  40166e:	4621      	mov	r1, r4
  401670:	4630      	mov	r0, r6
  401672:	47a8      	blx	r5
  401674:	2201      	movs	r2, #1
  401676:	4621      	mov	r1, r4
  401678:	4630      	mov	r0, r6
  40167a:	47a8      	blx	r5
  40167c:	4c0a      	ldr	r4, [pc, #40]	; (4016a8 <sd_mmc_spi_wait_busy+0x54>)
  40167e:	f89d 3007 	ldrb.w	r3, [sp, #7]
  401682:	2bff      	cmp	r3, #255	; 0xff
  401684:	d008      	beq.n	401698 <sd_mmc_spi_wait_busy+0x44>
  401686:	2201      	movs	r2, #1
  401688:	f10d 0107 	add.w	r1, sp, #7
  40168c:	4630      	mov	r0, r6
  40168e:	47a8      	blx	r5
  401690:	3c01      	subs	r4, #1
  401692:	d1f4      	bne.n	40167e <sd_mmc_spi_wait_busy+0x2a>
  401694:	2000      	movs	r0, #0
  401696:	e000      	b.n	40169a <sd_mmc_spi_wait_busy+0x46>
  401698:	2001      	movs	r0, #1
  40169a:	b002      	add	sp, #8
  40169c:	bd70      	pop	{r4, r5, r6, pc}
  40169e:	bf00      	nop
  4016a0:	40008000 	.word	0x40008000
  4016a4:	00401c39 	.word	0x00401c39
  4016a8:	00030d40 	.word	0x00030d40

004016ac <sd_mmc_spi_start_read_block>:
  4016ac:	b5f0      	push	{r4, r5, r6, r7, lr}
  4016ae:	b083      	sub	sp, #12
  4016b0:	ad02      	add	r5, sp, #8
  4016b2:	2300      	movs	r3, #0
  4016b4:	f805 3d01 	strb.w	r3, [r5, #-1]!
  4016b8:	4c10      	ldr	r4, [pc, #64]	; (4016fc <sd_mmc_spi_start_read_block+0x50>)
  4016ba:	4f11      	ldr	r7, [pc, #68]	; (401700 <sd_mmc_spi_start_read_block+0x54>)
  4016bc:	4e11      	ldr	r6, [pc, #68]	; (401704 <sd_mmc_spi_start_read_block+0x58>)
  4016be:	2201      	movs	r2, #1
  4016c0:	4629      	mov	r1, r5
  4016c2:	4638      	mov	r0, r7
  4016c4:	47b0      	blx	r6
  4016c6:	f89d 3007 	ldrb.w	r3, [sp, #7]
  4016ca:	f013 0ff0 	tst.w	r3, #240	; 0xf0
  4016ce:	d008      	beq.n	4016e2 <sd_mmc_spi_start_read_block+0x36>
  4016d0:	2bfe      	cmp	r3, #254	; 0xfe
  4016d2:	d010      	beq.n	4016f6 <sd_mmc_spi_start_read_block+0x4a>
  4016d4:	3c01      	subs	r4, #1
  4016d6:	d1f2      	bne.n	4016be <sd_mmc_spi_start_read_block+0x12>
  4016d8:	2204      	movs	r2, #4
  4016da:	4b0b      	ldr	r3, [pc, #44]	; (401708 <sd_mmc_spi_start_read_block+0x5c>)
  4016dc:	701a      	strb	r2, [r3, #0]
  4016de:	2000      	movs	r0, #0
  4016e0:	e007      	b.n	4016f2 <sd_mmc_spi_start_read_block+0x46>
  4016e2:	f013 0f07 	tst.w	r3, #7
  4016e6:	bf14      	ite	ne
  4016e8:	2207      	movne	r2, #7
  4016ea:	220b      	moveq	r2, #11
  4016ec:	4b06      	ldr	r3, [pc, #24]	; (401708 <sd_mmc_spi_start_read_block+0x5c>)
  4016ee:	701a      	strb	r2, [r3, #0]
  4016f0:	2000      	movs	r0, #0
  4016f2:	b003      	add	sp, #12
  4016f4:	bdf0      	pop	{r4, r5, r6, r7, pc}
  4016f6:	2001      	movs	r0, #1
  4016f8:	e7fb      	b.n	4016f2 <sd_mmc_spi_start_read_block+0x46>
  4016fa:	bf00      	nop
  4016fc:	0007a120 	.word	0x0007a120
  401700:	40008000 	.word	0x40008000
  401704:	00401c39 	.word	0x00401c39
  401708:	20000ad0 	.word	0x20000ad0

0040170c <sd_mmc_spi_init>:
  40170c:	2200      	movs	r2, #0
  40170e:	4b08      	ldr	r3, [pc, #32]	; (401730 <sd_mmc_spi_init+0x24>)
  401710:	701a      	strb	r2, [r3, #0]
  401712:	4b08      	ldr	r3, [pc, #32]	; (401734 <sd_mmc_spi_init+0x28>)
  401714:	691b      	ldr	r3, [r3, #16]
  401716:	f413 3f80 	tst.w	r3, #65536	; 0x10000
  40171a:	d000      	beq.n	40171e <sd_mmc_spi_init+0x12>
  40171c:	4770      	bx	lr
  40171e:	b510      	push	{r4, lr}
  401720:	4c04      	ldr	r4, [pc, #16]	; (401734 <sd_mmc_spi_init+0x28>)
  401722:	4620      	mov	r0, r4
  401724:	4b04      	ldr	r3, [pc, #16]	; (401738 <sd_mmc_spi_init+0x2c>)
  401726:	4798      	blx	r3
  401728:	2301      	movs	r3, #1
  40172a:	6023      	str	r3, [r4, #0]
  40172c:	bd10      	pop	{r4, pc}
  40172e:	bf00      	nop
  401730:	20000ad0 	.word	0x20000ad0
  401734:	40008000 	.word	0x40008000
  401738:	00401ae1 	.word	0x00401ae1

0040173c <sd_mmc_spi_select_device>:
  40173c:	b570      	push	{r4, r5, r6, lr}
  40173e:	b082      	sub	sp, #8
  401740:	2200      	movs	r2, #0
  401742:	4b09      	ldr	r3, [pc, #36]	; (401768 <sd_mmc_spi_select_device+0x2c>)
  401744:	701a      	strb	r2, [r3, #0]
  401746:	4c09      	ldr	r4, [pc, #36]	; (40176c <sd_mmc_spi_select_device+0x30>)
  401748:	eb04 0480 	add.w	r4, r4, r0, lsl #2
  40174c:	4d08      	ldr	r5, [pc, #32]	; (401770 <sd_mmc_spi_select_device+0x34>)
  40174e:	9200      	str	r2, [sp, #0]
  401750:	460b      	mov	r3, r1
  401752:	4621      	mov	r1, r4
  401754:	4628      	mov	r0, r5
  401756:	4e07      	ldr	r6, [pc, #28]	; (401774 <sd_mmc_spi_select_device+0x38>)
  401758:	47b0      	blx	r6
  40175a:	4621      	mov	r1, r4
  40175c:	4628      	mov	r0, r5
  40175e:	4b06      	ldr	r3, [pc, #24]	; (401778 <sd_mmc_spi_select_device+0x3c>)
  401760:	4798      	blx	r3
  401762:	b002      	add	sp, #8
  401764:	bd70      	pop	{r4, r5, r6, pc}
  401766:	bf00      	nop
  401768:	20000ad0 	.word	0x20000ad0
  40176c:	2000042c 	.word	0x2000042c
  401770:	40008000 	.word	0x40008000
  401774:	00401b35 	.word	0x00401b35
  401778:	00401bb5 	.word	0x00401bb5

0040177c <sd_mmc_spi_deselect_device>:
  40177c:	b508      	push	{r3, lr}
  40177e:	2200      	movs	r2, #0
  401780:	4b04      	ldr	r3, [pc, #16]	; (401794 <sd_mmc_spi_deselect_device+0x18>)
  401782:	701a      	strb	r2, [r3, #0]
  401784:	4904      	ldr	r1, [pc, #16]	; (401798 <sd_mmc_spi_deselect_device+0x1c>)
  401786:	eb01 0180 	add.w	r1, r1, r0, lsl #2
  40178a:	4804      	ldr	r0, [pc, #16]	; (40179c <sd_mmc_spi_deselect_device+0x20>)
  40178c:	4b04      	ldr	r3, [pc, #16]	; (4017a0 <sd_mmc_spi_deselect_device+0x24>)
  40178e:	4798      	blx	r3
  401790:	bd08      	pop	{r3, pc}
  401792:	bf00      	nop
  401794:	20000ad0 	.word	0x20000ad0
  401798:	2000042c 	.word	0x2000042c
  40179c:	40008000 	.word	0x40008000
  4017a0:	00401be5 	.word	0x00401be5

004017a4 <sd_mmc_spi_send_clock>:
  4017a4:	b5f0      	push	{r4, r5, r6, r7, lr}
  4017a6:	b083      	sub	sp, #12
  4017a8:	ad02      	add	r5, sp, #8
  4017aa:	23ff      	movs	r3, #255	; 0xff
  4017ac:	f805 3d01 	strb.w	r3, [r5, #-1]!
  4017b0:	2200      	movs	r2, #0
  4017b2:	4b07      	ldr	r3, [pc, #28]	; (4017d0 <sd_mmc_spi_send_clock+0x2c>)
  4017b4:	701a      	strb	r2, [r3, #0]
  4017b6:	240a      	movs	r4, #10
  4017b8:	4f06      	ldr	r7, [pc, #24]	; (4017d4 <sd_mmc_spi_send_clock+0x30>)
  4017ba:	4e07      	ldr	r6, [pc, #28]	; (4017d8 <sd_mmc_spi_send_clock+0x34>)
  4017bc:	2201      	movs	r2, #1
  4017be:	4629      	mov	r1, r5
  4017c0:	4638      	mov	r0, r7
  4017c2:	47b0      	blx	r6
  4017c4:	1e63      	subs	r3, r4, #1
  4017c6:	f013 04ff 	ands.w	r4, r3, #255	; 0xff
  4017ca:	d1f7      	bne.n	4017bc <sd_mmc_spi_send_clock+0x18>
  4017cc:	b003      	add	sp, #12
  4017ce:	bdf0      	pop	{r4, r5, r6, r7, pc}
  4017d0:	20000ad0 	.word	0x20000ad0
  4017d4:	40008000 	.word	0x40008000
  4017d8:	00401c05 	.word	0x00401c05

004017dc <sd_mmc_spi_adtc_start>:
  4017dc:	e92d 43f0 	stmdb	sp!, {r4, r5, r6, r7, r8, r9, lr}
  4017e0:	b085      	sub	sp, #20
  4017e2:	4604      	mov	r4, r0
  4017e4:	4691      	mov	r9, r2
  4017e6:	4698      	mov	r8, r3
  4017e8:	23ff      	movs	r3, #255	; 0xff
  4017ea:	f88d 300f 	strb.w	r3, [sp, #15]
  4017ee:	2300      	movs	r3, #0
  4017f0:	4a53      	ldr	r2, [pc, #332]	; (401940 <sd_mmc_spi_adtc_start+0x164>)
  4017f2:	7013      	strb	r3, [r2, #0]
  4017f4:	f000 023f 	and.w	r2, r0, #63	; 0x3f
  4017f8:	f042 0240 	orr.w	r2, r2, #64	; 0x40
  4017fc:	f88d 2008 	strb.w	r2, [sp, #8]
  401800:	0e0a      	lsrs	r2, r1, #24
  401802:	f88d 2009 	strb.w	r2, [sp, #9]
  401806:	0c0a      	lsrs	r2, r1, #16
  401808:	f88d 200a 	strb.w	r2, [sp, #10]
  40180c:	0a0a      	lsrs	r2, r1, #8
  40180e:	f88d 200b 	strb.w	r2, [sp, #11]
  401812:	f88d 100c 	strb.w	r1, [sp, #12]
  401816:	af02      	add	r7, sp, #8
  401818:	f04f 0c08 	mov.w	ip, #8
  40181c:	f10d 0e0d 	add.w	lr, sp, #13
  401820:	e001      	b.n	401826 <sd_mmc_spi_adtc_start+0x4a>
  401822:	4577      	cmp	r7, lr
  401824:	d012      	beq.n	40184c <sd_mmc_spi_adtc_start+0x70>
  401826:	f817 1b01 	ldrb.w	r1, [r7], #1
  40182a:	4662      	mov	r2, ip
  40182c:	005b      	lsls	r3, r3, #1
  40182e:	b2db      	uxtb	r3, r3
  401830:	ea83 0001 	eor.w	r0, r3, r1
  401834:	f010 0f80 	tst.w	r0, #128	; 0x80
  401838:	bf18      	it	ne
  40183a:	f083 0309 	eorne.w	r3, r3, #9
  40183e:	0049      	lsls	r1, r1, #1
  401840:	b2c9      	uxtb	r1, r1
  401842:	3a01      	subs	r2, #1
  401844:	f012 02ff 	ands.w	r2, r2, #255	; 0xff
  401848:	d1f0      	bne.n	40182c <sd_mmc_spi_adtc_start+0x50>
  40184a:	e7ea      	b.n	401822 <sd_mmc_spi_adtc_start+0x46>
  40184c:	005b      	lsls	r3, r3, #1
  40184e:	f043 0301 	orr.w	r3, r3, #1
  401852:	f88d 300d 	strb.w	r3, [sp, #13]
  401856:	4f3b      	ldr	r7, [pc, #236]	; (401944 <sd_mmc_spi_adtc_start+0x168>)
  401858:	2201      	movs	r2, #1
  40185a:	f10d 010f 	add.w	r1, sp, #15
  40185e:	4638      	mov	r0, r7
  401860:	4d39      	ldr	r5, [pc, #228]	; (401948 <sd_mmc_spi_adtc_start+0x16c>)
  401862:	47a8      	blx	r5
  401864:	2206      	movs	r2, #6
  401866:	a902      	add	r1, sp, #8
  401868:	4638      	mov	r0, r7
  40186a:	47a8      	blx	r5
  40186c:	a904      	add	r1, sp, #16
  40186e:	23ff      	movs	r3, #255	; 0xff
  401870:	f801 3d09 	strb.w	r3, [r1, #-9]!
  401874:	2201      	movs	r2, #1
  401876:	4638      	mov	r0, r7
  401878:	4b34      	ldr	r3, [pc, #208]	; (40194c <sd_mmc_spi_adtc_start+0x170>)
  40187a:	4798      	blx	r3
  40187c:	2707      	movs	r7, #7
  40187e:	4e31      	ldr	r6, [pc, #196]	; (401944 <sd_mmc_spi_adtc_start+0x168>)
  401880:	4d32      	ldr	r5, [pc, #200]	; (40194c <sd_mmc_spi_adtc_start+0x170>)
  401882:	2201      	movs	r2, #1
  401884:	f10d 0107 	add.w	r1, sp, #7
  401888:	4630      	mov	r0, r6
  40188a:	47a8      	blx	r5
  40188c:	f89d 3007 	ldrb.w	r3, [sp, #7]
  401890:	f013 0f80 	tst.w	r3, #128	; 0x80
  401894:	d00b      	beq.n	4018ae <sd_mmc_spi_adtc_start+0xd2>
  401896:	1e7b      	subs	r3, r7, #1
  401898:	f013 07ff 	ands.w	r7, r3, #255	; 0xff
  40189c:	d1f1      	bne.n	401882 <sd_mmc_spi_adtc_start+0xa6>
  40189e:	2202      	movs	r2, #2
  4018a0:	4b27      	ldr	r3, [pc, #156]	; (401940 <sd_mmc_spi_adtc_start+0x164>)
  4018a2:	701a      	strb	r2, [r3, #0]
  4018a4:	2300      	movs	r3, #0
  4018a6:	4618      	mov	r0, r3
  4018a8:	b005      	add	sp, #20
  4018aa:	e8bd 83f0 	ldmia.w	sp!, {r4, r5, r6, r7, r8, r9, pc}
  4018ae:	4a28      	ldr	r2, [pc, #160]	; (401950 <sd_mmc_spi_adtc_start+0x174>)
  4018b0:	6013      	str	r3, [r2, #0]
  4018b2:	f013 0f08 	tst.w	r3, #8
  4018b6:	d119      	bne.n	4018ec <sd_mmc_spi_adtc_start+0x110>
  4018b8:	f013 0f04 	tst.w	r3, #4
  4018bc:	d11b      	bne.n	4018f6 <sd_mmc_spi_adtc_start+0x11a>
  4018be:	f033 0301 	bics.w	r3, r3, #1
  4018c2:	d11d      	bne.n	401900 <sd_mmc_spi_adtc_start+0x124>
  4018c4:	f414 5f00 	tst.w	r4, #8192	; 0x2000
  4018c8:	d11f      	bne.n	40190a <sd_mmc_spi_adtc_start+0x12e>
  4018ca:	f414 7f00 	tst.w	r4, #512	; 0x200
  4018ce:	d125      	bne.n	40191c <sd_mmc_spi_adtc_start+0x140>
  4018d0:	f414 6f80 	tst.w	r4, #1024	; 0x400
  4018d4:	d12a      	bne.n	40192c <sd_mmc_spi_adtc_start+0x150>
  4018d6:	4b1f      	ldr	r3, [pc, #124]	; (401954 <sd_mmc_spi_adtc_start+0x178>)
  4018d8:	f8a3 9000 	strh.w	r9, [r3]
  4018dc:	4b1e      	ldr	r3, [pc, #120]	; (401958 <sd_mmc_spi_adtc_start+0x17c>)
  4018de:	f8a3 8000 	strh.w	r8, [r3]
  4018e2:	2200      	movs	r2, #0
  4018e4:	4b1d      	ldr	r3, [pc, #116]	; (40195c <sd_mmc_spi_adtc_start+0x180>)
  4018e6:	601a      	str	r2, [r3, #0]
  4018e8:	2301      	movs	r3, #1
  4018ea:	e7dc      	b.n	4018a6 <sd_mmc_spi_adtc_start+0xca>
  4018ec:	2206      	movs	r2, #6
  4018ee:	4b14      	ldr	r3, [pc, #80]	; (401940 <sd_mmc_spi_adtc_start+0x164>)
  4018f0:	701a      	strb	r2, [r3, #0]
  4018f2:	2300      	movs	r3, #0
  4018f4:	e7d7      	b.n	4018a6 <sd_mmc_spi_adtc_start+0xca>
  4018f6:	2209      	movs	r2, #9
  4018f8:	4b11      	ldr	r3, [pc, #68]	; (401940 <sd_mmc_spi_adtc_start+0x164>)
  4018fa:	701a      	strb	r2, [r3, #0]
  4018fc:	2300      	movs	r3, #0
  4018fe:	e7d2      	b.n	4018a6 <sd_mmc_spi_adtc_start+0xca>
  401900:	2201      	movs	r2, #1
  401902:	4b0f      	ldr	r3, [pc, #60]	; (401940 <sd_mmc_spi_adtc_start+0x164>)
  401904:	701a      	strb	r2, [r3, #0]
  401906:	2300      	movs	r3, #0
  401908:	e7cd      	b.n	4018a6 <sd_mmc_spi_adtc_start+0xca>
  40190a:	4b15      	ldr	r3, [pc, #84]	; (401960 <sd_mmc_spi_adtc_start+0x184>)
  40190c:	4798      	blx	r3
  40190e:	4603      	mov	r3, r0
  401910:	2800      	cmp	r0, #0
  401912:	d1da      	bne.n	4018ca <sd_mmc_spi_adtc_start+0xee>
  401914:	2103      	movs	r1, #3
  401916:	4a0a      	ldr	r2, [pc, #40]	; (401940 <sd_mmc_spi_adtc_start+0x164>)
  401918:	7011      	strb	r1, [r2, #0]
  40191a:	e7c4      	b.n	4018a6 <sd_mmc_spi_adtc_start+0xca>
  40191c:	490c      	ldr	r1, [pc, #48]	; (401950 <sd_mmc_spi_adtc_start+0x174>)
  40191e:	2300      	movs	r3, #0
  401920:	600b      	str	r3, [r1, #0]
  401922:	2201      	movs	r2, #1
  401924:	4807      	ldr	r0, [pc, #28]	; (401944 <sd_mmc_spi_adtc_start+0x168>)
  401926:	4b09      	ldr	r3, [pc, #36]	; (40194c <sd_mmc_spi_adtc_start+0x170>)
  401928:	4798      	blx	r3
  40192a:	e7d1      	b.n	4018d0 <sd_mmc_spi_adtc_start+0xf4>
  40192c:	4c08      	ldr	r4, [pc, #32]	; (401950 <sd_mmc_spi_adtc_start+0x174>)
  40192e:	2204      	movs	r2, #4
  401930:	4621      	mov	r1, r4
  401932:	4804      	ldr	r0, [pc, #16]	; (401944 <sd_mmc_spi_adtc_start+0x168>)
  401934:	4b05      	ldr	r3, [pc, #20]	; (40194c <sd_mmc_spi_adtc_start+0x170>)
  401936:	4798      	blx	r3
  401938:	6823      	ldr	r3, [r4, #0]
  40193a:	ba1b      	rev	r3, r3
  40193c:	6023      	str	r3, [r4, #0]
  40193e:	e7ca      	b.n	4018d6 <sd_mmc_spi_adtc_start+0xfa>
  401940:	20000ad0 	.word	0x20000ad0
  401944:	40008000 	.word	0x40008000
  401948:	00401c05 	.word	0x00401c05
  40194c:	00401c39 	.word	0x00401c39
  401950:	20000ad4 	.word	0x20000ad4
  401954:	20000ace 	.word	0x20000ace
  401958:	20000ad2 	.word	0x20000ad2
  40195c:	20000ad8 	.word	0x20000ad8
  401960:	00401655 	.word	0x00401655

00401964 <sd_mmc_spi_send_cmd>:
  401964:	b510      	push	{r4, lr}
  401966:	b082      	sub	sp, #8
  401968:	2200      	movs	r2, #0
  40196a:	9200      	str	r2, [sp, #0]
  40196c:	4613      	mov	r3, r2
  40196e:	4c02      	ldr	r4, [pc, #8]	; (401978 <sd_mmc_spi_send_cmd+0x14>)
  401970:	47a0      	blx	r4
  401972:	b002      	add	sp, #8
  401974:	bd10      	pop	{r4, pc}
  401976:	bf00      	nop
  401978:	004017dd 	.word	0x004017dd

0040197c <sd_mmc_spi_get_response>:
  40197c:	4b01      	ldr	r3, [pc, #4]	; (401984 <sd_mmc_spi_get_response+0x8>)
  40197e:	6818      	ldr	r0, [r3, #0]
  401980:	4770      	bx	lr
  401982:	bf00      	nop
  401984:	20000ad4 	.word	0x20000ad4

00401988 <sd_mmc_spi_read_word>:
  401988:	b510      	push	{r4, lr}
  40198a:	b082      	sub	sp, #8
  40198c:	4604      	mov	r4, r0
  40198e:	2200      	movs	r2, #0
  401990:	4b14      	ldr	r3, [pc, #80]	; (4019e4 <sd_mmc_spi_read_word+0x5c>)
  401992:	701a      	strb	r2, [r3, #0]
  401994:	4b14      	ldr	r3, [pc, #80]	; (4019e8 <sd_mmc_spi_read_word+0x60>)
  401996:	881a      	ldrh	r2, [r3, #0]
  401998:	4b14      	ldr	r3, [pc, #80]	; (4019ec <sd_mmc_spi_read_word+0x64>)
  40199a:	6819      	ldr	r1, [r3, #0]
  40199c:	fbb1 f3f2 	udiv	r3, r1, r2
  4019a0:	fb02 1313 	mls	r3, r2, r3, r1
  4019a4:	b91b      	cbnz	r3, 4019ae <sd_mmc_spi_read_word+0x26>
  4019a6:	4b12      	ldr	r3, [pc, #72]	; (4019f0 <sd_mmc_spi_read_word+0x68>)
  4019a8:	4798      	blx	r3
  4019aa:	4603      	mov	r3, r0
  4019ac:	b180      	cbz	r0, 4019d0 <sd_mmc_spi_read_word+0x48>
  4019ae:	2204      	movs	r2, #4
  4019b0:	4621      	mov	r1, r4
  4019b2:	4810      	ldr	r0, [pc, #64]	; (4019f4 <sd_mmc_spi_read_word+0x6c>)
  4019b4:	4b10      	ldr	r3, [pc, #64]	; (4019f8 <sd_mmc_spi_read_word+0x70>)
  4019b6:	4798      	blx	r3
  4019b8:	4a0c      	ldr	r2, [pc, #48]	; (4019ec <sd_mmc_spi_read_word+0x64>)
  4019ba:	6813      	ldr	r3, [r2, #0]
  4019bc:	3304      	adds	r3, #4
  4019be:	6013      	str	r3, [r2, #0]
  4019c0:	4a09      	ldr	r2, [pc, #36]	; (4019e8 <sd_mmc_spi_read_word+0x60>)
  4019c2:	8811      	ldrh	r1, [r2, #0]
  4019c4:	fbb3 f2f1 	udiv	r2, r3, r1
  4019c8:	fb01 3312 	mls	r3, r1, r2, r3
  4019cc:	b11b      	cbz	r3, 4019d6 <sd_mmc_spi_read_word+0x4e>
  4019ce:	2301      	movs	r3, #1
  4019d0:	4618      	mov	r0, r3
  4019d2:	b002      	add	sp, #8
  4019d4:	bd10      	pop	{r4, pc}
  4019d6:	2202      	movs	r2, #2
  4019d8:	a901      	add	r1, sp, #4
  4019da:	4806      	ldr	r0, [pc, #24]	; (4019f4 <sd_mmc_spi_read_word+0x6c>)
  4019dc:	4b06      	ldr	r3, [pc, #24]	; (4019f8 <sd_mmc_spi_read_word+0x70>)
  4019de:	4798      	blx	r3
  4019e0:	2301      	movs	r3, #1
  4019e2:	e7f5      	b.n	4019d0 <sd_mmc_spi_read_word+0x48>
  4019e4:	20000ad0 	.word	0x20000ad0
  4019e8:	20000ace 	.word	0x20000ace
  4019ec:	20000ad8 	.word	0x20000ad8
  4019f0:	004016ad 	.word	0x004016ad
  4019f4:	40008000 	.word	0x40008000
  4019f8:	00401c39 	.word	0x00401c39

004019fc <sd_mmc_spi_start_read_blocks>:
  4019fc:	e92d 4ff0 	stmdb	sp!, {r4, r5, r6, r7, r8, r9, sl, fp, lr}
  401a00:	b083      	sub	sp, #12
  401a02:	2200      	movs	r2, #0
  401a04:	4b16      	ldr	r3, [pc, #88]	; (401a60 <sd_mmc_spi_start_read_blocks+0x64>)
  401a06:	701a      	strb	r2, [r3, #0]
  401a08:	b339      	cbz	r1, 401a5a <sd_mmc_spi_start_read_blocks+0x5e>
  401a0a:	1e4c      	subs	r4, r1, #1
  401a0c:	b2a4      	uxth	r4, r4
  401a0e:	4681      	mov	r9, r0
  401a10:	4615      	mov	r5, r2
  401a12:	f8df b05c 	ldr.w	fp, [pc, #92]	; 401a70 <sd_mmc_spi_start_read_blocks+0x74>
  401a16:	f8df 805c 	ldr.w	r8, [pc, #92]	; 401a74 <sd_mmc_spi_start_read_blocks+0x78>
  401a1a:	4f12      	ldr	r7, [pc, #72]	; (401a64 <sd_mmc_spi_start_read_blocks+0x68>)
  401a1c:	47d8      	blx	fp
  401a1e:	4682      	mov	sl, r0
  401a20:	b1b8      	cbz	r0, 401a52 <sd_mmc_spi_start_read_blocks+0x56>
  401a22:	f8b8 2000 	ldrh.w	r2, [r8]
  401a26:	eb09 0105 	add.w	r1, r9, r5
  401a2a:	4638      	mov	r0, r7
  401a2c:	4e0e      	ldr	r6, [pc, #56]	; (401a68 <sd_mmc_spi_start_read_blocks+0x6c>)
  401a2e:	47b0      	blx	r6
  401a30:	f8b8 1000 	ldrh.w	r1, [r8]
  401a34:	440d      	add	r5, r1
  401a36:	4a0d      	ldr	r2, [pc, #52]	; (401a6c <sd_mmc_spi_start_read_blocks+0x70>)
  401a38:	6813      	ldr	r3, [r2, #0]
  401a3a:	440b      	add	r3, r1
  401a3c:	6013      	str	r3, [r2, #0]
  401a3e:	2202      	movs	r2, #2
  401a40:	a901      	add	r1, sp, #4
  401a42:	4638      	mov	r0, r7
  401a44:	47b0      	blx	r6
  401a46:	3c01      	subs	r4, #1
  401a48:	b2a4      	uxth	r4, r4
  401a4a:	f64f 73ff 	movw	r3, #65535	; 0xffff
  401a4e:	429c      	cmp	r4, r3
  401a50:	d1e4      	bne.n	401a1c <sd_mmc_spi_start_read_blocks+0x20>
  401a52:	4650      	mov	r0, sl
  401a54:	b003      	add	sp, #12
  401a56:	e8bd 8ff0 	ldmia.w	sp!, {r4, r5, r6, r7, r8, r9, sl, fp, pc}
  401a5a:	f04f 0a01 	mov.w	sl, #1
  401a5e:	e7f8      	b.n	401a52 <sd_mmc_spi_start_read_blocks+0x56>
  401a60:	20000ad0 	.word	0x20000ad0
  401a64:	40008000 	.word	0x40008000
  401a68:	00401c39 	.word	0x00401c39
  401a6c:	20000ad8 	.word	0x20000ad8
  401a70:	004016ad 	.word	0x004016ad
  401a74:	20000ace 	.word	0x20000ace

00401a78 <sd_mmc_spi_wait_end_of_read_blocks>:
  401a78:	2001      	movs	r0, #1
  401a7a:	4770      	bx	lr

00401a7c <sysclk_init>:
  401a7c:	b510      	push	{r4, lr}
  401a7e:	480e      	ldr	r0, [pc, #56]	; (401ab8 <sysclk_init+0x3c>)
  401a80:	4b0e      	ldr	r3, [pc, #56]	; (401abc <sysclk_init+0x40>)
  401a82:	4798      	blx	r3
  401a84:	213e      	movs	r1, #62	; 0x3e
  401a86:	2000      	movs	r0, #0
  401a88:	4b0d      	ldr	r3, [pc, #52]	; (401ac0 <sysclk_init+0x44>)
  401a8a:	4798      	blx	r3
  401a8c:	4c0d      	ldr	r4, [pc, #52]	; (401ac4 <sysclk_init+0x48>)
  401a8e:	47a0      	blx	r4
  401a90:	2800      	cmp	r0, #0
  401a92:	d0fc      	beq.n	401a8e <sysclk_init+0x12>
  401a94:	4b0c      	ldr	r3, [pc, #48]	; (401ac8 <sysclk_init+0x4c>)
  401a96:	4798      	blx	r3
  401a98:	4a0c      	ldr	r2, [pc, #48]	; (401acc <sysclk_init+0x50>)
  401a9a:	4b0d      	ldr	r3, [pc, #52]	; (401ad0 <sysclk_init+0x54>)
  401a9c:	629a      	str	r2, [r3, #40]	; 0x28
  401a9e:	4c0d      	ldr	r4, [pc, #52]	; (401ad4 <sysclk_init+0x58>)
  401aa0:	47a0      	blx	r4
  401aa2:	2800      	cmp	r0, #0
  401aa4:	d0fc      	beq.n	401aa0 <sysclk_init+0x24>
  401aa6:	2010      	movs	r0, #16
  401aa8:	4b0b      	ldr	r3, [pc, #44]	; (401ad8 <sysclk_init+0x5c>)
  401aaa:	4798      	blx	r3
  401aac:	4b0b      	ldr	r3, [pc, #44]	; (401adc <sysclk_init+0x60>)
  401aae:	4798      	blx	r3
  401ab0:	4801      	ldr	r0, [pc, #4]	; (401ab8 <sysclk_init+0x3c>)
  401ab2:	4b02      	ldr	r3, [pc, #8]	; (401abc <sysclk_init+0x40>)
  401ab4:	4798      	blx	r3
  401ab6:	bd10      	pop	{r4, pc}
  401ab8:	07270e00 	.word	0x07270e00
  401abc:	00402d71 	.word	0x00402d71
  401ac0:	0040241d 	.word	0x0040241d
  401ac4:	00402471 	.word	0x00402471
  401ac8:	00402481 	.word	0x00402481
  401acc:	20133f01 	.word	0x20133f01
  401ad0:	400e0400 	.word	0x400e0400
  401ad4:	00402491 	.word	0x00402491
  401ad8:	00402375 	.word	0x00402375
  401adc:	00402c61 	.word	0x00402c61

00401ae0 <spi_master_init>:
  401ae0:	b510      	push	{r4, lr}
  401ae2:	4604      	mov	r4, r0
  401ae4:	4b10      	ldr	r3, [pc, #64]	; (401b28 <spi_master_init+0x48>)
  401ae6:	4798      	blx	r3
  401ae8:	2380      	movs	r3, #128	; 0x80
  401aea:	6023      	str	r3, [r4, #0]
  401aec:	6863      	ldr	r3, [r4, #4]
  401aee:	f043 0301 	orr.w	r3, r3, #1
  401af2:	6063      	str	r3, [r4, #4]
  401af4:	6863      	ldr	r3, [r4, #4]
  401af6:	f043 0310 	orr.w	r3, r3, #16
  401afa:	6063      	str	r3, [r4, #4]
  401afc:	6863      	ldr	r3, [r4, #4]
  401afe:	f023 0380 	bic.w	r3, r3, #128	; 0x80
  401b02:	6063      	str	r3, [r4, #4]
  401b04:	2100      	movs	r1, #0
  401b06:	4620      	mov	r0, r4
  401b08:	4b08      	ldr	r3, [pc, #32]	; (401b2c <spi_master_init+0x4c>)
  401b0a:	4798      	blx	r3
  401b0c:	6863      	ldr	r3, [r4, #4]
  401b0e:	f023 0302 	bic.w	r3, r3, #2
  401b12:	6063      	str	r3, [r4, #4]
  401b14:	6863      	ldr	r3, [r4, #4]
  401b16:	f023 0304 	bic.w	r3, r3, #4
  401b1a:	6063      	str	r3, [r4, #4]
  401b1c:	2100      	movs	r1, #0
  401b1e:	4620      	mov	r0, r4
  401b20:	4b03      	ldr	r3, [pc, #12]	; (401b30 <spi_master_init+0x50>)
  401b22:	4798      	blx	r3
  401b24:	bd10      	pop	{r4, pc}
  401b26:	bf00      	nop
  401b28:	00402725 	.word	0x00402725
  401b2c:	00402735 	.word	0x00402735
  401b30:	0040274b 	.word	0x0040274b

00401b34 <spi_master_setup_device>:
  401b34:	e92d 41f0 	stmdb	sp!, {r4, r5, r6, r7, r8, lr}
  401b38:	4604      	mov	r4, r0
  401b3a:	460d      	mov	r5, r1
  401b3c:	4616      	mov	r6, r2
  401b3e:	4915      	ldr	r1, [pc, #84]	; (401b94 <spi_master_setup_device+0x60>)
  401b40:	4618      	mov	r0, r3
  401b42:	4b15      	ldr	r3, [pc, #84]	; (401b98 <spi_master_setup_device+0x64>)
  401b44:	4798      	blx	r3
  401b46:	4607      	mov	r7, r0
  401b48:	2300      	movs	r3, #0
  401b4a:	461a      	mov	r2, r3
  401b4c:	6829      	ldr	r1, [r5, #0]
  401b4e:	4620      	mov	r0, r4
  401b50:	f8df 805c 	ldr.w	r8, [pc, #92]	; 401bb0 <spi_master_setup_device+0x7c>
  401b54:	47c0      	blx	r8
  401b56:	2208      	movs	r2, #8
  401b58:	6829      	ldr	r1, [r5, #0]
  401b5a:	4620      	mov	r0, r4
  401b5c:	4b0f      	ldr	r3, [pc, #60]	; (401b9c <spi_master_setup_device+0x68>)
  401b5e:	4798      	blx	r3
  401b60:	b2fa      	uxtb	r2, r7
  401b62:	6829      	ldr	r1, [r5, #0]
  401b64:	4620      	mov	r0, r4
  401b66:	4b0e      	ldr	r3, [pc, #56]	; (401ba0 <spi_master_setup_device+0x6c>)
  401b68:	4798      	blx	r3
  401b6a:	2208      	movs	r2, #8
  401b6c:	6829      	ldr	r1, [r5, #0]
  401b6e:	4620      	mov	r0, r4
  401b70:	4b0c      	ldr	r3, [pc, #48]	; (401ba4 <spi_master_setup_device+0x70>)
  401b72:	4798      	blx	r3
  401b74:	0872      	lsrs	r2, r6, #1
  401b76:	6829      	ldr	r1, [r5, #0]
  401b78:	4620      	mov	r0, r4
  401b7a:	4b0b      	ldr	r3, [pc, #44]	; (401ba8 <spi_master_setup_device+0x74>)
  401b7c:	4798      	blx	r3
  401b7e:	f086 0201 	eor.w	r2, r6, #1
  401b82:	f002 0201 	and.w	r2, r2, #1
  401b86:	6829      	ldr	r1, [r5, #0]
  401b88:	4620      	mov	r0, r4
  401b8a:	4b08      	ldr	r3, [pc, #32]	; (401bac <spi_master_setup_device+0x78>)
  401b8c:	4798      	blx	r3
  401b8e:	e8bd 81f0 	ldmia.w	sp!, {r4, r5, r6, r7, r8, pc}
  401b92:	bf00      	nop
  401b94:	07270e00 	.word	0x07270e00
  401b98:	004027f3 	.word	0x004027f3
  401b9c:	004027df 	.word	0x004027df
  401ba0:	00402809 	.word	0x00402809
  401ba4:	00402799 	.word	0x00402799
  401ba8:	0040275d 	.word	0x0040275d
  401bac:	0040277b 	.word	0x0040277b
  401bb0:	0040282f 	.word	0x0040282f

00401bb4 <spi_select_device>:
  401bb4:	b508      	push	{r3, lr}
  401bb6:	6843      	ldr	r3, [r0, #4]
  401bb8:	f013 0f04 	tst.w	r3, #4
  401bbc:	d006      	beq.n	401bcc <spi_select_device+0x18>
  401bbe:	6809      	ldr	r1, [r1, #0]
  401bc0:	290f      	cmp	r1, #15
  401bc2:	d900      	bls.n	401bc6 <spi_select_device+0x12>
  401bc4:	bd08      	pop	{r3, pc}
  401bc6:	4b06      	ldr	r3, [pc, #24]	; (401be0 <spi_select_device+0x2c>)
  401bc8:	4798      	blx	r3
  401bca:	bd08      	pop	{r3, pc}
  401bcc:	6809      	ldr	r1, [r1, #0]
  401bce:	2903      	cmp	r1, #3
  401bd0:	d8f8      	bhi.n	401bc4 <spi_select_device+0x10>
  401bd2:	2301      	movs	r3, #1
  401bd4:	fa03 f101 	lsl.w	r1, r3, r1
  401bd8:	43c9      	mvns	r1, r1
  401bda:	4b01      	ldr	r3, [pc, #4]	; (401be0 <spi_select_device+0x2c>)
  401bdc:	4798      	blx	r3
  401bde:	e7f1      	b.n	401bc4 <spi_select_device+0x10>
  401be0:	00402735 	.word	0x00402735

00401be4 <spi_deselect_device>:
  401be4:	b510      	push	{r4, lr}
  401be6:	4604      	mov	r4, r0
  401be8:	6923      	ldr	r3, [r4, #16]
  401bea:	f413 7f00 	tst.w	r3, #512	; 0x200
  401bee:	d0fb      	beq.n	401be8 <spi_deselect_device+0x4>
  401bf0:	210f      	movs	r1, #15
  401bf2:	4620      	mov	r0, r4
  401bf4:	4b02      	ldr	r3, [pc, #8]	; (401c00 <spi_deselect_device+0x1c>)
  401bf6:	4798      	blx	r3
  401bf8:	f04f 7380 	mov.w	r3, #16777216	; 0x1000000
  401bfc:	6023      	str	r3, [r4, #0]
  401bfe:	bd10      	pop	{r4, pc}
  401c00:	00402735 	.word	0x00402735

00401c04 <spi_write_packet>:
  401c04:	b11a      	cbz	r2, 401c0e <spi_write_packet+0xa>
  401c06:	b410      	push	{r4}
  401c08:	460c      	mov	r4, r1
  401c0a:	4411      	add	r1, r2
  401c0c:	e006      	b.n	401c1c <spi_write_packet+0x18>
  401c0e:	2000      	movs	r0, #0
  401c10:	4770      	bx	lr
  401c12:	f814 3b01 	ldrb.w	r3, [r4], #1
  401c16:	60c3      	str	r3, [r0, #12]
  401c18:	42a1      	cmp	r1, r4
  401c1a:	d00b      	beq.n	401c34 <spi_write_packet+0x30>
  401c1c:	f643 2399 	movw	r3, #15001	; 0x3a99
  401c20:	6902      	ldr	r2, [r0, #16]
  401c22:	f012 0f02 	tst.w	r2, #2
  401c26:	d1f4      	bne.n	401c12 <spi_write_packet+0xe>
  401c28:	3b01      	subs	r3, #1
  401c2a:	d1f9      	bne.n	401c20 <spi_write_packet+0x1c>
  401c2c:	f06f 0002 	mvn.w	r0, #2
  401c30:	bc10      	pop	{r4}
  401c32:	4770      	bx	lr
  401c34:	2000      	movs	r0, #0
  401c36:	e7fb      	b.n	401c30 <spi_write_packet+0x2c>

00401c38 <spi_read_packet>:
  401c38:	b13a      	cbz	r2, 401c4a <spi_read_packet+0x12>
  401c3a:	b470      	push	{r4, r5, r6}
  401c3c:	4615      	mov	r5, r2
  401c3e:	460c      	mov	r4, r1
  401c40:	440d      	add	r5, r1
  401c42:	26ff      	movs	r6, #255	; 0xff
  401c44:	f240 2101 	movw	r1, #513	; 0x201
  401c48:	e012      	b.n	401c70 <spi_read_packet+0x38>
  401c4a:	2000      	movs	r0, #0
  401c4c:	4770      	bx	lr
  401c4e:	60c6      	str	r6, [r0, #12]
  401c50:	f643 2399 	movw	r3, #15001	; 0x3a99
  401c54:	6902      	ldr	r2, [r0, #16]
  401c56:	ea31 0202 	bics.w	r2, r1, r2
  401c5a:	d004      	beq.n	401c66 <spi_read_packet+0x2e>
  401c5c:	3b01      	subs	r3, #1
  401c5e:	d1f9      	bne.n	401c54 <spi_read_packet+0x1c>
  401c60:	f06f 0002 	mvn.w	r0, #2
  401c64:	e00e      	b.n	401c84 <spi_read_packet+0x4c>
  401c66:	6883      	ldr	r3, [r0, #8]
  401c68:	f804 3b01 	strb.w	r3, [r4], #1
  401c6c:	42a5      	cmp	r5, r4
  401c6e:	d00b      	beq.n	401c88 <spi_read_packet+0x50>
  401c70:	f643 2399 	movw	r3, #15001	; 0x3a99
  401c74:	6902      	ldr	r2, [r0, #16]
  401c76:	f012 0f02 	tst.w	r2, #2
  401c7a:	d1e8      	bne.n	401c4e <spi_read_packet+0x16>
  401c7c:	3b01      	subs	r3, #1
  401c7e:	d1f9      	bne.n	401c74 <spi_read_packet+0x3c>
  401c80:	f06f 0002 	mvn.w	r0, #2
  401c84:	bc70      	pop	{r4, r5, r6}
  401c86:	4770      	bx	lr
  401c88:	2000      	movs	r0, #0
  401c8a:	e7fb      	b.n	401c84 <spi_read_packet+0x4c>

00401c8c <board_init>:
  401c8c:	b5f8      	push	{r3, r4, r5, r6, r7, lr}
  401c8e:	4838      	ldr	r0, [pc, #224]	; (401d70 <board_init+0xe4>)
  401c90:	4b38      	ldr	r3, [pc, #224]	; (401d74 <board_init+0xe8>)
  401c92:	4798      	blx	r3
  401c94:	200b      	movs	r0, #11
  401c96:	4c38      	ldr	r4, [pc, #224]	; (401d78 <board_init+0xec>)
  401c98:	47a0      	blx	r4
  401c9a:	200c      	movs	r0, #12
  401c9c:	47a0      	blx	r4
  401c9e:	200d      	movs	r0, #13
  401ca0:	47a0      	blx	r4
  401ca2:	4b36      	ldr	r3, [pc, #216]	; (401d7c <board_init+0xf0>)
  401ca4:	f44f 0200 	mov.w	r2, #8388608	; 0x800000
  401ca8:	631a      	str	r2, [r3, #48]	; 0x30
  401caa:	611a      	str	r2, [r3, #16]
  401cac:	f8c3 20a0 	str.w	r2, [r3, #160]	; 0xa0
  401cb0:	4c33      	ldr	r4, [pc, #204]	; (401d80 <board_init+0xf4>)
  401cb2:	2504      	movs	r5, #4
  401cb4:	6165      	str	r5, [r4, #20]
  401cb6:	f8c4 50a0 	str.w	r5, [r4, #160]	; 0xa0
  401cba:	6665      	str	r5, [r4, #100]	; 0x64
  401cbc:	f8c4 5090 	str.w	r5, [r4, #144]	; 0x90
  401cc0:	6565      	str	r5, [r4, #84]	; 0x54
  401cc2:	6265      	str	r5, [r4, #36]	; 0x24
  401cc4:	f8c4 5080 	str.w	r5, [r4, #128]	; 0x80
  401cc8:	6f22      	ldr	r2, [r4, #112]	; 0x70
  401cca:	f022 0204 	bic.w	r2, r2, #4
  401cce:	6722      	str	r2, [r4, #112]	; 0x70
  401cd0:	6f62      	ldr	r2, [r4, #116]	; 0x74
  401cd2:	f022 0204 	bic.w	r2, r2, #4
  401cd6:	6762      	str	r2, [r4, #116]	; 0x74
  401cd8:	f44f 1280 	mov.w	r2, #1048576	; 0x100000
  401cdc:	631a      	str	r2, [r3, #48]	; 0x30
  401cde:	611a      	str	r2, [r3, #16]
  401ce0:	f8c3 20a0 	str.w	r2, [r3, #160]	; 0xa0
  401ce4:	f44f 3280 	mov.w	r2, #65536	; 0x10000
  401ce8:	6322      	str	r2, [r4, #48]	; 0x30
  401cea:	6122      	str	r2, [r4, #16]
  401cec:	f8c4 20a0 	str.w	r2, [r4, #160]	; 0xa0
  401cf0:	f44f 0280 	mov.w	r2, #4194304	; 0x400000
  401cf4:	631a      	str	r2, [r3, #48]	; 0x30
  401cf6:	611a      	str	r2, [r3, #16]
  401cf8:	f8c3 20a0 	str.w	r2, [r3, #160]	; 0xa0
  401cfc:	f04f 6200 	mov.w	r2, #134217728	; 0x8000000
  401d00:	210c      	movs	r1, #12
  401d02:	4820      	ldr	r0, [pc, #128]	; (401d84 <board_init+0xf8>)
  401d04:	4b20      	ldr	r3, [pc, #128]	; (401d88 <board_init+0xfc>)
  401d06:	4798      	blx	r3
  401d08:	4f20      	ldr	r7, [pc, #128]	; (401d8c <board_init+0x100>)
  401d0a:	4639      	mov	r1, r7
  401d0c:	2003      	movs	r0, #3
  401d0e:	4e20      	ldr	r6, [pc, #128]	; (401d90 <board_init+0x104>)
  401d10:	47b0      	blx	r6
  401d12:	4639      	mov	r1, r7
  401d14:	4628      	mov	r0, r5
  401d16:	47b0      	blx	r6
  401d18:	4639      	mov	r1, r7
  401d1a:	200c      	movs	r0, #12
  401d1c:	47b0      	blx	r6
  401d1e:	4639      	mov	r1, r7
  401d20:	200d      	movs	r0, #13
  401d22:	47b0      	blx	r6
  401d24:	4639      	mov	r1, r7
  401d26:	200e      	movs	r0, #14
  401d28:	47b0      	blx	r6
  401d2a:	f04f 5180 	mov.w	r1, #268435456	; 0x10000000
  401d2e:	2009      	movs	r0, #9
  401d30:	47b0      	blx	r6
  401d32:	4918      	ldr	r1, [pc, #96]	; (401d94 <board_init+0x108>)
  401d34:	200a      	movs	r0, #10
  401d36:	47b0      	blx	r6
  401d38:	f107 5740 	add.w	r7, r7, #805306368	; 0x30000000
  401d3c:	4639      	mov	r1, r7
  401d3e:	2055      	movs	r0, #85	; 0x55
  401d40:	47b0      	blx	r6
  401d42:	4639      	mov	r1, r7
  401d44:	205f      	movs	r0, #95	; 0x5f
  401d46:	47b0      	blx	r6
  401d48:	4913      	ldr	r1, [pc, #76]	; (401d98 <board_init+0x10c>)
  401d4a:	204c      	movs	r0, #76	; 0x4c
  401d4c:	47b0      	blx	r6
  401d4e:	6665      	str	r5, [r4, #100]	; 0x64
  401d50:	f8c4 5090 	str.w	r5, [r4, #144]	; 0x90
  401d54:	6565      	str	r5, [r4, #84]	; 0x54
  401d56:	6265      	str	r5, [r4, #36]	; 0x24
  401d58:	f8c4 5080 	str.w	r5, [r4, #128]	; 0x80
  401d5c:	6f23      	ldr	r3, [r4, #112]	; 0x70
  401d5e:	f023 0304 	bic.w	r3, r3, #4
  401d62:	6723      	str	r3, [r4, #112]	; 0x70
  401d64:	6f63      	ldr	r3, [r4, #116]	; 0x74
  401d66:	f023 0304 	bic.w	r3, r3, #4
  401d6a:	6763      	str	r3, [r4, #116]	; 0x74
  401d6c:	bdf8      	pop	{r3, r4, r5, r6, r7, pc}
  401d6e:	bf00      	nop
  401d70:	400e1450 	.word	0x400e1450
  401d74:	00402ba9 	.word	0x00402ba9
  401d78:	004024a1 	.word	0x004024a1
  401d7c:	400e1200 	.word	0x400e1200
  401d80:	400e0e00 	.word	0x400e0e00
  401d84:	400e1000 	.word	0x400e1000
  401d88:	00402109 	.word	0x00402109
  401d8c:	08000001 	.word	0x08000001
  401d90:	00401fe9 	.word	0x00401fe9
  401d94:	10000001 	.word	0x10000001
  401d98:	28000001 	.word	0x28000001

00401d9c <adc_init>:
  401d9c:	b430      	push	{r4, r5}
  401d9e:	2401      	movs	r4, #1
  401da0:	6004      	str	r4, [r0, #0]
  401da2:	2400      	movs	r4, #0
  401da4:	6044      	str	r4, [r0, #4]
  401da6:	f240 2502 	movw	r5, #514	; 0x202
  401daa:	f8c0 5120 	str.w	r5, [r0, #288]	; 0x120
  401dae:	f8c0 4104 	str.w	r4, [r0, #260]	; 0x104
  401db2:	f8c0 4114 	str.w	r4, [r0, #276]	; 0x114
  401db6:	6845      	ldr	r5, [r0, #4]
  401db8:	0052      	lsls	r2, r2, #1
  401dba:	fbb1 f2f2 	udiv	r2, r1, r2
  401dbe:	3a01      	subs	r2, #1
  401dc0:	0212      	lsls	r2, r2, #8
  401dc2:	b292      	uxth	r2, r2
  401dc4:	432b      	orrs	r3, r5
  401dc6:	431a      	orrs	r2, r3
  401dc8:	6042      	str	r2, [r0, #4]
  401dca:	4620      	mov	r0, r4
  401dcc:	bc30      	pop	{r4, r5}
  401dce:	4770      	bx	lr

00401dd0 <adc_configure_trigger>:
  401dd0:	6843      	ldr	r3, [r0, #4]
  401dd2:	01d2      	lsls	r2, r2, #7
  401dd4:	b2d2      	uxtb	r2, r2
  401dd6:	4319      	orrs	r1, r3
  401dd8:	430a      	orrs	r2, r1
  401dda:	6042      	str	r2, [r0, #4]
  401ddc:	4770      	bx	lr

00401dde <adc_start>:
  401dde:	2302      	movs	r3, #2
  401de0:	6003      	str	r3, [r0, #0]
  401de2:	4770      	bx	lr

00401de4 <adc_enable_channel>:
  401de4:	2301      	movs	r3, #1
  401de6:	fa03 f101 	lsl.w	r1, r3, r1
  401dea:	6101      	str	r1, [r0, #16]
  401dec:	4770      	bx	lr

00401dee <adc_get_channel_value>:
  401dee:	290f      	cmp	r1, #15
  401df0:	bf9a      	itte	ls
  401df2:	3050      	addls	r0, #80	; 0x50
  401df4:	f850 0021 	ldrls.w	r0, [r0, r1, lsl #2]
  401df8:	2000      	movhi	r0, #0
  401dfa:	4770      	bx	lr

00401dfc <pio_set_debounce_filter>:
  401dfc:	f8c0 1084 	str.w	r1, [r0, #132]	; 0x84
  401e00:	0053      	lsls	r3, r2, #1
  401e02:	f44f 4200 	mov.w	r2, #32768	; 0x8000
  401e06:	fbb2 f2f3 	udiv	r2, r2, r3
  401e0a:	3a01      	subs	r2, #1
  401e0c:	f3c2 020d 	ubfx	r2, r2, #0, #14
  401e10:	f8c0 208c 	str.w	r2, [r0, #140]	; 0x8c
  401e14:	4770      	bx	lr

00401e16 <pio_set_peripheral>:
  401e16:	6442      	str	r2, [r0, #68]	; 0x44
  401e18:	f1b1 5fc0 	cmp.w	r1, #402653184	; 0x18000000
  401e1c:	d039      	beq.n	401e92 <pio_set_peripheral+0x7c>
  401e1e:	d813      	bhi.n	401e48 <pio_set_peripheral+0x32>
  401e20:	f1b1 6f00 	cmp.w	r1, #134217728	; 0x8000000
  401e24:	d025      	beq.n	401e72 <pio_set_peripheral+0x5c>
  401e26:	f1b1 5f80 	cmp.w	r1, #268435456	; 0x10000000
  401e2a:	d10a      	bne.n	401e42 <pio_set_peripheral+0x2c>
  401e2c:	6f03      	ldr	r3, [r0, #112]	; 0x70
  401e2e:	4313      	orrs	r3, r2
  401e30:	6703      	str	r3, [r0, #112]	; 0x70
  401e32:	6f43      	ldr	r3, [r0, #116]	; 0x74
  401e34:	6f41      	ldr	r1, [r0, #116]	; 0x74
  401e36:	400b      	ands	r3, r1
  401e38:	ea23 0302 	bic.w	r3, r3, r2
  401e3c:	6743      	str	r3, [r0, #116]	; 0x74
  401e3e:	6042      	str	r2, [r0, #4]
  401e40:	4770      	bx	lr
  401e42:	2900      	cmp	r1, #0
  401e44:	d1fb      	bne.n	401e3e <pio_set_peripheral+0x28>
  401e46:	4770      	bx	lr
  401e48:	f1b1 5f20 	cmp.w	r1, #671088640	; 0x28000000
  401e4c:	d020      	beq.n	401e90 <pio_set_peripheral+0x7a>
  401e4e:	d809      	bhi.n	401e64 <pio_set_peripheral+0x4e>
  401e50:	f1b1 5f00 	cmp.w	r1, #536870912	; 0x20000000
  401e54:	d1f3      	bne.n	401e3e <pio_set_peripheral+0x28>
  401e56:	6f03      	ldr	r3, [r0, #112]	; 0x70
  401e58:	4313      	orrs	r3, r2
  401e5a:	6703      	str	r3, [r0, #112]	; 0x70
  401e5c:	6f43      	ldr	r3, [r0, #116]	; 0x74
  401e5e:	4313      	orrs	r3, r2
  401e60:	6743      	str	r3, [r0, #116]	; 0x74
  401e62:	e7ec      	b.n	401e3e <pio_set_peripheral+0x28>
  401e64:	f1b1 5f40 	cmp.w	r1, #805306368	; 0x30000000
  401e68:	d012      	beq.n	401e90 <pio_set_peripheral+0x7a>
  401e6a:	f1b1 5f60 	cmp.w	r1, #939524096	; 0x38000000
  401e6e:	d00f      	beq.n	401e90 <pio_set_peripheral+0x7a>
  401e70:	e7e5      	b.n	401e3e <pio_set_peripheral+0x28>
  401e72:	b410      	push	{r4}
  401e74:	6f01      	ldr	r1, [r0, #112]	; 0x70
  401e76:	6f04      	ldr	r4, [r0, #112]	; 0x70
  401e78:	43d3      	mvns	r3, r2
  401e7a:	4021      	ands	r1, r4
  401e7c:	461c      	mov	r4, r3
  401e7e:	4019      	ands	r1, r3
  401e80:	6701      	str	r1, [r0, #112]	; 0x70
  401e82:	6f43      	ldr	r3, [r0, #116]	; 0x74
  401e84:	6f41      	ldr	r1, [r0, #116]	; 0x74
  401e86:	400b      	ands	r3, r1
  401e88:	4023      	ands	r3, r4
  401e8a:	6743      	str	r3, [r0, #116]	; 0x74
  401e8c:	6042      	str	r2, [r0, #4]
  401e8e:	bc10      	pop	{r4}
  401e90:	4770      	bx	lr
  401e92:	6f03      	ldr	r3, [r0, #112]	; 0x70
  401e94:	6f01      	ldr	r1, [r0, #112]	; 0x70
  401e96:	400b      	ands	r3, r1
  401e98:	ea23 0302 	bic.w	r3, r3, r2
  401e9c:	6703      	str	r3, [r0, #112]	; 0x70
  401e9e:	6f43      	ldr	r3, [r0, #116]	; 0x74
  401ea0:	4313      	orrs	r3, r2
  401ea2:	6743      	str	r3, [r0, #116]	; 0x74
  401ea4:	e7cb      	b.n	401e3e <pio_set_peripheral+0x28>

00401ea6 <pio_set_input>:
  401ea6:	6441      	str	r1, [r0, #68]	; 0x44
  401ea8:	f012 0f01 	tst.w	r2, #1
  401eac:	bf14      	ite	ne
  401eae:	6641      	strne	r1, [r0, #100]	; 0x64
  401eb0:	6601      	streq	r1, [r0, #96]	; 0x60
  401eb2:	f012 0f0a 	tst.w	r2, #10
  401eb6:	bf14      	ite	ne
  401eb8:	6201      	strne	r1, [r0, #32]
  401eba:	6241      	streq	r1, [r0, #36]	; 0x24
  401ebc:	f012 0f02 	tst.w	r2, #2
  401ec0:	d107      	bne.n	401ed2 <pio_set_input+0x2c>
  401ec2:	f012 0f08 	tst.w	r2, #8
  401ec6:	bf18      	it	ne
  401ec8:	f8c0 1084 	strne.w	r1, [r0, #132]	; 0x84
  401ecc:	6141      	str	r1, [r0, #20]
  401ece:	6001      	str	r1, [r0, #0]
  401ed0:	4770      	bx	lr
  401ed2:	f8c0 1080 	str.w	r1, [r0, #128]	; 0x80
  401ed6:	e7f9      	b.n	401ecc <pio_set_input+0x26>

00401ed8 <pio_set_output>:
  401ed8:	b410      	push	{r4}
  401eda:	9c01      	ldr	r4, [sp, #4]
  401edc:	6441      	str	r1, [r0, #68]	; 0x44
  401ede:	b944      	cbnz	r4, 401ef2 <pio_set_output+0x1a>
  401ee0:	6601      	str	r1, [r0, #96]	; 0x60
  401ee2:	b143      	cbz	r3, 401ef6 <pio_set_output+0x1e>
  401ee4:	6501      	str	r1, [r0, #80]	; 0x50
  401ee6:	b942      	cbnz	r2, 401efa <pio_set_output+0x22>
  401ee8:	6341      	str	r1, [r0, #52]	; 0x34
  401eea:	6101      	str	r1, [r0, #16]
  401eec:	6001      	str	r1, [r0, #0]
  401eee:	bc10      	pop	{r4}
  401ef0:	4770      	bx	lr
  401ef2:	6641      	str	r1, [r0, #100]	; 0x64
  401ef4:	e7f5      	b.n	401ee2 <pio_set_output+0xa>
  401ef6:	6541      	str	r1, [r0, #84]	; 0x54
  401ef8:	e7f5      	b.n	401ee6 <pio_set_output+0xe>
  401efa:	6301      	str	r1, [r0, #48]	; 0x30
  401efc:	e7f5      	b.n	401eea <pio_set_output+0x12>
	...

00401f00 <pio_configure>:
  401f00:	b570      	push	{r4, r5, r6, lr}
  401f02:	b082      	sub	sp, #8
  401f04:	4605      	mov	r5, r0
  401f06:	4616      	mov	r6, r2
  401f08:	461c      	mov	r4, r3
  401f0a:	f1b1 5f00 	cmp.w	r1, #536870912	; 0x20000000
  401f0e:	d014      	beq.n	401f3a <pio_configure+0x3a>
  401f10:	d90a      	bls.n	401f28 <pio_configure+0x28>
  401f12:	f1b1 5f40 	cmp.w	r1, #805306368	; 0x30000000
  401f16:	d022      	beq.n	401f5e <pio_configure+0x5e>
  401f18:	f1b1 5f60 	cmp.w	r1, #939524096	; 0x38000000
  401f1c:	d01f      	beq.n	401f5e <pio_configure+0x5e>
  401f1e:	f1b1 5f20 	cmp.w	r1, #671088640	; 0x28000000
  401f22:	d016      	beq.n	401f52 <pio_configure+0x52>
  401f24:	2000      	movs	r0, #0
  401f26:	e012      	b.n	401f4e <pio_configure+0x4e>
  401f28:	f1b1 5f80 	cmp.w	r1, #268435456	; 0x10000000
  401f2c:	d005      	beq.n	401f3a <pio_configure+0x3a>
  401f2e:	f1b1 5fc0 	cmp.w	r1, #402653184	; 0x18000000
  401f32:	d002      	beq.n	401f3a <pio_configure+0x3a>
  401f34:	f1b1 6f00 	cmp.w	r1, #134217728	; 0x8000000
  401f38:	d1f4      	bne.n	401f24 <pio_configure+0x24>
  401f3a:	4632      	mov	r2, r6
  401f3c:	4628      	mov	r0, r5
  401f3e:	4b10      	ldr	r3, [pc, #64]	; (401f80 <pio_configure+0x80>)
  401f40:	4798      	blx	r3
  401f42:	f014 0f01 	tst.w	r4, #1
  401f46:	bf14      	ite	ne
  401f48:	666e      	strne	r6, [r5, #100]	; 0x64
  401f4a:	662e      	streq	r6, [r5, #96]	; 0x60
  401f4c:	2001      	movs	r0, #1
  401f4e:	b002      	add	sp, #8
  401f50:	bd70      	pop	{r4, r5, r6, pc}
  401f52:	461a      	mov	r2, r3
  401f54:	4631      	mov	r1, r6
  401f56:	4b0b      	ldr	r3, [pc, #44]	; (401f84 <pio_configure+0x84>)
  401f58:	4798      	blx	r3
  401f5a:	2001      	movs	r0, #1
  401f5c:	e7f7      	b.n	401f4e <pio_configure+0x4e>
  401f5e:	f004 0301 	and.w	r3, r4, #1
  401f62:	9300      	str	r3, [sp, #0]
  401f64:	f3c4 0380 	ubfx	r3, r4, #2, #1
  401f68:	f1b1 5f60 	cmp.w	r1, #939524096	; 0x38000000
  401f6c:	bf14      	ite	ne
  401f6e:	2200      	movne	r2, #0
  401f70:	2201      	moveq	r2, #1
  401f72:	4631      	mov	r1, r6
  401f74:	4628      	mov	r0, r5
  401f76:	4c04      	ldr	r4, [pc, #16]	; (401f88 <pio_configure+0x88>)
  401f78:	47a0      	blx	r4
  401f7a:	2001      	movs	r0, #1
  401f7c:	e7e7      	b.n	401f4e <pio_configure+0x4e>
  401f7e:	bf00      	nop
  401f80:	00401e17 	.word	0x00401e17
  401f84:	00401ea7 	.word	0x00401ea7
  401f88:	00401ed9 	.word	0x00401ed9

00401f8c <pio_configure_interrupt>:
  401f8c:	f012 0f10 	tst.w	r2, #16
  401f90:	d010      	beq.n	401fb4 <pio_configure_interrupt+0x28>
  401f92:	f8c0 10b0 	str.w	r1, [r0, #176]	; 0xb0
  401f96:	f012 0f20 	tst.w	r2, #32
  401f9a:	bf14      	ite	ne
  401f9c:	f8c0 10d4 	strne.w	r1, [r0, #212]	; 0xd4
  401fa0:	f8c0 10d0 	streq.w	r1, [r0, #208]	; 0xd0
  401fa4:	f012 0f40 	tst.w	r2, #64	; 0x40
  401fa8:	bf14      	ite	ne
  401faa:	f8c0 10c0 	strne.w	r1, [r0, #192]	; 0xc0
  401fae:	f8c0 10c4 	streq.w	r1, [r0, #196]	; 0xc4
  401fb2:	4770      	bx	lr
  401fb4:	f8c0 10b4 	str.w	r1, [r0, #180]	; 0xb4
  401fb8:	4770      	bx	lr

00401fba <pio_enable_interrupt>:
  401fba:	6401      	str	r1, [r0, #64]	; 0x40
  401fbc:	4770      	bx	lr

00401fbe <pio_disable_interrupt>:
  401fbe:	6441      	str	r1, [r0, #68]	; 0x44
  401fc0:	4770      	bx	lr

00401fc2 <pio_get_interrupt_status>:
  401fc2:	6cc0      	ldr	r0, [r0, #76]	; 0x4c
  401fc4:	4770      	bx	lr

00401fc6 <pio_get_interrupt_mask>:
  401fc6:	6c80      	ldr	r0, [r0, #72]	; 0x48
  401fc8:	4770      	bx	lr

00401fca <pio_get_pin_value>:
  401fca:	0943      	lsrs	r3, r0, #5
  401fcc:	f503 1300 	add.w	r3, r3, #2097152	; 0x200000
  401fd0:	f203 7307 	addw	r3, r3, #1799	; 0x707
  401fd4:	025b      	lsls	r3, r3, #9
  401fd6:	6bdb      	ldr	r3, [r3, #60]	; 0x3c
  401fd8:	f000 001f 	and.w	r0, r0, #31
  401fdc:	fa23 f000 	lsr.w	r0, r3, r0
  401fe0:	f000 0001 	and.w	r0, r0, #1
  401fe4:	4770      	bx	lr
	...

00401fe8 <pio_configure_pin>:
  401fe8:	b570      	push	{r4, r5, r6, lr}
  401fea:	b082      	sub	sp, #8
  401fec:	460d      	mov	r5, r1
  401fee:	0943      	lsrs	r3, r0, #5
  401ff0:	f503 1300 	add.w	r3, r3, #2097152	; 0x200000
  401ff4:	f203 7307 	addw	r3, r3, #1799	; 0x707
  401ff8:	025c      	lsls	r4, r3, #9
  401ffa:	f001 43f0 	and.w	r3, r1, #2013265920	; 0x78000000
  401ffe:	f1b3 5f00 	cmp.w	r3, #536870912	; 0x20000000
  402002:	d053      	beq.n	4020ac <pio_configure_pin+0xc4>
  402004:	d80a      	bhi.n	40201c <pio_configure_pin+0x34>
  402006:	f1b3 5f80 	cmp.w	r3, #268435456	; 0x10000000
  40200a:	d02d      	beq.n	402068 <pio_configure_pin+0x80>
  40200c:	f1b3 5fc0 	cmp.w	r3, #402653184	; 0x18000000
  402010:	d03b      	beq.n	40208a <pio_configure_pin+0xa2>
  402012:	f1b3 6f00 	cmp.w	r3, #134217728	; 0x8000000
  402016:	d015      	beq.n	402044 <pio_configure_pin+0x5c>
  402018:	2000      	movs	r0, #0
  40201a:	e023      	b.n	402064 <pio_configure_pin+0x7c>
  40201c:	f1b3 5f40 	cmp.w	r3, #805306368	; 0x30000000
  402020:	d055      	beq.n	4020ce <pio_configure_pin+0xe6>
  402022:	f1b3 5f60 	cmp.w	r3, #939524096	; 0x38000000
  402026:	d052      	beq.n	4020ce <pio_configure_pin+0xe6>
  402028:	f1b3 5f20 	cmp.w	r3, #671088640	; 0x28000000
  40202c:	d1f4      	bne.n	402018 <pio_configure_pin+0x30>
  40202e:	f000 011f 	and.w	r1, r0, #31
  402032:	2601      	movs	r6, #1
  402034:	462a      	mov	r2, r5
  402036:	fa06 f101 	lsl.w	r1, r6, r1
  40203a:	4620      	mov	r0, r4
  40203c:	4b2f      	ldr	r3, [pc, #188]	; (4020fc <pio_configure_pin+0x114>)
  40203e:	4798      	blx	r3
  402040:	4630      	mov	r0, r6
  402042:	e00f      	b.n	402064 <pio_configure_pin+0x7c>
  402044:	f000 001f 	and.w	r0, r0, #31
  402048:	2601      	movs	r6, #1
  40204a:	4086      	lsls	r6, r0
  40204c:	4632      	mov	r2, r6
  40204e:	f04f 6100 	mov.w	r1, #134217728	; 0x8000000
  402052:	4620      	mov	r0, r4
  402054:	4b2a      	ldr	r3, [pc, #168]	; (402100 <pio_configure_pin+0x118>)
  402056:	4798      	blx	r3
  402058:	f015 0f01 	tst.w	r5, #1
  40205c:	bf14      	ite	ne
  40205e:	6666      	strne	r6, [r4, #100]	; 0x64
  402060:	6626      	streq	r6, [r4, #96]	; 0x60
  402062:	2001      	movs	r0, #1
  402064:	b002      	add	sp, #8
  402066:	bd70      	pop	{r4, r5, r6, pc}
  402068:	f000 001f 	and.w	r0, r0, #31
  40206c:	2601      	movs	r6, #1
  40206e:	4086      	lsls	r6, r0
  402070:	4632      	mov	r2, r6
  402072:	f04f 5180 	mov.w	r1, #268435456	; 0x10000000
  402076:	4620      	mov	r0, r4
  402078:	4b21      	ldr	r3, [pc, #132]	; (402100 <pio_configure_pin+0x118>)
  40207a:	4798      	blx	r3
  40207c:	f015 0f01 	tst.w	r5, #1
  402080:	bf14      	ite	ne
  402082:	6666      	strne	r6, [r4, #100]	; 0x64
  402084:	6626      	streq	r6, [r4, #96]	; 0x60
  402086:	2001      	movs	r0, #1
  402088:	e7ec      	b.n	402064 <pio_configure_pin+0x7c>
  40208a:	f000 001f 	and.w	r0, r0, #31
  40208e:	2601      	movs	r6, #1
  402090:	4086      	lsls	r6, r0
  402092:	4632      	mov	r2, r6
  402094:	f04f 51c0 	mov.w	r1, #402653184	; 0x18000000
  402098:	4620      	mov	r0, r4
  40209a:	4b19      	ldr	r3, [pc, #100]	; (402100 <pio_configure_pin+0x118>)
  40209c:	4798      	blx	r3
  40209e:	f015 0f01 	tst.w	r5, #1
  4020a2:	bf14      	ite	ne
  4020a4:	6666      	strne	r6, [r4, #100]	; 0x64
  4020a6:	6626      	streq	r6, [r4, #96]	; 0x60
  4020a8:	2001      	movs	r0, #1
  4020aa:	e7db      	b.n	402064 <pio_configure_pin+0x7c>
  4020ac:	f000 001f 	and.w	r0, r0, #31
  4020b0:	2601      	movs	r6, #1
  4020b2:	4086      	lsls	r6, r0
  4020b4:	4632      	mov	r2, r6
  4020b6:	f04f 5100 	mov.w	r1, #536870912	; 0x20000000
  4020ba:	4620      	mov	r0, r4
  4020bc:	4b10      	ldr	r3, [pc, #64]	; (402100 <pio_configure_pin+0x118>)
  4020be:	4798      	blx	r3
  4020c0:	f015 0f01 	tst.w	r5, #1
  4020c4:	bf14      	ite	ne
  4020c6:	6666      	strne	r6, [r4, #100]	; 0x64
  4020c8:	6626      	streq	r6, [r4, #96]	; 0x60
  4020ca:	2001      	movs	r0, #1
  4020cc:	e7ca      	b.n	402064 <pio_configure_pin+0x7c>
  4020ce:	f005 5260 	and.w	r2, r5, #939524096	; 0x38000000
  4020d2:	f000 011f 	and.w	r1, r0, #31
  4020d6:	2601      	movs	r6, #1
  4020d8:	ea05 0306 	and.w	r3, r5, r6
  4020dc:	9300      	str	r3, [sp, #0]
  4020de:	f3c5 0380 	ubfx	r3, r5, #2, #1
  4020e2:	f1b2 5f60 	cmp.w	r2, #939524096	; 0x38000000
  4020e6:	bf14      	ite	ne
  4020e8:	2200      	movne	r2, #0
  4020ea:	2201      	moveq	r2, #1
  4020ec:	fa06 f101 	lsl.w	r1, r6, r1
  4020f0:	4620      	mov	r0, r4
  4020f2:	4c04      	ldr	r4, [pc, #16]	; (402104 <pio_configure_pin+0x11c>)
  4020f4:	47a0      	blx	r4
  4020f6:	4630      	mov	r0, r6
  4020f8:	e7b4      	b.n	402064 <pio_configure_pin+0x7c>
  4020fa:	bf00      	nop
  4020fc:	00401ea7 	.word	0x00401ea7
  402100:	00401e17 	.word	0x00401e17
  402104:	00401ed9 	.word	0x00401ed9

00402108 <pio_configure_pin_group>:
  402108:	b570      	push	{r4, r5, r6, lr}
  40210a:	b082      	sub	sp, #8
  40210c:	4605      	mov	r5, r0
  40210e:	460e      	mov	r6, r1
  402110:	4614      	mov	r4, r2
  402112:	f002 43f0 	and.w	r3, r2, #2013265920	; 0x78000000
  402116:	f1b3 5f00 	cmp.w	r3, #536870912	; 0x20000000
  40211a:	d03d      	beq.n	402198 <pio_configure_pin_group+0x90>
  40211c:	d80a      	bhi.n	402134 <pio_configure_pin_group+0x2c>
  40211e:	f1b3 5f80 	cmp.w	r3, #268435456	; 0x10000000
  402122:	d021      	beq.n	402168 <pio_configure_pin_group+0x60>
  402124:	f1b3 5fc0 	cmp.w	r3, #402653184	; 0x18000000
  402128:	d02a      	beq.n	402180 <pio_configure_pin_group+0x78>
  40212a:	f1b3 6f00 	cmp.w	r3, #134217728	; 0x8000000
  40212e:	d00e      	beq.n	40214e <pio_configure_pin_group+0x46>
  402130:	2000      	movs	r0, #0
  402132:	e017      	b.n	402164 <pio_configure_pin_group+0x5c>
  402134:	f1b3 5f40 	cmp.w	r3, #805306368	; 0x30000000
  402138:	d03a      	beq.n	4021b0 <pio_configure_pin_group+0xa8>
  40213a:	f1b3 5f60 	cmp.w	r3, #939524096	; 0x38000000
  40213e:	d037      	beq.n	4021b0 <pio_configure_pin_group+0xa8>
  402140:	f1b3 5f20 	cmp.w	r3, #671088640	; 0x28000000
  402144:	d1f4      	bne.n	402130 <pio_configure_pin_group+0x28>
  402146:	4b23      	ldr	r3, [pc, #140]	; (4021d4 <pio_configure_pin_group+0xcc>)
  402148:	4798      	blx	r3
  40214a:	2001      	movs	r0, #1
  40214c:	e00a      	b.n	402164 <pio_configure_pin_group+0x5c>
  40214e:	460a      	mov	r2, r1
  402150:	f04f 6100 	mov.w	r1, #134217728	; 0x8000000
  402154:	4b20      	ldr	r3, [pc, #128]	; (4021d8 <pio_configure_pin_group+0xd0>)
  402156:	4798      	blx	r3
  402158:	f014 0f01 	tst.w	r4, #1
  40215c:	bf14      	ite	ne
  40215e:	666e      	strne	r6, [r5, #100]	; 0x64
  402160:	662e      	streq	r6, [r5, #96]	; 0x60
  402162:	2001      	movs	r0, #1
  402164:	b002      	add	sp, #8
  402166:	bd70      	pop	{r4, r5, r6, pc}
  402168:	460a      	mov	r2, r1
  40216a:	f04f 5180 	mov.w	r1, #268435456	; 0x10000000
  40216e:	4b1a      	ldr	r3, [pc, #104]	; (4021d8 <pio_configure_pin_group+0xd0>)
  402170:	4798      	blx	r3
  402172:	f014 0f01 	tst.w	r4, #1
  402176:	bf14      	ite	ne
  402178:	666e      	strne	r6, [r5, #100]	; 0x64
  40217a:	662e      	streq	r6, [r5, #96]	; 0x60
  40217c:	2001      	movs	r0, #1
  40217e:	e7f1      	b.n	402164 <pio_configure_pin_group+0x5c>
  402180:	460a      	mov	r2, r1
  402182:	f04f 51c0 	mov.w	r1, #402653184	; 0x18000000
  402186:	4b14      	ldr	r3, [pc, #80]	; (4021d8 <pio_configure_pin_group+0xd0>)
  402188:	4798      	blx	r3
  40218a:	f014 0f01 	tst.w	r4, #1
  40218e:	bf14      	ite	ne
  402190:	666e      	strne	r6, [r5, #100]	; 0x64
  402192:	662e      	streq	r6, [r5, #96]	; 0x60
  402194:	2001      	movs	r0, #1
  402196:	e7e5      	b.n	402164 <pio_configure_pin_group+0x5c>
  402198:	460a      	mov	r2, r1
  40219a:	f04f 5100 	mov.w	r1, #536870912	; 0x20000000
  40219e:	4b0e      	ldr	r3, [pc, #56]	; (4021d8 <pio_configure_pin_group+0xd0>)
  4021a0:	4798      	blx	r3
  4021a2:	f014 0f01 	tst.w	r4, #1
  4021a6:	bf14      	ite	ne
  4021a8:	666e      	strne	r6, [r5, #100]	; 0x64
  4021aa:	662e      	streq	r6, [r5, #96]	; 0x60
  4021ac:	2001      	movs	r0, #1
  4021ae:	e7d9      	b.n	402164 <pio_configure_pin_group+0x5c>
  4021b0:	f004 5260 	and.w	r2, r4, #939524096	; 0x38000000
  4021b4:	f004 0301 	and.w	r3, r4, #1
  4021b8:	9300      	str	r3, [sp, #0]
  4021ba:	f3c4 0380 	ubfx	r3, r4, #2, #1
  4021be:	f1b2 5f60 	cmp.w	r2, #939524096	; 0x38000000
  4021c2:	bf14      	ite	ne
  4021c4:	2200      	movne	r2, #0
  4021c6:	2201      	moveq	r2, #1
  4021c8:	4631      	mov	r1, r6
  4021ca:	4628      	mov	r0, r5
  4021cc:	4c03      	ldr	r4, [pc, #12]	; (4021dc <pio_configure_pin_group+0xd4>)
  4021ce:	47a0      	blx	r4
  4021d0:	2001      	movs	r0, #1
  4021d2:	e7c7      	b.n	402164 <pio_configure_pin_group+0x5c>
  4021d4:	00401ea7 	.word	0x00401ea7
  4021d8:	00401e17 	.word	0x00401e17
  4021dc:	00401ed9 	.word	0x00401ed9

004021e0 <pio_handler_process>:
  4021e0:	e92d 43f8 	stmdb	sp!, {r3, r4, r5, r6, r7, r8, r9, lr}
  4021e4:	4681      	mov	r9, r0
  4021e6:	460f      	mov	r7, r1
  4021e8:	4b12      	ldr	r3, [pc, #72]	; (402234 <pio_handler_process+0x54>)
  4021ea:	4798      	blx	r3
  4021ec:	4605      	mov	r5, r0
  4021ee:	4648      	mov	r0, r9
  4021f0:	4b11      	ldr	r3, [pc, #68]	; (402238 <pio_handler_process+0x58>)
  4021f2:	4798      	blx	r3
  4021f4:	4005      	ands	r5, r0
  4021f6:	d013      	beq.n	402220 <pio_handler_process+0x40>
  4021f8:	4c10      	ldr	r4, [pc, #64]	; (40223c <pio_handler_process+0x5c>)
  4021fa:	f104 0660 	add.w	r6, r4, #96	; 0x60
  4021fe:	e003      	b.n	402208 <pio_handler_process+0x28>
  402200:	42b4      	cmp	r4, r6
  402202:	d00d      	beq.n	402220 <pio_handler_process+0x40>
  402204:	3410      	adds	r4, #16
  402206:	b15d      	cbz	r5, 402220 <pio_handler_process+0x40>
  402208:	6820      	ldr	r0, [r4, #0]
  40220a:	42b8      	cmp	r0, r7
  40220c:	d1f8      	bne.n	402200 <pio_handler_process+0x20>
  40220e:	6861      	ldr	r1, [r4, #4]
  402210:	4229      	tst	r1, r5
  402212:	d0f5      	beq.n	402200 <pio_handler_process+0x20>
  402214:	68e3      	ldr	r3, [r4, #12]
  402216:	4798      	blx	r3
  402218:	6863      	ldr	r3, [r4, #4]
  40221a:	ea25 0503 	bic.w	r5, r5, r3
  40221e:	e7ef      	b.n	402200 <pio_handler_process+0x20>
  402220:	4b07      	ldr	r3, [pc, #28]	; (402240 <pio_handler_process+0x60>)
  402222:	681b      	ldr	r3, [r3, #0]
  402224:	b123      	cbz	r3, 402230 <pio_handler_process+0x50>
  402226:	4b07      	ldr	r3, [pc, #28]	; (402244 <pio_handler_process+0x64>)
  402228:	681b      	ldr	r3, [r3, #0]
  40222a:	b10b      	cbz	r3, 402230 <pio_handler_process+0x50>
  40222c:	4648      	mov	r0, r9
  40222e:	4798      	blx	r3
  402230:	e8bd 83f8 	ldmia.w	sp!, {r3, r4, r5, r6, r7, r8, r9, pc}
  402234:	00401fc3 	.word	0x00401fc3
  402238:	00401fc7 	.word	0x00401fc7
  40223c:	20000adc 	.word	0x20000adc
  402240:	20000b84 	.word	0x20000b84
  402244:	20000b50 	.word	0x20000b50

00402248 <pio_handler_set>:
  402248:	b5f8      	push	{r3, r4, r5, r6, r7, lr}
  40224a:	4c18      	ldr	r4, [pc, #96]	; (4022ac <pio_handler_set+0x64>)
  40224c:	6826      	ldr	r6, [r4, #0]
  40224e:	2e06      	cmp	r6, #6
  402250:	d829      	bhi.n	4022a6 <pio_handler_set+0x5e>
  402252:	f04f 0c00 	mov.w	ip, #0
  402256:	4664      	mov	r4, ip
  402258:	4f15      	ldr	r7, [pc, #84]	; (4022b0 <pio_handler_set+0x68>)
  40225a:	e004      	b.n	402266 <pio_handler_set+0x1e>
  40225c:	3401      	adds	r4, #1
  40225e:	b2e4      	uxtb	r4, r4
  402260:	46a4      	mov	ip, r4
  402262:	42a6      	cmp	r6, r4
  402264:	d309      	bcc.n	40227a <pio_handler_set+0x32>
  402266:	46a6      	mov	lr, r4
  402268:	0125      	lsls	r5, r4, #4
  40226a:	597d      	ldr	r5, [r7, r5]
  40226c:	428d      	cmp	r5, r1
  40226e:	d1f5      	bne.n	40225c <pio_handler_set+0x14>
  402270:	eb07 1504 	add.w	r5, r7, r4, lsl #4
  402274:	686d      	ldr	r5, [r5, #4]
  402276:	4295      	cmp	r5, r2
  402278:	d1f0      	bne.n	40225c <pio_handler_set+0x14>
  40227a:	4d0d      	ldr	r5, [pc, #52]	; (4022b0 <pio_handler_set+0x68>)
  40227c:	ea4f 1e0e 	mov.w	lr, lr, lsl #4
  402280:	eb05 040e 	add.w	r4, r5, lr
  402284:	f845 100e 	str.w	r1, [r5, lr]
  402288:	6062      	str	r2, [r4, #4]
  40228a:	60a3      	str	r3, [r4, #8]
  40228c:	9906      	ldr	r1, [sp, #24]
  40228e:	60e1      	str	r1, [r4, #12]
  402290:	3601      	adds	r6, #1
  402292:	4566      	cmp	r6, ip
  402294:	bf04      	itt	eq
  402296:	4905      	ldreq	r1, [pc, #20]	; (4022ac <pio_handler_set+0x64>)
  402298:	600e      	streq	r6, [r1, #0]
  40229a:	4611      	mov	r1, r2
  40229c:	461a      	mov	r2, r3
  40229e:	4b05      	ldr	r3, [pc, #20]	; (4022b4 <pio_handler_set+0x6c>)
  4022a0:	4798      	blx	r3
  4022a2:	2000      	movs	r0, #0
  4022a4:	bdf8      	pop	{r3, r4, r5, r6, r7, pc}
  4022a6:	2001      	movs	r0, #1
  4022a8:	bdf8      	pop	{r3, r4, r5, r6, r7, pc}
  4022aa:	bf00      	nop
  4022ac:	20000b4c 	.word	0x20000b4c
  4022b0:	20000adc 	.word	0x20000adc
  4022b4:	00401f8d 	.word	0x00401f8d

004022b8 <PIOA_Handler>:
  4022b8:	b508      	push	{r3, lr}
  4022ba:	210b      	movs	r1, #11
  4022bc:	4801      	ldr	r0, [pc, #4]	; (4022c4 <PIOA_Handler+0xc>)
  4022be:	4b02      	ldr	r3, [pc, #8]	; (4022c8 <PIOA_Handler+0x10>)
  4022c0:	4798      	blx	r3
  4022c2:	bd08      	pop	{r3, pc}
  4022c4:	400e0e00 	.word	0x400e0e00
  4022c8:	004021e1 	.word	0x004021e1

004022cc <PIOB_Handler>:
  4022cc:	b508      	push	{r3, lr}
  4022ce:	210c      	movs	r1, #12
  4022d0:	4801      	ldr	r0, [pc, #4]	; (4022d8 <PIOB_Handler+0xc>)
  4022d2:	4b02      	ldr	r3, [pc, #8]	; (4022dc <PIOB_Handler+0x10>)
  4022d4:	4798      	blx	r3
  4022d6:	bd08      	pop	{r3, pc}
  4022d8:	400e1000 	.word	0x400e1000
  4022dc:	004021e1 	.word	0x004021e1

004022e0 <PIOC_Handler>:
  4022e0:	b508      	push	{r3, lr}
  4022e2:	210d      	movs	r1, #13
  4022e4:	4801      	ldr	r0, [pc, #4]	; (4022ec <PIOC_Handler+0xc>)
  4022e6:	4b02      	ldr	r3, [pc, #8]	; (4022f0 <PIOC_Handler+0x10>)
  4022e8:	4798      	blx	r3
  4022ea:	bd08      	pop	{r3, pc}
  4022ec:	400e1200 	.word	0x400e1200
  4022f0:	004021e1 	.word	0x004021e1

004022f4 <pio_handler_set_priority>:
  4022f4:	b5f8      	push	{r3, r4, r5, r6, r7, lr}
  4022f6:	4605      	mov	r5, r0
  4022f8:	460c      	mov	r4, r1
  4022fa:	4617      	mov	r7, r2
  4022fc:	4b18      	ldr	r3, [pc, #96]	; (402360 <pio_handler_set_priority+0x6c>)
  4022fe:	4798      	blx	r3
  402300:	4606      	mov	r6, r0
  402302:	f04f 31ff 	mov.w	r1, #4294967295
  402306:	4628      	mov	r0, r5
  402308:	4b16      	ldr	r3, [pc, #88]	; (402364 <pio_handler_set_priority+0x70>)
  40230a:	4798      	blx	r3
  40230c:	4628      	mov	r0, r5
  40230e:	4b16      	ldr	r3, [pc, #88]	; (402368 <pio_handler_set_priority+0x74>)
  402310:	4798      	blx	r3
  402312:	b2e2      	uxtb	r2, r4
  402314:	f002 031f 	and.w	r3, r2, #31
  402318:	2101      	movs	r1, #1
  40231a:	4099      	lsls	r1, r3
  40231c:	0963      	lsrs	r3, r4, #5
  40231e:	009b      	lsls	r3, r3, #2
  402320:	f103 4360 	add.w	r3, r3, #3758096384	; 0xe0000000
  402324:	f503 4361 	add.w	r3, r3, #57600	; 0xe100
  402328:	f8c3 1080 	str.w	r1, [r3, #128]	; 0x80
  40232c:	f8c3 1180 	str.w	r1, [r3, #384]	; 0x180
  402330:	2c00      	cmp	r4, #0
  402332:	db0d      	blt.n	402350 <pio_handler_set_priority+0x5c>
  402334:	013f      	lsls	r7, r7, #4
  402336:	b2ff      	uxtb	r7, r7
  402338:	f104 4460 	add.w	r4, r4, #3758096384	; 0xe0000000
  40233c:	f504 4461 	add.w	r4, r4, #57600	; 0xe100
  402340:	f884 7300 	strb.w	r7, [r4, #768]	; 0x300
  402344:	6019      	str	r1, [r3, #0]
  402346:	4631      	mov	r1, r6
  402348:	4628      	mov	r0, r5
  40234a:	4b08      	ldr	r3, [pc, #32]	; (40236c <pio_handler_set_priority+0x78>)
  40234c:	4798      	blx	r3
  40234e:	bdf8      	pop	{r3, r4, r5, r6, r7, pc}
  402350:	f002 020f 	and.w	r2, r2, #15
  402354:	013f      	lsls	r7, r7, #4
  402356:	b2ff      	uxtb	r7, r7
  402358:	4805      	ldr	r0, [pc, #20]	; (402370 <pio_handler_set_priority+0x7c>)
  40235a:	5487      	strb	r7, [r0, r2]
  40235c:	e7f2      	b.n	402344 <pio_handler_set_priority+0x50>
  40235e:	bf00      	nop
  402360:	00401fc7 	.word	0x00401fc7
  402364:	00401fbf 	.word	0x00401fbf
  402368:	00401fc3 	.word	0x00401fc3
  40236c:	00401fbb 	.word	0x00401fbb
  402370:	e000ed14 	.word	0xe000ed14

00402374 <pmc_switch_mck_to_pllack>:
  402374:	4a17      	ldr	r2, [pc, #92]	; (4023d4 <pmc_switch_mck_to_pllack+0x60>)
  402376:	6b13      	ldr	r3, [r2, #48]	; 0x30
  402378:	f023 0370 	bic.w	r3, r3, #112	; 0x70
  40237c:	4318      	orrs	r0, r3
  40237e:	6310      	str	r0, [r2, #48]	; 0x30
  402380:	6e93      	ldr	r3, [r2, #104]	; 0x68
  402382:	f013 0f08 	tst.w	r3, #8
  402386:	d10a      	bne.n	40239e <pmc_switch_mck_to_pllack+0x2a>
  402388:	f44f 6300 	mov.w	r3, #2048	; 0x800
  40238c:	4911      	ldr	r1, [pc, #68]	; (4023d4 <pmc_switch_mck_to_pllack+0x60>)
  40238e:	6e8a      	ldr	r2, [r1, #104]	; 0x68
  402390:	f012 0f08 	tst.w	r2, #8
  402394:	d103      	bne.n	40239e <pmc_switch_mck_to_pllack+0x2a>
  402396:	3b01      	subs	r3, #1
  402398:	d1f9      	bne.n	40238e <pmc_switch_mck_to_pllack+0x1a>
  40239a:	2001      	movs	r0, #1
  40239c:	4770      	bx	lr
  40239e:	4a0d      	ldr	r2, [pc, #52]	; (4023d4 <pmc_switch_mck_to_pllack+0x60>)
  4023a0:	6b13      	ldr	r3, [r2, #48]	; 0x30
  4023a2:	f023 0303 	bic.w	r3, r3, #3
  4023a6:	f043 0302 	orr.w	r3, r3, #2
  4023aa:	6313      	str	r3, [r2, #48]	; 0x30
  4023ac:	6e93      	ldr	r3, [r2, #104]	; 0x68
  4023ae:	f013 0f08 	tst.w	r3, #8
  4023b2:	d10a      	bne.n	4023ca <pmc_switch_mck_to_pllack+0x56>
  4023b4:	f44f 6300 	mov.w	r3, #2048	; 0x800
  4023b8:	4906      	ldr	r1, [pc, #24]	; (4023d4 <pmc_switch_mck_to_pllack+0x60>)
  4023ba:	6e8a      	ldr	r2, [r1, #104]	; 0x68
  4023bc:	f012 0f08 	tst.w	r2, #8
  4023c0:	d105      	bne.n	4023ce <pmc_switch_mck_to_pllack+0x5a>
  4023c2:	3b01      	subs	r3, #1
  4023c4:	d1f9      	bne.n	4023ba <pmc_switch_mck_to_pllack+0x46>
  4023c6:	2001      	movs	r0, #1
  4023c8:	4770      	bx	lr
  4023ca:	2000      	movs	r0, #0
  4023cc:	4770      	bx	lr
  4023ce:	2000      	movs	r0, #0
  4023d0:	4770      	bx	lr
  4023d2:	bf00      	nop
  4023d4:	400e0400 	.word	0x400e0400

004023d8 <pmc_switch_sclk_to_32kxtal>:
  4023d8:	2801      	cmp	r0, #1
  4023da:	d003      	beq.n	4023e4 <pmc_switch_sclk_to_32kxtal+0xc>
  4023dc:	4a05      	ldr	r2, [pc, #20]	; (4023f4 <pmc_switch_sclk_to_32kxtal+0x1c>)
  4023de:	4b06      	ldr	r3, [pc, #24]	; (4023f8 <pmc_switch_sclk_to_32kxtal+0x20>)
  4023e0:	601a      	str	r2, [r3, #0]
  4023e2:	4770      	bx	lr
  4023e4:	4a04      	ldr	r2, [pc, #16]	; (4023f8 <pmc_switch_sclk_to_32kxtal+0x20>)
  4023e6:	6893      	ldr	r3, [r2, #8]
  4023e8:	f043 4325 	orr.w	r3, r3, #2768240640	; 0xa5000000
  4023ec:	f443 1380 	orr.w	r3, r3, #1048576	; 0x100000
  4023f0:	6093      	str	r3, [r2, #8]
  4023f2:	e7f3      	b.n	4023dc <pmc_switch_sclk_to_32kxtal+0x4>
  4023f4:	a5000008 	.word	0xa5000008
  4023f8:	400e1410 	.word	0x400e1410

004023fc <pmc_osc_is_ready_32kxtal>:
  4023fc:	4b05      	ldr	r3, [pc, #20]	; (402414 <pmc_osc_is_ready_32kxtal+0x18>)
  4023fe:	695b      	ldr	r3, [r3, #20]
  402400:	f013 0f80 	tst.w	r3, #128	; 0x80
  402404:	bf1d      	ittte	ne
  402406:	4b04      	ldrne	r3, [pc, #16]	; (402418 <pmc_osc_is_ready_32kxtal+0x1c>)
  402408:	6e98      	ldrne	r0, [r3, #104]	; 0x68
  40240a:	f3c0 10c0 	ubfxne	r0, r0, #7, #1
  40240e:	2000      	moveq	r0, #0
  402410:	4770      	bx	lr
  402412:	bf00      	nop
  402414:	400e1410 	.word	0x400e1410
  402418:	400e0400 	.word	0x400e0400

0040241c <pmc_switch_mainck_to_xtal>:
  40241c:	b9c8      	cbnz	r0, 402452 <pmc_switch_mainck_to_xtal+0x36>
  40241e:	4a11      	ldr	r2, [pc, #68]	; (402464 <pmc_switch_mainck_to_xtal+0x48>)
  402420:	6a13      	ldr	r3, [r2, #32]
  402422:	0209      	lsls	r1, r1, #8
  402424:	b289      	uxth	r1, r1
  402426:	f423 135c 	bic.w	r3, r3, #3604480	; 0x370000
  40242a:	f023 0303 	bic.w	r3, r3, #3
  40242e:	f443 135c 	orr.w	r3, r3, #3604480	; 0x370000
  402432:	f043 0301 	orr.w	r3, r3, #1
  402436:	430b      	orrs	r3, r1
  402438:	6213      	str	r3, [r2, #32]
  40243a:	6e93      	ldr	r3, [r2, #104]	; 0x68
  40243c:	f013 0f01 	tst.w	r3, #1
  402440:	d0fb      	beq.n	40243a <pmc_switch_mainck_to_xtal+0x1e>
  402442:	4a08      	ldr	r2, [pc, #32]	; (402464 <pmc_switch_mainck_to_xtal+0x48>)
  402444:	6a13      	ldr	r3, [r2, #32]
  402446:	f043 739b 	orr.w	r3, r3, #20316160	; 0x1360000
  40244a:	f443 3380 	orr.w	r3, r3, #65536	; 0x10000
  40244e:	6213      	str	r3, [r2, #32]
  402450:	4770      	bx	lr
  402452:	4904      	ldr	r1, [pc, #16]	; (402464 <pmc_switch_mainck_to_xtal+0x48>)
  402454:	6a0b      	ldr	r3, [r1, #32]
  402456:	4a04      	ldr	r2, [pc, #16]	; (402468 <pmc_switch_mainck_to_xtal+0x4c>)
  402458:	401a      	ands	r2, r3
  40245a:	4b04      	ldr	r3, [pc, #16]	; (40246c <pmc_switch_mainck_to_xtal+0x50>)
  40245c:	4313      	orrs	r3, r2
  40245e:	620b      	str	r3, [r1, #32]
  402460:	4770      	bx	lr
  402462:	bf00      	nop
  402464:	400e0400 	.word	0x400e0400
  402468:	fec8fffc 	.word	0xfec8fffc
  40246c:	01370002 	.word	0x01370002

00402470 <pmc_osc_is_ready_mainck>:
  402470:	4b02      	ldr	r3, [pc, #8]	; (40247c <pmc_osc_is_ready_mainck+0xc>)
  402472:	6e98      	ldr	r0, [r3, #104]	; 0x68
  402474:	f400 3080 	and.w	r0, r0, #65536	; 0x10000
  402478:	4770      	bx	lr
  40247a:	bf00      	nop
  40247c:	400e0400 	.word	0x400e0400

00402480 <pmc_disable_pllack>:
  402480:	f04f 5200 	mov.w	r2, #536870912	; 0x20000000
  402484:	4b01      	ldr	r3, [pc, #4]	; (40248c <pmc_disable_pllack+0xc>)
  402486:	629a      	str	r2, [r3, #40]	; 0x28
  402488:	4770      	bx	lr
  40248a:	bf00      	nop
  40248c:	400e0400 	.word	0x400e0400

00402490 <pmc_is_locked_pllack>:
  402490:	4b02      	ldr	r3, [pc, #8]	; (40249c <pmc_is_locked_pllack+0xc>)
  402492:	6e98      	ldr	r0, [r3, #104]	; 0x68
  402494:	f000 0002 	and.w	r0, r0, #2
  402498:	4770      	bx	lr
  40249a:	bf00      	nop
  40249c:	400e0400 	.word	0x400e0400

004024a0 <pmc_enable_periph_clk>:
  4024a0:	2822      	cmp	r0, #34	; 0x22
  4024a2:	d81e      	bhi.n	4024e2 <pmc_enable_periph_clk+0x42>
  4024a4:	281f      	cmp	r0, #31
  4024a6:	d80c      	bhi.n	4024c2 <pmc_enable_periph_clk+0x22>
  4024a8:	4b11      	ldr	r3, [pc, #68]	; (4024f0 <pmc_enable_periph_clk+0x50>)
  4024aa:	699a      	ldr	r2, [r3, #24]
  4024ac:	2301      	movs	r3, #1
  4024ae:	4083      	lsls	r3, r0
  4024b0:	4393      	bics	r3, r2
  4024b2:	d018      	beq.n	4024e6 <pmc_enable_periph_clk+0x46>
  4024b4:	2301      	movs	r3, #1
  4024b6:	fa03 f000 	lsl.w	r0, r3, r0
  4024ba:	4b0d      	ldr	r3, [pc, #52]	; (4024f0 <pmc_enable_periph_clk+0x50>)
  4024bc:	6118      	str	r0, [r3, #16]
  4024be:	2000      	movs	r0, #0
  4024c0:	4770      	bx	lr
  4024c2:	3820      	subs	r0, #32
  4024c4:	4b0a      	ldr	r3, [pc, #40]	; (4024f0 <pmc_enable_periph_clk+0x50>)
  4024c6:	f8d3 2108 	ldr.w	r2, [r3, #264]	; 0x108
  4024ca:	2301      	movs	r3, #1
  4024cc:	4083      	lsls	r3, r0
  4024ce:	4393      	bics	r3, r2
  4024d0:	d00b      	beq.n	4024ea <pmc_enable_periph_clk+0x4a>
  4024d2:	2301      	movs	r3, #1
  4024d4:	fa03 f000 	lsl.w	r0, r3, r0
  4024d8:	4b05      	ldr	r3, [pc, #20]	; (4024f0 <pmc_enable_periph_clk+0x50>)
  4024da:	f8c3 0100 	str.w	r0, [r3, #256]	; 0x100
  4024de:	2000      	movs	r0, #0
  4024e0:	4770      	bx	lr
  4024e2:	2001      	movs	r0, #1
  4024e4:	4770      	bx	lr
  4024e6:	2000      	movs	r0, #0
  4024e8:	4770      	bx	lr
  4024ea:	2000      	movs	r0, #0
  4024ec:	4770      	bx	lr
  4024ee:	bf00      	nop
  4024f0:	400e0400 	.word	0x400e0400

004024f4 <rtc_set_hour_mode>:
  4024f4:	b921      	cbnz	r1, 402500 <rtc_set_hour_mode+0xc>
  4024f6:	6843      	ldr	r3, [r0, #4]
  4024f8:	f023 0301 	bic.w	r3, r3, #1
  4024fc:	6043      	str	r3, [r0, #4]
  4024fe:	4770      	bx	lr
  402500:	6843      	ldr	r3, [r0, #4]
  402502:	f043 0301 	orr.w	r3, r3, #1
  402506:	6043      	str	r3, [r0, #4]
  402508:	4770      	bx	lr

0040250a <rtc_get_time>:
  40250a:	b430      	push	{r4, r5}
  40250c:	6885      	ldr	r5, [r0, #8]
  40250e:	6884      	ldr	r4, [r0, #8]
  402510:	42a5      	cmp	r5, r4
  402512:	d003      	beq.n	40251c <rtc_get_time+0x12>
  402514:	6885      	ldr	r5, [r0, #8]
  402516:	6884      	ldr	r4, [r0, #8]
  402518:	42ac      	cmp	r4, r5
  40251a:	d1fb      	bne.n	402514 <rtc_get_time+0xa>
  40251c:	b161      	cbz	r1, 402538 <rtc_get_time+0x2e>
  40251e:	f3c4 5001 	ubfx	r0, r4, #20, #2
  402522:	eb00 0580 	add.w	r5, r0, r0, lsl #2
  402526:	f3c4 4003 	ubfx	r0, r4, #16, #4
  40252a:	eb00 0045 	add.w	r0, r0, r5, lsl #1
  40252e:	f414 0f80 	tst.w	r4, #4194304	; 0x400000
  402532:	bf18      	it	ne
  402534:	300c      	addne	r0, #12
  402536:	6008      	str	r0, [r1, #0]
  402538:	b142      	cbz	r2, 40254c <rtc_get_time+0x42>
  40253a:	f3c4 3102 	ubfx	r1, r4, #12, #3
  40253e:	eb01 0181 	add.w	r1, r1, r1, lsl #2
  402542:	f3c4 2003 	ubfx	r0, r4, #8, #4
  402546:	eb00 0141 	add.w	r1, r0, r1, lsl #1
  40254a:	6011      	str	r1, [r2, #0]
  40254c:	b143      	cbz	r3, 402560 <rtc_get_time+0x56>
  40254e:	f3c4 1202 	ubfx	r2, r4, #4, #3
  402552:	eb02 0282 	add.w	r2, r2, r2, lsl #2
  402556:	f004 040f 	and.w	r4, r4, #15
  40255a:	eb04 0442 	add.w	r4, r4, r2, lsl #1
  40255e:	601c      	str	r4, [r3, #0]
  402560:	bc30      	pop	{r4, r5}
  402562:	4770      	bx	lr

00402564 <rtc_set_time>:
  402564:	b4f0      	push	{r4, r5, r6, r7}
  402566:	6844      	ldr	r4, [r0, #4]
  402568:	f014 0f01 	tst.w	r4, #1
  40256c:	d005      	beq.n	40257a <rtc_set_time+0x16>
  40256e:	290c      	cmp	r1, #12
  402570:	d93d      	bls.n	4025ee <rtc_set_time+0x8a>
  402572:	390c      	subs	r1, #12
  402574:	f44f 0780 	mov.w	r7, #4194304	; 0x400000
  402578:	e000      	b.n	40257c <rtc_set_time+0x18>
  40257a:	2700      	movs	r7, #0
  40257c:	4c1d      	ldr	r4, [pc, #116]	; (4025f4 <rtc_set_time+0x90>)
  40257e:	fba4 5603 	umull	r5, r6, r4, r3
  402582:	08f6      	lsrs	r6, r6, #3
  402584:	eb06 0586 	add.w	r5, r6, r6, lsl #2
  402588:	eba3 0345 	sub.w	r3, r3, r5, lsl #1
  40258c:	ea43 1306 	orr.w	r3, r3, r6, lsl #4
  402590:	fba4 6502 	umull	r6, r5, r4, r2
  402594:	08ed      	lsrs	r5, r5, #3
  402596:	ea43 3305 	orr.w	r3, r3, r5, lsl #12
  40259a:	eb05 0585 	add.w	r5, r5, r5, lsl #2
  40259e:	eba2 0545 	sub.w	r5, r2, r5, lsl #1
  4025a2:	ea43 2305 	orr.w	r3, r3, r5, lsl #8
  4025a6:	433b      	orrs	r3, r7
  4025a8:	fba4 4201 	umull	r4, r2, r4, r1
  4025ac:	08d2      	lsrs	r2, r2, #3
  4025ae:	ea43 5302 	orr.w	r3, r3, r2, lsl #20
  4025b2:	eb02 0282 	add.w	r2, r2, r2, lsl #2
  4025b6:	eba1 0142 	sub.w	r1, r1, r2, lsl #1
  4025ba:	ea43 4101 	orr.w	r1, r3, r1, lsl #16
  4025be:	6983      	ldr	r3, [r0, #24]
  4025c0:	f013 0f04 	tst.w	r3, #4
  4025c4:	d0fb      	beq.n	4025be <rtc_set_time+0x5a>
  4025c6:	6803      	ldr	r3, [r0, #0]
  4025c8:	f043 0301 	orr.w	r3, r3, #1
  4025cc:	6003      	str	r3, [r0, #0]
  4025ce:	6983      	ldr	r3, [r0, #24]
  4025d0:	f013 0f01 	tst.w	r3, #1
  4025d4:	d0fb      	beq.n	4025ce <rtc_set_time+0x6a>
  4025d6:	2301      	movs	r3, #1
  4025d8:	61c3      	str	r3, [r0, #28]
  4025da:	6081      	str	r1, [r0, #8]
  4025dc:	6803      	ldr	r3, [r0, #0]
  4025de:	f023 0301 	bic.w	r3, r3, #1
  4025e2:	6003      	str	r3, [r0, #0]
  4025e4:	6ac0      	ldr	r0, [r0, #44]	; 0x2c
  4025e6:	f000 0001 	and.w	r0, r0, #1
  4025ea:	bcf0      	pop	{r4, r5, r6, r7}
  4025ec:	4770      	bx	lr
  4025ee:	2700      	movs	r7, #0
  4025f0:	e7c4      	b.n	40257c <rtc_set_time+0x18>
  4025f2:	bf00      	nop
  4025f4:	cccccccd 	.word	0xcccccccd

004025f8 <rtc_get_date>:
  4025f8:	b4f0      	push	{r4, r5, r6, r7}
  4025fa:	9e04      	ldr	r6, [sp, #16]
  4025fc:	68c5      	ldr	r5, [r0, #12]
  4025fe:	68c4      	ldr	r4, [r0, #12]
  402600:	42a5      	cmp	r5, r4
  402602:	d003      	beq.n	40260c <rtc_get_date+0x14>
  402604:	68c5      	ldr	r5, [r0, #12]
  402606:	68c4      	ldr	r4, [r0, #12]
  402608:	42ac      	cmp	r4, r5
  40260a:	d1fb      	bne.n	402604 <rtc_get_date+0xc>
  40260c:	b199      	cbz	r1, 402636 <rtc_get_date+0x3e>
  40260e:	f3c4 3003 	ubfx	r0, r4, #12, #4
  402612:	eb00 0080 	add.w	r0, r0, r0, lsl #2
  402616:	f3c4 2703 	ubfx	r7, r4, #8, #4
  40261a:	eb07 0740 	add.w	r7, r7, r0, lsl #1
  40261e:	f3c4 1002 	ubfx	r0, r4, #4, #3
  402622:	eb00 0580 	add.w	r5, r0, r0, lsl #2
  402626:	f004 000f 	and.w	r0, r4, #15
  40262a:	eb00 0045 	add.w	r0, r0, r5, lsl #1
  40262e:	2564      	movs	r5, #100	; 0x64
  402630:	fb05 7000 	mla	r0, r5, r0, r7
  402634:	6008      	str	r0, [r1, #0]
  402636:	b142      	cbz	r2, 40264a <rtc_get_date+0x52>
  402638:	f3c4 5000 	ubfx	r0, r4, #20, #1
  40263c:	0081      	lsls	r1, r0, #2
  40263e:	4408      	add	r0, r1
  402640:	f3c4 4103 	ubfx	r1, r4, #16, #4
  402644:	eb01 0140 	add.w	r1, r1, r0, lsl #1
  402648:	6011      	str	r1, [r2, #0]
  40264a:	b143      	cbz	r3, 40265e <rtc_get_date+0x66>
  40264c:	f3c4 7201 	ubfx	r2, r4, #28, #2
  402650:	eb02 0282 	add.w	r2, r2, r2, lsl #2
  402654:	f3c4 6103 	ubfx	r1, r4, #24, #4
  402658:	eb01 0242 	add.w	r2, r1, r2, lsl #1
  40265c:	601a      	str	r2, [r3, #0]
  40265e:	b116      	cbz	r6, 402666 <rtc_get_date+0x6e>
  402660:	f3c4 5442 	ubfx	r4, r4, #21, #3
  402664:	6034      	str	r4, [r6, #0]
  402666:	bcf0      	pop	{r4, r5, r6, r7}
  402668:	4770      	bx	lr
	...

0040266c <rtc_set_date>:
  40266c:	b470      	push	{r4, r5, r6}
  40266e:	4d2a      	ldr	r5, [pc, #168]	; (402718 <rtc_set_date+0xac>)
  402670:	fba5 4603 	umull	r4, r6, r5, r3
  402674:	08f6      	lsrs	r6, r6, #3
  402676:	9c03      	ldr	r4, [sp, #12]
  402678:	0564      	lsls	r4, r4, #21
  40267a:	ea44 7406 	orr.w	r4, r4, r6, lsl #28
  40267e:	eb06 0686 	add.w	r6, r6, r6, lsl #2
  402682:	eba3 0346 	sub.w	r3, r3, r6, lsl #1
  402686:	ea44 6303 	orr.w	r3, r4, r3, lsl #24
  40268a:	fba5 6402 	umull	r6, r4, r5, r2
  40268e:	08e4      	lsrs	r4, r4, #3
  402690:	ea43 5304 	orr.w	r3, r3, r4, lsl #20
  402694:	eb04 0484 	add.w	r4, r4, r4, lsl #2
  402698:	eba2 0244 	sub.w	r2, r2, r4, lsl #1
  40269c:	ea43 4202 	orr.w	r2, r3, r2, lsl #16
  4026a0:	4b1e      	ldr	r3, [pc, #120]	; (40271c <rtc_set_date+0xb0>)
  4026a2:	fba3 4301 	umull	r4, r3, r3, r1
  4026a6:	099b      	lsrs	r3, r3, #6
  4026a8:	ea42 1203 	orr.w	r2, r2, r3, lsl #4
  4026ac:	4b1c      	ldr	r3, [pc, #112]	; (402720 <rtc_set_date+0xb4>)
  4026ae:	fba3 4301 	umull	r4, r3, r3, r1
  4026b2:	095b      	lsrs	r3, r3, #5
  4026b4:	fba5 6403 	umull	r6, r4, r5, r3
  4026b8:	08e4      	lsrs	r4, r4, #3
  4026ba:	eb04 0484 	add.w	r4, r4, r4, lsl #2
  4026be:	eba3 0344 	sub.w	r3, r3, r4, lsl #1
  4026c2:	431a      	orrs	r2, r3
  4026c4:	fba5 4301 	umull	r4, r3, r5, r1
  4026c8:	08db      	lsrs	r3, r3, #3
  4026ca:	eb03 0483 	add.w	r4, r3, r3, lsl #2
  4026ce:	eba1 0144 	sub.w	r1, r1, r4, lsl #1
  4026d2:	ea42 2201 	orr.w	r2, r2, r1, lsl #8
  4026d6:	fba5 1503 	umull	r1, r5, r5, r3
  4026da:	08ed      	lsrs	r5, r5, #3
  4026dc:	eb05 0585 	add.w	r5, r5, r5, lsl #2
  4026e0:	eba3 0545 	sub.w	r5, r3, r5, lsl #1
  4026e4:	ea42 3205 	orr.w	r2, r2, r5, lsl #12
  4026e8:	6983      	ldr	r3, [r0, #24]
  4026ea:	f013 0f04 	tst.w	r3, #4
  4026ee:	d0fb      	beq.n	4026e8 <rtc_set_date+0x7c>
  4026f0:	6803      	ldr	r3, [r0, #0]
  4026f2:	f043 0302 	orr.w	r3, r3, #2
  4026f6:	6003      	str	r3, [r0, #0]
  4026f8:	6983      	ldr	r3, [r0, #24]
  4026fa:	f013 0f01 	tst.w	r3, #1
  4026fe:	d0fb      	beq.n	4026f8 <rtc_set_date+0x8c>
  402700:	2301      	movs	r3, #1
  402702:	61c3      	str	r3, [r0, #28]
  402704:	60c2      	str	r2, [r0, #12]
  402706:	6803      	ldr	r3, [r0, #0]
  402708:	f023 0302 	bic.w	r3, r3, #2
  40270c:	6003      	str	r3, [r0, #0]
  40270e:	6ac0      	ldr	r0, [r0, #44]	; 0x2c
  402710:	f000 0002 	and.w	r0, r0, #2
  402714:	bc70      	pop	{r4, r5, r6}
  402716:	4770      	bx	lr
  402718:	cccccccd 	.word	0xcccccccd
  40271c:	10624dd3 	.word	0x10624dd3
  402720:	51eb851f 	.word	0x51eb851f

00402724 <spi_enable_clock>:
  402724:	b508      	push	{r3, lr}
  402726:	2015      	movs	r0, #21
  402728:	4b01      	ldr	r3, [pc, #4]	; (402730 <spi_enable_clock+0xc>)
  40272a:	4798      	blx	r3
  40272c:	bd08      	pop	{r3, pc}
  40272e:	bf00      	nop
  402730:	004024a1 	.word	0x004024a1

00402734 <spi_set_peripheral_chip_select_value>:
  402734:	6843      	ldr	r3, [r0, #4]
  402736:	f423 2370 	bic.w	r3, r3, #983040	; 0xf0000
  40273a:	6043      	str	r3, [r0, #4]
  40273c:	6843      	ldr	r3, [r0, #4]
  40273e:	0409      	lsls	r1, r1, #16
  402740:	f401 2170 	and.w	r1, r1, #983040	; 0xf0000
  402744:	4319      	orrs	r1, r3
  402746:	6041      	str	r1, [r0, #4]
  402748:	4770      	bx	lr

0040274a <spi_set_delay_between_chip_select>:
  40274a:	6843      	ldr	r3, [r0, #4]
  40274c:	f023 437f 	bic.w	r3, r3, #4278190080	; 0xff000000
  402750:	6043      	str	r3, [r0, #4]
  402752:	6843      	ldr	r3, [r0, #4]
  402754:	ea43 6101 	orr.w	r1, r3, r1, lsl #24
  402758:	6041      	str	r1, [r0, #4]
  40275a:	4770      	bx	lr

0040275c <spi_set_clock_polarity>:
  40275c:	b932      	cbnz	r2, 40276c <spi_set_clock_polarity+0x10>
  40275e:	eb00 0081 	add.w	r0, r0, r1, lsl #2
  402762:	6b03      	ldr	r3, [r0, #48]	; 0x30
  402764:	f023 0301 	bic.w	r3, r3, #1
  402768:	6303      	str	r3, [r0, #48]	; 0x30
  40276a:	4770      	bx	lr
  40276c:	eb00 0081 	add.w	r0, r0, r1, lsl #2
  402770:	6b03      	ldr	r3, [r0, #48]	; 0x30
  402772:	f043 0301 	orr.w	r3, r3, #1
  402776:	6303      	str	r3, [r0, #48]	; 0x30
  402778:	4770      	bx	lr

0040277a <spi_set_clock_phase>:
  40277a:	b932      	cbnz	r2, 40278a <spi_set_clock_phase+0x10>
  40277c:	eb00 0081 	add.w	r0, r0, r1, lsl #2
  402780:	6b03      	ldr	r3, [r0, #48]	; 0x30
  402782:	f023 0302 	bic.w	r3, r3, #2
  402786:	6303      	str	r3, [r0, #48]	; 0x30
  402788:	4770      	bx	lr
  40278a:	eb00 0081 	add.w	r0, r0, r1, lsl #2
  40278e:	6b03      	ldr	r3, [r0, #48]	; 0x30
  402790:	f043 0302 	orr.w	r3, r3, #2
  402794:	6303      	str	r3, [r0, #48]	; 0x30
  402796:	4770      	bx	lr

00402798 <spi_configure_cs_behavior>:
  402798:	2a04      	cmp	r2, #4
  40279a:	d003      	beq.n	4027a4 <spi_configure_cs_behavior+0xc>
  40279c:	b16a      	cbz	r2, 4027ba <spi_configure_cs_behavior+0x22>
  40279e:	2a08      	cmp	r2, #8
  4027a0:	d016      	beq.n	4027d0 <spi_configure_cs_behavior+0x38>
  4027a2:	4770      	bx	lr
  4027a4:	eb00 0081 	add.w	r0, r0, r1, lsl #2
  4027a8:	6b03      	ldr	r3, [r0, #48]	; 0x30
  4027aa:	f023 0308 	bic.w	r3, r3, #8
  4027ae:	6303      	str	r3, [r0, #48]	; 0x30
  4027b0:	6b03      	ldr	r3, [r0, #48]	; 0x30
  4027b2:	f043 0304 	orr.w	r3, r3, #4
  4027b6:	6303      	str	r3, [r0, #48]	; 0x30
  4027b8:	4770      	bx	lr
  4027ba:	eb00 0081 	add.w	r0, r0, r1, lsl #2
  4027be:	6b03      	ldr	r3, [r0, #48]	; 0x30
  4027c0:	f023 0308 	bic.w	r3, r3, #8
  4027c4:	6303      	str	r3, [r0, #48]	; 0x30
  4027c6:	6b03      	ldr	r3, [r0, #48]	; 0x30
  4027c8:	f023 0304 	bic.w	r3, r3, #4
  4027cc:	6303      	str	r3, [r0, #48]	; 0x30
  4027ce:	4770      	bx	lr
  4027d0:	eb00 0081 	add.w	r0, r0, r1, lsl #2
  4027d4:	6b03      	ldr	r3, [r0, #48]	; 0x30
  4027d6:	f043 0308 	orr.w	r3, r3, #8
  4027da:	6303      	str	r3, [r0, #48]	; 0x30
  4027dc:	e7e1      	b.n	4027a2 <spi_configure_cs_behavior+0xa>

004027de <spi_set_bits_per_transfer>:
  4027de:	eb00 0181 	add.w	r1, r0, r1, lsl #2
  4027e2:	6b0b      	ldr	r3, [r1, #48]	; 0x30
  4027e4:	f023 03f0 	bic.w	r3, r3, #240	; 0xf0
  4027e8:	630b      	str	r3, [r1, #48]	; 0x30
  4027ea:	6b0b      	ldr	r3, [r1, #48]	; 0x30
  4027ec:	431a      	orrs	r2, r3
  4027ee:	630a      	str	r2, [r1, #48]	; 0x30
  4027f0:	4770      	bx	lr

004027f2 <spi_calc_baudrate_div>:
  4027f2:	1e43      	subs	r3, r0, #1
  4027f4:	4419      	add	r1, r3
  4027f6:	fbb1 f0f0 	udiv	r0, r1, r0
  4027fa:	1e43      	subs	r3, r0, #1
  4027fc:	2bfe      	cmp	r3, #254	; 0xfe
  4027fe:	bf94      	ite	ls
  402800:	b200      	sxthls	r0, r0
  402802:	f04f 30ff 	movhi.w	r0, #4294967295
  402806:	4770      	bx	lr

00402808 <spi_set_baudrate_div>:
  402808:	b172      	cbz	r2, 402828 <spi_set_baudrate_div+0x20>
  40280a:	b410      	push	{r4}
  40280c:	4614      	mov	r4, r2
  40280e:	eb00 0181 	add.w	r1, r0, r1, lsl #2
  402812:	6b0b      	ldr	r3, [r1, #48]	; 0x30
  402814:	f423 437f 	bic.w	r3, r3, #65280	; 0xff00
  402818:	630b      	str	r3, [r1, #48]	; 0x30
  40281a:	6b0a      	ldr	r2, [r1, #48]	; 0x30
  40281c:	ea42 2204 	orr.w	r2, r2, r4, lsl #8
  402820:	630a      	str	r2, [r1, #48]	; 0x30
  402822:	2000      	movs	r0, #0
  402824:	bc10      	pop	{r4}
  402826:	4770      	bx	lr
  402828:	f04f 30ff 	mov.w	r0, #4294967295
  40282c:	4770      	bx	lr

0040282e <spi_set_transfer_delay>:
  40282e:	b410      	push	{r4}
  402830:	eb00 0181 	add.w	r1, r0, r1, lsl #2
  402834:	6b08      	ldr	r0, [r1, #48]	; 0x30
  402836:	b280      	uxth	r0, r0
  402838:	6308      	str	r0, [r1, #48]	; 0x30
  40283a:	6b0c      	ldr	r4, [r1, #48]	; 0x30
  40283c:	ea44 6303 	orr.w	r3, r4, r3, lsl #24
  402840:	ea43 4302 	orr.w	r3, r3, r2, lsl #16
  402844:	630b      	str	r3, [r1, #48]	; 0x30
  402846:	bc10      	pop	{r4}
  402848:	4770      	bx	lr
	...

0040284c <twi_set_speed>:
  40284c:	4b2a      	ldr	r3, [pc, #168]	; (4028f8 <twi_set_speed+0xac>)
  40284e:	4299      	cmp	r1, r3
  402850:	d849      	bhi.n	4028e6 <twi_set_speed+0x9a>
  402852:	f5a3 537a 	sub.w	r3, r3, #16000	; 0x3e80
  402856:	4299      	cmp	r1, r3
  402858:	d92b      	bls.n	4028b2 <twi_set_speed+0x66>
  40285a:	b410      	push	{r4}
  40285c:	4c27      	ldr	r4, [pc, #156]	; (4028fc <twi_set_speed+0xb0>)
  40285e:	fba4 3402 	umull	r3, r4, r4, r2
  402862:	0ba4      	lsrs	r4, r4, #14
  402864:	3c04      	subs	r4, #4
  402866:	4b26      	ldr	r3, [pc, #152]	; (402900 <twi_set_speed+0xb4>)
  402868:	440b      	add	r3, r1
  40286a:	009b      	lsls	r3, r3, #2
  40286c:	fbb2 f2f3 	udiv	r2, r2, r3
  402870:	3a04      	subs	r2, #4
  402872:	2cff      	cmp	r4, #255	; 0xff
  402874:	d939      	bls.n	4028ea <twi_set_speed+0x9e>
  402876:	2100      	movs	r1, #0
  402878:	3101      	adds	r1, #1
  40287a:	0864      	lsrs	r4, r4, #1
  40287c:	2cff      	cmp	r4, #255	; 0xff
  40287e:	d90d      	bls.n	40289c <twi_set_speed+0x50>
  402880:	2907      	cmp	r1, #7
  402882:	d1f9      	bne.n	402878 <twi_set_speed+0x2c>
  402884:	0213      	lsls	r3, r2, #8
  402886:	b29b      	uxth	r3, r3
  402888:	0409      	lsls	r1, r1, #16
  40288a:	f401 21e0 	and.w	r1, r1, #458752	; 0x70000
  40288e:	430b      	orrs	r3, r1
  402890:	b2e4      	uxtb	r4, r4
  402892:	4323      	orrs	r3, r4
  402894:	6103      	str	r3, [r0, #16]
  402896:	2000      	movs	r0, #0
  402898:	bc10      	pop	{r4}
  40289a:	4770      	bx	lr
  40289c:	2aff      	cmp	r2, #255	; 0xff
  40289e:	d9f1      	bls.n	402884 <twi_set_speed+0x38>
  4028a0:	2906      	cmp	r1, #6
  4028a2:	d8ef      	bhi.n	402884 <twi_set_speed+0x38>
  4028a4:	3101      	adds	r1, #1
  4028a6:	0852      	lsrs	r2, r2, #1
  4028a8:	2aff      	cmp	r2, #255	; 0xff
  4028aa:	d9eb      	bls.n	402884 <twi_set_speed+0x38>
  4028ac:	2906      	cmp	r1, #6
  4028ae:	d9f9      	bls.n	4028a4 <twi_set_speed+0x58>
  4028b0:	e7e8      	b.n	402884 <twi_set_speed+0x38>
  4028b2:	0049      	lsls	r1, r1, #1
  4028b4:	fbb2 f2f1 	udiv	r2, r2, r1
  4028b8:	3a04      	subs	r2, #4
  4028ba:	2aff      	cmp	r2, #255	; 0xff
  4028bc:	d911      	bls.n	4028e2 <twi_set_speed+0x96>
  4028be:	2300      	movs	r3, #0
  4028c0:	3301      	adds	r3, #1
  4028c2:	0852      	lsrs	r2, r2, #1
  4028c4:	2aff      	cmp	r2, #255	; 0xff
  4028c6:	d901      	bls.n	4028cc <twi_set_speed+0x80>
  4028c8:	2b07      	cmp	r3, #7
  4028ca:	d1f9      	bne.n	4028c0 <twi_set_speed+0x74>
  4028cc:	0211      	lsls	r1, r2, #8
  4028ce:	b289      	uxth	r1, r1
  4028d0:	041b      	lsls	r3, r3, #16
  4028d2:	f403 23e0 	and.w	r3, r3, #458752	; 0x70000
  4028d6:	430b      	orrs	r3, r1
  4028d8:	b2d2      	uxtb	r2, r2
  4028da:	431a      	orrs	r2, r3
  4028dc:	6102      	str	r2, [r0, #16]
  4028de:	2000      	movs	r0, #0
  4028e0:	4770      	bx	lr
  4028e2:	2300      	movs	r3, #0
  4028e4:	e7f2      	b.n	4028cc <twi_set_speed+0x80>
  4028e6:	2001      	movs	r0, #1
  4028e8:	4770      	bx	lr
  4028ea:	2aff      	cmp	r2, #255	; 0xff
  4028ec:	bf88      	it	hi
  4028ee:	2100      	movhi	r1, #0
  4028f0:	d8d8      	bhi.n	4028a4 <twi_set_speed+0x58>
  4028f2:	2100      	movs	r1, #0
  4028f4:	e7c6      	b.n	402884 <twi_set_speed+0x38>
  4028f6:	bf00      	nop
  4028f8:	00061a80 	.word	0x00061a80
  4028fc:	057619f1 	.word	0x057619f1
  402900:	3ffd1200 	.word	0x3ffd1200

00402904 <twi_master_init>:
  402904:	b538      	push	{r3, r4, r5, lr}
  402906:	4604      	mov	r4, r0
  402908:	460d      	mov	r5, r1
  40290a:	f04f 33ff 	mov.w	r3, #4294967295
  40290e:	6283      	str	r3, [r0, #40]	; 0x28
  402910:	6a03      	ldr	r3, [r0, #32]
  402912:	2380      	movs	r3, #128	; 0x80
  402914:	6003      	str	r3, [r0, #0]
  402916:	6b03      	ldr	r3, [r0, #48]	; 0x30
  402918:	2308      	movs	r3, #8
  40291a:	6003      	str	r3, [r0, #0]
  40291c:	2320      	movs	r3, #32
  40291e:	6003      	str	r3, [r0, #0]
  402920:	2304      	movs	r3, #4
  402922:	6003      	str	r3, [r0, #0]
  402924:	680a      	ldr	r2, [r1, #0]
  402926:	6849      	ldr	r1, [r1, #4]
  402928:	4b05      	ldr	r3, [pc, #20]	; (402940 <twi_master_init+0x3c>)
  40292a:	4798      	blx	r3
  40292c:	2801      	cmp	r0, #1
  40292e:	bf14      	ite	ne
  402930:	2000      	movne	r0, #0
  402932:	2001      	moveq	r0, #1
  402934:	7a6b      	ldrb	r3, [r5, #9]
  402936:	2b01      	cmp	r3, #1
  402938:	bf04      	itt	eq
  40293a:	2340      	moveq	r3, #64	; 0x40
  40293c:	6023      	streq	r3, [r4, #0]
  40293e:	bd38      	pop	{r3, r4, r5, pc}
  402940:	0040284d 	.word	0x0040284d

00402944 <twi_mk_addr>:
  402944:	460a      	mov	r2, r1
  402946:	b159      	cbz	r1, 402960 <twi_mk_addr+0x1c>
  402948:	7803      	ldrb	r3, [r0, #0]
  40294a:	2901      	cmp	r1, #1
  40294c:	bfc4      	itt	gt
  40294e:	7841      	ldrbgt	r1, [r0, #1]
  402950:	ea41 2303 	orrgt.w	r3, r1, r3, lsl #8
  402954:	2a02      	cmp	r2, #2
  402956:	dd04      	ble.n	402962 <twi_mk_addr+0x1e>
  402958:	7882      	ldrb	r2, [r0, #2]
  40295a:	ea42 2303 	orr.w	r3, r2, r3, lsl #8
  40295e:	e000      	b.n	402962 <twi_mk_addr+0x1e>
  402960:	2300      	movs	r3, #0
  402962:	4618      	mov	r0, r3
  402964:	4770      	bx	lr
	...

00402968 <twi_master_read>:
  402968:	b5f8      	push	{r3, r4, r5, r6, r7, lr}
  40296a:	68cc      	ldr	r4, [r1, #12]
  40296c:	2c00      	cmp	r4, #0
  40296e:	d04f      	beq.n	402a10 <twi_master_read+0xa8>
  402970:	460b      	mov	r3, r1
  402972:	4605      	mov	r5, r0
  402974:	688e      	ldr	r6, [r1, #8]
  402976:	2000      	movs	r0, #0
  402978:	6068      	str	r0, [r5, #4]
  40297a:	684a      	ldr	r2, [r1, #4]
  40297c:	0212      	lsls	r2, r2, #8
  40297e:	f402 7240 	and.w	r2, r2, #768	; 0x300
  402982:	f442 5280 	orr.w	r2, r2, #4096	; 0x1000
  402986:	7c09      	ldrb	r1, [r1, #16]
  402988:	0409      	lsls	r1, r1, #16
  40298a:	f401 01fe 	and.w	r1, r1, #8323072	; 0x7f0000
  40298e:	430a      	orrs	r2, r1
  402990:	606a      	str	r2, [r5, #4]
  402992:	60e8      	str	r0, [r5, #12]
  402994:	6859      	ldr	r1, [r3, #4]
  402996:	4618      	mov	r0, r3
  402998:	4b22      	ldr	r3, [pc, #136]	; (402a24 <twi_master_read+0xbc>)
  40299a:	4798      	blx	r3
  40299c:	60e8      	str	r0, [r5, #12]
  40299e:	2c01      	cmp	r4, #1
  4029a0:	d00f      	beq.n	4029c2 <twi_master_read+0x5a>
  4029a2:	2301      	movs	r3, #1
  4029a4:	602b      	str	r3, [r5, #0]
  4029a6:	2000      	movs	r0, #0
  4029a8:	6a2b      	ldr	r3, [r5, #32]
  4029aa:	f413 7f80 	tst.w	r3, #256	; 0x100
  4029ae:	d136      	bne.n	402a1e <twi_master_read+0xb6>
  4029b0:	f247 512f 	movw	r1, #29999	; 0x752f
  4029b4:	f247 5730 	movw	r7, #30000	; 0x7530
  4029b8:	f04f 0e01 	mov.w	lr, #1
  4029bc:	f04f 0c02 	mov.w	ip, #2
  4029c0:	e019      	b.n	4029f6 <twi_master_read+0x8e>
  4029c2:	2303      	movs	r3, #3
  4029c4:	602b      	str	r3, [r5, #0]
  4029c6:	2001      	movs	r0, #1
  4029c8:	e7ee      	b.n	4029a8 <twi_master_read+0x40>
  4029ca:	460a      	mov	r2, r1
  4029cc:	4670      	mov	r0, lr
  4029ce:	e00c      	b.n	4029ea <twi_master_read+0x82>
  4029d0:	b908      	cbnz	r0, 4029d6 <twi_master_read+0x6e>
  4029d2:	f8c5 c000 	str.w	ip, [r5]
  4029d6:	f013 0f02 	tst.w	r3, #2
  4029da:	d0f6      	beq.n	4029ca <twi_master_read+0x62>
  4029dc:	4670      	mov	r0, lr
  4029de:	6b2b      	ldr	r3, [r5, #48]	; 0x30
  4029e0:	7033      	strb	r3, [r6, #0]
  4029e2:	3c01      	subs	r4, #1
  4029e4:	3601      	adds	r6, #1
  4029e6:	463a      	mov	r2, r7
  4029e8:	b164      	cbz	r4, 402a04 <twi_master_read+0x9c>
  4029ea:	6a2b      	ldr	r3, [r5, #32]
  4029ec:	f413 7f80 	tst.w	r3, #256	; 0x100
  4029f0:	d111      	bne.n	402a16 <twi_master_read+0xae>
  4029f2:	1e51      	subs	r1, r2, #1
  4029f4:	b18a      	cbz	r2, 402a1a <twi_master_read+0xb2>
  4029f6:	2c01      	cmp	r4, #1
  4029f8:	d0ea      	beq.n	4029d0 <twi_master_read+0x68>
  4029fa:	f013 0f02 	tst.w	r3, #2
  4029fe:	d1ee      	bne.n	4029de <twi_master_read+0x76>
  402a00:	460a      	mov	r2, r1
  402a02:	e7f1      	b.n	4029e8 <twi_master_read+0x80>
  402a04:	6a2b      	ldr	r3, [r5, #32]
  402a06:	f013 0f01 	tst.w	r3, #1
  402a0a:	d0fb      	beq.n	402a04 <twi_master_read+0x9c>
  402a0c:	6a2b      	ldr	r3, [r5, #32]
  402a0e:	e000      	b.n	402a12 <twi_master_read+0xaa>
  402a10:	2401      	movs	r4, #1
  402a12:	4620      	mov	r0, r4
  402a14:	bdf8      	pop	{r3, r4, r5, r6, r7, pc}
  402a16:	2405      	movs	r4, #5
  402a18:	e7fb      	b.n	402a12 <twi_master_read+0xaa>
  402a1a:	2409      	movs	r4, #9
  402a1c:	e7f9      	b.n	402a12 <twi_master_read+0xaa>
  402a1e:	2405      	movs	r4, #5
  402a20:	e7f7      	b.n	402a12 <twi_master_read+0xaa>
  402a22:	bf00      	nop
  402a24:	00402945 	.word	0x00402945

00402a28 <uart_init>:
  402a28:	b410      	push	{r4}
  402a2a:	23ac      	movs	r3, #172	; 0xac
  402a2c:	6003      	str	r3, [r0, #0]
  402a2e:	680b      	ldr	r3, [r1, #0]
  402a30:	684a      	ldr	r2, [r1, #4]
  402a32:	fbb3 f3f2 	udiv	r3, r3, r2
  402a36:	091b      	lsrs	r3, r3, #4
  402a38:	1e5c      	subs	r4, r3, #1
  402a3a:	f64f 72fe 	movw	r2, #65534	; 0xfffe
  402a3e:	4294      	cmp	r4, r2
  402a40:	d80b      	bhi.n	402a5a <uart_init+0x32>
  402a42:	6203      	str	r3, [r0, #32]
  402a44:	688b      	ldr	r3, [r1, #8]
  402a46:	6043      	str	r3, [r0, #4]
  402a48:	f240 2302 	movw	r3, #514	; 0x202
  402a4c:	f8c0 3120 	str.w	r3, [r0, #288]	; 0x120
  402a50:	2350      	movs	r3, #80	; 0x50
  402a52:	6003      	str	r3, [r0, #0]
  402a54:	2000      	movs	r0, #0
  402a56:	bc10      	pop	{r4}
  402a58:	4770      	bx	lr
  402a5a:	2001      	movs	r0, #1
  402a5c:	e7fb      	b.n	402a56 <uart_init+0x2e>

00402a5e <uart_enable_tx>:
  402a5e:	2340      	movs	r3, #64	; 0x40
  402a60:	6003      	str	r3, [r0, #0]
  402a62:	4770      	bx	lr

00402a64 <uart_enable_rx>:
  402a64:	2310      	movs	r3, #16
  402a66:	6003      	str	r3, [r0, #0]
  402a68:	4770      	bx	lr

00402a6a <uart_get_status>:
  402a6a:	6940      	ldr	r0, [r0, #20]
  402a6c:	4770      	bx	lr

00402a6e <uart_write>:
  402a6e:	6943      	ldr	r3, [r0, #20]
  402a70:	f013 0f02 	tst.w	r3, #2
  402a74:	bf1a      	itte	ne
  402a76:	61c1      	strne	r1, [r0, #28]
  402a78:	2000      	movne	r0, #0
  402a7a:	2001      	moveq	r0, #1
  402a7c:	4770      	bx	lr

00402a7e <uart_read>:
  402a7e:	6943      	ldr	r3, [r0, #20]
  402a80:	f013 0f01 	tst.w	r3, #1
  402a84:	bf1d      	ittte	ne
  402a86:	6983      	ldrne	r3, [r0, #24]
  402a88:	700b      	strbne	r3, [r1, #0]
  402a8a:	2000      	movne	r0, #0
  402a8c:	2001      	moveq	r0, #1
  402a8e:	4770      	bx	lr

00402a90 <usart_set_async_baudrate>:
  402a90:	b410      	push	{r4}
  402a92:	010b      	lsls	r3, r1, #4
  402a94:	4293      	cmp	r3, r2
  402a96:	d914      	bls.n	402ac2 <usart_set_async_baudrate+0x32>
  402a98:	00c9      	lsls	r1, r1, #3
  402a9a:	084b      	lsrs	r3, r1, #1
  402a9c:	eb03 02c2 	add.w	r2, r3, r2, lsl #3
  402aa0:	fbb2 f2f1 	udiv	r2, r2, r1
  402aa4:	08d3      	lsrs	r3, r2, #3
  402aa6:	1e5c      	subs	r4, r3, #1
  402aa8:	f64f 71fe 	movw	r1, #65534	; 0xfffe
  402aac:	428c      	cmp	r4, r1
  402aae:	d901      	bls.n	402ab4 <usart_set_async_baudrate+0x24>
  402ab0:	2001      	movs	r0, #1
  402ab2:	e017      	b.n	402ae4 <usart_set_async_baudrate+0x54>
  402ab4:	6841      	ldr	r1, [r0, #4]
  402ab6:	f441 2100 	orr.w	r1, r1, #524288	; 0x80000
  402aba:	6041      	str	r1, [r0, #4]
  402abc:	e00c      	b.n	402ad8 <usart_set_async_baudrate+0x48>
  402abe:	2001      	movs	r0, #1
  402ac0:	e010      	b.n	402ae4 <usart_set_async_baudrate+0x54>
  402ac2:	0859      	lsrs	r1, r3, #1
  402ac4:	eb01 02c2 	add.w	r2, r1, r2, lsl #3
  402ac8:	fbb2 f2f3 	udiv	r2, r2, r3
  402acc:	08d3      	lsrs	r3, r2, #3
  402ace:	1e5c      	subs	r4, r3, #1
  402ad0:	f64f 71fe 	movw	r1, #65534	; 0xfffe
  402ad4:	428c      	cmp	r4, r1
  402ad6:	d8f2      	bhi.n	402abe <usart_set_async_baudrate+0x2e>
  402ad8:	0412      	lsls	r2, r2, #16
  402ada:	f402 22e0 	and.w	r2, r2, #458752	; 0x70000
  402ade:	431a      	orrs	r2, r3
  402ae0:	6202      	str	r2, [r0, #32]
  402ae2:	2000      	movs	r0, #0
  402ae4:	bc10      	pop	{r4}
  402ae6:	4770      	bx	lr

00402ae8 <usart_reset>:
  402ae8:	4b0a      	ldr	r3, [pc, #40]	; (402b14 <usart_reset+0x2c>)
  402aea:	f8c0 30e4 	str.w	r3, [r0, #228]	; 0xe4
  402aee:	2300      	movs	r3, #0
  402af0:	6043      	str	r3, [r0, #4]
  402af2:	6243      	str	r3, [r0, #36]	; 0x24
  402af4:	6283      	str	r3, [r0, #40]	; 0x28
  402af6:	2388      	movs	r3, #136	; 0x88
  402af8:	6003      	str	r3, [r0, #0]
  402afa:	2324      	movs	r3, #36	; 0x24
  402afc:	6003      	str	r3, [r0, #0]
  402afe:	f44f 7380 	mov.w	r3, #256	; 0x100
  402b02:	6003      	str	r3, [r0, #0]
  402b04:	f44f 2300 	mov.w	r3, #524288	; 0x80000
  402b08:	6003      	str	r3, [r0, #0]
  402b0a:	f44f 3300 	mov.w	r3, #131072	; 0x20000
  402b0e:	6003      	str	r3, [r0, #0]
  402b10:	4770      	bx	lr
  402b12:	bf00      	nop
  402b14:	55534100 	.word	0x55534100

00402b18 <usart_init_rs232>:
  402b18:	b570      	push	{r4, r5, r6, lr}
  402b1a:	4605      	mov	r5, r0
  402b1c:	460c      	mov	r4, r1
  402b1e:	4616      	mov	r6, r2
  402b20:	4b0f      	ldr	r3, [pc, #60]	; (402b60 <usart_init_rs232+0x48>)
  402b22:	4798      	blx	r3
  402b24:	2200      	movs	r2, #0
  402b26:	4b0f      	ldr	r3, [pc, #60]	; (402b64 <usart_init_rs232+0x4c>)
  402b28:	601a      	str	r2, [r3, #0]
  402b2a:	b1a4      	cbz	r4, 402b56 <usart_init_rs232+0x3e>
  402b2c:	4632      	mov	r2, r6
  402b2e:	6821      	ldr	r1, [r4, #0]
  402b30:	4628      	mov	r0, r5
  402b32:	4b0d      	ldr	r3, [pc, #52]	; (402b68 <usart_init_rs232+0x50>)
  402b34:	4798      	blx	r3
  402b36:	4602      	mov	r2, r0
  402b38:	b978      	cbnz	r0, 402b5a <usart_init_rs232+0x42>
  402b3a:	6863      	ldr	r3, [r4, #4]
  402b3c:	68a1      	ldr	r1, [r4, #8]
  402b3e:	430b      	orrs	r3, r1
  402b40:	6921      	ldr	r1, [r4, #16]
  402b42:	430b      	orrs	r3, r1
  402b44:	68e1      	ldr	r1, [r4, #12]
  402b46:	430b      	orrs	r3, r1
  402b48:	4906      	ldr	r1, [pc, #24]	; (402b64 <usart_init_rs232+0x4c>)
  402b4a:	600b      	str	r3, [r1, #0]
  402b4c:	6869      	ldr	r1, [r5, #4]
  402b4e:	430b      	orrs	r3, r1
  402b50:	606b      	str	r3, [r5, #4]
  402b52:	4610      	mov	r0, r2
  402b54:	bd70      	pop	{r4, r5, r6, pc}
  402b56:	2201      	movs	r2, #1
  402b58:	e7fb      	b.n	402b52 <usart_init_rs232+0x3a>
  402b5a:	2201      	movs	r2, #1
  402b5c:	e7f9      	b.n	402b52 <usart_init_rs232+0x3a>
  402b5e:	bf00      	nop
  402b60:	00402ae9 	.word	0x00402ae9
  402b64:	20000b54 	.word	0x20000b54
  402b68:	00402a91 	.word	0x00402a91

00402b6c <usart_enable_tx>:
  402b6c:	2340      	movs	r3, #64	; 0x40
  402b6e:	6003      	str	r3, [r0, #0]
  402b70:	4770      	bx	lr

00402b72 <usart_enable_rx>:
  402b72:	2310      	movs	r3, #16
  402b74:	6003      	str	r3, [r0, #0]
  402b76:	4770      	bx	lr

00402b78 <usart_get_status>:
  402b78:	6940      	ldr	r0, [r0, #20]
  402b7a:	4770      	bx	lr

00402b7c <usart_write>:
  402b7c:	6943      	ldr	r3, [r0, #20]
  402b7e:	f013 0f02 	tst.w	r3, #2
  402b82:	bf1d      	ittte	ne
  402b84:	f3c1 0108 	ubfxne	r1, r1, #0, #9
  402b88:	61c1      	strne	r1, [r0, #28]
  402b8a:	2000      	movne	r0, #0
  402b8c:	2001      	moveq	r0, #1
  402b8e:	4770      	bx	lr

00402b90 <usart_read>:
  402b90:	6943      	ldr	r3, [r0, #20]
  402b92:	f013 0f01 	tst.w	r3, #1
  402b96:	d005      	beq.n	402ba4 <usart_read+0x14>
  402b98:	6983      	ldr	r3, [r0, #24]
  402b9a:	f3c3 0308 	ubfx	r3, r3, #0, #9
  402b9e:	600b      	str	r3, [r1, #0]
  402ba0:	2000      	movs	r0, #0
  402ba2:	4770      	bx	lr
  402ba4:	2001      	movs	r0, #1
  402ba6:	4770      	bx	lr

00402ba8 <wdt_disable>:
  402ba8:	f44f 4300 	mov.w	r3, #32768	; 0x8000
  402bac:	6043      	str	r3, [r0, #4]
  402bae:	4770      	bx	lr

00402bb0 <Dummy_Handler>:
  402bb0:	e7fe      	b.n	402bb0 <Dummy_Handler>
	...

00402bb4 <Reset_Handler>:
  402bb4:	b508      	push	{r3, lr}
  402bb6:	4b21      	ldr	r3, [pc, #132]	; (402c3c <Reset_Handler+0x88>)
  402bb8:	4a21      	ldr	r2, [pc, #132]	; (402c40 <Reset_Handler+0x8c>)
  402bba:	429a      	cmp	r2, r3
  402bbc:	d928      	bls.n	402c10 <Reset_Handler+0x5c>
  402bbe:	4b21      	ldr	r3, [pc, #132]	; (402c44 <Reset_Handler+0x90>)
  402bc0:	4a1e      	ldr	r2, [pc, #120]	; (402c3c <Reset_Handler+0x88>)
  402bc2:	429a      	cmp	r2, r3
  402bc4:	d20c      	bcs.n	402be0 <Reset_Handler+0x2c>
  402bc6:	3b01      	subs	r3, #1
  402bc8:	1a9b      	subs	r3, r3, r2
  402bca:	f023 0303 	bic.w	r3, r3, #3
  402bce:	3304      	adds	r3, #4
  402bd0:	4413      	add	r3, r2
  402bd2:	491b      	ldr	r1, [pc, #108]	; (402c40 <Reset_Handler+0x8c>)
  402bd4:	f851 0b04 	ldr.w	r0, [r1], #4
  402bd8:	f842 0b04 	str.w	r0, [r2], #4
  402bdc:	429a      	cmp	r2, r3
  402bde:	d1f9      	bne.n	402bd4 <Reset_Handler+0x20>
  402be0:	bf00      	nop
  402be2:	4b19      	ldr	r3, [pc, #100]	; (402c48 <Reset_Handler+0x94>)
  402be4:	4a19      	ldr	r2, [pc, #100]	; (402c4c <Reset_Handler+0x98>)
  402be6:	429a      	cmp	r2, r3
  402be8:	d20a      	bcs.n	402c00 <Reset_Handler+0x4c>
  402bea:	3b01      	subs	r3, #1
  402bec:	1a9b      	subs	r3, r3, r2
  402bee:	f023 0303 	bic.w	r3, r3, #3
  402bf2:	3304      	adds	r3, #4
  402bf4:	4413      	add	r3, r2
  402bf6:	2100      	movs	r1, #0
  402bf8:	f842 1b04 	str.w	r1, [r2], #4
  402bfc:	429a      	cmp	r2, r3
  402bfe:	d1fb      	bne.n	402bf8 <Reset_Handler+0x44>
  402c00:	4b13      	ldr	r3, [pc, #76]	; (402c50 <Reset_Handler+0x9c>)
  402c02:	4a14      	ldr	r2, [pc, #80]	; (402c54 <Reset_Handler+0xa0>)
  402c04:	609a      	str	r2, [r3, #8]
  402c06:	4b14      	ldr	r3, [pc, #80]	; (402c58 <Reset_Handler+0xa4>)
  402c08:	4798      	blx	r3
  402c0a:	4b14      	ldr	r3, [pc, #80]	; (402c5c <Reset_Handler+0xa8>)
  402c0c:	4798      	blx	r3
  402c0e:	e7fe      	b.n	402c0e <Reset_Handler+0x5a>
  402c10:	4b0a      	ldr	r3, [pc, #40]	; (402c3c <Reset_Handler+0x88>)
  402c12:	4a0b      	ldr	r2, [pc, #44]	; (402c40 <Reset_Handler+0x8c>)
  402c14:	429a      	cmp	r2, r3
  402c16:	d2e3      	bcs.n	402be0 <Reset_Handler+0x2c>
  402c18:	4b0a      	ldr	r3, [pc, #40]	; (402c44 <Reset_Handler+0x90>)
  402c1a:	4808      	ldr	r0, [pc, #32]	; (402c3c <Reset_Handler+0x88>)
  402c1c:	1a18      	subs	r0, r3, r0
  402c1e:	4611      	mov	r1, r2
  402c20:	3a04      	subs	r2, #4
  402c22:	4402      	add	r2, r0
  402c24:	2800      	cmp	r0, #0
  402c26:	d0db      	beq.n	402be0 <Reset_Handler+0x2c>
  402c28:	f1c1 0104 	rsb	r1, r1, #4
  402c2c:	f852 0904 	ldr.w	r0, [r2], #-4
  402c30:	f843 0d04 	str.w	r0, [r3, #-4]!
  402c34:	42ca      	cmn	r2, r1
  402c36:	d1f9      	bne.n	402c2c <Reset_Handler+0x78>
  402c38:	e7d2      	b.n	402be0 <Reset_Handler+0x2c>
  402c3a:	bf00      	nop
  402c3c:	20000000 	.word	0x20000000
  402c40:	00403c88 	.word	0x00403c88
  402c44:	20000864 	.word	0x20000864
  402c48:	20000c1c 	.word	0x20000c1c
  402c4c:	20000864 	.word	0x20000864
  402c50:	e000ed00 	.word	0xe000ed00
  402c54:	00400000 	.word	0x00400000
  402c58:	00403999 	.word	0x00403999
  402c5c:	00402e41 	.word	0x00402e41

00402c60 <SystemCoreClockUpdate>:
  402c60:	4b3c      	ldr	r3, [pc, #240]	; (402d54 <SystemCoreClockUpdate+0xf4>)
  402c62:	6b1b      	ldr	r3, [r3, #48]	; 0x30
  402c64:	f003 0303 	and.w	r3, r3, #3
  402c68:	2b03      	cmp	r3, #3
  402c6a:	d80e      	bhi.n	402c8a <SystemCoreClockUpdate+0x2a>
  402c6c:	e8df f003 	tbb	[pc, r3]
  402c70:	38381c02 	.word	0x38381c02
  402c74:	4b38      	ldr	r3, [pc, #224]	; (402d58 <SystemCoreClockUpdate+0xf8>)
  402c76:	695b      	ldr	r3, [r3, #20]
  402c78:	f013 0f80 	tst.w	r3, #128	; 0x80
  402c7c:	bf14      	ite	ne
  402c7e:	f44f 4200 	movne.w	r2, #32768	; 0x8000
  402c82:	f44f 42fa 	moveq.w	r2, #32000	; 0x7d00
  402c86:	4b35      	ldr	r3, [pc, #212]	; (402d5c <SystemCoreClockUpdate+0xfc>)
  402c88:	601a      	str	r2, [r3, #0]
  402c8a:	4b32      	ldr	r3, [pc, #200]	; (402d54 <SystemCoreClockUpdate+0xf4>)
  402c8c:	6b1b      	ldr	r3, [r3, #48]	; 0x30
  402c8e:	f003 0370 	and.w	r3, r3, #112	; 0x70
  402c92:	2b70      	cmp	r3, #112	; 0x70
  402c94:	d055      	beq.n	402d42 <SystemCoreClockUpdate+0xe2>
  402c96:	4b2f      	ldr	r3, [pc, #188]	; (402d54 <SystemCoreClockUpdate+0xf4>)
  402c98:	6b1a      	ldr	r2, [r3, #48]	; 0x30
  402c9a:	4930      	ldr	r1, [pc, #192]	; (402d5c <SystemCoreClockUpdate+0xfc>)
  402c9c:	f3c2 1202 	ubfx	r2, r2, #4, #3
  402ca0:	680b      	ldr	r3, [r1, #0]
  402ca2:	40d3      	lsrs	r3, r2
  402ca4:	600b      	str	r3, [r1, #0]
  402ca6:	4770      	bx	lr
  402ca8:	4b2a      	ldr	r3, [pc, #168]	; (402d54 <SystemCoreClockUpdate+0xf4>)
  402caa:	6a1b      	ldr	r3, [r3, #32]
  402cac:	f013 7f80 	tst.w	r3, #16777216	; 0x1000000
  402cb0:	d003      	beq.n	402cba <SystemCoreClockUpdate+0x5a>
  402cb2:	4a2b      	ldr	r2, [pc, #172]	; (402d60 <SystemCoreClockUpdate+0x100>)
  402cb4:	4b29      	ldr	r3, [pc, #164]	; (402d5c <SystemCoreClockUpdate+0xfc>)
  402cb6:	601a      	str	r2, [r3, #0]
  402cb8:	e7e7      	b.n	402c8a <SystemCoreClockUpdate+0x2a>
  402cba:	4a2a      	ldr	r2, [pc, #168]	; (402d64 <SystemCoreClockUpdate+0x104>)
  402cbc:	4b27      	ldr	r3, [pc, #156]	; (402d5c <SystemCoreClockUpdate+0xfc>)
  402cbe:	601a      	str	r2, [r3, #0]
  402cc0:	4b24      	ldr	r3, [pc, #144]	; (402d54 <SystemCoreClockUpdate+0xf4>)
  402cc2:	6a1b      	ldr	r3, [r3, #32]
  402cc4:	f003 0370 	and.w	r3, r3, #112	; 0x70
  402cc8:	2b10      	cmp	r3, #16
  402cca:	d005      	beq.n	402cd8 <SystemCoreClockUpdate+0x78>
  402ccc:	2b20      	cmp	r3, #32
  402cce:	d1dc      	bne.n	402c8a <SystemCoreClockUpdate+0x2a>
  402cd0:	4a23      	ldr	r2, [pc, #140]	; (402d60 <SystemCoreClockUpdate+0x100>)
  402cd2:	4b22      	ldr	r3, [pc, #136]	; (402d5c <SystemCoreClockUpdate+0xfc>)
  402cd4:	601a      	str	r2, [r3, #0]
  402cd6:	e7d8      	b.n	402c8a <SystemCoreClockUpdate+0x2a>
  402cd8:	4a23      	ldr	r2, [pc, #140]	; (402d68 <SystemCoreClockUpdate+0x108>)
  402cda:	4b20      	ldr	r3, [pc, #128]	; (402d5c <SystemCoreClockUpdate+0xfc>)
  402cdc:	601a      	str	r2, [r3, #0]
  402cde:	e7d4      	b.n	402c8a <SystemCoreClockUpdate+0x2a>
  402ce0:	4b1c      	ldr	r3, [pc, #112]	; (402d54 <SystemCoreClockUpdate+0xf4>)
  402ce2:	6a1b      	ldr	r3, [r3, #32]
  402ce4:	f013 7f80 	tst.w	r3, #16777216	; 0x1000000
  402ce8:	d018      	beq.n	402d1c <SystemCoreClockUpdate+0xbc>
  402cea:	4a1d      	ldr	r2, [pc, #116]	; (402d60 <SystemCoreClockUpdate+0x100>)
  402cec:	4b1b      	ldr	r3, [pc, #108]	; (402d5c <SystemCoreClockUpdate+0xfc>)
  402cee:	601a      	str	r2, [r3, #0]
  402cf0:	4b18      	ldr	r3, [pc, #96]	; (402d54 <SystemCoreClockUpdate+0xf4>)
  402cf2:	6b1b      	ldr	r3, [r3, #48]	; 0x30
  402cf4:	f003 0303 	and.w	r3, r3, #3
  402cf8:	2b02      	cmp	r3, #2
  402cfa:	4a16      	ldr	r2, [pc, #88]	; (402d54 <SystemCoreClockUpdate+0xf4>)
  402cfc:	bf07      	ittee	eq
  402cfe:	6a91      	ldreq	r1, [r2, #40]	; 0x28
  402d00:	6a92      	ldreq	r2, [r2, #40]	; 0x28
  402d02:	6ad1      	ldrne	r1, [r2, #44]	; 0x2c
  402d04:	6ad2      	ldrne	r2, [r2, #44]	; 0x2c
  402d06:	4815      	ldr	r0, [pc, #84]	; (402d5c <SystemCoreClockUpdate+0xfc>)
  402d08:	f3c1 410a 	ubfx	r1, r1, #16, #11
  402d0c:	6803      	ldr	r3, [r0, #0]
  402d0e:	fb01 3303 	mla	r3, r1, r3, r3
  402d12:	b2d2      	uxtb	r2, r2
  402d14:	fbb3 f3f2 	udiv	r3, r3, r2
  402d18:	6003      	str	r3, [r0, #0]
  402d1a:	e7b6      	b.n	402c8a <SystemCoreClockUpdate+0x2a>
  402d1c:	4a11      	ldr	r2, [pc, #68]	; (402d64 <SystemCoreClockUpdate+0x104>)
  402d1e:	4b0f      	ldr	r3, [pc, #60]	; (402d5c <SystemCoreClockUpdate+0xfc>)
  402d20:	601a      	str	r2, [r3, #0]
  402d22:	4b0c      	ldr	r3, [pc, #48]	; (402d54 <SystemCoreClockUpdate+0xf4>)
  402d24:	6a1b      	ldr	r3, [r3, #32]
  402d26:	f003 0370 	and.w	r3, r3, #112	; 0x70
  402d2a:	2b10      	cmp	r3, #16
  402d2c:	d005      	beq.n	402d3a <SystemCoreClockUpdate+0xda>
  402d2e:	2b20      	cmp	r3, #32
  402d30:	d1de      	bne.n	402cf0 <SystemCoreClockUpdate+0x90>
  402d32:	4a0b      	ldr	r2, [pc, #44]	; (402d60 <SystemCoreClockUpdate+0x100>)
  402d34:	4b09      	ldr	r3, [pc, #36]	; (402d5c <SystemCoreClockUpdate+0xfc>)
  402d36:	601a      	str	r2, [r3, #0]
  402d38:	e7da      	b.n	402cf0 <SystemCoreClockUpdate+0x90>
  402d3a:	4a0b      	ldr	r2, [pc, #44]	; (402d68 <SystemCoreClockUpdate+0x108>)
  402d3c:	4b07      	ldr	r3, [pc, #28]	; (402d5c <SystemCoreClockUpdate+0xfc>)
  402d3e:	601a      	str	r2, [r3, #0]
  402d40:	e7d6      	b.n	402cf0 <SystemCoreClockUpdate+0x90>
  402d42:	4a06      	ldr	r2, [pc, #24]	; (402d5c <SystemCoreClockUpdate+0xfc>)
  402d44:	6813      	ldr	r3, [r2, #0]
  402d46:	4909      	ldr	r1, [pc, #36]	; (402d6c <SystemCoreClockUpdate+0x10c>)
  402d48:	fba1 1303 	umull	r1, r3, r1, r3
  402d4c:	085b      	lsrs	r3, r3, #1
  402d4e:	6013      	str	r3, [r2, #0]
  402d50:	4770      	bx	lr
  402d52:	bf00      	nop
  402d54:	400e0400 	.word	0x400e0400
  402d58:	400e1410 	.word	0x400e1410
  402d5c:	20000430 	.word	0x20000430
  402d60:	00b71b00 	.word	0x00b71b00
  402d64:	003d0900 	.word	0x003d0900
  402d68:	007a1200 	.word	0x007a1200
  402d6c:	aaaaaaab 	.word	0xaaaaaaab

00402d70 <system_init_flash>:
  402d70:	4b1a      	ldr	r3, [pc, #104]	; (402ddc <system_init_flash+0x6c>)
  402d72:	4298      	cmp	r0, r3
  402d74:	d914      	bls.n	402da0 <system_init_flash+0x30>
  402d76:	4b1a      	ldr	r3, [pc, #104]	; (402de0 <system_init_flash+0x70>)
  402d78:	4298      	cmp	r0, r3
  402d7a:	d919      	bls.n	402db0 <system_init_flash+0x40>
  402d7c:	4b19      	ldr	r3, [pc, #100]	; (402de4 <system_init_flash+0x74>)
  402d7e:	4298      	cmp	r0, r3
  402d80:	d91d      	bls.n	402dbe <system_init_flash+0x4e>
  402d82:	4b19      	ldr	r3, [pc, #100]	; (402de8 <system_init_flash+0x78>)
  402d84:	4298      	cmp	r0, r3
  402d86:	d921      	bls.n	402dcc <system_init_flash+0x5c>
  402d88:	4b18      	ldr	r3, [pc, #96]	; (402dec <system_init_flash+0x7c>)
  402d8a:	4298      	cmp	r0, r3
  402d8c:	bf94      	ite	ls
  402d8e:	f04f 2304 	movls.w	r3, #67109888	; 0x4000400
  402d92:	4b17      	ldrhi	r3, [pc, #92]	; (402df0 <system_init_flash+0x80>)
  402d94:	4a17      	ldr	r2, [pc, #92]	; (402df4 <system_init_flash+0x84>)
  402d96:	6013      	str	r3, [r2, #0]
  402d98:	f502 7200 	add.w	r2, r2, #512	; 0x200
  402d9c:	6013      	str	r3, [r2, #0]
  402d9e:	4770      	bx	lr
  402da0:	f04f 6380 	mov.w	r3, #67108864	; 0x4000000
  402da4:	4a13      	ldr	r2, [pc, #76]	; (402df4 <system_init_flash+0x84>)
  402da6:	6013      	str	r3, [r2, #0]
  402da8:	f502 7200 	add.w	r2, r2, #512	; 0x200
  402dac:	6013      	str	r3, [r2, #0]
  402dae:	4770      	bx	lr
  402db0:	4b11      	ldr	r3, [pc, #68]	; (402df8 <system_init_flash+0x88>)
  402db2:	4a10      	ldr	r2, [pc, #64]	; (402df4 <system_init_flash+0x84>)
  402db4:	6013      	str	r3, [r2, #0]
  402db6:	f502 7200 	add.w	r2, r2, #512	; 0x200
  402dba:	6013      	str	r3, [r2, #0]
  402dbc:	4770      	bx	lr
  402dbe:	4b0f      	ldr	r3, [pc, #60]	; (402dfc <system_init_flash+0x8c>)
  402dc0:	4a0c      	ldr	r2, [pc, #48]	; (402df4 <system_init_flash+0x84>)
  402dc2:	6013      	str	r3, [r2, #0]
  402dc4:	f502 7200 	add.w	r2, r2, #512	; 0x200
  402dc8:	6013      	str	r3, [r2, #0]
  402dca:	4770      	bx	lr
  402dcc:	4b0c      	ldr	r3, [pc, #48]	; (402e00 <system_init_flash+0x90>)
  402dce:	4a09      	ldr	r2, [pc, #36]	; (402df4 <system_init_flash+0x84>)
  402dd0:	6013      	str	r3, [r2, #0]
  402dd2:	f502 7200 	add.w	r2, r2, #512	; 0x200
  402dd6:	6013      	str	r3, [r2, #0]
  402dd8:	4770      	bx	lr
  402dda:	bf00      	nop
  402ddc:	01312cff 	.word	0x01312cff
  402de0:	026259ff 	.word	0x026259ff
  402de4:	039386ff 	.word	0x039386ff
  402de8:	04c4b3ff 	.word	0x04c4b3ff
  402dec:	05f5e0ff 	.word	0x05f5e0ff
  402df0:	04000500 	.word	0x04000500
  402df4:	400e0a00 	.word	0x400e0a00
  402df8:	04000100 	.word	0x04000100
  402dfc:	04000200 	.word	0x04000200
  402e00:	04000300 	.word	0x04000300

00402e04 <f_mount>:
  402e04:	2807      	cmp	r0, #7
  402e06:	d901      	bls.n	402e0c <f_mount+0x8>
  402e08:	200b      	movs	r0, #11
  402e0a:	4770      	bx	lr
  402e0c:	4b06      	ldr	r3, [pc, #24]	; (402e28 <f_mount+0x24>)
  402e0e:	f853 3020 	ldr.w	r3, [r3, r0, lsl #2]
  402e12:	b10b      	cbz	r3, 402e18 <f_mount+0x14>
  402e14:	2200      	movs	r2, #0
  402e16:	701a      	strb	r2, [r3, #0]
  402e18:	b109      	cbz	r1, 402e1e <f_mount+0x1a>
  402e1a:	2300      	movs	r3, #0
  402e1c:	700b      	strb	r3, [r1, #0]
  402e1e:	4b02      	ldr	r3, [pc, #8]	; (402e28 <f_mount+0x24>)
  402e20:	f843 1020 	str.w	r1, [r3, r0, lsl #2]
  402e24:	2000      	movs	r0, #0
  402e26:	4770      	bx	lr
  402e28:	20000b58 	.word	0x20000b58

00402e2c <button_callback>:
	}
}

void button_callback (tButtonNum b)
{
	button_pressed = true;
  402e2c:	2201      	movs	r2, #1
  402e2e:	4b02      	ldr	r3, [pc, #8]	; (402e38 <button_callback+0xc>)
  402e30:	701a      	strb	r2, [r3, #0]
	seleced_button = b;
  402e32:	4b02      	ldr	r3, [pc, #8]	; (402e3c <button_callback+0x10>)
  402e34:	6018      	str	r0, [r3, #0]
  402e36:	4770      	bx	lr
  402e38:	20000b78 	.word	0x20000b78
  402e3c:	20000b90 	.word	0x20000b90

00402e40 <main>:
{
  402e40:	b508      	push	{r3, lr}
	system_init();		
  402e42:	4b12      	ldr	r3, [pc, #72]	; (402e8c <main+0x4c>)
  402e44:	4798      	blx	r3
	hal_button_start_int(button_callback);
  402e46:	4812      	ldr	r0, [pc, #72]	; (402e90 <main+0x50>)
  402e48:	4b12      	ldr	r3, [pc, #72]	; (402e94 <main+0x54>)
  402e4a:	4798      	blx	r3
		while (!gameover)
  402e4c:	4e12      	ldr	r6, [pc, #72]	; (402e98 <main+0x58>)
			hal_delay(2000);
  402e4e:	4d13      	ldr	r5, [pc, #76]	; (402e9c <main+0x5c>)
			if (button_pressed)
  402e50:	4c13      	ldr	r4, [pc, #76]	; (402ea0 <main+0x60>)
  402e52:	e006      	b.n	402e62 <main+0x22>
						move_shape_up(spaceship);
  402e54:	4b13      	ldr	r3, [pc, #76]	; (402ea4 <main+0x64>)
  402e56:	6818      	ldr	r0, [r3, #0]
  402e58:	8899      	ldrh	r1, [r3, #4]
  402e5a:	4b13      	ldr	r3, [pc, #76]	; (402ea8 <main+0x68>)
  402e5c:	4798      	blx	r3
				button_pressed = false;
  402e5e:	2300      	movs	r3, #0
  402e60:	7023      	strb	r3, [r4, #0]
		while (!gameover)
  402e62:	7833      	ldrb	r3, [r6, #0]
  402e64:	2b00      	cmp	r3, #0
  402e66:	d1fd      	bne.n	402e64 <main+0x24>
			hal_delay(2000);
  402e68:	f44f 60fa 	mov.w	r0, #2000	; 0x7d0
  402e6c:	47a8      	blx	r5
			if (button_pressed)
  402e6e:	7823      	ldrb	r3, [r4, #0]
  402e70:	2b00      	cmp	r3, #0
  402e72:	d0f6      	beq.n	402e62 <main+0x22>
				switch(seleced_button)
  402e74:	4b0d      	ldr	r3, [pc, #52]	; (402eac <main+0x6c>)
  402e76:	681b      	ldr	r3, [r3, #0]
  402e78:	2b01      	cmp	r3, #1
  402e7a:	d0eb      	beq.n	402e54 <main+0x14>
  402e7c:	2b03      	cmp	r3, #3
  402e7e:	d1ee      	bne.n	402e5e <main+0x1e>
						move_shape_down(spaceship);
  402e80:	4b08      	ldr	r3, [pc, #32]	; (402ea4 <main+0x64>)
  402e82:	6818      	ldr	r0, [r3, #0]
  402e84:	8899      	ldrh	r1, [r3, #4]
  402e86:	4b0a      	ldr	r3, [pc, #40]	; (402eb0 <main+0x70>)
  402e88:	4798      	blx	r3
						break;
  402e8a:	e7e8      	b.n	402e5e <main+0x1e>
  402e8c:	00400d35 	.word	0x00400d35
  402e90:	00402e2d 	.word	0x00402e2d
  402e94:	0040085d 	.word	0x0040085d
  402e98:	20000b79 	.word	0x20000b79
  402e9c:	004001d1 	.word	0x004001d1
  402ea0:	20000b78 	.word	0x20000b78
  402ea4:	20000bf0 	.word	0x20000bf0
  402ea8:	00400d71 	.word	0x00400d71
  402eac:	20000b90 	.word	0x20000b90
  402eb0:	00400d7d 	.word	0x00400d7d

00402eb4 <__aeabi_drsub>:
  402eb4:	f081 4100 	eor.w	r1, r1, #2147483648	; 0x80000000
  402eb8:	e002      	b.n	402ec0 <__adddf3>
  402eba:	bf00      	nop

00402ebc <__aeabi_dsub>:
  402ebc:	f083 4300 	eor.w	r3, r3, #2147483648	; 0x80000000

00402ec0 <__adddf3>:
  402ec0:	b530      	push	{r4, r5, lr}
  402ec2:	ea4f 0441 	mov.w	r4, r1, lsl #1
  402ec6:	ea4f 0543 	mov.w	r5, r3, lsl #1
  402eca:	ea94 0f05 	teq	r4, r5
  402ece:	bf08      	it	eq
  402ed0:	ea90 0f02 	teqeq	r0, r2
  402ed4:	bf1f      	itttt	ne
  402ed6:	ea54 0c00 	orrsne.w	ip, r4, r0
  402eda:	ea55 0c02 	orrsne.w	ip, r5, r2
  402ede:	ea7f 5c64 	mvnsne.w	ip, r4, asr #21
  402ee2:	ea7f 5c65 	mvnsne.w	ip, r5, asr #21
  402ee6:	f000 80e2 	beq.w	4030ae <__adddf3+0x1ee>
  402eea:	ea4f 5454 	mov.w	r4, r4, lsr #21
  402eee:	ebd4 5555 	rsbs	r5, r4, r5, lsr #21
  402ef2:	bfb8      	it	lt
  402ef4:	426d      	neglt	r5, r5
  402ef6:	dd0c      	ble.n	402f12 <__adddf3+0x52>
  402ef8:	442c      	add	r4, r5
  402efa:	ea80 0202 	eor.w	r2, r0, r2
  402efe:	ea81 0303 	eor.w	r3, r1, r3
  402f02:	ea82 0000 	eor.w	r0, r2, r0
  402f06:	ea83 0101 	eor.w	r1, r3, r1
  402f0a:	ea80 0202 	eor.w	r2, r0, r2
  402f0e:	ea81 0303 	eor.w	r3, r1, r3
  402f12:	2d36      	cmp	r5, #54	; 0x36
  402f14:	bf88      	it	hi
  402f16:	bd30      	pophi	{r4, r5, pc}
  402f18:	f011 4f00 	tst.w	r1, #2147483648	; 0x80000000
  402f1c:	ea4f 3101 	mov.w	r1, r1, lsl #12
  402f20:	f44f 1c80 	mov.w	ip, #1048576	; 0x100000
  402f24:	ea4c 3111 	orr.w	r1, ip, r1, lsr #12
  402f28:	d002      	beq.n	402f30 <__adddf3+0x70>
  402f2a:	4240      	negs	r0, r0
  402f2c:	eb61 0141 	sbc.w	r1, r1, r1, lsl #1
  402f30:	f013 4f00 	tst.w	r3, #2147483648	; 0x80000000
  402f34:	ea4f 3303 	mov.w	r3, r3, lsl #12
  402f38:	ea4c 3313 	orr.w	r3, ip, r3, lsr #12
  402f3c:	d002      	beq.n	402f44 <__adddf3+0x84>
  402f3e:	4252      	negs	r2, r2
  402f40:	eb63 0343 	sbc.w	r3, r3, r3, lsl #1
  402f44:	ea94 0f05 	teq	r4, r5
  402f48:	f000 80a7 	beq.w	40309a <__adddf3+0x1da>
  402f4c:	f1a4 0401 	sub.w	r4, r4, #1
  402f50:	f1d5 0e20 	rsbs	lr, r5, #32
  402f54:	db0d      	blt.n	402f72 <__adddf3+0xb2>
  402f56:	fa02 fc0e 	lsl.w	ip, r2, lr
  402f5a:	fa22 f205 	lsr.w	r2, r2, r5
  402f5e:	1880      	adds	r0, r0, r2
  402f60:	f141 0100 	adc.w	r1, r1, #0
  402f64:	fa03 f20e 	lsl.w	r2, r3, lr
  402f68:	1880      	adds	r0, r0, r2
  402f6a:	fa43 f305 	asr.w	r3, r3, r5
  402f6e:	4159      	adcs	r1, r3
  402f70:	e00e      	b.n	402f90 <__adddf3+0xd0>
  402f72:	f1a5 0520 	sub.w	r5, r5, #32
  402f76:	f10e 0e20 	add.w	lr, lr, #32
  402f7a:	2a01      	cmp	r2, #1
  402f7c:	fa03 fc0e 	lsl.w	ip, r3, lr
  402f80:	bf28      	it	cs
  402f82:	f04c 0c02 	orrcs.w	ip, ip, #2
  402f86:	fa43 f305 	asr.w	r3, r3, r5
  402f8a:	18c0      	adds	r0, r0, r3
  402f8c:	eb51 71e3 	adcs.w	r1, r1, r3, asr #31
  402f90:	f001 4500 	and.w	r5, r1, #2147483648	; 0x80000000
  402f94:	d507      	bpl.n	402fa6 <__adddf3+0xe6>
  402f96:	f04f 0e00 	mov.w	lr, #0
  402f9a:	f1dc 0c00 	rsbs	ip, ip, #0
  402f9e:	eb7e 0000 	sbcs.w	r0, lr, r0
  402fa2:	eb6e 0101 	sbc.w	r1, lr, r1
  402fa6:	f5b1 1f80 	cmp.w	r1, #1048576	; 0x100000
  402faa:	d31b      	bcc.n	402fe4 <__adddf3+0x124>
  402fac:	f5b1 1f00 	cmp.w	r1, #2097152	; 0x200000
  402fb0:	d30c      	bcc.n	402fcc <__adddf3+0x10c>
  402fb2:	0849      	lsrs	r1, r1, #1
  402fb4:	ea5f 0030 	movs.w	r0, r0, rrx
  402fb8:	ea4f 0c3c 	mov.w	ip, ip, rrx
  402fbc:	f104 0401 	add.w	r4, r4, #1
  402fc0:	ea4f 5244 	mov.w	r2, r4, lsl #21
  402fc4:	f512 0f80 	cmn.w	r2, #4194304	; 0x400000
  402fc8:	f080 809a 	bcs.w	403100 <__adddf3+0x240>
  402fcc:	f1bc 4f00 	cmp.w	ip, #2147483648	; 0x80000000
  402fd0:	bf08      	it	eq
  402fd2:	ea5f 0c50 	movseq.w	ip, r0, lsr #1
  402fd6:	f150 0000 	adcs.w	r0, r0, #0
  402fda:	eb41 5104 	adc.w	r1, r1, r4, lsl #20
  402fde:	ea41 0105 	orr.w	r1, r1, r5
  402fe2:	bd30      	pop	{r4, r5, pc}
  402fe4:	ea5f 0c4c 	movs.w	ip, ip, lsl #1
  402fe8:	4140      	adcs	r0, r0
  402fea:	eb41 0101 	adc.w	r1, r1, r1
  402fee:	f411 1f80 	tst.w	r1, #1048576	; 0x100000
  402ff2:	f1a4 0401 	sub.w	r4, r4, #1
  402ff6:	d1e9      	bne.n	402fcc <__adddf3+0x10c>
  402ff8:	f091 0f00 	teq	r1, #0
  402ffc:	bf04      	itt	eq
  402ffe:	4601      	moveq	r1, r0
  403000:	2000      	moveq	r0, #0
  403002:	fab1 f381 	clz	r3, r1
  403006:	bf08      	it	eq
  403008:	3320      	addeq	r3, #32
  40300a:	f1a3 030b 	sub.w	r3, r3, #11
  40300e:	f1b3 0220 	subs.w	r2, r3, #32
  403012:	da0c      	bge.n	40302e <__adddf3+0x16e>
  403014:	320c      	adds	r2, #12
  403016:	dd08      	ble.n	40302a <__adddf3+0x16a>
  403018:	f102 0c14 	add.w	ip, r2, #20
  40301c:	f1c2 020c 	rsb	r2, r2, #12
  403020:	fa01 f00c 	lsl.w	r0, r1, ip
  403024:	fa21 f102 	lsr.w	r1, r1, r2
  403028:	e00c      	b.n	403044 <__adddf3+0x184>
  40302a:	f102 0214 	add.w	r2, r2, #20
  40302e:	bfd8      	it	le
  403030:	f1c2 0c20 	rsble	ip, r2, #32
  403034:	fa01 f102 	lsl.w	r1, r1, r2
  403038:	fa20 fc0c 	lsr.w	ip, r0, ip
  40303c:	bfdc      	itt	le
  40303e:	ea41 010c 	orrle.w	r1, r1, ip
  403042:	4090      	lslle	r0, r2
  403044:	1ae4      	subs	r4, r4, r3
  403046:	bfa2      	ittt	ge
  403048:	eb01 5104 	addge.w	r1, r1, r4, lsl #20
  40304c:	4329      	orrge	r1, r5
  40304e:	bd30      	popge	{r4, r5, pc}
  403050:	ea6f 0404 	mvn.w	r4, r4
  403054:	3c1f      	subs	r4, #31
  403056:	da1c      	bge.n	403092 <__adddf3+0x1d2>
  403058:	340c      	adds	r4, #12
  40305a:	dc0e      	bgt.n	40307a <__adddf3+0x1ba>
  40305c:	f104 0414 	add.w	r4, r4, #20
  403060:	f1c4 0220 	rsb	r2, r4, #32
  403064:	fa20 f004 	lsr.w	r0, r0, r4
  403068:	fa01 f302 	lsl.w	r3, r1, r2
  40306c:	ea40 0003 	orr.w	r0, r0, r3
  403070:	fa21 f304 	lsr.w	r3, r1, r4
  403074:	ea45 0103 	orr.w	r1, r5, r3
  403078:	bd30      	pop	{r4, r5, pc}
  40307a:	f1c4 040c 	rsb	r4, r4, #12
  40307e:	f1c4 0220 	rsb	r2, r4, #32
  403082:	fa20 f002 	lsr.w	r0, r0, r2
  403086:	fa01 f304 	lsl.w	r3, r1, r4
  40308a:	ea40 0003 	orr.w	r0, r0, r3
  40308e:	4629      	mov	r1, r5
  403090:	bd30      	pop	{r4, r5, pc}
  403092:	fa21 f004 	lsr.w	r0, r1, r4
  403096:	4629      	mov	r1, r5
  403098:	bd30      	pop	{r4, r5, pc}
  40309a:	f094 0f00 	teq	r4, #0
  40309e:	f483 1380 	eor.w	r3, r3, #1048576	; 0x100000
  4030a2:	bf06      	itte	eq
  4030a4:	f481 1180 	eoreq.w	r1, r1, #1048576	; 0x100000
  4030a8:	3401      	addeq	r4, #1
  4030aa:	3d01      	subne	r5, #1
  4030ac:	e74e      	b.n	402f4c <__adddf3+0x8c>
  4030ae:	ea7f 5c64 	mvns.w	ip, r4, asr #21
  4030b2:	bf18      	it	ne
  4030b4:	ea7f 5c65 	mvnsne.w	ip, r5, asr #21
  4030b8:	d029      	beq.n	40310e <__adddf3+0x24e>
  4030ba:	ea94 0f05 	teq	r4, r5
  4030be:	bf08      	it	eq
  4030c0:	ea90 0f02 	teqeq	r0, r2
  4030c4:	d005      	beq.n	4030d2 <__adddf3+0x212>
  4030c6:	ea54 0c00 	orrs.w	ip, r4, r0
  4030ca:	bf04      	itt	eq
  4030cc:	4619      	moveq	r1, r3
  4030ce:	4610      	moveq	r0, r2
  4030d0:	bd30      	pop	{r4, r5, pc}
  4030d2:	ea91 0f03 	teq	r1, r3
  4030d6:	bf1e      	ittt	ne
  4030d8:	2100      	movne	r1, #0
  4030da:	2000      	movne	r0, #0
  4030dc:	bd30      	popne	{r4, r5, pc}
  4030de:	ea5f 5c54 	movs.w	ip, r4, lsr #21
  4030e2:	d105      	bne.n	4030f0 <__adddf3+0x230>
  4030e4:	0040      	lsls	r0, r0, #1
  4030e6:	4149      	adcs	r1, r1
  4030e8:	bf28      	it	cs
  4030ea:	f041 4100 	orrcs.w	r1, r1, #2147483648	; 0x80000000
  4030ee:	bd30      	pop	{r4, r5, pc}
  4030f0:	f514 0480 	adds.w	r4, r4, #4194304	; 0x400000
  4030f4:	bf3c      	itt	cc
  4030f6:	f501 1180 	addcc.w	r1, r1, #1048576	; 0x100000
  4030fa:	bd30      	popcc	{r4, r5, pc}
  4030fc:	f001 4500 	and.w	r5, r1, #2147483648	; 0x80000000
  403100:	f045 41fe 	orr.w	r1, r5, #2130706432	; 0x7f000000
  403104:	f441 0170 	orr.w	r1, r1, #15728640	; 0xf00000
  403108:	f04f 0000 	mov.w	r0, #0
  40310c:	bd30      	pop	{r4, r5, pc}
  40310e:	ea7f 5c64 	mvns.w	ip, r4, asr #21
  403112:	bf1a      	itte	ne
  403114:	4619      	movne	r1, r3
  403116:	4610      	movne	r0, r2
  403118:	ea7f 5c65 	mvnseq.w	ip, r5, asr #21
  40311c:	bf1c      	itt	ne
  40311e:	460b      	movne	r3, r1
  403120:	4602      	movne	r2, r0
  403122:	ea50 3401 	orrs.w	r4, r0, r1, lsl #12
  403126:	bf06      	itte	eq
  403128:	ea52 3503 	orrseq.w	r5, r2, r3, lsl #12
  40312c:	ea91 0f03 	teqeq	r1, r3
  403130:	f441 2100 	orrne.w	r1, r1, #524288	; 0x80000
  403134:	bd30      	pop	{r4, r5, pc}
  403136:	bf00      	nop

00403138 <__aeabi_ui2d>:
  403138:	f090 0f00 	teq	r0, #0
  40313c:	bf04      	itt	eq
  40313e:	2100      	moveq	r1, #0
  403140:	4770      	bxeq	lr
  403142:	b530      	push	{r4, r5, lr}
  403144:	f44f 6480 	mov.w	r4, #1024	; 0x400
  403148:	f104 0432 	add.w	r4, r4, #50	; 0x32
  40314c:	f04f 0500 	mov.w	r5, #0
  403150:	f04f 0100 	mov.w	r1, #0
  403154:	e750      	b.n	402ff8 <__adddf3+0x138>
  403156:	bf00      	nop

00403158 <__aeabi_i2d>:
  403158:	f090 0f00 	teq	r0, #0
  40315c:	bf04      	itt	eq
  40315e:	2100      	moveq	r1, #0
  403160:	4770      	bxeq	lr
  403162:	b530      	push	{r4, r5, lr}
  403164:	f44f 6480 	mov.w	r4, #1024	; 0x400
  403168:	f104 0432 	add.w	r4, r4, #50	; 0x32
  40316c:	f010 4500 	ands.w	r5, r0, #2147483648	; 0x80000000
  403170:	bf48      	it	mi
  403172:	4240      	negmi	r0, r0
  403174:	f04f 0100 	mov.w	r1, #0
  403178:	e73e      	b.n	402ff8 <__adddf3+0x138>
  40317a:	bf00      	nop

0040317c <__aeabi_f2d>:
  40317c:	0042      	lsls	r2, r0, #1
  40317e:	ea4f 01e2 	mov.w	r1, r2, asr #3
  403182:	ea4f 0131 	mov.w	r1, r1, rrx
  403186:	ea4f 7002 	mov.w	r0, r2, lsl #28
  40318a:	bf1f      	itttt	ne
  40318c:	f012 437f 	andsne.w	r3, r2, #4278190080	; 0xff000000
  403190:	f093 4f7f 	teqne	r3, #4278190080	; 0xff000000
  403194:	f081 5160 	eorne.w	r1, r1, #939524096	; 0x38000000
  403198:	4770      	bxne	lr
  40319a:	f092 0f00 	teq	r2, #0
  40319e:	bf14      	ite	ne
  4031a0:	f093 4f7f 	teqne	r3, #4278190080	; 0xff000000
  4031a4:	4770      	bxeq	lr
  4031a6:	b530      	push	{r4, r5, lr}
  4031a8:	f44f 7460 	mov.w	r4, #896	; 0x380
  4031ac:	f001 4500 	and.w	r5, r1, #2147483648	; 0x80000000
  4031b0:	f021 4100 	bic.w	r1, r1, #2147483648	; 0x80000000
  4031b4:	e720      	b.n	402ff8 <__adddf3+0x138>
  4031b6:	bf00      	nop

004031b8 <__aeabi_ul2d>:
  4031b8:	ea50 0201 	orrs.w	r2, r0, r1
  4031bc:	bf08      	it	eq
  4031be:	4770      	bxeq	lr
  4031c0:	b530      	push	{r4, r5, lr}
  4031c2:	f04f 0500 	mov.w	r5, #0
  4031c6:	e00a      	b.n	4031de <__aeabi_l2d+0x16>

004031c8 <__aeabi_l2d>:
  4031c8:	ea50 0201 	orrs.w	r2, r0, r1
  4031cc:	bf08      	it	eq
  4031ce:	4770      	bxeq	lr
  4031d0:	b530      	push	{r4, r5, lr}
  4031d2:	f011 4500 	ands.w	r5, r1, #2147483648	; 0x80000000
  4031d6:	d502      	bpl.n	4031de <__aeabi_l2d+0x16>
  4031d8:	4240      	negs	r0, r0
  4031da:	eb61 0141 	sbc.w	r1, r1, r1, lsl #1
  4031de:	f44f 6480 	mov.w	r4, #1024	; 0x400
  4031e2:	f104 0432 	add.w	r4, r4, #50	; 0x32
  4031e6:	ea5f 5c91 	movs.w	ip, r1, lsr #22
  4031ea:	f43f aedc 	beq.w	402fa6 <__adddf3+0xe6>
  4031ee:	f04f 0203 	mov.w	r2, #3
  4031f2:	ea5f 0cdc 	movs.w	ip, ip, lsr #3
  4031f6:	bf18      	it	ne
  4031f8:	3203      	addne	r2, #3
  4031fa:	ea5f 0cdc 	movs.w	ip, ip, lsr #3
  4031fe:	bf18      	it	ne
  403200:	3203      	addne	r2, #3
  403202:	eb02 02dc 	add.w	r2, r2, ip, lsr #3
  403206:	f1c2 0320 	rsb	r3, r2, #32
  40320a:	fa00 fc03 	lsl.w	ip, r0, r3
  40320e:	fa20 f002 	lsr.w	r0, r0, r2
  403212:	fa01 fe03 	lsl.w	lr, r1, r3
  403216:	ea40 000e 	orr.w	r0, r0, lr
  40321a:	fa21 f102 	lsr.w	r1, r1, r2
  40321e:	4414      	add	r4, r2
  403220:	e6c1      	b.n	402fa6 <__adddf3+0xe6>
  403222:	bf00      	nop

00403224 <__aeabi_dmul>:
  403224:	b570      	push	{r4, r5, r6, lr}
  403226:	f04f 0cff 	mov.w	ip, #255	; 0xff
  40322a:	f44c 6ce0 	orr.w	ip, ip, #1792	; 0x700
  40322e:	ea1c 5411 	ands.w	r4, ip, r1, lsr #20
  403232:	bf1d      	ittte	ne
  403234:	ea1c 5513 	andsne.w	r5, ip, r3, lsr #20
  403238:	ea94 0f0c 	teqne	r4, ip
  40323c:	ea95 0f0c 	teqne	r5, ip
  403240:	f000 f8de 	bleq	403400 <__aeabi_dmul+0x1dc>
  403244:	442c      	add	r4, r5
  403246:	ea81 0603 	eor.w	r6, r1, r3
  40324a:	ea21 514c 	bic.w	r1, r1, ip, lsl #21
  40324e:	ea23 534c 	bic.w	r3, r3, ip, lsl #21
  403252:	ea50 3501 	orrs.w	r5, r0, r1, lsl #12
  403256:	bf18      	it	ne
  403258:	ea52 3503 	orrsne.w	r5, r2, r3, lsl #12
  40325c:	f441 1180 	orr.w	r1, r1, #1048576	; 0x100000
  403260:	f443 1380 	orr.w	r3, r3, #1048576	; 0x100000
  403264:	d038      	beq.n	4032d8 <__aeabi_dmul+0xb4>
  403266:	fba0 ce02 	umull	ip, lr, r0, r2
  40326a:	f04f 0500 	mov.w	r5, #0
  40326e:	fbe1 e502 	umlal	lr, r5, r1, r2
  403272:	f006 4200 	and.w	r2, r6, #2147483648	; 0x80000000
  403276:	fbe0 e503 	umlal	lr, r5, r0, r3
  40327a:	f04f 0600 	mov.w	r6, #0
  40327e:	fbe1 5603 	umlal	r5, r6, r1, r3
  403282:	f09c 0f00 	teq	ip, #0
  403286:	bf18      	it	ne
  403288:	f04e 0e01 	orrne.w	lr, lr, #1
  40328c:	f1a4 04ff 	sub.w	r4, r4, #255	; 0xff
  403290:	f5b6 7f00 	cmp.w	r6, #512	; 0x200
  403294:	f564 7440 	sbc.w	r4, r4, #768	; 0x300
  403298:	d204      	bcs.n	4032a4 <__aeabi_dmul+0x80>
  40329a:	ea5f 0e4e 	movs.w	lr, lr, lsl #1
  40329e:	416d      	adcs	r5, r5
  4032a0:	eb46 0606 	adc.w	r6, r6, r6
  4032a4:	ea42 21c6 	orr.w	r1, r2, r6, lsl #11
  4032a8:	ea41 5155 	orr.w	r1, r1, r5, lsr #21
  4032ac:	ea4f 20c5 	mov.w	r0, r5, lsl #11
  4032b0:	ea40 505e 	orr.w	r0, r0, lr, lsr #21
  4032b4:	ea4f 2ece 	mov.w	lr, lr, lsl #11
  4032b8:	f1b4 0cfd 	subs.w	ip, r4, #253	; 0xfd
  4032bc:	bf88      	it	hi
  4032be:	f5bc 6fe0 	cmphi.w	ip, #1792	; 0x700
  4032c2:	d81e      	bhi.n	403302 <__aeabi_dmul+0xde>
  4032c4:	f1be 4f00 	cmp.w	lr, #2147483648	; 0x80000000
  4032c8:	bf08      	it	eq
  4032ca:	ea5f 0e50 	movseq.w	lr, r0, lsr #1
  4032ce:	f150 0000 	adcs.w	r0, r0, #0
  4032d2:	eb41 5104 	adc.w	r1, r1, r4, lsl #20
  4032d6:	bd70      	pop	{r4, r5, r6, pc}
  4032d8:	f006 4600 	and.w	r6, r6, #2147483648	; 0x80000000
  4032dc:	ea46 0101 	orr.w	r1, r6, r1
  4032e0:	ea40 0002 	orr.w	r0, r0, r2
  4032e4:	ea81 0103 	eor.w	r1, r1, r3
  4032e8:	ebb4 045c 	subs.w	r4, r4, ip, lsr #1
  4032ec:	bfc2      	ittt	gt
  4032ee:	ebd4 050c 	rsbsgt	r5, r4, ip
  4032f2:	ea41 5104 	orrgt.w	r1, r1, r4, lsl #20
  4032f6:	bd70      	popgt	{r4, r5, r6, pc}
  4032f8:	f441 1180 	orr.w	r1, r1, #1048576	; 0x100000
  4032fc:	f04f 0e00 	mov.w	lr, #0
  403300:	3c01      	subs	r4, #1
  403302:	f300 80ab 	bgt.w	40345c <__aeabi_dmul+0x238>
  403306:	f114 0f36 	cmn.w	r4, #54	; 0x36
  40330a:	bfde      	ittt	le
  40330c:	2000      	movle	r0, #0
  40330e:	f001 4100 	andle.w	r1, r1, #2147483648	; 0x80000000
  403312:	bd70      	pople	{r4, r5, r6, pc}
  403314:	f1c4 0400 	rsb	r4, r4, #0
  403318:	3c20      	subs	r4, #32
  40331a:	da35      	bge.n	403388 <__aeabi_dmul+0x164>
  40331c:	340c      	adds	r4, #12
  40331e:	dc1b      	bgt.n	403358 <__aeabi_dmul+0x134>
  403320:	f104 0414 	add.w	r4, r4, #20
  403324:	f1c4 0520 	rsb	r5, r4, #32
  403328:	fa00 f305 	lsl.w	r3, r0, r5
  40332c:	fa20 f004 	lsr.w	r0, r0, r4
  403330:	fa01 f205 	lsl.w	r2, r1, r5
  403334:	ea40 0002 	orr.w	r0, r0, r2
  403338:	f001 4200 	and.w	r2, r1, #2147483648	; 0x80000000
  40333c:	f021 4100 	bic.w	r1, r1, #2147483648	; 0x80000000
  403340:	eb10 70d3 	adds.w	r0, r0, r3, lsr #31
  403344:	fa21 f604 	lsr.w	r6, r1, r4
  403348:	eb42 0106 	adc.w	r1, r2, r6
  40334c:	ea5e 0e43 	orrs.w	lr, lr, r3, lsl #1
  403350:	bf08      	it	eq
  403352:	ea20 70d3 	biceq.w	r0, r0, r3, lsr #31
  403356:	bd70      	pop	{r4, r5, r6, pc}
  403358:	f1c4 040c 	rsb	r4, r4, #12
  40335c:	f1c4 0520 	rsb	r5, r4, #32
  403360:	fa00 f304 	lsl.w	r3, r0, r4
  403364:	fa20 f005 	lsr.w	r0, r0, r5
  403368:	fa01 f204 	lsl.w	r2, r1, r4
  40336c:	ea40 0002 	orr.w	r0, r0, r2
  403370:	f001 4100 	and.w	r1, r1, #2147483648	; 0x80000000
  403374:	eb10 70d3 	adds.w	r0, r0, r3, lsr #31
  403378:	f141 0100 	adc.w	r1, r1, #0
  40337c:	ea5e 0e43 	orrs.w	lr, lr, r3, lsl #1
  403380:	bf08      	it	eq
  403382:	ea20 70d3 	biceq.w	r0, r0, r3, lsr #31
  403386:	bd70      	pop	{r4, r5, r6, pc}
  403388:	f1c4 0520 	rsb	r5, r4, #32
  40338c:	fa00 f205 	lsl.w	r2, r0, r5
  403390:	ea4e 0e02 	orr.w	lr, lr, r2
  403394:	fa20 f304 	lsr.w	r3, r0, r4
  403398:	fa01 f205 	lsl.w	r2, r1, r5
  40339c:	ea43 0302 	orr.w	r3, r3, r2
  4033a0:	fa21 f004 	lsr.w	r0, r1, r4
  4033a4:	f001 4100 	and.w	r1, r1, #2147483648	; 0x80000000
  4033a8:	fa21 f204 	lsr.w	r2, r1, r4
  4033ac:	ea20 0002 	bic.w	r0, r0, r2
  4033b0:	eb00 70d3 	add.w	r0, r0, r3, lsr #31
  4033b4:	ea5e 0e43 	orrs.w	lr, lr, r3, lsl #1
  4033b8:	bf08      	it	eq
  4033ba:	ea20 70d3 	biceq.w	r0, r0, r3, lsr #31
  4033be:	bd70      	pop	{r4, r5, r6, pc}
  4033c0:	f094 0f00 	teq	r4, #0
  4033c4:	d10f      	bne.n	4033e6 <__aeabi_dmul+0x1c2>
  4033c6:	f001 4600 	and.w	r6, r1, #2147483648	; 0x80000000
  4033ca:	0040      	lsls	r0, r0, #1
  4033cc:	eb41 0101 	adc.w	r1, r1, r1
  4033d0:	f411 1f80 	tst.w	r1, #1048576	; 0x100000
  4033d4:	bf08      	it	eq
  4033d6:	3c01      	subeq	r4, #1
  4033d8:	d0f7      	beq.n	4033ca <__aeabi_dmul+0x1a6>
  4033da:	ea41 0106 	orr.w	r1, r1, r6
  4033de:	f095 0f00 	teq	r5, #0
  4033e2:	bf18      	it	ne
  4033e4:	4770      	bxne	lr
  4033e6:	f003 4600 	and.w	r6, r3, #2147483648	; 0x80000000
  4033ea:	0052      	lsls	r2, r2, #1
  4033ec:	eb43 0303 	adc.w	r3, r3, r3
  4033f0:	f413 1f80 	tst.w	r3, #1048576	; 0x100000
  4033f4:	bf08      	it	eq
  4033f6:	3d01      	subeq	r5, #1
  4033f8:	d0f7      	beq.n	4033ea <__aeabi_dmul+0x1c6>
  4033fa:	ea43 0306 	orr.w	r3, r3, r6
  4033fe:	4770      	bx	lr
  403400:	ea94 0f0c 	teq	r4, ip
  403404:	ea0c 5513 	and.w	r5, ip, r3, lsr #20
  403408:	bf18      	it	ne
  40340a:	ea95 0f0c 	teqne	r5, ip
  40340e:	d00c      	beq.n	40342a <__aeabi_dmul+0x206>
  403410:	ea50 0641 	orrs.w	r6, r0, r1, lsl #1
  403414:	bf18      	it	ne
  403416:	ea52 0643 	orrsne.w	r6, r2, r3, lsl #1
  40341a:	d1d1      	bne.n	4033c0 <__aeabi_dmul+0x19c>
  40341c:	ea81 0103 	eor.w	r1, r1, r3
  403420:	f001 4100 	and.w	r1, r1, #2147483648	; 0x80000000
  403424:	f04f 0000 	mov.w	r0, #0
  403428:	bd70      	pop	{r4, r5, r6, pc}
  40342a:	ea50 0641 	orrs.w	r6, r0, r1, lsl #1
  40342e:	bf06      	itte	eq
  403430:	4610      	moveq	r0, r2
  403432:	4619      	moveq	r1, r3
  403434:	ea52 0643 	orrsne.w	r6, r2, r3, lsl #1
  403438:	d019      	beq.n	40346e <__aeabi_dmul+0x24a>
  40343a:	ea94 0f0c 	teq	r4, ip
  40343e:	d102      	bne.n	403446 <__aeabi_dmul+0x222>
  403440:	ea50 3601 	orrs.w	r6, r0, r1, lsl #12
  403444:	d113      	bne.n	40346e <__aeabi_dmul+0x24a>
  403446:	ea95 0f0c 	teq	r5, ip
  40344a:	d105      	bne.n	403458 <__aeabi_dmul+0x234>
  40344c:	ea52 3603 	orrs.w	r6, r2, r3, lsl #12
  403450:	bf1c      	itt	ne
  403452:	4610      	movne	r0, r2
  403454:	4619      	movne	r1, r3
  403456:	d10a      	bne.n	40346e <__aeabi_dmul+0x24a>
  403458:	ea81 0103 	eor.w	r1, r1, r3
  40345c:	f001 4100 	and.w	r1, r1, #2147483648	; 0x80000000
  403460:	f041 41fe 	orr.w	r1, r1, #2130706432	; 0x7f000000
  403464:	f441 0170 	orr.w	r1, r1, #15728640	; 0xf00000
  403468:	f04f 0000 	mov.w	r0, #0
  40346c:	bd70      	pop	{r4, r5, r6, pc}
  40346e:	f041 41fe 	orr.w	r1, r1, #2130706432	; 0x7f000000
  403472:	f441 0178 	orr.w	r1, r1, #16252928	; 0xf80000
  403476:	bd70      	pop	{r4, r5, r6, pc}

00403478 <__aeabi_ddiv>:
  403478:	b570      	push	{r4, r5, r6, lr}
  40347a:	f04f 0cff 	mov.w	ip, #255	; 0xff
  40347e:	f44c 6ce0 	orr.w	ip, ip, #1792	; 0x700
  403482:	ea1c 5411 	ands.w	r4, ip, r1, lsr #20
  403486:	bf1d      	ittte	ne
  403488:	ea1c 5513 	andsne.w	r5, ip, r3, lsr #20
  40348c:	ea94 0f0c 	teqne	r4, ip
  403490:	ea95 0f0c 	teqne	r5, ip
  403494:	f000 f8a7 	bleq	4035e6 <__aeabi_ddiv+0x16e>
  403498:	eba4 0405 	sub.w	r4, r4, r5
  40349c:	ea81 0e03 	eor.w	lr, r1, r3
  4034a0:	ea52 3503 	orrs.w	r5, r2, r3, lsl #12
  4034a4:	ea4f 3101 	mov.w	r1, r1, lsl #12
  4034a8:	f000 8088 	beq.w	4035bc <__aeabi_ddiv+0x144>
  4034ac:	ea4f 3303 	mov.w	r3, r3, lsl #12
  4034b0:	f04f 5580 	mov.w	r5, #268435456	; 0x10000000
  4034b4:	ea45 1313 	orr.w	r3, r5, r3, lsr #4
  4034b8:	ea43 6312 	orr.w	r3, r3, r2, lsr #24
  4034bc:	ea4f 2202 	mov.w	r2, r2, lsl #8
  4034c0:	ea45 1511 	orr.w	r5, r5, r1, lsr #4
  4034c4:	ea45 6510 	orr.w	r5, r5, r0, lsr #24
  4034c8:	ea4f 2600 	mov.w	r6, r0, lsl #8
  4034cc:	f00e 4100 	and.w	r1, lr, #2147483648	; 0x80000000
  4034d0:	429d      	cmp	r5, r3
  4034d2:	bf08      	it	eq
  4034d4:	4296      	cmpeq	r6, r2
  4034d6:	f144 04fd 	adc.w	r4, r4, #253	; 0xfd
  4034da:	f504 7440 	add.w	r4, r4, #768	; 0x300
  4034de:	d202      	bcs.n	4034e6 <__aeabi_ddiv+0x6e>
  4034e0:	085b      	lsrs	r3, r3, #1
  4034e2:	ea4f 0232 	mov.w	r2, r2, rrx
  4034e6:	1ab6      	subs	r6, r6, r2
  4034e8:	eb65 0503 	sbc.w	r5, r5, r3
  4034ec:	085b      	lsrs	r3, r3, #1
  4034ee:	ea4f 0232 	mov.w	r2, r2, rrx
  4034f2:	f44f 1080 	mov.w	r0, #1048576	; 0x100000
  4034f6:	f44f 2c00 	mov.w	ip, #524288	; 0x80000
  4034fa:	ebb6 0e02 	subs.w	lr, r6, r2
  4034fe:	eb75 0e03 	sbcs.w	lr, r5, r3
  403502:	bf22      	ittt	cs
  403504:	1ab6      	subcs	r6, r6, r2
  403506:	4675      	movcs	r5, lr
  403508:	ea40 000c 	orrcs.w	r0, r0, ip
  40350c:	085b      	lsrs	r3, r3, #1
  40350e:	ea4f 0232 	mov.w	r2, r2, rrx
  403512:	ebb6 0e02 	subs.w	lr, r6, r2
  403516:	eb75 0e03 	sbcs.w	lr, r5, r3
  40351a:	bf22      	ittt	cs
  40351c:	1ab6      	subcs	r6, r6, r2
  40351e:	4675      	movcs	r5, lr
  403520:	ea40 005c 	orrcs.w	r0, r0, ip, lsr #1
  403524:	085b      	lsrs	r3, r3, #1
  403526:	ea4f 0232 	mov.w	r2, r2, rrx
  40352a:	ebb6 0e02 	subs.w	lr, r6, r2
  40352e:	eb75 0e03 	sbcs.w	lr, r5, r3
  403532:	bf22      	ittt	cs
  403534:	1ab6      	subcs	r6, r6, r2
  403536:	4675      	movcs	r5, lr
  403538:	ea40 009c 	orrcs.w	r0, r0, ip, lsr #2
  40353c:	085b      	lsrs	r3, r3, #1
  40353e:	ea4f 0232 	mov.w	r2, r2, rrx
  403542:	ebb6 0e02 	subs.w	lr, r6, r2
  403546:	eb75 0e03 	sbcs.w	lr, r5, r3
  40354a:	bf22      	ittt	cs
  40354c:	1ab6      	subcs	r6, r6, r2
  40354e:	4675      	movcs	r5, lr
  403550:	ea40 00dc 	orrcs.w	r0, r0, ip, lsr #3
  403554:	ea55 0e06 	orrs.w	lr, r5, r6
  403558:	d018      	beq.n	40358c <__aeabi_ddiv+0x114>
  40355a:	ea4f 1505 	mov.w	r5, r5, lsl #4
  40355e:	ea45 7516 	orr.w	r5, r5, r6, lsr #28
  403562:	ea4f 1606 	mov.w	r6, r6, lsl #4
  403566:	ea4f 03c3 	mov.w	r3, r3, lsl #3
  40356a:	ea43 7352 	orr.w	r3, r3, r2, lsr #29
  40356e:	ea4f 02c2 	mov.w	r2, r2, lsl #3
  403572:	ea5f 1c1c 	movs.w	ip, ip, lsr #4
  403576:	d1c0      	bne.n	4034fa <__aeabi_ddiv+0x82>
  403578:	f411 1f80 	tst.w	r1, #1048576	; 0x100000
  40357c:	d10b      	bne.n	403596 <__aeabi_ddiv+0x11e>
  40357e:	ea41 0100 	orr.w	r1, r1, r0
  403582:	f04f 0000 	mov.w	r0, #0
  403586:	f04f 4c00 	mov.w	ip, #2147483648	; 0x80000000
  40358a:	e7b6      	b.n	4034fa <__aeabi_ddiv+0x82>
  40358c:	f411 1f80 	tst.w	r1, #1048576	; 0x100000
  403590:	bf04      	itt	eq
  403592:	4301      	orreq	r1, r0
  403594:	2000      	moveq	r0, #0
  403596:	f1b4 0cfd 	subs.w	ip, r4, #253	; 0xfd
  40359a:	bf88      	it	hi
  40359c:	f5bc 6fe0 	cmphi.w	ip, #1792	; 0x700
  4035a0:	f63f aeaf 	bhi.w	403302 <__aeabi_dmul+0xde>
  4035a4:	ebb5 0c03 	subs.w	ip, r5, r3
  4035a8:	bf04      	itt	eq
  4035aa:	ebb6 0c02 	subseq.w	ip, r6, r2
  4035ae:	ea5f 0c50 	movseq.w	ip, r0, lsr #1
  4035b2:	f150 0000 	adcs.w	r0, r0, #0
  4035b6:	eb41 5104 	adc.w	r1, r1, r4, lsl #20
  4035ba:	bd70      	pop	{r4, r5, r6, pc}
  4035bc:	f00e 4e00 	and.w	lr, lr, #2147483648	; 0x80000000
  4035c0:	ea4e 3111 	orr.w	r1, lr, r1, lsr #12
  4035c4:	eb14 045c 	adds.w	r4, r4, ip, lsr #1
  4035c8:	bfc2      	ittt	gt
  4035ca:	ebd4 050c 	rsbsgt	r5, r4, ip
  4035ce:	ea41 5104 	orrgt.w	r1, r1, r4, lsl #20
  4035d2:	bd70      	popgt	{r4, r5, r6, pc}
  4035d4:	f441 1180 	orr.w	r1, r1, #1048576	; 0x100000
  4035d8:	f04f 0e00 	mov.w	lr, #0
  4035dc:	3c01      	subs	r4, #1
  4035de:	e690      	b.n	403302 <__aeabi_dmul+0xde>
  4035e0:	ea45 0e06 	orr.w	lr, r5, r6
  4035e4:	e68d      	b.n	403302 <__aeabi_dmul+0xde>
  4035e6:	ea0c 5513 	and.w	r5, ip, r3, lsr #20
  4035ea:	ea94 0f0c 	teq	r4, ip
  4035ee:	bf08      	it	eq
  4035f0:	ea95 0f0c 	teqeq	r5, ip
  4035f4:	f43f af3b 	beq.w	40346e <__aeabi_dmul+0x24a>
  4035f8:	ea94 0f0c 	teq	r4, ip
  4035fc:	d10a      	bne.n	403614 <__aeabi_ddiv+0x19c>
  4035fe:	ea50 3401 	orrs.w	r4, r0, r1, lsl #12
  403602:	f47f af34 	bne.w	40346e <__aeabi_dmul+0x24a>
  403606:	ea95 0f0c 	teq	r5, ip
  40360a:	f47f af25 	bne.w	403458 <__aeabi_dmul+0x234>
  40360e:	4610      	mov	r0, r2
  403610:	4619      	mov	r1, r3
  403612:	e72c      	b.n	40346e <__aeabi_dmul+0x24a>
  403614:	ea95 0f0c 	teq	r5, ip
  403618:	d106      	bne.n	403628 <__aeabi_ddiv+0x1b0>
  40361a:	ea52 3503 	orrs.w	r5, r2, r3, lsl #12
  40361e:	f43f aefd 	beq.w	40341c <__aeabi_dmul+0x1f8>
  403622:	4610      	mov	r0, r2
  403624:	4619      	mov	r1, r3
  403626:	e722      	b.n	40346e <__aeabi_dmul+0x24a>
  403628:	ea50 0641 	orrs.w	r6, r0, r1, lsl #1
  40362c:	bf18      	it	ne
  40362e:	ea52 0643 	orrsne.w	r6, r2, r3, lsl #1
  403632:	f47f aec5 	bne.w	4033c0 <__aeabi_dmul+0x19c>
  403636:	ea50 0441 	orrs.w	r4, r0, r1, lsl #1
  40363a:	f47f af0d 	bne.w	403458 <__aeabi_dmul+0x234>
  40363e:	ea52 0543 	orrs.w	r5, r2, r3, lsl #1
  403642:	f47f aeeb 	bne.w	40341c <__aeabi_dmul+0x1f8>
  403646:	e712      	b.n	40346e <__aeabi_dmul+0x24a>

00403648 <__aeabi_d2uiz>:
  403648:	004a      	lsls	r2, r1, #1
  40364a:	d211      	bcs.n	403670 <__aeabi_d2uiz+0x28>
  40364c:	f512 1200 	adds.w	r2, r2, #2097152	; 0x200000
  403650:	d211      	bcs.n	403676 <__aeabi_d2uiz+0x2e>
  403652:	d50d      	bpl.n	403670 <__aeabi_d2uiz+0x28>
  403654:	f46f 7378 	mvn.w	r3, #992	; 0x3e0
  403658:	ebb3 5262 	subs.w	r2, r3, r2, asr #21
  40365c:	d40e      	bmi.n	40367c <__aeabi_d2uiz+0x34>
  40365e:	ea4f 23c1 	mov.w	r3, r1, lsl #11
  403662:	f043 4300 	orr.w	r3, r3, #2147483648	; 0x80000000
  403666:	ea43 5350 	orr.w	r3, r3, r0, lsr #21
  40366a:	fa23 f002 	lsr.w	r0, r3, r2
  40366e:	4770      	bx	lr
  403670:	f04f 0000 	mov.w	r0, #0
  403674:	4770      	bx	lr
  403676:	ea50 3001 	orrs.w	r0, r0, r1, lsl #12
  40367a:	d102      	bne.n	403682 <__aeabi_d2uiz+0x3a>
  40367c:	f04f 30ff 	mov.w	r0, #4294967295
  403680:	4770      	bx	lr
  403682:	f04f 0000 	mov.w	r0, #0
  403686:	4770      	bx	lr

00403688 <__aeabi_uldivmod>:
  403688:	b953      	cbnz	r3, 4036a0 <__aeabi_uldivmod+0x18>
  40368a:	b94a      	cbnz	r2, 4036a0 <__aeabi_uldivmod+0x18>
  40368c:	2900      	cmp	r1, #0
  40368e:	bf08      	it	eq
  403690:	2800      	cmpeq	r0, #0
  403692:	bf1c      	itt	ne
  403694:	f04f 31ff 	movne.w	r1, #4294967295
  403698:	f04f 30ff 	movne.w	r0, #4294967295
  40369c:	f000 b97a 	b.w	403994 <__aeabi_idiv0>
  4036a0:	f1ad 0c08 	sub.w	ip, sp, #8
  4036a4:	e96d ce04 	strd	ip, lr, [sp, #-16]!
  4036a8:	f000 f806 	bl	4036b8 <__udivmoddi4>
  4036ac:	f8dd e004 	ldr.w	lr, [sp, #4]
  4036b0:	e9dd 2302 	ldrd	r2, r3, [sp, #8]
  4036b4:	b004      	add	sp, #16
  4036b6:	4770      	bx	lr

004036b8 <__udivmoddi4>:
  4036b8:	e92d 47f0 	stmdb	sp!, {r4, r5, r6, r7, r8, r9, sl, lr}
  4036bc:	468c      	mov	ip, r1
  4036be:	460d      	mov	r5, r1
  4036c0:	4604      	mov	r4, r0
  4036c2:	9e08      	ldr	r6, [sp, #32]
  4036c4:	2b00      	cmp	r3, #0
  4036c6:	d151      	bne.n	40376c <__udivmoddi4+0xb4>
  4036c8:	428a      	cmp	r2, r1
  4036ca:	4617      	mov	r7, r2
  4036cc:	d96d      	bls.n	4037aa <__udivmoddi4+0xf2>
  4036ce:	fab2 fe82 	clz	lr, r2
  4036d2:	f1be 0f00 	cmp.w	lr, #0
  4036d6:	d00b      	beq.n	4036f0 <__udivmoddi4+0x38>
  4036d8:	f1ce 0c20 	rsb	ip, lr, #32
  4036dc:	fa01 f50e 	lsl.w	r5, r1, lr
  4036e0:	fa20 fc0c 	lsr.w	ip, r0, ip
  4036e4:	fa02 f70e 	lsl.w	r7, r2, lr
  4036e8:	ea4c 0c05 	orr.w	ip, ip, r5
  4036ec:	fa00 f40e 	lsl.w	r4, r0, lr
  4036f0:	ea4f 4a17 	mov.w	sl, r7, lsr #16
  4036f4:	0c25      	lsrs	r5, r4, #16
  4036f6:	fbbc f8fa 	udiv	r8, ip, sl
  4036fa:	fa1f f987 	uxth.w	r9, r7
  4036fe:	fb0a cc18 	mls	ip, sl, r8, ip
  403702:	ea45 450c 	orr.w	r5, r5, ip, lsl #16
  403706:	fb08 f309 	mul.w	r3, r8, r9
  40370a:	42ab      	cmp	r3, r5
  40370c:	d90a      	bls.n	403724 <__udivmoddi4+0x6c>
  40370e:	19ed      	adds	r5, r5, r7
  403710:	f108 32ff 	add.w	r2, r8, #4294967295
  403714:	f080 8123 	bcs.w	40395e <__udivmoddi4+0x2a6>
  403718:	42ab      	cmp	r3, r5
  40371a:	f240 8120 	bls.w	40395e <__udivmoddi4+0x2a6>
  40371e:	f1a8 0802 	sub.w	r8, r8, #2
  403722:	443d      	add	r5, r7
  403724:	1aed      	subs	r5, r5, r3
  403726:	b2a4      	uxth	r4, r4
  403728:	fbb5 f0fa 	udiv	r0, r5, sl
  40372c:	fb0a 5510 	mls	r5, sl, r0, r5
  403730:	ea44 4405 	orr.w	r4, r4, r5, lsl #16
  403734:	fb00 f909 	mul.w	r9, r0, r9
  403738:	45a1      	cmp	r9, r4
  40373a:	d909      	bls.n	403750 <__udivmoddi4+0x98>
  40373c:	19e4      	adds	r4, r4, r7
  40373e:	f100 33ff 	add.w	r3, r0, #4294967295
  403742:	f080 810a 	bcs.w	40395a <__udivmoddi4+0x2a2>
  403746:	45a1      	cmp	r9, r4
  403748:	f240 8107 	bls.w	40395a <__udivmoddi4+0x2a2>
  40374c:	3802      	subs	r0, #2
  40374e:	443c      	add	r4, r7
  403750:	eba4 0409 	sub.w	r4, r4, r9
  403754:	ea40 4008 	orr.w	r0, r0, r8, lsl #16
  403758:	2100      	movs	r1, #0
  40375a:	2e00      	cmp	r6, #0
  40375c:	d061      	beq.n	403822 <__udivmoddi4+0x16a>
  40375e:	fa24 f40e 	lsr.w	r4, r4, lr
  403762:	2300      	movs	r3, #0
  403764:	6034      	str	r4, [r6, #0]
  403766:	6073      	str	r3, [r6, #4]
  403768:	e8bd 87f0 	ldmia.w	sp!, {r4, r5, r6, r7, r8, r9, sl, pc}
  40376c:	428b      	cmp	r3, r1
  40376e:	d907      	bls.n	403780 <__udivmoddi4+0xc8>
  403770:	2e00      	cmp	r6, #0
  403772:	d054      	beq.n	40381e <__udivmoddi4+0x166>
  403774:	2100      	movs	r1, #0
  403776:	e886 0021 	stmia.w	r6, {r0, r5}
  40377a:	4608      	mov	r0, r1
  40377c:	e8bd 87f0 	ldmia.w	sp!, {r4, r5, r6, r7, r8, r9, sl, pc}
  403780:	fab3 f183 	clz	r1, r3
  403784:	2900      	cmp	r1, #0
  403786:	f040 808e 	bne.w	4038a6 <__udivmoddi4+0x1ee>
  40378a:	42ab      	cmp	r3, r5
  40378c:	d302      	bcc.n	403794 <__udivmoddi4+0xdc>
  40378e:	4282      	cmp	r2, r0
  403790:	f200 80fa 	bhi.w	403988 <__udivmoddi4+0x2d0>
  403794:	1a84      	subs	r4, r0, r2
  403796:	eb65 0503 	sbc.w	r5, r5, r3
  40379a:	2001      	movs	r0, #1
  40379c:	46ac      	mov	ip, r5
  40379e:	2e00      	cmp	r6, #0
  4037a0:	d03f      	beq.n	403822 <__udivmoddi4+0x16a>
  4037a2:	e886 1010 	stmia.w	r6, {r4, ip}
  4037a6:	e8bd 87f0 	ldmia.w	sp!, {r4, r5, r6, r7, r8, r9, sl, pc}
  4037aa:	b912      	cbnz	r2, 4037b2 <__udivmoddi4+0xfa>
  4037ac:	2701      	movs	r7, #1
  4037ae:	fbb7 f7f2 	udiv	r7, r7, r2
  4037b2:	fab7 fe87 	clz	lr, r7
  4037b6:	f1be 0f00 	cmp.w	lr, #0
  4037ba:	d134      	bne.n	403826 <__udivmoddi4+0x16e>
  4037bc:	1beb      	subs	r3, r5, r7
  4037be:	0c3a      	lsrs	r2, r7, #16
  4037c0:	fa1f fc87 	uxth.w	ip, r7
  4037c4:	2101      	movs	r1, #1
  4037c6:	fbb3 f8f2 	udiv	r8, r3, r2
  4037ca:	0c25      	lsrs	r5, r4, #16
  4037cc:	fb02 3318 	mls	r3, r2, r8, r3
  4037d0:	ea45 4503 	orr.w	r5, r5, r3, lsl #16
  4037d4:	fb0c f308 	mul.w	r3, ip, r8
  4037d8:	42ab      	cmp	r3, r5
  4037da:	d907      	bls.n	4037ec <__udivmoddi4+0x134>
  4037dc:	19ed      	adds	r5, r5, r7
  4037de:	f108 30ff 	add.w	r0, r8, #4294967295
  4037e2:	d202      	bcs.n	4037ea <__udivmoddi4+0x132>
  4037e4:	42ab      	cmp	r3, r5
  4037e6:	f200 80d1 	bhi.w	40398c <__udivmoddi4+0x2d4>
  4037ea:	4680      	mov	r8, r0
  4037ec:	1aed      	subs	r5, r5, r3
  4037ee:	b2a3      	uxth	r3, r4
  4037f0:	fbb5 f0f2 	udiv	r0, r5, r2
  4037f4:	fb02 5510 	mls	r5, r2, r0, r5
  4037f8:	ea43 4405 	orr.w	r4, r3, r5, lsl #16
  4037fc:	fb0c fc00 	mul.w	ip, ip, r0
  403800:	45a4      	cmp	ip, r4
  403802:	d907      	bls.n	403814 <__udivmoddi4+0x15c>
  403804:	19e4      	adds	r4, r4, r7
  403806:	f100 33ff 	add.w	r3, r0, #4294967295
  40380a:	d202      	bcs.n	403812 <__udivmoddi4+0x15a>
  40380c:	45a4      	cmp	ip, r4
  40380e:	f200 80b8 	bhi.w	403982 <__udivmoddi4+0x2ca>
  403812:	4618      	mov	r0, r3
  403814:	eba4 040c 	sub.w	r4, r4, ip
  403818:	ea40 4008 	orr.w	r0, r0, r8, lsl #16
  40381c:	e79d      	b.n	40375a <__udivmoddi4+0xa2>
  40381e:	4631      	mov	r1, r6
  403820:	4630      	mov	r0, r6
  403822:	e8bd 87f0 	ldmia.w	sp!, {r4, r5, r6, r7, r8, r9, sl, pc}
  403826:	f1ce 0420 	rsb	r4, lr, #32
  40382a:	fa05 f30e 	lsl.w	r3, r5, lr
  40382e:	fa07 f70e 	lsl.w	r7, r7, lr
  403832:	fa20 f804 	lsr.w	r8, r0, r4
  403836:	0c3a      	lsrs	r2, r7, #16
  403838:	fa25 f404 	lsr.w	r4, r5, r4
  40383c:	ea48 0803 	orr.w	r8, r8, r3
  403840:	fbb4 f1f2 	udiv	r1, r4, r2
  403844:	ea4f 4518 	mov.w	r5, r8, lsr #16
  403848:	fb02 4411 	mls	r4, r2, r1, r4
  40384c:	fa1f fc87 	uxth.w	ip, r7
  403850:	ea45 4504 	orr.w	r5, r5, r4, lsl #16
  403854:	fb01 f30c 	mul.w	r3, r1, ip
  403858:	42ab      	cmp	r3, r5
  40385a:	fa00 f40e 	lsl.w	r4, r0, lr
  40385e:	d909      	bls.n	403874 <__udivmoddi4+0x1bc>
  403860:	19ed      	adds	r5, r5, r7
  403862:	f101 30ff 	add.w	r0, r1, #4294967295
  403866:	f080 808a 	bcs.w	40397e <__udivmoddi4+0x2c6>
  40386a:	42ab      	cmp	r3, r5
  40386c:	f240 8087 	bls.w	40397e <__udivmoddi4+0x2c6>
  403870:	3902      	subs	r1, #2
  403872:	443d      	add	r5, r7
  403874:	1aeb      	subs	r3, r5, r3
  403876:	fa1f f588 	uxth.w	r5, r8
  40387a:	fbb3 f0f2 	udiv	r0, r3, r2
  40387e:	fb02 3310 	mls	r3, r2, r0, r3
  403882:	ea45 4503 	orr.w	r5, r5, r3, lsl #16
  403886:	fb00 f30c 	mul.w	r3, r0, ip
  40388a:	42ab      	cmp	r3, r5
  40388c:	d907      	bls.n	40389e <__udivmoddi4+0x1e6>
  40388e:	19ed      	adds	r5, r5, r7
  403890:	f100 38ff 	add.w	r8, r0, #4294967295
  403894:	d26f      	bcs.n	403976 <__udivmoddi4+0x2be>
  403896:	42ab      	cmp	r3, r5
  403898:	d96d      	bls.n	403976 <__udivmoddi4+0x2be>
  40389a:	3802      	subs	r0, #2
  40389c:	443d      	add	r5, r7
  40389e:	1aeb      	subs	r3, r5, r3
  4038a0:	ea40 4101 	orr.w	r1, r0, r1, lsl #16
  4038a4:	e78f      	b.n	4037c6 <__udivmoddi4+0x10e>
  4038a6:	f1c1 0720 	rsb	r7, r1, #32
  4038aa:	fa22 f807 	lsr.w	r8, r2, r7
  4038ae:	408b      	lsls	r3, r1
  4038b0:	fa05 f401 	lsl.w	r4, r5, r1
  4038b4:	ea48 0303 	orr.w	r3, r8, r3
  4038b8:	fa20 fe07 	lsr.w	lr, r0, r7
  4038bc:	ea4f 4c13 	mov.w	ip, r3, lsr #16
  4038c0:	40fd      	lsrs	r5, r7
  4038c2:	ea4e 0e04 	orr.w	lr, lr, r4
  4038c6:	fbb5 f9fc 	udiv	r9, r5, ip
  4038ca:	ea4f 441e 	mov.w	r4, lr, lsr #16
  4038ce:	fb0c 5519 	mls	r5, ip, r9, r5
  4038d2:	fa1f f883 	uxth.w	r8, r3
  4038d6:	ea44 4505 	orr.w	r5, r4, r5, lsl #16
  4038da:	fb09 f408 	mul.w	r4, r9, r8
  4038de:	42ac      	cmp	r4, r5
  4038e0:	fa02 f201 	lsl.w	r2, r2, r1
  4038e4:	fa00 fa01 	lsl.w	sl, r0, r1
  4038e8:	d908      	bls.n	4038fc <__udivmoddi4+0x244>
  4038ea:	18ed      	adds	r5, r5, r3
  4038ec:	f109 30ff 	add.w	r0, r9, #4294967295
  4038f0:	d243      	bcs.n	40397a <__udivmoddi4+0x2c2>
  4038f2:	42ac      	cmp	r4, r5
  4038f4:	d941      	bls.n	40397a <__udivmoddi4+0x2c2>
  4038f6:	f1a9 0902 	sub.w	r9, r9, #2
  4038fa:	441d      	add	r5, r3
  4038fc:	1b2d      	subs	r5, r5, r4
  4038fe:	fa1f fe8e 	uxth.w	lr, lr
  403902:	fbb5 f0fc 	udiv	r0, r5, ip
  403906:	fb0c 5510 	mls	r5, ip, r0, r5
  40390a:	ea4e 4405 	orr.w	r4, lr, r5, lsl #16
  40390e:	fb00 f808 	mul.w	r8, r0, r8
  403912:	45a0      	cmp	r8, r4
  403914:	d907      	bls.n	403926 <__udivmoddi4+0x26e>
  403916:	18e4      	adds	r4, r4, r3
  403918:	f100 35ff 	add.w	r5, r0, #4294967295
  40391c:	d229      	bcs.n	403972 <__udivmoddi4+0x2ba>
  40391e:	45a0      	cmp	r8, r4
  403920:	d927      	bls.n	403972 <__udivmoddi4+0x2ba>
  403922:	3802      	subs	r0, #2
  403924:	441c      	add	r4, r3
  403926:	ea40 4009 	orr.w	r0, r0, r9, lsl #16
  40392a:	eba4 0408 	sub.w	r4, r4, r8
  40392e:	fba0 8902 	umull	r8, r9, r0, r2
  403932:	454c      	cmp	r4, r9
  403934:	46c6      	mov	lr, r8
  403936:	464d      	mov	r5, r9
  403938:	d315      	bcc.n	403966 <__udivmoddi4+0x2ae>
  40393a:	d012      	beq.n	403962 <__udivmoddi4+0x2aa>
  40393c:	b156      	cbz	r6, 403954 <__udivmoddi4+0x29c>
  40393e:	ebba 030e 	subs.w	r3, sl, lr
  403942:	eb64 0405 	sbc.w	r4, r4, r5
  403946:	fa04 f707 	lsl.w	r7, r4, r7
  40394a:	40cb      	lsrs	r3, r1
  40394c:	431f      	orrs	r7, r3
  40394e:	40cc      	lsrs	r4, r1
  403950:	6037      	str	r7, [r6, #0]
  403952:	6074      	str	r4, [r6, #4]
  403954:	2100      	movs	r1, #0
  403956:	e8bd 87f0 	ldmia.w	sp!, {r4, r5, r6, r7, r8, r9, sl, pc}
  40395a:	4618      	mov	r0, r3
  40395c:	e6f8      	b.n	403750 <__udivmoddi4+0x98>
  40395e:	4690      	mov	r8, r2
  403960:	e6e0      	b.n	403724 <__udivmoddi4+0x6c>
  403962:	45c2      	cmp	sl, r8
  403964:	d2ea      	bcs.n	40393c <__udivmoddi4+0x284>
  403966:	ebb8 0e02 	subs.w	lr, r8, r2
  40396a:	eb69 0503 	sbc.w	r5, r9, r3
  40396e:	3801      	subs	r0, #1
  403970:	e7e4      	b.n	40393c <__udivmoddi4+0x284>
  403972:	4628      	mov	r0, r5
  403974:	e7d7      	b.n	403926 <__udivmoddi4+0x26e>
  403976:	4640      	mov	r0, r8
  403978:	e791      	b.n	40389e <__udivmoddi4+0x1e6>
  40397a:	4681      	mov	r9, r0
  40397c:	e7be      	b.n	4038fc <__udivmoddi4+0x244>
  40397e:	4601      	mov	r1, r0
  403980:	e778      	b.n	403874 <__udivmoddi4+0x1bc>
  403982:	3802      	subs	r0, #2
  403984:	443c      	add	r4, r7
  403986:	e745      	b.n	403814 <__udivmoddi4+0x15c>
  403988:	4608      	mov	r0, r1
  40398a:	e708      	b.n	40379e <__udivmoddi4+0xe6>
  40398c:	f1a8 0802 	sub.w	r8, r8, #2
  403990:	443d      	add	r5, r7
  403992:	e72b      	b.n	4037ec <__udivmoddi4+0x134>

00403994 <__aeabi_idiv0>:
  403994:	4770      	bx	lr
  403996:	bf00      	nop

00403998 <__libc_init_array>:
  403998:	b570      	push	{r4, r5, r6, lr}
  40399a:	4e0f      	ldr	r6, [pc, #60]	; (4039d8 <__libc_init_array+0x40>)
  40399c:	4d0f      	ldr	r5, [pc, #60]	; (4039dc <__libc_init_array+0x44>)
  40399e:	1b76      	subs	r6, r6, r5
  4039a0:	10b6      	asrs	r6, r6, #2
  4039a2:	bf18      	it	ne
  4039a4:	2400      	movne	r4, #0
  4039a6:	d005      	beq.n	4039b4 <__libc_init_array+0x1c>
  4039a8:	3401      	adds	r4, #1
  4039aa:	f855 3b04 	ldr.w	r3, [r5], #4
  4039ae:	4798      	blx	r3
  4039b0:	42a6      	cmp	r6, r4
  4039b2:	d1f9      	bne.n	4039a8 <__libc_init_array+0x10>
  4039b4:	4e0a      	ldr	r6, [pc, #40]	; (4039e0 <__libc_init_array+0x48>)
  4039b6:	4d0b      	ldr	r5, [pc, #44]	; (4039e4 <__libc_init_array+0x4c>)
  4039b8:	1b76      	subs	r6, r6, r5
  4039ba:	f000 f94f 	bl	403c5c <_init>
  4039be:	10b6      	asrs	r6, r6, #2
  4039c0:	bf18      	it	ne
  4039c2:	2400      	movne	r4, #0
  4039c4:	d006      	beq.n	4039d4 <__libc_init_array+0x3c>
  4039c6:	3401      	adds	r4, #1
  4039c8:	f855 3b04 	ldr.w	r3, [r5], #4
  4039cc:	4798      	blx	r3
  4039ce:	42a6      	cmp	r6, r4
  4039d0:	d1f9      	bne.n	4039c6 <__libc_init_array+0x2e>
  4039d2:	bd70      	pop	{r4, r5, r6, pc}
  4039d4:	bd70      	pop	{r4, r5, r6, pc}
  4039d6:	bf00      	nop
  4039d8:	00403c68 	.word	0x00403c68
  4039dc:	00403c68 	.word	0x00403c68
  4039e0:	00403c70 	.word	0x00403c70
  4039e4:	00403c68 	.word	0x00403c68

004039e8 <memset>:
  4039e8:	b470      	push	{r4, r5, r6}
  4039ea:	0786      	lsls	r6, r0, #30
  4039ec:	d046      	beq.n	403a7c <memset+0x94>
  4039ee:	1e54      	subs	r4, r2, #1
  4039f0:	2a00      	cmp	r2, #0
  4039f2:	d041      	beq.n	403a78 <memset+0x90>
  4039f4:	b2ca      	uxtb	r2, r1
  4039f6:	4603      	mov	r3, r0
  4039f8:	e002      	b.n	403a00 <memset+0x18>
  4039fa:	f114 34ff 	adds.w	r4, r4, #4294967295
  4039fe:	d33b      	bcc.n	403a78 <memset+0x90>
  403a00:	f803 2b01 	strb.w	r2, [r3], #1
  403a04:	079d      	lsls	r5, r3, #30
  403a06:	d1f8      	bne.n	4039fa <memset+0x12>
  403a08:	2c03      	cmp	r4, #3
  403a0a:	d92e      	bls.n	403a6a <memset+0x82>
  403a0c:	b2cd      	uxtb	r5, r1
  403a0e:	ea45 2505 	orr.w	r5, r5, r5, lsl #8
  403a12:	2c0f      	cmp	r4, #15
  403a14:	ea45 4505 	orr.w	r5, r5, r5, lsl #16
  403a18:	d919      	bls.n	403a4e <memset+0x66>
  403a1a:	f103 0210 	add.w	r2, r3, #16
  403a1e:	4626      	mov	r6, r4
  403a20:	3e10      	subs	r6, #16
  403a22:	2e0f      	cmp	r6, #15
  403a24:	f842 5c10 	str.w	r5, [r2, #-16]
  403a28:	f842 5c0c 	str.w	r5, [r2, #-12]
  403a2c:	f842 5c08 	str.w	r5, [r2, #-8]
  403a30:	f842 5c04 	str.w	r5, [r2, #-4]
  403a34:	f102 0210 	add.w	r2, r2, #16
  403a38:	d8f2      	bhi.n	403a20 <memset+0x38>
  403a3a:	f1a4 0210 	sub.w	r2, r4, #16
  403a3e:	f022 020f 	bic.w	r2, r2, #15
  403a42:	f004 040f 	and.w	r4, r4, #15
  403a46:	3210      	adds	r2, #16
  403a48:	2c03      	cmp	r4, #3
  403a4a:	4413      	add	r3, r2
  403a4c:	d90d      	bls.n	403a6a <memset+0x82>
  403a4e:	461e      	mov	r6, r3
  403a50:	4622      	mov	r2, r4
  403a52:	3a04      	subs	r2, #4
  403a54:	2a03      	cmp	r2, #3
  403a56:	f846 5b04 	str.w	r5, [r6], #4
  403a5a:	d8fa      	bhi.n	403a52 <memset+0x6a>
  403a5c:	1f22      	subs	r2, r4, #4
  403a5e:	f022 0203 	bic.w	r2, r2, #3
  403a62:	3204      	adds	r2, #4
  403a64:	4413      	add	r3, r2
  403a66:	f004 0403 	and.w	r4, r4, #3
  403a6a:	b12c      	cbz	r4, 403a78 <memset+0x90>
  403a6c:	b2c9      	uxtb	r1, r1
  403a6e:	441c      	add	r4, r3
  403a70:	f803 1b01 	strb.w	r1, [r3], #1
  403a74:	429c      	cmp	r4, r3
  403a76:	d1fb      	bne.n	403a70 <memset+0x88>
  403a78:	bc70      	pop	{r4, r5, r6}
  403a7a:	4770      	bx	lr
  403a7c:	4614      	mov	r4, r2
  403a7e:	4603      	mov	r3, r0
  403a80:	e7c2      	b.n	403a08 <memset+0x20>
  403a82:	bf00      	nop

00403a84 <register_fini>:
  403a84:	4b02      	ldr	r3, [pc, #8]	; (403a90 <register_fini+0xc>)
  403a86:	b113      	cbz	r3, 403a8e <register_fini+0xa>
  403a88:	4802      	ldr	r0, [pc, #8]	; (403a94 <register_fini+0x10>)
  403a8a:	f000 b805 	b.w	403a98 <atexit>
  403a8e:	4770      	bx	lr
  403a90:	00000000 	.word	0x00000000
  403a94:	00403aa5 	.word	0x00403aa5

00403a98 <atexit>:
  403a98:	2300      	movs	r3, #0
  403a9a:	4601      	mov	r1, r0
  403a9c:	461a      	mov	r2, r3
  403a9e:	4618      	mov	r0, r3
  403aa0:	f000 b81e 	b.w	403ae0 <__register_exitproc>

00403aa4 <__libc_fini_array>:
  403aa4:	b538      	push	{r3, r4, r5, lr}
  403aa6:	4c0a      	ldr	r4, [pc, #40]	; (403ad0 <__libc_fini_array+0x2c>)
  403aa8:	4d0a      	ldr	r5, [pc, #40]	; (403ad4 <__libc_fini_array+0x30>)
  403aaa:	1b64      	subs	r4, r4, r5
  403aac:	10a4      	asrs	r4, r4, #2
  403aae:	d00a      	beq.n	403ac6 <__libc_fini_array+0x22>
  403ab0:	f104 4380 	add.w	r3, r4, #1073741824	; 0x40000000
  403ab4:	3b01      	subs	r3, #1
  403ab6:	eb05 0583 	add.w	r5, r5, r3, lsl #2
  403aba:	3c01      	subs	r4, #1
  403abc:	f855 3904 	ldr.w	r3, [r5], #-4
  403ac0:	4798      	blx	r3
  403ac2:	2c00      	cmp	r4, #0
  403ac4:	d1f9      	bne.n	403aba <__libc_fini_array+0x16>
  403ac6:	e8bd 4038 	ldmia.w	sp!, {r3, r4, r5, lr}
  403aca:	f000 b8d1 	b.w	403c70 <_fini>
  403ace:	bf00      	nop
  403ad0:	00403c80 	.word	0x00403c80
  403ad4:	00403c7c 	.word	0x00403c7c

00403ad8 <__retarget_lock_acquire_recursive>:
  403ad8:	4770      	bx	lr
  403ada:	bf00      	nop

00403adc <__retarget_lock_release_recursive>:
  403adc:	4770      	bx	lr
  403ade:	bf00      	nop

00403ae0 <__register_exitproc>:
  403ae0:	e92d 43f8 	stmdb	sp!, {r3, r4, r5, r6, r7, r8, r9, lr}
  403ae4:	4d2c      	ldr	r5, [pc, #176]	; (403b98 <__register_exitproc+0xb8>)
  403ae6:	4606      	mov	r6, r0
  403ae8:	6828      	ldr	r0, [r5, #0]
  403aea:	4698      	mov	r8, r3
  403aec:	460f      	mov	r7, r1
  403aee:	4691      	mov	r9, r2
  403af0:	f7ff fff2 	bl	403ad8 <__retarget_lock_acquire_recursive>
  403af4:	4b29      	ldr	r3, [pc, #164]	; (403b9c <__register_exitproc+0xbc>)
  403af6:	681c      	ldr	r4, [r3, #0]
  403af8:	f8d4 3148 	ldr.w	r3, [r4, #328]	; 0x148
  403afc:	2b00      	cmp	r3, #0
  403afe:	d03e      	beq.n	403b7e <__register_exitproc+0x9e>
  403b00:	685a      	ldr	r2, [r3, #4]
  403b02:	2a1f      	cmp	r2, #31
  403b04:	dc1c      	bgt.n	403b40 <__register_exitproc+0x60>
  403b06:	f102 0e01 	add.w	lr, r2, #1
  403b0a:	b176      	cbz	r6, 403b2a <__register_exitproc+0x4a>
  403b0c:	eb03 0182 	add.w	r1, r3, r2, lsl #2
  403b10:	2401      	movs	r4, #1
  403b12:	f8c1 9088 	str.w	r9, [r1, #136]	; 0x88
  403b16:	f8d3 0188 	ldr.w	r0, [r3, #392]	; 0x188
  403b1a:	4094      	lsls	r4, r2
  403b1c:	4320      	orrs	r0, r4
  403b1e:	2e02      	cmp	r6, #2
  403b20:	f8c3 0188 	str.w	r0, [r3, #392]	; 0x188
  403b24:	f8c1 8108 	str.w	r8, [r1, #264]	; 0x108
  403b28:	d023      	beq.n	403b72 <__register_exitproc+0x92>
  403b2a:	3202      	adds	r2, #2
  403b2c:	f8c3 e004 	str.w	lr, [r3, #4]
  403b30:	6828      	ldr	r0, [r5, #0]
  403b32:	f843 7022 	str.w	r7, [r3, r2, lsl #2]
  403b36:	f7ff ffd1 	bl	403adc <__retarget_lock_release_recursive>
  403b3a:	2000      	movs	r0, #0
  403b3c:	e8bd 83f8 	ldmia.w	sp!, {r3, r4, r5, r6, r7, r8, r9, pc}
  403b40:	4b17      	ldr	r3, [pc, #92]	; (403ba0 <__register_exitproc+0xc0>)
  403b42:	b30b      	cbz	r3, 403b88 <__register_exitproc+0xa8>
  403b44:	f44f 70c8 	mov.w	r0, #400	; 0x190
  403b48:	f3af 8000 	nop.w
  403b4c:	4603      	mov	r3, r0
  403b4e:	b1d8      	cbz	r0, 403b88 <__register_exitproc+0xa8>
  403b50:	f8d4 2148 	ldr.w	r2, [r4, #328]	; 0x148
  403b54:	6002      	str	r2, [r0, #0]
  403b56:	2100      	movs	r1, #0
  403b58:	6041      	str	r1, [r0, #4]
  403b5a:	460a      	mov	r2, r1
  403b5c:	f8c4 0148 	str.w	r0, [r4, #328]	; 0x148
  403b60:	f04f 0e01 	mov.w	lr, #1
  403b64:	f8c0 1188 	str.w	r1, [r0, #392]	; 0x188
  403b68:	f8c0 118c 	str.w	r1, [r0, #396]	; 0x18c
  403b6c:	2e00      	cmp	r6, #0
  403b6e:	d0dc      	beq.n	403b2a <__register_exitproc+0x4a>
  403b70:	e7cc      	b.n	403b0c <__register_exitproc+0x2c>
  403b72:	f8d3 118c 	ldr.w	r1, [r3, #396]	; 0x18c
  403b76:	430c      	orrs	r4, r1
  403b78:	f8c3 418c 	str.w	r4, [r3, #396]	; 0x18c
  403b7c:	e7d5      	b.n	403b2a <__register_exitproc+0x4a>
  403b7e:	f504 73a6 	add.w	r3, r4, #332	; 0x14c
  403b82:	f8c4 3148 	str.w	r3, [r4, #328]	; 0x148
  403b86:	e7bb      	b.n	403b00 <__register_exitproc+0x20>
  403b88:	6828      	ldr	r0, [r5, #0]
  403b8a:	f7ff ffa7 	bl	403adc <__retarget_lock_release_recursive>
  403b8e:	f04f 30ff 	mov.w	r0, #4294967295
  403b92:	e8bd 83f8 	ldmia.w	sp!, {r3, r4, r5, r6, r7, r8, r9, pc}
  403b96:	bf00      	nop
  403b98:	20000860 	.word	0x20000860
  403b9c:	00403c58 	.word	0x00403c58
	...
  403ba8:	0000000d 	.word	0x0000000d
  403bac:	00000000 	.word	0x00000000
  403bb0:	0000000e 	.word	0x0000000e
  403bb4:	00000007 	.word	0x00000007
  403bb8:	000007c7 	.word	0x000007c7

00403bbc <mmc_trans_multipliers>:
  403bbc:	00000000 0000000a 0000000c 0000000d     ................
  403bcc:	0000000f 00000014 0000001a 0000001e     ................
  403bdc:	00000023 00000028 0000002d 00000034     #...(...-...4...
  403bec:	00000037 0000003c 00000046 00000050     7...<...F...P...

00403bfc <sd_mmc_trans_units>:
  403bfc:	0000000a 00000064 000003e8 00002710     ....d........'..
	...

00403c18 <sd_trans_multipliers>:
  403c18:	00000000 0000000a 0000000c 0000000d     ................
  403c28:	0000000f 00000014 00000019 0000001e     ................
  403c38:	00000023 00000028 0000002d 00000032     #...(...-...2...
  403c48:	00000037 0000003c 00000046 00000050     7...<...F...P...

00403c58 <_global_impure_ptr>:
  403c58:	20000438                                8.. 

00403c5c <_init>:
  403c5c:	b5f8      	push	{r3, r4, r5, r6, r7, lr}
  403c5e:	bf00      	nop
  403c60:	bcf8      	pop	{r3, r4, r5, r6, r7}
  403c62:	bc08      	pop	{r3}
  403c64:	469e      	mov	lr, r3
  403c66:	4770      	bx	lr

00403c68 <__init_array_start>:
  403c68:	00403a85 	.word	0x00403a85

00403c6c <__frame_dummy_init_array_entry>:
  403c6c:	004000f1                                ..@.

00403c70 <_fini>:
  403c70:	b5f8      	push	{r3, r4, r5, r6, r7, lr}
  403c72:	bf00      	nop
  403c74:	bcf8      	pop	{r3, r4, r5, r6, r7}
  403c76:	bc08      	pop	{r3}
  403c78:	469e      	mov	lr, r3
  403c7a:	4770      	bx	lr

00403c7c <__fini_array_start>:
  403c7c:	004000cd 	.word	0x004000cd

Disassembly of section .relocate:

20000000 <portable_delay_cycles>:
20000000:	f3bf 8f5f 	dmb	sy
20000004:	3801      	subs	r0, #1
20000006:	d1fb      	bne.n	20000000 <portable_delay_cycles>
20000008:	4770      	bx	lr
	...

2000000c <Font08px_123>:
2000000c:	1003 826c                                   ..l.

20000010 <Font08px_124>:
20000010:	fe01 0000                                   ....

20000014 <Font08px_125>:
20000014:	8203 106c                                   ..l.

20000018 <Font08px_126>:
20000018:	1005 1008 1020 0000                         .... ...

20000020 <Font08px_32>:
20000020:	0002 0000                                   ....

20000024 <Font08px_33>:
20000024:	be01 0000                                   ....

20000028 <Font08px_34>:
20000028:	0603 0600                                   ....

2000002c <Font08px_35>:
2000002c:	2805 28fe 28fe 0000                         .(.(.(..

20000034 <Font08px_36>:
20000034:	4805 fe54 2454 0000                         .HT.T$..

2000003c <Font08px_37>:
2000003c:	4605 1026 c4c8 0000                         .F&.....

20000044 <Font08px_38>:
20000044:	6c05 ac92 a040 0000                         .l..@...

2000004c <Font08px_39>:
2000004c:	0601 0000                                   ....

20000050 <Font08px_40>:
20000050:	3803 8244                                   .8D.

20000054 <Font08px_41>:
20000054:	8203 3844                                   ..D8

20000058 <Font08px_42>:
20000058:	2803 2810                                   .(.(

2000005c <Font08px_43>:
2000005c:	1003 1038                                   ..8.

20000060 <Font08px_44>:
20000060:	c001 0000                                   ....

20000064 <Font08px_45>:
20000064:	1003 1010                                   ....

20000068 <Font08px_46>:
20000068:	8001 0000                                   ....

2000006c <Font08px_47>:
2000006c:	c003 0638                                   ..8.

20000070 <Font08px_58>:
20000070:	4401 0000                                   .D..

20000074 <Font08px_59>:
20000074:	c401 0000                                   ....

20000078 <Font08px_60>:
20000078:	1004 4428 0082 0000                         ..(D....

20000080 <Font08px_61>:
20000080:	2804 2828 0028 0000                         .((((...

20000088 <Font08px_62>:
20000088:	8204 2844 0010 0000                         ..D(....

20000090 <Font08px_63>:
20000090:	0405 a202 0c12 0000                         ........

20000098 <Font08px_64>:
20000098:	3808 9244 aaaa 24ba 0018 0000               .8D....$....

200000a4 <Font08px_91>:
200000a4:	fe03 8282                                   ....

200000a8 <Font08px_92>:
200000a8:	0603 c038                                   ..8.

200000ac <Font08px_93>:
200000ac:	8203 fe82                                   ....

200000b0 <Font08px_94>:
200000b0:	0403 0402                                   ....

200000b4 <Font08px_95>:
200000b4:	8003 8080                                   ....

200000b8 <Font08px_96>:
200000b8:	0202 0004                                   ....

200000bc <Font08px_N0>:
200000bc:	7c05 92a2 7c8a 0000                         .|...|..

200000c4 <Font08px_N1>:
200000c4:	0005 fe84 0080 0000                         ........

200000cc <Font08px_N2>:
200000cc:	8405 a2c2 8c92 0000                         ........

200000d4 <Font08px_N3>:
200000d4:	4405 9282 6c92 0000                         .D...l..

200000dc <Font08px_N4>:
200000dc:	3005 2428 20fe 0000                         .0($. ..

200000e4 <Font08px_N5>:
200000e4:	5e05 8a8a 728a 0000                         .^...r..

200000ec <Font08px_N6>:
200000ec:	7c05 9292 6492 0000                         .|...d..

200000f4 <Font08px_N7>:
200000f4:	0205 f202 060a 0000                         ........

200000fc <Font08px_N8>:
200000fc:	6c05 9292 6c92 0000                         .l...l..

20000104 <Font08px_N9>:
20000104:	4c05 9292 7c92 0000                         .L...|..

2000010c <Font08px_UA>:
2000010c:	f805 1214 f814 0000                         ........

20000114 <Font08px_UB>:
20000114:	fe04 9292 006c 0000                         ....l...

2000011c <Font08px_UC>:
2000011c:	7c04 8282 0044 0000                         .|..D...

20000124 <Font08px_UD>:
20000124:	fe04 8282 007c 0000                         ....|...

2000012c <Font08px_UE>:
2000012c:	fe04 9292 0082 0000                         ........

20000134 <Font08px_UF>:
20000134:	fe04 1212 0002 0000                         ........

2000013c <Font08px_UG>:
2000013c:	7c05 9282 f492 0000                         .|......

20000144 <Font08px_UH>:
20000144:	fe04 1010 00fe 0000                         ........

2000014c <Font08px_UI>:
2000014c:	8203 82fe                                   ....

20000150 <Font08px_UJ>:
20000150:	4004 8080 007e 0000                         .@..~...

20000158 <Font08px_UK>:
20000158:	fe05 2810 8244 0000                         ...(D...

20000160 <Font08px_UL>:
20000160:	fe04 8080 0080 0000                         ........

20000168 <Font08px_UM>:
20000168:	fe05 0804 fe04 0000                         ........

20000170 <Font08px_UN>:
20000170:	fe05 1804 fe60 0000                         ....`...

20000178 <Font08px_UO>:
20000178:	7c04 8282 007c 0000                         .|..|...

20000180 <Font08px_UP>:
20000180:	fe04 1212 000c 0000                         ........

20000188 <Font08px_UQ>:
20000188:	7c05 a282 bc42 0000                         .|..B...

20000190 <Font08px_UR>:
20000190:	fe04 3212 00cc 0000                         ...2....

20000198 <Font08px_US>:
20000198:	4c04 9292 0064 0000                         .L..d...

200001a0 <Font08px_UT>:
200001a0:	0205 fe02 0202 0000                         ........

200001a8 <Font08px_UU>:
200001a8:	7e04 8080 007e 0000                         .~..~...

200001b0 <Font08px_UV>:
200001b0:	0e05 c030 0e30 0000                         ..0.0...

200001b8 <Font08px_UW>:
200001b8:	3e05 38c0 3ec0 0000                         .>.8.>..

200001c0 <Font08px_UX>:
200001c0:	c605 1028 c628 0000                         ..(.(...

200001c8 <Font08px_UY>:
200001c8:	0605 f008 0608 0000                         ........

200001d0 <Font08px_UZ>:
200001d0:	c205 92a2 868a 0000                         ........

200001d8 <Font08px_la>:
200001d8:	7004 8888 00f8 0000                         .p......

200001e0 <Font08px_lb>:
200001e0:	fe04 8888 0070 0000                         ....p...

200001e8 <Font08px_lc>:
200001e8:	7004 8888 0088 0000                         .p......

200001f0 <Font08px_ld>:
200001f0:	7004 8888 00fe 0000                         .p......

200001f8 <Font08px_le>:
200001f8:	7004 a8a8 0030 0000                         .p..0...

20000200 <Font08px_lf>:
20000200:	fc03 0212                                   ....

20000204 <Font08px_lg>:
20000204:	1004 a8a8 0078 0000                         ....x...

2000020c <Font08px_lh>:
2000020c:	fe04 0810 00f0 0000                         ........

20000214 <Font08px_li>:
20000214:	fa01 0000                                   ....

20000218 <Font08px_lj>:
20000218:	8002 007a                                   ..z.

2000021c <Font08px_lk>:
2000021c:	fe04 5020 0088 0000                         .. P....

20000224 <Font08px_ll>:
20000224:	fe01 0000                                   ....

20000228 <Font08px_lm>:
20000228:	f805 f008 f008 0000                         ........

20000230 <Font08px_ln>:
20000230:	f804 0810 00f0 0000                         ........

20000238 <Font08px_lo>:
20000238:	7004 8888 0070 0000                         .p..p...

20000240 <Font08px_lp>:
20000240:	f804 2828 0010 0000                         ..((....

20000248 <Font08px_lq>:
20000248:	1004 2828 00f8 0000                         ..((....

20000250 <Font08px_lr>:
20000250:	f803 0810                                   ....

20000254 <Font08px_ls>:
20000254:	9004 a8a8 0048 0000                         ....H...

2000025c <Font08px_lt>:
2000025c:	0803 887c                                   ..|.

20000260 <Font08px_lu>:
20000260:	7804 8080 00f8 0000                         .x......

20000268 <Font08px_lv>:
20000268:	1805 8060 1860 0000                         ..`.`...

20000270 <Font08px_lw>:
20000270:	3805 30c0 38c0 0000                         .8.0.8..

20000278 <Font08px_lx>:
20000278:	8805 2050 8850 0000                         ..P P...

20000280 <Font08px_ly>:
20000280:	1804 a0a0 0078 0000                         ....x...

20000288 <Font08px_lz>:
20000288:	c803 98a8                                   ....

2000028c <font_table>:
2000028c:	0020 2000 0024 2000 0028 2000 002c 2000      .. $.. (.. ,.. 
2000029c:	0034 2000 003c 2000 0044 2000 004c 2000     4.. <.. D.. L.. 
200002ac:	0050 2000 0054 2000 0058 2000 005c 2000     P.. T.. X.. \.. 
200002bc:	0060 2000 0064 2000 0068 2000 006c 2000     `.. d.. h.. l.. 
200002cc:	00bc 2000 00c4 2000 00cc 2000 00d4 2000     ... ... ... ... 
200002dc:	00dc 2000 00e4 2000 00ec 2000 00f4 2000     ... ... ... ... 
200002ec:	00fc 2000 0104 2000 0070 2000 0074 2000     ... ... p.. t.. 
200002fc:	0078 2000 0080 2000 0088 2000 0090 2000     x.. ... ... ... 
2000030c:	0098 2000 010c 2000 0114 2000 011c 2000     ... ... ... ... 
2000031c:	0124 2000 012c 2000 0134 2000 013c 2000     $.. ,.. 4.. <.. 
2000032c:	0144 2000 014c 2000 0150 2000 0158 2000     D.. L.. P.. X.. 
2000033c:	0160 2000 0168 2000 0170 2000 0178 2000     `.. h.. p.. x.. 
2000034c:	0180 2000 0188 2000 0190 2000 0198 2000     ... ... ... ... 
2000035c:	01a0 2000 01a8 2000 01b0 2000 01b8 2000     ... ... ... ... 
2000036c:	01c0 2000 01c8 2000 01d0 2000 00a4 2000     ... ... ... ... 
2000037c:	00a8 2000 00ac 2000 00b0 2000 00b4 2000     ... ... ... ... 
2000038c:	00b8 2000 01d8 2000 01e0 2000 01e8 2000     ... ... ... ... 
2000039c:	01f0 2000 01f8 2000 0200 2000 0204 2000     ... ... ... ... 
200003ac:	020c 2000 0214 2000 0218 2000 021c 2000     ... ... ... ... 
200003bc:	0224 2000 0228 2000 0230 2000 0238 2000     $.. (.. 0.. 8.. 
200003cc:	0240 2000 0248 2000 0250 2000 0254 2000     @.. H.. P.. T.. 
200003dc:	025c 2000 0260 2000 0268 2000 0270 2000     \.. `.. h.. p.. 
200003ec:	0278 2000 0280 2000 0288 2000 000c 2000     x.. ... ... ... 
200003fc:	0010 2000 0014 2000 0018 2000               ... ... ... 

20000408 <sd_mmc_cards>:
	...
20000410:	004c 0000 0000 0000 0000 0000 0000 0000     L...............
	...

2000042c <sd_mmc_spi_devices>:
2000042c:	0001 0000                                   ....

20000430 <SystemCoreClock>:
20000430:	0900 003d 0000 0000                         ..=.....

20000438 <impure_data>:
20000438:	0000 0000 0724 2000 078c 2000 07f4 2000     ....$.. ... ... 
	...
200004e0:	0001 0000 0000 0000 330e abcd 1234 e66d     .........3..4.m.
200004f0:	deec 0005 000b 0000 0000 0000 0000 0000     ................
	...

20000860 <__atexit_recursive_mutex>:
20000860:	0bf8 2000                                   ... 
