
MiniOS.elf:     file format elf32-littlearm

Sections:
Idx Name          Size      VMA       LMA       File off  Algn
  0 .text         00007f64  00400000  00400000  00010000  2**6
                  CONTENTS, ALLOC, LOAD, READONLY, CODE
  1 .ARM.exidx    00000008  00407f64  00407f64  00017f64  2**2
                  CONTENTS, ALLOC, LOAD, READONLY, DATA
  2 .relocate     00000e08  20000000  00407f6c  00020000  2**3
                  CONTENTS, ALLOC, LOAD, CODE
  3 .bss          000003d0  20000e08  00408d74  00020e08  2**2
                  ALLOC
  4 .stack        00003000  200011d8  00409144  00020e08  2**0
                  ALLOC
  5 .ARM.attributes 0000002a  00000000  00000000  00020e08  2**0
                  CONTENTS, READONLY
  6 .comment      00000059  00000000  00000000  00020e32  2**0
                  CONTENTS, READONLY
  7 .debug_info   0002d46b  00000000  00000000  00020e8b  2**0
                  CONTENTS, READONLY, DEBUGGING
  8 .debug_abbrev 00006072  00000000  00000000  0004e2f6  2**0
                  CONTENTS, READONLY, DEBUGGING
  9 .debug_loc    00011158  00000000  00000000  00054368  2**0
                  CONTENTS, READONLY, DEBUGGING
 10 .debug_aranges 00001350  00000000  00000000  000654c0  2**3
                  CONTENTS, READONLY, DEBUGGING
 11 .debug_ranges 000015f8  00000000  00000000  00066810  2**0
                  CONTENTS, READONLY, DEBUGGING
 12 .debug_macro  0001c254  00000000  00000000  00067e08  2**0
                  CONTENTS, READONLY, DEBUGGING
 13 .debug_line   0001a11c  00000000  00000000  0008405c  2**0
                  CONTENTS, READONLY, DEBUGGING
 14 .debug_str    0005ecc9  00000000  00000000  0009e178  2**0
                  CONTENTS, READONLY, DEBUGGING
 15 .debug_frame  00003b1c  00000000  00000000  000fce44  2**2
                  CONTENTS, READONLY, DEBUGGING

Disassembly of section .text:

00400000 <exception_table>:
  400000:	d8 41 00 20 79 2c 40 00 75 2c 40 00 75 2c 40 00     .A. y,@.u,@.u,@.
  400010:	75 2c 40 00 75 2c 40 00 75 2c 40 00 00 00 00 00     u,@.u,@.u,@.....
	...
  40002c:	0d 02 40 00 75 2c 40 00 00 00 00 00 75 2c 40 00     ..@.u,@.....u,@.
  40003c:	c1 01 40 00 75 2c 40 00 75 2c 40 00 75 2c 40 00     ..@.u,@.u,@.u,@.
  40004c:	01 04 40 00 75 2c 40 00 75 2c 40 00 75 2c 40 00     ..@.u,@.u,@.u,@.
  40005c:	75 2c 40 00 75 2c 40 00 35 0a 40 00 00 00 00 00     u,@.u,@.5.@.....
  40006c:	7d 23 40 00 91 23 40 00 a5 23 40 00 75 2c 40 00     }#@..#@..#@.u,@.
  40007c:	71 0a 40 00 00 00 00 00 00 00 00 00 75 2c 40 00     q.@.........u,@.
  40008c:	75 2c 40 00 75 2c 40 00 75 2c 40 00 75 2c 40 00     u,@.u,@.u,@.u,@.
  40009c:	75 2c 40 00 75 2c 40 00 75 2c 40 00 75 2c 40 00     u,@.u,@.u,@.u,@.
  4000ac:	75 2c 40 00 75 2c 40 00 75 2c 40 00 75 2c 40 00     u,@.u,@.u,@.u,@.
  4000bc:	75 2c 40 00 75 2c 40 00 75 2c 40 00 75 2c 40 00     u,@.u,@.u,@.u,@.

004000cc <__do_global_dtors_aux>:
  4000cc:	b510      	push	{r4, lr}
  4000ce:	4c05      	ldr	r4, [pc, #20]	; (4000e4 <__do_global_dtors_aux+0x18>)
  4000d0:	7823      	ldrb	r3, [r4, #0]
  4000d2:	b933      	cbnz	r3, 4000e2 <__do_global_dtors_aux+0x16>
  4000d4:	4b04      	ldr	r3, [pc, #16]	; (4000e8 <__do_global_dtors_aux+0x1c>)
  4000d6:	b113      	cbz	r3, 4000de <__do_global_dtors_aux+0x12>
  4000d8:	4804      	ldr	r0, [pc, #16]	; (4000ec <__do_global_dtors_aux+0x20>)
  4000da:	f3af 8000 	nop.w
  4000de:	2301      	movs	r3, #1
  4000e0:	7023      	strb	r3, [r4, #0]
  4000e2:	bd10      	pop	{r4, pc}
  4000e4:	20000e08 	.word	0x20000e08
  4000e8:	00000000 	.word	0x00000000
  4000ec:	00407f6c 	.word	0x00407f6c

004000f0 <frame_dummy>:
  4000f0:	4b0c      	ldr	r3, [pc, #48]	; (400124 <frame_dummy+0x34>)
  4000f2:	b143      	cbz	r3, 400106 <frame_dummy+0x16>
  4000f4:	480c      	ldr	r0, [pc, #48]	; (400128 <frame_dummy+0x38>)
  4000f6:	490d      	ldr	r1, [pc, #52]	; (40012c <frame_dummy+0x3c>)
  4000f8:	b510      	push	{r4, lr}
  4000fa:	f3af 8000 	nop.w
  4000fe:	480c      	ldr	r0, [pc, #48]	; (400130 <frame_dummy+0x40>)
  400100:	6803      	ldr	r3, [r0, #0]
  400102:	b923      	cbnz	r3, 40010e <frame_dummy+0x1e>
  400104:	bd10      	pop	{r4, pc}
  400106:	480a      	ldr	r0, [pc, #40]	; (400130 <frame_dummy+0x40>)
  400108:	6803      	ldr	r3, [r0, #0]
  40010a:	b933      	cbnz	r3, 40011a <frame_dummy+0x2a>
  40010c:	4770      	bx	lr
  40010e:	4b09      	ldr	r3, [pc, #36]	; (400134 <frame_dummy+0x44>)
  400110:	2b00      	cmp	r3, #0
  400112:	d0f7      	beq.n	400104 <frame_dummy+0x14>
  400114:	e8bd 4010 	ldmia.w	sp!, {r4, lr}
  400118:	4718      	bx	r3
  40011a:	4b06      	ldr	r3, [pc, #24]	; (400134 <frame_dummy+0x44>)
  40011c:	2b00      	cmp	r3, #0
  40011e:	d0f5      	beq.n	40010c <frame_dummy+0x1c>
  400120:	4718      	bx	r3
  400122:	bf00      	nop
  400124:	00000000 	.word	0x00000000
  400128:	00407f6c 	.word	0x00407f6c
  40012c:	20000e0c 	.word	0x20000e0c
  400130:	00407f6c 	.word	0x00407f6c
  400134:	00000000 	.word	0x00000000

00400138 <rtt_init>:
 * \return 0 if successful.
 */
uint32_t rtt_init(Rtt *p_rtt, uint16_t us_prescaler)
{
#if (SAM4N || SAM4S || SAM4E || SAM4C || SAMG51 || SAM4CP || SAM4CM || SAMV71 || SAMV70 || SAME70 || SAMS70)
	p_rtt->RTT_MR = (us_prescaler | RTT_MR_RTTRST | g_wobits_in_rtt_mr);
  400138:	4b03      	ldr	r3, [pc, #12]	; (400148 <rtt_init+0x10>)
  40013a:	681b      	ldr	r3, [r3, #0]
  40013c:	f443 2380 	orr.w	r3, r3, #262144	; 0x40000
  400140:	4319      	orrs	r1, r3
  400142:	6001      	str	r1, [r0, #0]
#else
	p_rtt->RTT_MR = (us_prescaler | RTT_MR_RTTRST);
#endif
	return 0;
}
  400144:	2000      	movs	r0, #0
  400146:	4770      	bx	lr
  400148:	20000e24 	.word	0x20000e24

0040014c <rtt_sel_source>:
 * \param p_rtt Pointer to an RTT instance.
 * \param is_rtc_sel RTC 1Hz Clock Selection.
 */
void rtt_sel_source(Rtt *p_rtt, bool is_rtc_sel)
{
	if(is_rtc_sel) {
  40014c:	b941      	cbnz	r1, 400160 <rtt_sel_source+0x14>
		g_wobits_in_rtt_mr |= RTT_MR_RTC1HZ;
		p_rtt->RTT_MR |= g_wobits_in_rtt_mr;
	} else {
		g_wobits_in_rtt_mr &= ~RTT_MR_RTC1HZ;
  40014e:	4a09      	ldr	r2, [pc, #36]	; (400174 <rtt_sel_source+0x28>)
  400150:	6813      	ldr	r3, [r2, #0]
  400152:	f023 7380 	bic.w	r3, r3, #16777216	; 0x1000000
  400156:	6013      	str	r3, [r2, #0]
		p_rtt->RTT_MR |= g_wobits_in_rtt_mr;
  400158:	6802      	ldr	r2, [r0, #0]
  40015a:	4313      	orrs	r3, r2
  40015c:	6003      	str	r3, [r0, #0]
  40015e:	4770      	bx	lr
		g_wobits_in_rtt_mr |= RTT_MR_RTC1HZ;
  400160:	4a04      	ldr	r2, [pc, #16]	; (400174 <rtt_sel_source+0x28>)
  400162:	6813      	ldr	r3, [r2, #0]
  400164:	f043 7380 	orr.w	r3, r3, #16777216	; 0x1000000
  400168:	6013      	str	r3, [r2, #0]
		p_rtt->RTT_MR |= g_wobits_in_rtt_mr;
  40016a:	6802      	ldr	r2, [r0, #0]
  40016c:	4313      	orrs	r3, r2
  40016e:	6003      	str	r3, [r0, #0]
  400170:	4770      	bx	lr
  400172:	bf00      	nop
  400174:	20000e24 	.word	0x20000e24

00400178 <rtt_disable_interrupt>:
 */
void rtt_disable_interrupt(Rtt *p_rtt, uint32_t ul_sources)
{
	uint32_t temp = 0;

	temp = p_rtt->RTT_MR;
  400178:	6803      	ldr	r3, [r0, #0]
	temp &= (~ul_sources);
  40017a:	ea23 0101 	bic.w	r1, r3, r1
#if (SAM4N || SAM4S || SAM4E || SAM4C || SAMG51 || SAM4CP || SAM4CM || SAMV71 || SAMV70 || SAME70 || SAMS70)
	temp |= g_wobits_in_rtt_mr;
  40017e:	4b02      	ldr	r3, [pc, #8]	; (400188 <rtt_disable_interrupt+0x10>)
  400180:	681b      	ldr	r3, [r3, #0]
  400182:	4319      	orrs	r1, r3
#endif
	p_rtt->RTT_MR = temp;
  400184:	6001      	str	r1, [r0, #0]
  400186:	4770      	bx	lr
  400188:	20000e24 	.word	0x20000e24

0040018c <rtt_read_timer_value>:
 *
 * \return The current Real-time Timer value.
 */
uint32_t rtt_read_timer_value(Rtt *p_rtt)
{
	uint32_t rtt_val = p_rtt->RTT_VR;
  40018c:	6882      	ldr	r2, [r0, #8]

	while (rtt_val != p_rtt->RTT_VR) {
  40018e:	6883      	ldr	r3, [r0, #8]
  400190:	429a      	cmp	r2, r3
  400192:	d003      	beq.n	40019c <rtt_read_timer_value+0x10>
		rtt_val = p_rtt->RTT_VR;
  400194:	6882      	ldr	r2, [r0, #8]
	while (rtt_val != p_rtt->RTT_VR) {
  400196:	6883      	ldr	r3, [r0, #8]
  400198:	4293      	cmp	r3, r2
  40019a:	d1fb      	bne.n	400194 <rtt_read_timer_value+0x8>
	}

	return rtt_val;
}
  40019c:	4618      	mov	r0, r3
  40019e:	4770      	bx	lr

004001a0 <rtt_get_status>:
 *
 * \return The Real-time Timer status.
 */
uint32_t rtt_get_status(Rtt *p_rtt)
{
	return p_rtt->RTT_SR;
  4001a0:	68c0      	ldr	r0, [r0, #12]
}
  4001a2:	4770      	bx	lr

004001a4 <console_init>:
static uint8_t* newline; 

/*
*
*/
void console_init( ){
  4001a4:	4770      	bx	lr
	...

004001a8 <hal_cpu_init>:
*
*	Initializes the CPU. This function must be called before 
*	HAL IO Init. That is: hal_cpu_init(); hal_io_init(); 
*
*/
void hal_cpu_init(void){	
  4001a8:	b508      	push	{r3, lr}
	sysclk_init();  //initialize clocks
  4001aa:	4b01      	ldr	r3, [pc, #4]	; (4001b0 <hal_cpu_init+0x8>)
  4001ac:	4798      	blx	r3
  4001ae:	bd08      	pop	{r3, pc}
  4001b0:	00401b41 	.word	0x00401b41

004001b4 <hal_svc_start>:
*	execution of an SVC instruction
*
*	@param callback the function that gets called on supervisor calls
*/
void hal_svc_start( void(*callback)(void) ){
	svc_callback = callback; //SVC Handler definition is in hal_cpu_asm.s
  4001b4:	4b01      	ldr	r3, [pc, #4]	; (4001bc <hal_svc_start+0x8>)
  4001b6:	6018      	str	r0, [r3, #0]
  4001b8:	4770      	bx	lr
  4001ba:	bf00      	nop
  4001bc:	20001160 	.word	0x20001160

004001c0 <SysTick_Handler>:
	SysTick_Config( ms_to_ticks(tick_freq_in_ms) );
}

//The actual handler in the vector table entry
//(careful with the capital T in SysTick)
void SysTick_Handler(void){
  4001c0:	b508      	push	{r3, lr}
	(*systick_callback)();
  4001c2:	4b02      	ldr	r3, [pc, #8]	; (4001cc <SysTick_Handler+0xc>)
  4001c4:	681b      	ldr	r3, [r3, #0]
  4001c6:	4798      	blx	r3
  4001c8:	bd08      	pop	{r3, pc}
  4001ca:	bf00      	nop
  4001cc:	2000115c 	.word	0x2000115c

004001d0 <hal_delay>:
*
*	Busy-waiting delay
*
*	@param delay_in_ms delay in milliseconds
*/
void hal_delay(uint32_t delay_in_ms){
  4001d0:	b538      	push	{r3, r4, r5, lr}
	delay_ms(delay_in_ms);
  4001d2:	b918      	cbnz	r0, 4001dc <hal_delay+0xc>
  4001d4:	2009      	movs	r0, #9
  4001d6:	4b0a      	ldr	r3, [pc, #40]	; (400200 <hal_delay+0x30>)
  4001d8:	4798      	blx	r3
  4001da:	bd38      	pop	{r3, r4, r5, pc}
  4001dc:	4601      	mov	r1, r0
  4001de:	f243 62b0 	movw	r2, #14000	; 0x36b0
  4001e2:	2300      	movs	r3, #0
  4001e4:	f243 64af 	movw	r4, #13999	; 0x36af
  4001e8:	2500      	movs	r5, #0
  4001ea:	4806      	ldr	r0, [pc, #24]	; (400204 <hal_delay+0x34>)
  4001ec:	fbe0 4501 	umlal	r4, r5, r0, r1
  4001f0:	4620      	mov	r0, r4
  4001f2:	4629      	mov	r1, r5
  4001f4:	4c04      	ldr	r4, [pc, #16]	; (400208 <hal_delay+0x38>)
  4001f6:	47a0      	blx	r4
  4001f8:	4b01      	ldr	r3, [pc, #4]	; (400200 <hal_delay+0x30>)
  4001fa:	4798      	blx	r3
  4001fc:	bd38      	pop	{r3, r4, r5, pc}
  4001fe:	bf00      	nop
  400200:	20000001 	.word	0x20000001
  400204:	07270e00 	.word	0x07270e00
  400208:	00403a79 	.word	0x00403a79

0040020c <SVC_Handler>:
//(no prologue and no epilogue to avoid
// changing the offsets of the stacked frame on SVC interrupt)
.thumb_func 
.global SVC_Handler
SVC_Handler:
	ldr	r3, =svc_callback
  40020c:	4b0d      	ldr	r3, [pc, #52]	; (400244 <hal_cpu_set_psp+0x8>)
	ldr r3, [r3]
  40020e:	681b      	ldr	r3, [r3, #0]
	bx	r3
  400210:	4718      	bx	r3

00400212 <hal_cpu_get_psp>:
*	Returns the process stack pointer
*/
.thumb_func 
.global hal_cpu_get_psp
hal_cpu_get_psp:
	mrs	r0, psp  //return psp
  400212:	f3ef 8009 	mrs	r0, PSP
	bx lr 
  400216:	4770      	bx	lr

00400218 <hal_cpu_set_unprivileged>:
*	Set the CPU as unprivileged (when in thread mode)s
*/
.thumb_func 
.global hal_cpu_set_unprivileged
hal_cpu_set_unprivileged:
	mrs r3, control
  400218:	f3ef 8314 	mrs	r3, CONTROL
	orr	r3, r3, #1
  40021c:	f043 0301 	orr.w	r3, r3, #1
	msr control, r3 /* control |= 1 */
  400220:	f383 8814 	msr	CONTROL, r3
	isb
  400224:	f3bf 8f6f 	isb	sy

	bx lr
  400228:	4770      	bx	lr

0040022a <hal_cpu_set_psp_active>:
*	Sets the Process Stack Pointer as active (when in thread mode)
*/
.thumb_func 
.global hal_cpu_set_psp_active
hal_cpu_set_psp_active:
	mrs r3, control
  40022a:	f3ef 8314 	mrs	r3, CONTROL
	orr	r3, r3, #2
  40022e:	f043 0302 	orr.w	r3, r3, #2
	msr control, r3 /* control |= 2 */
  400232:	f383 8814 	msr	CONTROL, r3
	isb
  400236:	f3bf 8f6f 	isb	sy

	bx lr
  40023a:	4770      	bx	lr

0040023c <hal_cpu_set_psp>:
*	Sets the Process Stack Pointer value
*/
.thumb_func 
.global hal_cpu_set_psp
hal_cpu_set_psp:
     msr psp, r0
  40023c:	f380 8809 	msr	PSP, r0

     bx lr
  400240:	4770      	bx	lr
  400242:	0000      	.short	0x0000
	ldr	r3, =svc_callback
  400244:	20001160 	.word	0x20001160

00400248 <button_handler>:
	pio_handler_set_priority(PIN_PUSHBUTTON_3_PIO, (IRQn_Type) PIN_PUSHBUTTON_3_ID, buttons_irq_priority);
	pio_enable_interrupt(PIN_PUSHBUTTON_3_PIO, PIN_PUSHBUTTON_3_MASK);
}

//The Button interrupt service routine (ISR)
static void button_handler(uint32_t id, uint32_t mask){
  400248:	b508      	push	{r3, lr}
	
	if((PIN_PUSHBUTTON_0_ID == id) && (PIN_PUSHBUTTON_0_MASK == mask)){
  40024a:	280b      	cmp	r0, #11
  40024c:	d002      	beq.n	400254 <button_handler+0xc>
	}
	else if ((PIN_PUSHBUTTON_1_ID == id) && (PIN_PUSHBUTTON_1_MASK == mask)){
		//Button 1 was pressed
		(*button_callback)(1);
	}
	else if((PIN_PUSHBUTTON_2_ID == id) && (PIN_PUSHBUTTON_2_MASK == mask)){
  40024e:	280d      	cmp	r0, #13
  400250:	d00e      	beq.n	400270 <button_handler+0x28>
  400252:	bd08      	pop	{r3, pc}
	if((PIN_PUSHBUTTON_0_ID == id) && (PIN_PUSHBUTTON_0_MASK == mask)){
  400254:	2904      	cmp	r1, #4
  400256:	d006      	beq.n	400266 <button_handler+0x1e>
	else if ((PIN_PUSHBUTTON_1_ID == id) && (PIN_PUSHBUTTON_1_MASK == mask)){
  400258:	2901      	cmp	r1, #1
  40025a:	d1fa      	bne.n	400252 <button_handler+0xa>
		(*button_callback)(1);
  40025c:	4b0c      	ldr	r3, [pc, #48]	; (400290 <button_handler+0x48>)
  40025e:	681b      	ldr	r3, [r3, #0]
  400260:	2001      	movs	r0, #1
  400262:	4798      	blx	r3
  400264:	bd08      	pop	{r3, pc}
		(*button_callback)(0);	
  400266:	4b0a      	ldr	r3, [pc, #40]	; (400290 <button_handler+0x48>)
  400268:	681b      	ldr	r3, [r3, #0]
  40026a:	2000      	movs	r0, #0
  40026c:	4798      	blx	r3
  40026e:	bd08      	pop	{r3, pc}
	else if((PIN_PUSHBUTTON_2_ID == id) && (PIN_PUSHBUTTON_2_MASK == mask)){
  400270:	f1b1 5f00 	cmp.w	r1, #536870912	; 0x20000000
  400274:	d007      	beq.n	400286 <button_handler+0x3e>
		//Button 2 was pressed
		(*button_callback)(2);
	}
	else if((PIN_PUSHBUTTON_3_ID == id) && (PIN_PUSHBUTTON_3_MASK == mask)){
  400276:	f1b1 4f80 	cmp.w	r1, #1073741824	; 0x40000000
  40027a:	d1ea      	bne.n	400252 <button_handler+0xa>
		//Button 3 was pressed
		(*button_callback)(3);
  40027c:	4b04      	ldr	r3, [pc, #16]	; (400290 <button_handler+0x48>)
  40027e:	681b      	ldr	r3, [r3, #0]
  400280:	2003      	movs	r0, #3
  400282:	4798      	blx	r3
	}
	else{
		//Error
	}
}
  400284:	e7e5      	b.n	400252 <button_handler+0xa>
		(*button_callback)(2);
  400286:	4b02      	ldr	r3, [pc, #8]	; (400290 <button_handler+0x48>)
  400288:	681b      	ldr	r3, [r3, #0]
  40028a:	2002      	movs	r0, #2
  40028c:	4798      	blx	r3
  40028e:	bd08      	pop	{r3, pc}
  400290:	20000e28 	.word	0x20000e28

00400294 <ssd1306_write_command>:
 * data write function is called based on the selected interface.
 *
 * \param command the command to write
 */
static void ssd1306_write_command(uint8_t command)
{
  400294:	b570      	push	{r4, r5, r6, lr}
  400296:	b082      	sub	sp, #8
  400298:	4606      	mov	r6, r0
	usart_spi_select_device(SSD1306_USART_SPI, &device);
	ssd1306_sel_cmd();
	usart_spi_transmit(SSD1306_USART_SPI, command);
	usart_spi_deselect_device(SSD1306_USART_SPI, &device);
#elif defined(SSD1306_SPI_INTERFACE)
	struct spi_device device = {.id = SSD1306_CS_PIN};
  40029a:	ac02      	add	r4, sp, #8
  40029c:	2302      	movs	r3, #2
  40029e:	f844 3d04 	str.w	r3, [r4, #-4]!
	spi_select_device(SSD1306_SPI, &device);
  4002a2:	4d09      	ldr	r5, [pc, #36]	; (4002c8 <ssd1306_write_command+0x34>)
  4002a4:	4621      	mov	r1, r4
  4002a6:	4628      	mov	r0, r5
  4002a8:	4b08      	ldr	r3, [pc, #32]	; (4002cc <ssd1306_write_command+0x38>)
  4002aa:	4798      	blx	r3
	Pio *base = arch_ioport_pin_to_base(pin);

	if (level) {
		base->PIO_SODR = arch_ioport_pin_to_mask(pin);
	} else {
		base->PIO_CODR = arch_ioport_pin_to_mask(pin);
  4002ac:	f44f 1200 	mov.w	r2, #2097152	; 0x200000
  4002b0:	4b07      	ldr	r3, [pc, #28]	; (4002d0 <ssd1306_write_command+0x3c>)
  4002b2:	635a      	str	r2, [r3, #52]	; 0x34
 * \param data The data byte to be loaded
 *
 */
static inline void spi_put(Spi *p_spi, uint16_t data)
{
	p_spi->SPI_TDR = SPI_TDR_TD(data);
  4002b4:	60ee      	str	r6, [r5, #12]
	ssd1306_sel_cmd();
	spi_write_single(SSD1306_SPI, command);
	delay_us(SSD1306_LATENCY); // At least 3us
  4002b6:	2056      	movs	r0, #86	; 0x56
  4002b8:	4b06      	ldr	r3, [pc, #24]	; (4002d4 <ssd1306_write_command+0x40>)
  4002ba:	4798      	blx	r3
	spi_deselect_device(SSD1306_SPI, &device);
  4002bc:	4621      	mov	r1, r4
  4002be:	4628      	mov	r0, r5
  4002c0:	4b05      	ldr	r3, [pc, #20]	; (4002d8 <ssd1306_write_command+0x44>)
  4002c2:	4798      	blx	r3
#endif
}
  4002c4:	b002      	add	sp, #8
  4002c6:	bd70      	pop	{r4, r5, r6, pc}
  4002c8:	40008000 	.word	0x40008000
  4002cc:	00401c79 	.word	0x00401c79
  4002d0:	400e1200 	.word	0x400e1200
  4002d4:	20000001 	.word	0x20000001
  4002d8:	00401ca9 	.word	0x00401ca9

004002dc <configure_uart1>:
	usart_enable_interrupt(USART_SERIAL, US_IER_RXRDY);
	NVIC_EnableIRQ(USART1_IRQn);
}


void configure_uart1(uint32_t baudrate){
  4002dc:	b530      	push	{r4, r5, lr}
  4002de:	b085      	sub	sp, #20
  4002e0:	4604      	mov	r4, r0
	pio_configure(PINS_UART1_PIO, PINS_UART1_TYPE, PINS_UART1_MASK, PINS_UART1_ATTR);
  4002e2:	2300      	movs	r3, #0
  4002e4:	220c      	movs	r2, #12
  4002e6:	f04f 6100 	mov.w	r1, #134217728	; 0x8000000
  4002ea:	480c      	ldr	r0, [pc, #48]	; (40031c <configure_uart1+0x40>)
  4002ec:	4d0c      	ldr	r5, [pc, #48]	; (400320 <configure_uart1+0x44>)
  4002ee:	47a8      	blx	r5
	pmc_enable_periph_clk(ID_UART1);
  4002f0:	2009      	movs	r0, #9
  4002f2:	4b0c      	ldr	r3, [pc, #48]	; (400324 <configure_uart1+0x48>)
  4002f4:	4798      	blx	r3
	
	const sam_uart_opt_t uart1_sett = { sysclk_get_cpu_hz(), baudrate, UART_SERIAL_MODE };
  4002f6:	4b0c      	ldr	r3, [pc, #48]	; (400328 <configure_uart1+0x4c>)
  4002f8:	9301      	str	r3, [sp, #4]
  4002fa:	9402      	str	r4, [sp, #8]
  4002fc:	f44f 6300 	mov.w	r3, #2048	; 0x800
  400300:	9303      	str	r3, [sp, #12]
	uart_init(UART1,&uart1_sett);
  400302:	4c0a      	ldr	r4, [pc, #40]	; (40032c <configure_uart1+0x50>)
  400304:	a901      	add	r1, sp, #4
  400306:	4620      	mov	r0, r4
  400308:	4b09      	ldr	r3, [pc, #36]	; (400330 <configure_uart1+0x54>)
  40030a:	4798      	blx	r3
	uart_enable_tx(UART1);
  40030c:	4620      	mov	r0, r4
  40030e:	4b09      	ldr	r3, [pc, #36]	; (400334 <configure_uart1+0x58>)
  400310:	4798      	blx	r3
	uart_enable_rx(UART1);
  400312:	4620      	mov	r0, r4
  400314:	4b08      	ldr	r3, [pc, #32]	; (400338 <configure_uart1+0x5c>)
  400316:	4798      	blx	r3
}
  400318:	b005      	add	sp, #20
  40031a:	bd30      	pop	{r4, r5, pc}
  40031c:	400e1000 	.word	0x400e1000
  400320:	00401fc5 	.word	0x00401fc5
  400324:	00402565 	.word	0x00402565
  400328:	07270e00 	.word	0x07270e00
  40032c:	400e0800 	.word	0x400e0800
  400330:	00402aed 	.word	0x00402aed
  400334:	00402b23 	.word	0x00402b23
  400338:	00402b29 	.word	0x00402b29

0040033c <configure_usart1>:

void configure_usart1(uint32_t baudrate){
  40033c:	b530      	push	{r4, r5, lr}
  40033e:	b087      	sub	sp, #28
  400340:	4605      	mov	r5, r0
	pio_configure(PINS_USART1_PIO, PINS_USART1_TYPE, PINS_USART1_MASK, PINS_USART1_ATTR);
  400342:	2300      	movs	r3, #0
  400344:	f44f 02c0 	mov.w	r2, #6291456	; 0x600000
  400348:	f04f 6100 	mov.w	r1, #134217728	; 0x8000000
  40034c:	480f      	ldr	r0, [pc, #60]	; (40038c <configure_usart1+0x50>)
  40034e:	4c10      	ldr	r4, [pc, #64]	; (400390 <configure_usart1+0x54>)
  400350:	47a0      	blx	r4
	pmc_enable_periph_clk(ID_USART1);
  400352:	200f      	movs	r0, #15
  400354:	4c0f      	ldr	r4, [pc, #60]	; (400394 <configure_usart1+0x58>)
  400356:	47a0      	blx	r4

	const sam_usart_opt_t usart_console_settings = {
  400358:	2300      	movs	r3, #0
  40035a:	9303      	str	r3, [sp, #12]
  40035c:	9304      	str	r3, [sp, #16]
  40035e:	9305      	str	r3, [sp, #20]
  400360:	9500      	str	r5, [sp, #0]
  400362:	23c0      	movs	r3, #192	; 0xc0
  400364:	9301      	str	r3, [sp, #4]
  400366:	f44f 6300 	mov.w	r3, #2048	; 0x800
  40036a:	9302      	str	r3, [sp, #8]
 *
 * \param ul_id Id (number) of the peripheral clock.
 */
static inline void sysclk_enable_peripheral_clock(uint32_t ul_id)
{
	pmc_enable_periph_clk(ul_id);
  40036c:	200f      	movs	r0, #15
  40036e:	47a0      	blx	r4
		USART_SERIAL_STOP_BIT,
		US_MR_CHMODE_NORMAL
	};

	sysclk_enable_peripheral_clock(USART_SERIAL_ID);
	usart_init_rs232(USART_SERIAL, &usart_console_settings, sysclk_get_peripheral_hz());
  400370:	4c09      	ldr	r4, [pc, #36]	; (400398 <configure_usart1+0x5c>)
  400372:	4a0a      	ldr	r2, [pc, #40]	; (40039c <configure_usart1+0x60>)
  400374:	4669      	mov	r1, sp
  400376:	4620      	mov	r0, r4
  400378:	4b09      	ldr	r3, [pc, #36]	; (4003a0 <configure_usart1+0x64>)
  40037a:	4798      	blx	r3
	usart_enable_tx(USART_SERIAL);
  40037c:	4620      	mov	r0, r4
  40037e:	4b09      	ldr	r3, [pc, #36]	; (4003a4 <configure_usart1+0x68>)
  400380:	4798      	blx	r3
	usart_enable_rx(USART_SERIAL);
  400382:	4620      	mov	r0, r4
  400384:	4b08      	ldr	r3, [pc, #32]	; (4003a8 <configure_usart1+0x6c>)
  400386:	4798      	blx	r3
}
  400388:	b007      	add	sp, #28
  40038a:	bd30      	pop	{r4, r5, pc}
  40038c:	400e0e00 	.word	0x400e0e00
  400390:	00401fc5 	.word	0x00401fc5
  400394:	00402565 	.word	0x00402565
  400398:	40028000 	.word	0x40028000
  40039c:	07270e00 	.word	0x07270e00
  4003a0:	00402bdd 	.word	0x00402bdd
  4003a4:	00402c31 	.word	0x00402c31
  4003a8:	00402c37 	.word	0x00402c37

004003ac <hal_io_init>:
void hal_io_init(void){
  4003ac:	b510      	push	{r4, lr}
	board_init();		//initialize board pins
  4003ae:	4b05      	ldr	r3, [pc, #20]	; (4003c4 <hal_io_init+0x18>)
  4003b0:	4798      	blx	r3
  4003b2:	200b      	movs	r0, #11
  4003b4:	4c04      	ldr	r4, [pc, #16]	; (4003c8 <hal_io_init+0x1c>)
  4003b6:	47a0      	blx	r4
  4003b8:	200c      	movs	r0, #12
  4003ba:	47a0      	blx	r4
  4003bc:	200d      	movs	r0, #13
  4003be:	47a0      	blx	r4
  4003c0:	bd10      	pop	{r4, pc}
  4003c2:	bf00      	nop
  4003c4:	00401d51 	.word	0x00401d51
  4003c8:	00402565 	.word	0x00402565

004003cc <hal_mtimer_start>:
void hal_mtimer_start( uint32_t ms_steps ){
  4003cc:	b538      	push	{r3, r4, r5, lr}
  4003ce:	4604      	mov	r4, r0
	rtt_sel_source(RTT, false);
  4003d0:	4d08      	ldr	r5, [pc, #32]	; (4003f4 <hal_mtimer_start+0x28>)
  4003d2:	2100      	movs	r1, #0
  4003d4:	4628      	mov	r0, r5
  4003d6:	4b08      	ldr	r3, [pc, #32]	; (4003f8 <hal_mtimer_start+0x2c>)
  4003d8:	4798      	blx	r3
	uint32_t steps = ms_steps*33 > RTT_MAX_VAL ? RTT_MAX_VAL : ms_steps*33; 
  4003da:	eb04 1444 	add.w	r4, r4, r4, lsl #5
  4003de:	f5b4 4f00 	cmp.w	r4, #32768	; 0x8000
  4003e2:	bf28      	it	cs
  4003e4:	f44f 4400 	movcs.w	r4, #32768	; 0x8000
	rtt_init(RTT, steps ); 
  4003e8:	b2a1      	uxth	r1, r4
  4003ea:	4628      	mov	r0, r5
  4003ec:	4b03      	ldr	r3, [pc, #12]	; (4003fc <hal_mtimer_start+0x30>)
  4003ee:	4798      	blx	r3
  4003f0:	bd38      	pop	{r3, r4, r5, pc}
  4003f2:	bf00      	nop
  4003f4:	400e1430 	.word	0x400e1430
  4003f8:	0040014d 	.word	0x0040014d
  4003fc:	00400139 	.word	0x00400139

00400400 <RTT_Handler>:
void RTT_Handler(void){
  400400:	b508      	push	{r3, lr}
	uint32_t ul_status = rtt_get_status(RTT);
  400402:	4805      	ldr	r0, [pc, #20]	; (400418 <RTT_Handler+0x18>)
  400404:	4b05      	ldr	r3, [pc, #20]	; (40041c <RTT_Handler+0x1c>)
  400406:	4798      	blx	r3
	if ((ul_status & RTT_SR_RTTINC) == RTT_SR_RTTINC)
  400408:	f010 0f02 	tst.w	r0, #2
  40040c:	d100      	bne.n	400410 <RTT_Handler+0x10>
  40040e:	bd08      	pop	{r3, pc}
		(*timer_callback)(); //call registered callback
  400410:	4b03      	ldr	r3, [pc, #12]	; (400420 <RTT_Handler+0x20>)
  400412:	681b      	ldr	r3, [r3, #0]
  400414:	4798      	blx	r3
}
  400416:	e7fa      	b.n	40040e <RTT_Handler+0xe>
  400418:	400e1430 	.word	0x400e1430
  40041c:	004001a1 	.word	0x004001a1
  400420:	20000e2c 	.word	0x20000e2c

00400424 <hal_mtimer_stop>:
void hal_mtimer_stop(void){
  400424:	b508      	push	{r3, lr}

    \param [in]      IRQn  External interrupt number. Value cannot be negative.
 */
__STATIC_INLINE void NVIC_DisableIRQ(IRQn_Type IRQn)
{
  NVIC->ICER[((uint32_t)(IRQn) >> 5)] = (1 << ((uint32_t)(IRQn) & 0x1F)); /* disable interrupt */
  400426:	4b06      	ldr	r3, [pc, #24]	; (400440 <hal_mtimer_stop+0x1c>)
  400428:	2208      	movs	r2, #8
  40042a:	f8c3 2080 	str.w	r2, [r3, #128]	; 0x80

    \param [in]      IRQn  External interrupt number. Value cannot be negative.
 */
__STATIC_INLINE void NVIC_ClearPendingIRQ(IRQn_Type IRQn)
{
  NVIC->ICPR[((uint32_t)(IRQn) >> 5)] = (1 << ((uint32_t)(IRQn) & 0x1F)); /* Clear pending interrupt */
  40042e:	f8c3 2180 	str.w	r2, [r3, #384]	; 0x180
	rtt_disable_interrupt(RTT, RTT_MR_RTTINCIEN);
  400432:	f44f 3100 	mov.w	r1, #131072	; 0x20000
  400436:	4803      	ldr	r0, [pc, #12]	; (400444 <hal_mtimer_stop+0x20>)
  400438:	4b03      	ldr	r3, [pc, #12]	; (400448 <hal_mtimer_stop+0x24>)
  40043a:	4798      	blx	r3
  40043c:	bd08      	pop	{r3, pc}
  40043e:	bf00      	nop
  400440:	e000e100 	.word	0xe000e100
  400444:	400e1430 	.word	0x400e1430
  400448:	00400179 	.word	0x00400179

0040044c <hal_mtimer_read>:
uint32_t hal_mtimer_read( void ){
  40044c:	b508      	push	{r3, lr}
	return rtt_read_timer_value (RTT);
  40044e:	4802      	ldr	r0, [pc, #8]	; (400458 <hal_mtimer_read+0xc>)
  400450:	4b02      	ldr	r3, [pc, #8]	; (40045c <hal_mtimer_read+0x10>)
  400452:	4798      	blx	r3
}
  400454:	bd08      	pop	{r3, pc}
  400456:	bf00      	nop
  400458:	400e1430 	.word	0x400e1430
  40045c:	0040018d 	.word	0x0040018d

00400460 <hal_led_start>:
		base->PIO_OER = arch_ioport_pin_to_mask(pin);
  400460:	4b0f      	ldr	r3, [pc, #60]	; (4004a0 <hal_led_start+0x40>)
  400462:	f44f 0200 	mov.w	r2, #8388608	; 0x800000
  400466:	611a      	str	r2, [r3, #16]
	base->PIO_OWER = arch_ioport_pin_to_mask(pin);
  400468:	f8c3 20a0 	str.w	r2, [r3, #160]	; 0xa0
		base->PIO_OER = arch_ioport_pin_to_mask(pin);
  40046c:	f44f 1280 	mov.w	r2, #1048576	; 0x100000
  400470:	611a      	str	r2, [r3, #16]
	base->PIO_OWER = arch_ioport_pin_to_mask(pin);
  400472:	f8c3 20a0 	str.w	r2, [r3, #160]	; 0xa0
		base->PIO_OER = arch_ioport_pin_to_mask(pin);
  400476:	f102 4280 	add.w	r2, r2, #1073741824	; 0x40000000
  40047a:	f5a2 32f9 	sub.w	r2, r2, #127488	; 0x1f200
  40047e:	f44f 3180 	mov.w	r1, #65536	; 0x10000
  400482:	6111      	str	r1, [r2, #16]
	base->PIO_OWER = arch_ioport_pin_to_mask(pin);
  400484:	f8c2 10a0 	str.w	r1, [r2, #160]	; 0xa0
		base->PIO_OER = arch_ioport_pin_to_mask(pin);
  400488:	f44f 0280 	mov.w	r2, #4194304	; 0x400000
  40048c:	611a      	str	r2, [r3, #16]
	base->PIO_OWER = arch_ioport_pin_to_mask(pin);
  40048e:	f8c3 20a0 	str.w	r2, [r3, #160]	; 0xa0
		base->PIO_OER = arch_ioport_pin_to_mask(pin);
  400492:	f44f 2200 	mov.w	r2, #524288	; 0x80000
  400496:	611a      	str	r2, [r3, #16]
	base->PIO_OWER = arch_ioport_pin_to_mask(pin);
  400498:	f8c3 20a0 	str.w	r2, [r3, #160]	; 0xa0
  40049c:	4770      	bx	lr
  40049e:	bf00      	nop
  4004a0:	400e1200 	.word	0x400e1200

004004a4 <hal_led_write>:
	switch(lednum){
  4004a4:	2804      	cmp	r0, #4
  4004a6:	d81b      	bhi.n	4004e0 <hal_led_write+0x3c>
  4004a8:	e8df f000 	tbb	[pc, r0]
  4004ac:	16141203 	.word	0x16141203
  4004b0:	18          	.byte	0x18
  4004b1:	00          	.byte	0x00
		case Led0: IOLine = IOPORT_CREATE_PIN(PIOC, 23); break;
  4004b2:	2257      	movs	r2, #87	; 0x57
	return pin >> 5;
  4004b4:	0953      	lsrs	r3, r2, #5
	return (Pio *)((uintptr_t)IOPORT_BASE_ADDRESS +
  4004b6:	f503 1300 	add.w	r3, r3, #2097152	; 0x200000
  4004ba:	f203 7307 	addw	r3, r3, #1799	; 0x707
  4004be:	025b      	lsls	r3, r3, #9
	if (level) {
  4004c0:	b181      	cbz	r1, 4004e4 <hal_led_write+0x40>
	return 1U << (pin & 0x1F);
  4004c2:	f002 021f 	and.w	r2, r2, #31
  4004c6:	2101      	movs	r1, #1
  4004c8:	fa01 f202 	lsl.w	r2, r1, r2
		base->PIO_CODR = arch_ioport_pin_to_mask(pin);
  4004cc:	635a      	str	r2, [r3, #52]	; 0x34
  4004ce:	4770      	bx	lr
		case Led1: IOLine = IOPORT_CREATE_PIN(PIOC, 20); break;
  4004d0:	2254      	movs	r2, #84	; 0x54
  4004d2:	e7ef      	b.n	4004b4 <hal_led_write+0x10>
		case Led2: IOLine = IOPORT_CREATE_PIN(PIOA, 16); break;
  4004d4:	2210      	movs	r2, #16
  4004d6:	e7ed      	b.n	4004b4 <hal_led_write+0x10>
		case Led3: IOLine = IOPORT_CREATE_PIN(PIOC, 22); break;
  4004d8:	2256      	movs	r2, #86	; 0x56
  4004da:	e7eb      	b.n	4004b4 <hal_led_write+0x10>
		case Led4: IOLine = IOPORT_CREATE_PIN(PIOC, 19); break;
  4004dc:	2253      	movs	r2, #83	; 0x53
  4004de:	e7e9      	b.n	4004b4 <hal_led_write+0x10>
	uint32_t IOLine = 0;
  4004e0:	2200      	movs	r2, #0
  4004e2:	e7e7      	b.n	4004b4 <hal_led_write+0x10>
	return 1U << (pin & 0x1F);
  4004e4:	f002 021f 	and.w	r2, r2, #31
  4004e8:	2101      	movs	r1, #1
  4004ea:	fa01 f202 	lsl.w	r2, r1, r2
		base->PIO_SODR = arch_ioport_pin_to_mask(pin);
  4004ee:	631a      	str	r2, [r3, #48]	; 0x30
  4004f0:	4770      	bx	lr

004004f2 <hal_led_read>:
	switch(lednum){
  4004f2:	2804      	cmp	r0, #4
  4004f4:	d81e      	bhi.n	400534 <hal_led_read+0x42>
  4004f6:	e8df f000 	tbb	[pc, r0]
  4004fa:	1503      	.short	0x1503
  4004fc:	1917      	.short	0x1917
  4004fe:	1b          	.byte	0x1b
  4004ff:	00          	.byte	0x00
		case Led0: IOLine = IOPORT_CREATE_PIN(PIOC, 23); break;
  400500:	2257      	movs	r2, #87	; 0x57
	return pin >> 5;
  400502:	0953      	lsrs	r3, r2, #5
	return (Pio *)((uintptr_t)IOPORT_BASE_ADDRESS +
  400504:	f503 1300 	add.w	r3, r3, #2097152	; 0x200000
  400508:	f203 7307 	addw	r3, r3, #1799	; 0x707
  40050c:	025b      	lsls	r3, r3, #9
	}
}

__always_inline static bool arch_ioport_get_pin_level(ioport_pin_t pin)
{
	return arch_ioport_pin_to_base(pin)->PIO_PDSR & arch_ioport_pin_to_mask(pin);
  40050e:	6bd9      	ldr	r1, [r3, #60]	; 0x3c
	return 1U << (pin & 0x1F);
  400510:	f002 021f 	and.w	r2, r2, #31
  400514:	2301      	movs	r3, #1
  400516:	fa03 f202 	lsl.w	r2, r3, r2
	return !ioport_get_pin_level(IOLine); //negated since pin levels and LEDs state are opposite
  40051a:	420a      	tst	r2, r1
}
  40051c:	bf0c      	ite	eq
  40051e:	4618      	moveq	r0, r3
  400520:	2000      	movne	r0, #0
  400522:	4770      	bx	lr
		case Led1: IOLine = IOPORT_CREATE_PIN(PIOC, 20); break;
  400524:	2254      	movs	r2, #84	; 0x54
  400526:	e7ec      	b.n	400502 <hal_led_read+0x10>
		case Led2: IOLine = IOPORT_CREATE_PIN(PIOA, 16); break;
  400528:	2210      	movs	r2, #16
  40052a:	e7ea      	b.n	400502 <hal_led_read+0x10>
		case Led3: IOLine = IOPORT_CREATE_PIN(PIOC, 22); break;
  40052c:	2256      	movs	r2, #86	; 0x56
  40052e:	e7e8      	b.n	400502 <hal_led_read+0x10>
		case Led4: IOLine = IOPORT_CREATE_PIN(PIOC, 19); break;
  400530:	2253      	movs	r2, #83	; 0x53
  400532:	e7e6      	b.n	400502 <hal_led_read+0x10>
	uint32_t IOLine = 0;
  400534:	2200      	movs	r2, #0
  400536:	e7e4      	b.n	400502 <hal_led_read+0x10>

00400538 <hal_clock_start>:
void hal_clock_start( void ){
  400538:	b510      	push	{r4, lr}
	pmc_switch_sclk_to_32kxtal(PMC_OSC_XTAL);
  40053a:	2000      	movs	r0, #0
  40053c:	4b05      	ldr	r3, [pc, #20]	; (400554 <hal_clock_start+0x1c>)
  40053e:	4798      	blx	r3
	while (!pmc_osc_is_ready_32kxtal());
  400540:	4c05      	ldr	r4, [pc, #20]	; (400558 <hal_clock_start+0x20>)
  400542:	47a0      	blx	r4
  400544:	2800      	cmp	r0, #0
  400546:	d0fc      	beq.n	400542 <hal_clock_start+0xa>
	rtc_set_hour_mode(RTC, 0); //24-hrs mode by default
  400548:	2100      	movs	r1, #0
  40054a:	4804      	ldr	r0, [pc, #16]	; (40055c <hal_clock_start+0x24>)
  40054c:	4b04      	ldr	r3, [pc, #16]	; (400560 <hal_clock_start+0x28>)
  40054e:	4798      	blx	r3
  400550:	bd10      	pop	{r4, pc}
  400552:	bf00      	nop
  400554:	0040249d 	.word	0x0040249d
  400558:	004024c1 	.word	0x004024c1
  40055c:	400e1460 	.word	0x400e1460
  400560:	004025b9 	.word	0x004025b9

00400564 <hal_clock_write>:
void hal_clock_write( tTime* t ){
  400564:	b570      	push	{r4, r5, r6, lr}
  400566:	b082      	sub	sp, #8
  400568:	4604      	mov	r4, r0
	rtc_set_date( RTC, t->year, t->month, t->day, 1 );	//not too sure how week works, but if week is
  40056a:	4d08      	ldr	r5, [pc, #32]	; (40058c <hal_clock_write+0x28>)
  40056c:	2301      	movs	r3, #1
  40056e:	9300      	str	r3, [sp, #0]
  400570:	68c3      	ldr	r3, [r0, #12]
  400572:	6902      	ldr	r2, [r0, #16]
  400574:	6941      	ldr	r1, [r0, #20]
  400576:	4628      	mov	r0, r5
  400578:	4e05      	ldr	r6, [pc, #20]	; (400590 <hal_clock_write+0x2c>)
  40057a:	47b0      	blx	r6
	rtc_set_time( RTC, t->hours, t->minutes, t->seconds );
  40057c:	6823      	ldr	r3, [r4, #0]
  40057e:	6862      	ldr	r2, [r4, #4]
  400580:	68a1      	ldr	r1, [r4, #8]
  400582:	4628      	mov	r0, r5
  400584:	4c03      	ldr	r4, [pc, #12]	; (400594 <hal_clock_write+0x30>)
  400586:	47a0      	blx	r4
}
  400588:	b002      	add	sp, #8
  40058a:	bd70      	pop	{r4, r5, r6, pc}
  40058c:	400e1460 	.word	0x400e1460
  400590:	00402731 	.word	0x00402731
  400594:	00402629 	.word	0x00402629

00400598 <hal_clock_read>:
void hal_clock_read( tTime* t ){
  400598:	b5f0      	push	{r4, r5, r6, r7, lr}
  40059a:	b085      	sub	sp, #20
  40059c:	4604      	mov	r4, r0
	uint32_t dummy_week = 0;
  40059e:	ad04      	add	r5, sp, #16
  4005a0:	2300      	movs	r3, #0
  4005a2:	f845 3d04 	str.w	r3, [r5, #-4]!
	rtc_get_time(RTC, &(t->hours), &(t->minutes), &(t->seconds));
  4005a6:	4e0a      	ldr	r6, [pc, #40]	; (4005d0 <hal_clock_read+0x38>)
  4005a8:	4603      	mov	r3, r0
  4005aa:	1d02      	adds	r2, r0, #4
  4005ac:	f100 0108 	add.w	r1, r0, #8
  4005b0:	4630      	mov	r0, r6
  4005b2:	4f08      	ldr	r7, [pc, #32]	; (4005d4 <hal_clock_read+0x3c>)
  4005b4:	47b8      	blx	r7
	rtc_get_date(RTC, &(t->year), &(t->month), &(t->day), &dummy_week);
  4005b6:	9500      	str	r5, [sp, #0]
  4005b8:	f104 030c 	add.w	r3, r4, #12
  4005bc:	f104 0210 	add.w	r2, r4, #16
  4005c0:	f104 0114 	add.w	r1, r4, #20
  4005c4:	4630      	mov	r0, r6
  4005c6:	4c04      	ldr	r4, [pc, #16]	; (4005d8 <hal_clock_read+0x40>)
  4005c8:	47a0      	blx	r4
}
  4005ca:	b005      	add	sp, #20
  4005cc:	bdf0      	pop	{r4, r5, r6, r7, pc}
  4005ce:	bf00      	nop
  4005d0:	400e1460 	.word	0x400e1460
  4005d4:	004025cf 	.word	0x004025cf
  4005d8:	004026bd 	.word	0x004026bd

004005dc <hal_display_start>:
void hal_display_start(void){
  4005dc:	b508      	push	{r3, lr}
	ssd1306_init();	//on-board OLED
  4005de:	4b01      	ldr	r3, [pc, #4]	; (4005e4 <hal_display_start+0x8>)
  4005e0:	4798      	blx	r3
  4005e2:	bd08      	pop	{r3, pc}
  4005e4:	00400e95 	.word	0x00400e95

004005e8 <hal_display_putc>:
void hal_display_putc( uint8_t character ){
  4005e8:	e92d 47f0 	stmdb	sp!, {r4, r5, r6, r7, r8, r9, sl, lr}
  4005ec:	b082      	sub	sp, #8
	char_ptr = font_table[character - 32];
  4005ee:	3820      	subs	r0, #32
  4005f0:	4b1f      	ldr	r3, [pc, #124]	; (400670 <hal_display_putc+0x88>)
  4005f2:	f853 7020 	ldr.w	r7, [r3, r0, lsl #2]
	for (i = 1; i <= char_ptr[0]; i++) {
  4005f6:	783b      	ldrb	r3, [r7, #0]
  4005f8:	b303      	cbz	r3, 40063c <hal_display_putc+0x54>
  4005fa:	2401      	movs	r4, #1
	usart_spi_transmit(SSD1306_USART_SPI, data);
	ssd1306_sel_cmd();
	usart_spi_deselect_device(SSD1306_USART_SPI, &device);
#elif defined(SSD1306_SPI_INTERFACE)
	struct spi_device device = {.id = SSD1306_CS_PIN};
	spi_select_device(SSD1306_SPI, &device);
  4005fc:	4e1d      	ldr	r6, [pc, #116]	; (400674 <hal_display_putc+0x8c>)
  4005fe:	f8df 9080 	ldr.w	r9, [pc, #128]	; 400680 <hal_display_putc+0x98>
		base->PIO_SODR = arch_ioport_pin_to_mask(pin);
  400602:	f8df 8080 	ldr.w	r8, [pc, #128]	; 400684 <hal_display_putc+0x9c>
		ssd1306_write_data(char_ptr[i]);
  400606:	f817 a004 	ldrb.w	sl, [r7, r4]
	struct spi_device device = {.id = SSD1306_CS_PIN};
  40060a:	ad02      	add	r5, sp, #8
  40060c:	2302      	movs	r3, #2
  40060e:	f845 3d04 	str.w	r3, [r5, #-4]!
	spi_select_device(SSD1306_SPI, &device);
  400612:	4629      	mov	r1, r5
  400614:	4630      	mov	r0, r6
  400616:	47c8      	blx	r9
  400618:	f44f 1300 	mov.w	r3, #2097152	; 0x200000
  40061c:	f8c8 3030 	str.w	r3, [r8, #48]	; 0x30
  400620:	f8c6 a00c 	str.w	sl, [r6, #12]
	ssd1306_sel_data();
	spi_write_single(SSD1306_SPI, data);
	delay_us(SSD1306_LATENCY); // At least 3us
  400624:	2056      	movs	r0, #86	; 0x56
  400626:	4b14      	ldr	r3, [pc, #80]	; (400678 <hal_display_putc+0x90>)
  400628:	4798      	blx	r3
	spi_deselect_device(SSD1306_SPI, &device);
  40062a:	4629      	mov	r1, r5
  40062c:	4630      	mov	r0, r6
  40062e:	4b13      	ldr	r3, [pc, #76]	; (40067c <hal_display_putc+0x94>)
  400630:	4798      	blx	r3
	for (i = 1; i <= char_ptr[0]; i++) {
  400632:	3401      	adds	r4, #1
  400634:	b2e4      	uxtb	r4, r4
  400636:	783b      	ldrb	r3, [r7, #0]
  400638:	42a3      	cmp	r3, r4
  40063a:	d2e4      	bcs.n	400606 <hal_display_putc+0x1e>
	struct spi_device device = {.id = SSD1306_CS_PIN};
  40063c:	ac02      	add	r4, sp, #8
  40063e:	2302      	movs	r3, #2
  400640:	f844 3d04 	str.w	r3, [r4, #-4]!
	spi_select_device(SSD1306_SPI, &device);
  400644:	4d0b      	ldr	r5, [pc, #44]	; (400674 <hal_display_putc+0x8c>)
  400646:	4621      	mov	r1, r4
  400648:	4628      	mov	r0, r5
  40064a:	4b0d      	ldr	r3, [pc, #52]	; (400680 <hal_display_putc+0x98>)
  40064c:	4798      	blx	r3
  40064e:	f44f 1200 	mov.w	r2, #2097152	; 0x200000
  400652:	4b0c      	ldr	r3, [pc, #48]	; (400684 <hal_display_putc+0x9c>)
  400654:	631a      	str	r2, [r3, #48]	; 0x30
  400656:	2300      	movs	r3, #0
  400658:	60eb      	str	r3, [r5, #12]
	delay_us(SSD1306_LATENCY); // At least 3us
  40065a:	2056      	movs	r0, #86	; 0x56
  40065c:	4b06      	ldr	r3, [pc, #24]	; (400678 <hal_display_putc+0x90>)
  40065e:	4798      	blx	r3
	spi_deselect_device(SSD1306_SPI, &device);
  400660:	4621      	mov	r1, r4
  400662:	4628      	mov	r0, r5
  400664:	4b05      	ldr	r3, [pc, #20]	; (40067c <hal_display_putc+0x94>)
  400666:	4798      	blx	r3
}
  400668:	b002      	add	sp, #8
  40066a:	e8bd 87f0 	ldmia.w	sp!, {r4, r5, r6, r7, r8, r9, sl, pc}
  40066e:	bf00      	nop
  400670:	200002ac 	.word	0x200002ac
  400674:	40008000 	.word	0x40008000
  400678:	20000001 	.word	0x20000001
  40067c:	00401ca9 	.word	0x00401ca9
  400680:	00401c79 	.word	0x00401c79
  400684:	400e1200 	.word	0x400e1200

00400688 <hal_display_cls>:
void hal_display_cls(void){
  400688:	e92d 4ff0 	stmdb	sp!, {r4, r5, r6, r7, r8, r9, sl, fp, lr}
  40068c:	b083      	sub	sp, #12
  40068e:	f04f 0a00 	mov.w	sl, #0
 */
static inline void ssd1306_set_page_address(uint8_t address)
{
	// Make sure that the address is 4 bits (only 8 pages)
	address &= 0x0F;
	ssd1306_write_command(SSD1306_CMD_SET_PAGE_START_ADDRESS(address));
  400692:	f8df b078 	ldr.w	fp, [pc, #120]	; 40070c <hal_display_cls+0x84>
static inline void ssd1306_set_column_address(uint8_t address)
{
	// Make sure the address is 7 bits
	address &= 0x7F;
	ssd1306_write_command(SSD1306_CMD_SET_HIGH_COL(address >> 4));
	ssd1306_write_command(SSD1306_CMD_SET_LOW_COL(address & 0x0F));
  400696:	4657      	mov	r7, sl
  400698:	f8df 9074 	ldr.w	r9, [pc, #116]	; 400710 <hal_display_cls+0x88>
	ssd1306_write_command(SSD1306_CMD_SET_PAGE_START_ADDRESS(address));
  40069c:	f00a 0007 	and.w	r0, sl, #7
  4006a0:	f040 00b0 	orr.w	r0, r0, #176	; 0xb0
  4006a4:	47d8      	blx	fp
	ssd1306_write_command(SSD1306_CMD_SET_HIGH_COL(address >> 4));
  4006a6:	2010      	movs	r0, #16
  4006a8:	47d8      	blx	fp
	ssd1306_write_command(SSD1306_CMD_SET_LOW_COL(address & 0x0F));
  4006aa:	4638      	mov	r0, r7
  4006ac:	47d8      	blx	fp
  4006ae:	2680      	movs	r6, #128	; 0x80
	spi_select_device(SSD1306_SPI, &device);
  4006b0:	4d13      	ldr	r5, [pc, #76]	; (400700 <hal_display_cls+0x78>)
  4006b2:	f8df 8060 	ldr.w	r8, [pc, #96]	; 400714 <hal_display_cls+0x8c>
	struct spi_device device = {.id = SSD1306_CS_PIN};
  4006b6:	ac02      	add	r4, sp, #8
  4006b8:	2302      	movs	r3, #2
  4006ba:	f844 3d04 	str.w	r3, [r4, #-4]!
	spi_select_device(SSD1306_SPI, &device);
  4006be:	4621      	mov	r1, r4
  4006c0:	4628      	mov	r0, r5
  4006c2:	47c0      	blx	r8
  4006c4:	f44f 1300 	mov.w	r3, #2097152	; 0x200000
  4006c8:	f8c9 3030 	str.w	r3, [r9, #48]	; 0x30
  4006cc:	60ef      	str	r7, [r5, #12]
	delay_us(SSD1306_LATENCY); // At least 3us
  4006ce:	2056      	movs	r0, #86	; 0x56
  4006d0:	4b0c      	ldr	r3, [pc, #48]	; (400704 <hal_display_cls+0x7c>)
  4006d2:	4798      	blx	r3
	spi_deselect_device(SSD1306_SPI, &device);
  4006d4:	4621      	mov	r1, r4
  4006d6:	4628      	mov	r0, r5
  4006d8:	4b0b      	ldr	r3, [pc, #44]	; (400708 <hal_display_cls+0x80>)
  4006da:	4798      	blx	r3

	for (page = 0; page < 4; ++page)
	{
		ssd1306_set_page_address(page);
		ssd1306_set_column_address(0);
		for (col = 0; col < 128; ++col)
  4006dc:	3e01      	subs	r6, #1
  4006de:	d1ea      	bne.n	4006b6 <hal_display_cls+0x2e>
  4006e0:	f10a 0a01 	add.w	sl, sl, #1
	for (page = 0; page < 4; ++page)
  4006e4:	f1ba 0f04 	cmp.w	sl, #4
  4006e8:	d1d8      	bne.n	40069c <hal_display_cls+0x14>
	ssd1306_write_command(SSD1306_CMD_SET_PAGE_START_ADDRESS(address));
  4006ea:	20b0      	movs	r0, #176	; 0xb0
  4006ec:	4c07      	ldr	r4, [pc, #28]	; (40070c <hal_display_cls+0x84>)
  4006ee:	47a0      	blx	r4
	ssd1306_write_command(SSD1306_CMD_SET_HIGH_COL(address >> 4));
  4006f0:	2010      	movs	r0, #16
  4006f2:	47a0      	blx	r4
	ssd1306_write_command(SSD1306_CMD_SET_LOW_COL(address & 0x0F));
  4006f4:	2000      	movs	r0, #0
  4006f6:	47a0      	blx	r4
}
  4006f8:	b003      	add	sp, #12
  4006fa:	e8bd 8ff0 	ldmia.w	sp!, {r4, r5, r6, r7, r8, r9, sl, fp, pc}
  4006fe:	bf00      	nop
  400700:	40008000 	.word	0x40008000
  400704:	20000001 	.word	0x20000001
  400708:	00401ca9 	.word	0x00401ca9
  40070c:	00400295 	.word	0x00400295
  400710:	400e1200 	.word	0x400e1200
  400714:	00401c79 	.word	0x00401c79

00400718 <hal_display_gotoxy>:
void hal_display_gotoxy( uint32_t x, uint32_t y ){
  400718:	b570      	push	{r4, r5, r6, lr}
  40071a:	460d      	mov	r5, r1
	ssd1306_set_column_address(x);
  40071c:	b2c6      	uxtb	r6, r0
	ssd1306_write_command(SSD1306_CMD_SET_HIGH_COL(address >> 4));
  40071e:	f3c6 1002 	ubfx	r0, r6, #4, #3
  400722:	f040 0010 	orr.w	r0, r0, #16
  400726:	4c05      	ldr	r4, [pc, #20]	; (40073c <hal_display_gotoxy+0x24>)
  400728:	47a0      	blx	r4
	ssd1306_write_command(SSD1306_CMD_SET_LOW_COL(address & 0x0F));
  40072a:	f006 000f 	and.w	r0, r6, #15
  40072e:	47a0      	blx	r4
	ssd1306_write_command(SSD1306_CMD_SET_PAGE_START_ADDRESS(address));
  400730:	f005 0007 	and.w	r0, r5, #7
  400734:	f040 00b0 	orr.w	r0, r0, #176	; 0xb0
  400738:	47a0      	blx	r4
  40073a:	bd70      	pop	{r4, r5, r6, pc}
  40073c:	00400295 	.word	0x00400295

00400740 <hal_display_numlines>:
}
  400740:	2004      	movs	r0, #4
  400742:	4770      	bx	lr

00400744 <hal_sensor_start>:
void hal_sensor_start( tSensorId sensor_id ){
  400744:	b538      	push	{r3, r4, r5, lr}
	switch( sensor_id ){
  400746:	b110      	cbz	r0, 40074e <hal_sensor_start+0xa>
  400748:	2801      	cmp	r0, #1
  40074a:	d01c      	beq.n	400786 <hal_sensor_start+0x42>
  40074c:	bd38      	pop	{r3, r4, r5, pc}
	gpio_configure_pin(LIGHT_SENSOR_GPIO, LIGHT_SENSOR_FLAGS);
  40074e:	f04f 5120 	mov.w	r1, #671088640	; 0x28000000
  400752:	2020      	movs	r0, #32
  400754:	4b0d      	ldr	r3, [pc, #52]	; (40078c <hal_sensor_start+0x48>)
  400756:	4798      	blx	r3
	pmc_enable_periph_clk(ID_ADC);
  400758:	201d      	movs	r0, #29
  40075a:	4b0d      	ldr	r3, [pc, #52]	; (400790 <hal_sensor_start+0x4c>)
  40075c:	4798      	blx	r3
	adc_init(ADC, sysclk_get_cpu_hz(), 1000000, ADC_MR_STARTUP_SUT0);
  40075e:	4c0d      	ldr	r4, [pc, #52]	; (400794 <hal_sensor_start+0x50>)
  400760:	2300      	movs	r3, #0
  400762:	4a0d      	ldr	r2, [pc, #52]	; (400798 <hal_sensor_start+0x54>)
  400764:	490d      	ldr	r1, [pc, #52]	; (40079c <hal_sensor_start+0x58>)
  400766:	4620      	mov	r0, r4
  400768:	4d0d      	ldr	r5, [pc, #52]	; (4007a0 <hal_sensor_start+0x5c>)
  40076a:	47a8      	blx	r5
	adc_enable_channel(ADC, ADC_CHANNEL_4);		//ADC channel 4
  40076c:	2104      	movs	r1, #4
  40076e:	4620      	mov	r0, r4
  400770:	4b0c      	ldr	r3, [pc, #48]	; (4007a4 <hal_sensor_start+0x60>)
  400772:	4798      	blx	r3
	adc_configure_trigger(ADC, ADC_TRIG_SW, 1);	
  400774:	2201      	movs	r2, #1
  400776:	2100      	movs	r1, #0
  400778:	4620      	mov	r0, r4
  40077a:	4b0b      	ldr	r3, [pc, #44]	; (4007a8 <hal_sensor_start+0x64>)
  40077c:	4798      	blx	r3
	adc_start(ADC);		
  40077e:	4620      	mov	r0, r4
  400780:	4b0a      	ldr	r3, [pc, #40]	; (4007ac <hal_sensor_start+0x68>)
  400782:	4798      	blx	r3
  400784:	bd38      	pop	{r3, r4, r5, pc}
	at30tse_init();	
  400786:	4b0a      	ldr	r3, [pc, #40]	; (4007b0 <hal_sensor_start+0x6c>)
  400788:	4798      	blx	r3
  40078a:	bd38      	pop	{r3, r4, r5, pc}
  40078c:	004020ad 	.word	0x004020ad
  400790:	00402565 	.word	0x00402565
  400794:	40038000 	.word	0x40038000
  400798:	000f4240 	.word	0x000f4240
  40079c:	07270e00 	.word	0x07270e00
  4007a0:	00401e61 	.word	0x00401e61
  4007a4:	00401ea9 	.word	0x00401ea9
  4007a8:	00401e95 	.word	0x00401e95
  4007ac:	00401ea3 	.word	0x00401ea3
  4007b0:	00400f4d 	.word	0x00400f4d
  4007b4:	00000000 	.word	0x00000000

004007b8 <hal_sensor_read>:
uint32_t hal_sensor_read( tSensorId sensor_id ){
  4007b8:	b510      	push	{r4, lr}
  4007ba:	b084      	sub	sp, #16
	switch( sensor_id ){
  4007bc:	b118      	cbz	r0, 4007c6 <hal_sensor_read+0xe>
  4007be:	2801      	cmp	r0, #1
  4007c0:	d01a      	beq.n	4007f8 <hal_sensor_read+0x40>
	uint32_t val = 0;
  4007c2:	2000      	movs	r0, #0
	return val;
  4007c4:	e016      	b.n	4007f4 <hal_sensor_read+0x3c>
	return adc_get_channel_value(ADC, ADC_CHANNEL_4);
  4007c6:	2104      	movs	r1, #4
  4007c8:	481b      	ldr	r0, [pc, #108]	; (400838 <hal_sensor_read+0x80>)
  4007ca:	4b1c      	ldr	r3, [pc, #112]	; (40083c <hal_sensor_read+0x84>)
  4007cc:	4798      	blx	r3
			val = 100 - ( val/4095.0 * 100 ); //normalize to 100, 0 being darkest
  4007ce:	4b1c      	ldr	r3, [pc, #112]	; (400840 <hal_sensor_read+0x88>)
  4007d0:	4798      	blx	r3
  4007d2:	a317      	add	r3, pc, #92	; (adr r3, 400830 <hal_sensor_read+0x78>)
  4007d4:	e9d3 2300 	ldrd	r2, r3, [r3]
  4007d8:	4c1a      	ldr	r4, [pc, #104]	; (400844 <hal_sensor_read+0x8c>)
  4007da:	47a0      	blx	r4
  4007dc:	2200      	movs	r2, #0
  4007de:	4b1a      	ldr	r3, [pc, #104]	; (400848 <hal_sensor_read+0x90>)
  4007e0:	4c1a      	ldr	r4, [pc, #104]	; (40084c <hal_sensor_read+0x94>)
  4007e2:	47a0      	blx	r4
  4007e4:	4602      	mov	r2, r0
  4007e6:	460b      	mov	r3, r1
  4007e8:	2000      	movs	r0, #0
  4007ea:	4917      	ldr	r1, [pc, #92]	; (400848 <hal_sensor_read+0x90>)
  4007ec:	4c18      	ldr	r4, [pc, #96]	; (400850 <hal_sensor_read+0x98>)
  4007ee:	47a0      	blx	r4
  4007f0:	4b18      	ldr	r3, [pc, #96]	; (400854 <hal_sensor_read+0x9c>)
  4007f2:	4798      	blx	r3
}
  4007f4:	b004      	add	sp, #16
  4007f6:	bd10      	pop	{r4, pc}
	volatile double ret_val = 0;
  4007f8:	2200      	movs	r2, #0
  4007fa:	2300      	movs	r3, #0
  4007fc:	e9cd 2300 	strd	r2, r3, [sp]
	volatile uint64_t tries = 3;
  400800:	2203      	movs	r2, #3
  400802:	2300      	movs	r3, #0
  400804:	e9cd 2302 	strd	r2, r3, [sp, #8]
	while( at30tse_read_temperature(&ret_val) != TWI_SUCCESS && tries++ <= 3);
  400808:	4c13      	ldr	r4, [pc, #76]	; (400858 <hal_sensor_read+0xa0>)
  40080a:	4668      	mov	r0, sp
  40080c:	47a0      	blx	r4
  40080e:	b150      	cbz	r0, 400826 <hal_sensor_read+0x6e>
  400810:	e9dd 2302 	ldrd	r2, r3, [sp, #8]
  400814:	1c50      	adds	r0, r2, #1
  400816:	f143 0100 	adc.w	r1, r3, #0
  40081a:	e9cd 0102 	strd	r0, r1, [sp, #8]
  40081e:	2b00      	cmp	r3, #0
  400820:	bf08      	it	eq
  400822:	2a04      	cmpeq	r2, #4
  400824:	d3f1      	bcc.n	40080a <hal_sensor_read+0x52>
	return (uint32_t)ret_val; //return truncated temperature
  400826:	e9dd 0100 	ldrd	r0, r1, [sp]
  40082a:	4b0a      	ldr	r3, [pc, #40]	; (400854 <hal_sensor_read+0x9c>)
  40082c:	4798      	blx	r3
			break;
  40082e:	e7e1      	b.n	4007f4 <hal_sensor_read+0x3c>
  400830:	00000000 	.word	0x00000000
  400834:	40affe00 	.word	0x40affe00
  400838:	40038000 	.word	0x40038000
  40083c:	00401eb3 	.word	0x00401eb3
  400840:	00403529 	.word	0x00403529
  400844:	00403869 	.word	0x00403869
  400848:	40590000 	.word	0x40590000
  40084c:	00403615 	.word	0x00403615
  400850:	004032ad 	.word	0x004032ad
  400854:	00403a39 	.word	0x00403a39
  400858:	00400fb9 	.word	0x00400fb9

0040085c <hal_button_start_int>:
void hal_button_start_int( void (*callback) (tButtonNum) ){
  40085c:	e92d 4ff0 	stmdb	sp!, {r4, r5, r6, r7, r8, r9, sl, fp, lr}
  400860:	b083      	sub	sp, #12
	button_callback = callback; 
  400862:	4b38      	ldr	r3, [pc, #224]	; (400944 <hal_button_start_int+0xe8>)
  400864:	6018      	str	r0, [r3, #0]
	pmc_enable_periph_clk(PIN_PUSHBUTTON_0_ID);
  400866:	200b      	movs	r0, #11
  400868:	f8df a0f4 	ldr.w	sl, [pc, #244]	; 400960 <hal_button_start_int+0x104>
  40086c:	47d0      	blx	sl
	pio_set_debounce_filter(PIN_PUSHBUTTON_0_PIO, PIN_PUSHBUTTON_0_MASK, 10);
  40086e:	220a      	movs	r2, #10
  400870:	2104      	movs	r1, #4
  400872:	4835      	ldr	r0, [pc, #212]	; (400948 <hal_button_start_int+0xec>)
  400874:	f8df 90ec 	ldr.w	r9, [pc, #236]	; 400964 <hal_button_start_int+0x108>
  400878:	47c8      	blx	r9
	pio_handler_set(PIN_PUSHBUTTON_0_PIO, PIN_PUSHBUTTON_0_ID,
  40087a:	f8df 80ec 	ldr.w	r8, [pc, #236]	; 400968 <hal_button_start_int+0x10c>
  40087e:	f8cd 8000 	str.w	r8, [sp]
  400882:	2379      	movs	r3, #121	; 0x79
  400884:	2204      	movs	r2, #4
  400886:	210b      	movs	r1, #11
  400888:	482f      	ldr	r0, [pc, #188]	; (400948 <hal_button_start_int+0xec>)
  40088a:	4f30      	ldr	r7, [pc, #192]	; (40094c <hal_button_start_int+0xf0>)
  40088c:	47b8      	blx	r7
  NVIC->ISER[(uint32_t)((int32_t)IRQn) >> 5] = (uint32_t)(1 << ((uint32_t)((int32_t)IRQn) & (uint32_t)0x1F)); /* enable interrupt */
  40088e:	4e30      	ldr	r6, [pc, #192]	; (400950 <hal_button_start_int+0xf4>)
  400890:	f44f 6b00 	mov.w	fp, #2048	; 0x800
  400894:	f8c6 b000 	str.w	fp, [r6]
	pio_handler_set_priority(PIN_PUSHBUTTON_0_PIO, (IRQn_Type) PIN_PUSHBUTTON_0_ID, buttons_irq_priority);
  400898:	2205      	movs	r2, #5
  40089a:	210b      	movs	r1, #11
  40089c:	482a      	ldr	r0, [pc, #168]	; (400948 <hal_button_start_int+0xec>)
  40089e:	4d2d      	ldr	r5, [pc, #180]	; (400954 <hal_button_start_int+0xf8>)
  4008a0:	47a8      	blx	r5
	pio_enable_interrupt(PIN_PUSHBUTTON_0_PIO, PIN_PUSHBUTTON_0_MASK);
  4008a2:	2104      	movs	r1, #4
  4008a4:	4828      	ldr	r0, [pc, #160]	; (400948 <hal_button_start_int+0xec>)
  4008a6:	4c2c      	ldr	r4, [pc, #176]	; (400958 <hal_button_start_int+0xfc>)
  4008a8:	47a0      	blx	r4
	pmc_enable_periph_clk(PIN_PUSHBUTTON_1_ID);
  4008aa:	200b      	movs	r0, #11
  4008ac:	47d0      	blx	sl
	pio_set_debounce_filter(PIN_PUSHBUTTON_1_PIO, PIN_PUSHBUTTON_1_MASK, 10);
  4008ae:	220a      	movs	r2, #10
  4008b0:	2101      	movs	r1, #1
  4008b2:	4825      	ldr	r0, [pc, #148]	; (400948 <hal_button_start_int+0xec>)
  4008b4:	47c8      	blx	r9
	pio_handler_set(PIN_PUSHBUTTON_1_PIO, PIN_PUSHBUTTON_1_ID,
  4008b6:	f8cd 8000 	str.w	r8, [sp]
  4008ba:	2379      	movs	r3, #121	; 0x79
  4008bc:	2201      	movs	r2, #1
  4008be:	210b      	movs	r1, #11
  4008c0:	4821      	ldr	r0, [pc, #132]	; (400948 <hal_button_start_int+0xec>)
  4008c2:	47b8      	blx	r7
  4008c4:	f8c6 b000 	str.w	fp, [r6]
	pio_handler_set_priority(PIN_PUSHBUTTON_1_PIO, (IRQn_Type) PIN_PUSHBUTTON_1_ID, buttons_irq_priority);
  4008c8:	2205      	movs	r2, #5
  4008ca:	210b      	movs	r1, #11
  4008cc:	481e      	ldr	r0, [pc, #120]	; (400948 <hal_button_start_int+0xec>)
  4008ce:	47a8      	blx	r5
	pio_enable_interrupt(PIN_PUSHBUTTON_1_PIO, PIN_PUSHBUTTON_1_MASK);
  4008d0:	2101      	movs	r1, #1
  4008d2:	481d      	ldr	r0, [pc, #116]	; (400948 <hal_button_start_int+0xec>)
  4008d4:	47a0      	blx	r4
	pmc_enable_periph_clk(PIN_PUSHBUTTON_2_ID);
  4008d6:	200d      	movs	r0, #13
  4008d8:	47d0      	blx	sl
	pio_set_debounce_filter(PIN_PUSHBUTTON_2_PIO, PIN_PUSHBUTTON_2_MASK, 10);
  4008da:	220a      	movs	r2, #10
  4008dc:	f04f 5100 	mov.w	r1, #536870912	; 0x20000000
  4008e0:	481e      	ldr	r0, [pc, #120]	; (40095c <hal_button_start_int+0x100>)
  4008e2:	47c8      	blx	r9
	pio_handler_set(PIN_PUSHBUTTON_2_PIO, PIN_PUSHBUTTON_2_ID,
  4008e4:	f8cd 8000 	str.w	r8, [sp]
  4008e8:	2379      	movs	r3, #121	; 0x79
  4008ea:	f04f 5200 	mov.w	r2, #536870912	; 0x20000000
  4008ee:	210d      	movs	r1, #13
  4008f0:	481a      	ldr	r0, [pc, #104]	; (40095c <hal_button_start_int+0x100>)
  4008f2:	47b8      	blx	r7
  4008f4:	f44f 5b00 	mov.w	fp, #8192	; 0x2000
  4008f8:	f8c6 b000 	str.w	fp, [r6]
	pio_handler_set_priority(PIN_PUSHBUTTON_2_PIO, (IRQn_Type) PIN_PUSHBUTTON_2_ID, buttons_irq_priority);
  4008fc:	2205      	movs	r2, #5
  4008fe:	210d      	movs	r1, #13
  400900:	4816      	ldr	r0, [pc, #88]	; (40095c <hal_button_start_int+0x100>)
  400902:	47a8      	blx	r5
	pio_enable_interrupt(PIN_PUSHBUTTON_2_PIO, PIN_PUSHBUTTON_2_MASK);
  400904:	f04f 5100 	mov.w	r1, #536870912	; 0x20000000
  400908:	4814      	ldr	r0, [pc, #80]	; (40095c <hal_button_start_int+0x100>)
  40090a:	47a0      	blx	r4
	pmc_enable_periph_clk(PIN_PUSHBUTTON_3_ID);
  40090c:	200d      	movs	r0, #13
  40090e:	47d0      	blx	sl
	pio_set_debounce_filter(PIN_PUSHBUTTON_3_PIO, PIN_PUSHBUTTON_3_MASK, 10);
  400910:	220a      	movs	r2, #10
  400912:	f04f 4180 	mov.w	r1, #1073741824	; 0x40000000
  400916:	4811      	ldr	r0, [pc, #68]	; (40095c <hal_button_start_int+0x100>)
  400918:	47c8      	blx	r9
	pio_handler_set(PIN_PUSHBUTTON_3_PIO, PIN_PUSHBUTTON_3_ID,
  40091a:	f8cd 8000 	str.w	r8, [sp]
  40091e:	2379      	movs	r3, #121	; 0x79
  400920:	f04f 4280 	mov.w	r2, #1073741824	; 0x40000000
  400924:	210d      	movs	r1, #13
  400926:	480d      	ldr	r0, [pc, #52]	; (40095c <hal_button_start_int+0x100>)
  400928:	47b8      	blx	r7
  40092a:	f8c6 b000 	str.w	fp, [r6]
	pio_handler_set_priority(PIN_PUSHBUTTON_3_PIO, (IRQn_Type) PIN_PUSHBUTTON_3_ID, buttons_irq_priority);
  40092e:	2205      	movs	r2, #5
  400930:	210d      	movs	r1, #13
  400932:	480a      	ldr	r0, [pc, #40]	; (40095c <hal_button_start_int+0x100>)
  400934:	47a8      	blx	r5
	pio_enable_interrupt(PIN_PUSHBUTTON_3_PIO, PIN_PUSHBUTTON_3_MASK);
  400936:	f04f 4180 	mov.w	r1, #1073741824	; 0x40000000
  40093a:	4808      	ldr	r0, [pc, #32]	; (40095c <hal_button_start_int+0x100>)
  40093c:	47a0      	blx	r4
}
  40093e:	b003      	add	sp, #12
  400940:	e8bd 8ff0 	ldmia.w	sp!, {r4, r5, r6, r7, r8, r9, sl, fp, pc}
  400944:	20000e28 	.word	0x20000e28
  400948:	400e0e00 	.word	0x400e0e00
  40094c:	0040230d 	.word	0x0040230d
  400950:	e000e100 	.word	0xe000e100
  400954:	004023b9 	.word	0x004023b9
  400958:	0040207f 	.word	0x0040207f
  40095c:	400e1200 	.word	0x400e1200
  400960:	00402565 	.word	0x00402565
  400964:	00401ec1 	.word	0x00401ec1
  400968:	00400249 	.word	0x00400249

0040096c <hal_serial_start>:
void hal_serial_start( tSerialId serial_id, uint32_t baudrate ){
  40096c:	b508      	push	{r3, lr}
	switch( serial_id ){
  40096e:	b110      	cbz	r0, 400976 <hal_serial_start+0xa>
  400970:	2801      	cmp	r0, #1
  400972:	d004      	beq.n	40097e <hal_serial_start+0x12>
  400974:	bd08      	pop	{r3, pc}
		case SerialA:	configure_uart1(baudrate);	break;	//SerialA is UART1
  400976:	4608      	mov	r0, r1
  400978:	4b03      	ldr	r3, [pc, #12]	; (400988 <hal_serial_start+0x1c>)
  40097a:	4798      	blx	r3
  40097c:	bd08      	pop	{r3, pc}
		case SerialB:	configure_usart1(baudrate);	break;	//SerialB is USART1
  40097e:	4608      	mov	r0, r1
  400980:	4b02      	ldr	r3, [pc, #8]	; (40098c <hal_serial_start+0x20>)
  400982:	4798      	blx	r3
  400984:	bd08      	pop	{r3, pc}
  400986:	bf00      	nop
  400988:	004002dd 	.word	0x004002dd
  40098c:	0040033d 	.word	0x0040033d

00400990 <hal_serial_putc>:
void hal_serial_putc( tSerialId serial_id, uint8_t c ){
  400990:	b508      	push	{r3, lr}
	switch( serial_id ){
  400992:	b110      	cbz	r0, 40099a <hal_serial_putc+0xa>
  400994:	2801      	cmp	r0, #1
  400996:	d009      	beq.n	4009ac <hal_serial_putc+0x1c>
  400998:	bd08      	pop	{r3, pc}

static void uart1_putc( uint8_t c ){
	while ( !(UART1->UART_SR & UART_SR_TXRDY) ); //wait for Tx to be available
  40099a:	4a09      	ldr	r2, [pc, #36]	; (4009c0 <hal_serial_putc+0x30>)
  40099c:	6953      	ldr	r3, [r2, #20]
  40099e:	f013 0f02 	tst.w	r3, #2
  4009a2:	d0fb      	beq.n	40099c <hal_serial_putc+0xc>
	uart_write( UART1, c );						 //transmit
  4009a4:	4806      	ldr	r0, [pc, #24]	; (4009c0 <hal_serial_putc+0x30>)
  4009a6:	4b07      	ldr	r3, [pc, #28]	; (4009c4 <hal_serial_putc+0x34>)
  4009a8:	4798      	blx	r3
  4009aa:	bd08      	pop	{r3, pc}
}

static void usart1_putc( uint8_t c ){
	while( !(USART_SERIAL->US_CSR & US_CSR_TXRDY) ); //wait until TX is ready
  4009ac:	4a06      	ldr	r2, [pc, #24]	; (4009c8 <hal_serial_putc+0x38>)
  4009ae:	6953      	ldr	r3, [r2, #20]
  4009b0:	f013 0f02 	tst.w	r3, #2
  4009b4:	d0fb      	beq.n	4009ae <hal_serial_putc+0x1e>
	usart_write( USART_SERIAL, c );					 //write
  4009b6:	4804      	ldr	r0, [pc, #16]	; (4009c8 <hal_serial_putc+0x38>)
  4009b8:	4b04      	ldr	r3, [pc, #16]	; (4009cc <hal_serial_putc+0x3c>)
  4009ba:	4798      	blx	r3
  4009bc:	bd08      	pop	{r3, pc}
  4009be:	bf00      	nop
  4009c0:	400e0800 	.word	0x400e0800
  4009c4:	00402b33 	.word	0x00402b33
  4009c8:	40028000 	.word	0x40028000
  4009cc:	00402c41 	.word	0x00402c41

004009d0 <hal_serial_getc>:
uint8_t hal_serial_getc( tSerialId serial_id ){
  4009d0:	b530      	push	{r4, r5, lr}
  4009d2:	b083      	sub	sp, #12
	uint8_t buf = 0;
  4009d4:	2300      	movs	r3, #0
  4009d6:	f88d 3007 	strb.w	r3, [sp, #7]
	switch( serial_id ){
  4009da:	b128      	cbz	r0, 4009e8 <hal_serial_getc+0x18>
  4009dc:	2801      	cmp	r0, #1
  4009de:	d010      	beq.n	400a02 <hal_serial_getc+0x32>
}
  4009e0:	f89d 0007 	ldrb.w	r0, [sp, #7]
  4009e4:	b003      	add	sp, #12
  4009e6:	bd30      	pop	{r4, r5, pc}
}

static void uart1_getc( uint8_t* buf ){
	while( !(uart_get_status(UART1) & UART_SR_RXRDY) ); //wait until a character is ready
  4009e8:	4d0c      	ldr	r5, [pc, #48]	; (400a1c <hal_serial_getc+0x4c>)
  4009ea:	4c0d      	ldr	r4, [pc, #52]	; (400a20 <hal_serial_getc+0x50>)
  4009ec:	4628      	mov	r0, r5
  4009ee:	47a0      	blx	r4
  4009f0:	f010 0f01 	tst.w	r0, #1
  4009f4:	d0fa      	beq.n	4009ec <hal_serial_getc+0x1c>
	uart_read( UART1, buf );							//read
  4009f6:	f10d 0107 	add.w	r1, sp, #7
  4009fa:	4808      	ldr	r0, [pc, #32]	; (400a1c <hal_serial_getc+0x4c>)
  4009fc:	4b09      	ldr	r3, [pc, #36]	; (400a24 <hal_serial_getc+0x54>)
  4009fe:	4798      	blx	r3
  400a00:	e7ee      	b.n	4009e0 <hal_serial_getc+0x10>
}

static void usart1_getc( uint8_t* buf ){
	while( !(usart_get_status(USART1) & US_CSR_RXRDY) ); //wait until a character is available
  400a02:	4d09      	ldr	r5, [pc, #36]	; (400a28 <hal_serial_getc+0x58>)
  400a04:	4c09      	ldr	r4, [pc, #36]	; (400a2c <hal_serial_getc+0x5c>)
  400a06:	4628      	mov	r0, r5
  400a08:	47a0      	blx	r4
  400a0a:	f010 0f01 	tst.w	r0, #1
  400a0e:	d0fa      	beq.n	400a06 <hal_serial_getc+0x36>
	usart_read(USART1, buf);							 //read
  400a10:	f10d 0107 	add.w	r1, sp, #7
  400a14:	4804      	ldr	r0, [pc, #16]	; (400a28 <hal_serial_getc+0x58>)
  400a16:	4b06      	ldr	r3, [pc, #24]	; (400a30 <hal_serial_getc+0x60>)
  400a18:	4798      	blx	r3
  400a1a:	e7e1      	b.n	4009e0 <hal_serial_getc+0x10>
  400a1c:	400e0800 	.word	0x400e0800
  400a20:	00402b2f 	.word	0x00402b2f
  400a24:	00402b43 	.word	0x00402b43
  400a28:	40028000 	.word	0x40028000
  400a2c:	00402c3d 	.word	0x00402c3d
  400a30:	00402c55 	.word	0x00402c55

00400a34 <UART1_Handler>:
}


//UART1 ISR
void UART1_Handler(){
  400a34:	b500      	push	{lr}
  400a36:	b083      	sub	sp, #12
	uint8_t rx_data;
	uint32_t status = uart_get_status(UART1);
  400a38:	4809      	ldr	r0, [pc, #36]	; (400a60 <UART1_Handler+0x2c>)
  400a3a:	4b0a      	ldr	r3, [pc, #40]	; (400a64 <UART1_Handler+0x30>)
  400a3c:	4798      	blx	r3
	
	if(status & UART_SR_RXRDY){
  400a3e:	f010 0f01 	tst.w	r0, #1
  400a42:	d102      	bne.n	400a4a <UART1_Handler+0x16>
		uart_read(UART1, &rx_data);
		
		//pass to upper layer
		uart1_callback(rx_data);
	}
}
  400a44:	b003      	add	sp, #12
  400a46:	f85d fb04 	ldr.w	pc, [sp], #4
		uart_read(UART1, &rx_data);
  400a4a:	f10d 0107 	add.w	r1, sp, #7
  400a4e:	4804      	ldr	r0, [pc, #16]	; (400a60 <UART1_Handler+0x2c>)
  400a50:	4b05      	ldr	r3, [pc, #20]	; (400a68 <UART1_Handler+0x34>)
  400a52:	4798      	blx	r3
		uart1_callback(rx_data);
  400a54:	4b05      	ldr	r3, [pc, #20]	; (400a6c <UART1_Handler+0x38>)
  400a56:	681b      	ldr	r3, [r3, #0]
  400a58:	f89d 0007 	ldrb.w	r0, [sp, #7]
  400a5c:	4798      	blx	r3
}
  400a5e:	e7f1      	b.n	400a44 <UART1_Handler+0x10>
  400a60:	400e0800 	.word	0x400e0800
  400a64:	00402b2f 	.word	0x00402b2f
  400a68:	00402b43 	.word	0x00402b43
  400a6c:	20000e30 	.word	0x20000e30

00400a70 <USART1_Handler>:

//USART1 ISR
void USART1_Handler(){
  400a70:	b500      	push	{lr}
  400a72:	b083      	sub	sp, #12
	uint8_t received_byte;
	uint32_t dw_status = usart_get_status(USART1);
  400a74:	4809      	ldr	r0, [pc, #36]	; (400a9c <USART1_Handler+0x2c>)
  400a76:	4b0a      	ldr	r3, [pc, #40]	; (400aa0 <USART1_Handler+0x30>)
  400a78:	4798      	blx	r3
	
	if (dw_status & US_CSR_RXRDY) {
  400a7a:	f010 0f01 	tst.w	r0, #1
  400a7e:	d102      	bne.n	400a86 <USART1_Handler+0x16>
		usart_read(USART1, &received_byte);
		
		//pass to upper layer
		usart1_callback(received_byte);
	}
}
  400a80:	b003      	add	sp, #12
  400a82:	f85d fb04 	ldr.w	pc, [sp], #4
		usart_read(USART1, &received_byte);
  400a86:	f10d 0107 	add.w	r1, sp, #7
  400a8a:	4804      	ldr	r0, [pc, #16]	; (400a9c <USART1_Handler+0x2c>)
  400a8c:	4b05      	ldr	r3, [pc, #20]	; (400aa4 <USART1_Handler+0x34>)
  400a8e:	4798      	blx	r3
		usart1_callback(received_byte);
  400a90:	4b05      	ldr	r3, [pc, #20]	; (400aa8 <USART1_Handler+0x38>)
  400a92:	681b      	ldr	r3, [r3, #0]
  400a94:	f89d 0007 	ldrb.w	r0, [sp, #7]
  400a98:	4798      	blx	r3
}
  400a9a:	e7f1      	b.n	400a80 <USART1_Handler+0x10>
  400a9c:	40028000 	.word	0x40028000
  400aa0:	00402c3d 	.word	0x00402c3d
  400aa4:	00402c55 	.word	0x00402c55
  400aa8:	20000e34 	.word	0x20000e34

00400aac <hal_memreg_init>:
*
*	Initializes Memory. This function must be called after
*	HAL CPU Init. That is: hal_cpu_init(); hal_mem_init();...
*
*/
void hal_memreg_init(void){
  400aac:	4770      	bx	lr

00400aae <hal_nvmem_init>:
*
*	Initializes Non-volatile memory. This function must be called after
*	HAL CPU Init. That is: hal_cpu_init(); hal_nvmem_init();...
*
*/
void hal_nvmem_init(void){
  400aae:	4770      	bx	lr

00400ab0 <hal_nvmem_start>:
*	@param mem_id id of the memory to be initialized
*
*	@return true if the memory was initialized correctly, false otherwise.
*/
bool hal_nvmem_start( tNVMemId mem_id ){
	switch(mem_id){
  400ab0:	2801      	cmp	r0, #1
  400ab2:	d117      	bne.n	400ae4 <hal_nvmem_start+0x34>
bool hal_nvmem_start( tNVMemId mem_id ){
  400ab4:	b5f8      	push	{r3, r4, r5, r6, r7, lr}
		case NVMemSDCardFAT:				//SD Card + FAT
			sdcard_fat_init = true;
  400ab6:	2201      	movs	r2, #1
  400ab8:	4b13      	ldr	r3, [pc, #76]	; (400b08 <hal_nvmem_start+0x58>)
  400aba:	701a      	strb	r2, [r3, #0]
	return f_mount(LUN_ID_SD_MMC_0_MEM, &fs) == FR_OK;
}

static bool sdcard_init( uint32_t num_attempts ){
	//check for SD Card to be inserted
	if( !gpio_pin_is_low(SD_MMC_0_CD_GPIO) ){
  400abc:	204c      	movs	r0, #76	; 0x4c
  400abe:	4b13      	ldr	r3, [pc, #76]	; (400b0c <hal_nvmem_start+0x5c>)
  400ac0:	4798      	blx	r3
  400ac2:	b108      	cbz	r0, 400ac8 <hal_nvmem_start+0x18>
			return sdcard_init(10) && fs_mount();	
  400ac4:	2000      	movs	r0, #0
}
  400ac6:	bdf8      	pop	{r3, r4, r5, r6, r7, pc}
		return false;
	}
	
	//Init SD/MMC Stack
	sd_mmc_init();
  400ac8:	4b11      	ldr	r3, [pc, #68]	; (400b10 <hal_nvmem_start+0x60>)
  400aca:	4798      	blx	r3
  400acc:	240b      	movs	r4, #11
	
	//Initializes Card
	while (	sd_mmc_check(0) != SD_MMC_OK ){
  400ace:	4d11      	ldr	r5, [pc, #68]	; (400b14 <hal_nvmem_start+0x64>)
		if( num_attempts-- <= 0 ) return false;
		delay_ms(200);
  400ad0:	4f11      	ldr	r7, [pc, #68]	; (400b18 <hal_nvmem_start+0x68>)
  400ad2:	4e12      	ldr	r6, [pc, #72]	; (400b1c <hal_nvmem_start+0x6c>)
	while (	sd_mmc_check(0) != SD_MMC_OK ){
  400ad4:	2000      	movs	r0, #0
  400ad6:	47a8      	blx	r5
  400ad8:	b130      	cbz	r0, 400ae8 <hal_nvmem_start+0x38>
		if( num_attempts-- <= 0 ) return false;
  400ada:	3c01      	subs	r4, #1
  400adc:	d0f2      	beq.n	400ac4 <hal_nvmem_start+0x14>
		delay_ms(200);
  400ade:	4638      	mov	r0, r7
  400ae0:	47b0      	blx	r6
  400ae2:	e7f7      	b.n	400ad4 <hal_nvmem_start+0x24>
		case NVMemSDCard:		return false;							//unimplemented (raw access to sd card)
  400ae4:	2000      	movs	r0, #0
  400ae6:	4770      	bx	lr
	memset(&fs, 0, sizeof(FATFS));
  400ae8:	4c0d      	ldr	r4, [pc, #52]	; (400b20 <hal_nvmem_start+0x70>)
  400aea:	f44f 720c 	mov.w	r2, #560	; 0x230
  400aee:	2100      	movs	r1, #0
  400af0:	4620      	mov	r0, r4
  400af2:	4b0c      	ldr	r3, [pc, #48]	; (400b24 <hal_nvmem_start+0x74>)
  400af4:	4798      	blx	r3
	return f_mount(LUN_ID_SD_MMC_0_MEM, &fs) == FR_OK;
  400af6:	4621      	mov	r1, r4
  400af8:	2000      	movs	r0, #0
  400afa:	4b0b      	ldr	r3, [pc, #44]	; (400b28 <hal_nvmem_start+0x78>)
  400afc:	4798      	blx	r3
			return sdcard_init(10) && fs_mount();	
  400afe:	fab0 f080 	clz	r0, r0
  400b02:	0940      	lsrs	r0, r0, #5
  400b04:	bdf8      	pop	{r3, r4, r5, r6, r7, pc}
  400b06:	bf00      	nop
  400b08:	20001068 	.word	0x20001068
  400b0c:	0040208f 	.word	0x0040208f
  400b10:	00401255 	.word	0x00401255
  400b14:	00401281 	.word	0x00401281
  400b18:	001a286e 	.word	0x001a286e
  400b1c:	20000001 	.word	0x20000001
  400b20:	20000e38 	.word	0x20000e38
  400b24:	00404359 	.word	0x00404359
  400b28:	00402f01 	.word	0x00402f01

00400b2c <syscalls_entry_point>:
*	   2. Based on that extract the right SP (PSP or MSP)
*	   3. The rest is the same...
*
*	There' no reason to make a syscall from the kernel though, so it's all good.
*/
void syscalls_entry_point(void){
  400b2c:	b538      	push	{r3, r4, r5, lr}
	
	uint32_t sp = hal_cpu_get_psp();
  400b2e:	4b2c      	ldr	r3, [pc, #176]	; (400be0 <syscalls_entry_point+0xb4>)
  400b30:	4798      	blx	r3
	
	//extract the number from the read instruction
	svc_number &= 0x00FF;
	
	//get arguments
	void* arg0 = ((uint32_t*)sp)[0];
  400b32:	6804      	ldr	r4, [r0, #0]
	void* arg1 = ((uint32_t*)sp)[1];
  400b34:	6845      	ldr	r5, [r0, #4]
	uint32_t svc_number = ((uint16_t*) ((uint32_t*)sp)[6])[-1];
  400b36:	6983      	ldr	r3, [r0, #24]
	void* arg2 = ((uint32_t*)sp)[2];
	void* arg3 = ((uint32_t*)sp)[3];
	
	//attend syscall
	switch(svc_number){
  400b38:	f813 3c02 	ldrb.w	r3, [r3, #-2]
  400b3c:	2b10      	cmp	r3, #16
  400b3e:	d84e      	bhi.n	400bde <syscalls_entry_point+0xb2>
  400b40:	e8df f003 	tbb	[pc, r3]
  400b44:	19151009 	.word	0x19151009
  400b48:	2a26211d 	.word	0x2a26211d
  400b4c:	3a36332e 	.word	0x3a36332e
  400b50:	474d433f 	.word	0x474d433f
  400b54:	4a          	.byte	0x4a
  400b55:	00          	.byte	0x00
		//LED
		case SVCLedWrite:
			hal_led_write( (tLedNum)arg0, (tLedState)arg1 );
  400b56:	1c29      	adds	r1, r5, #0
  400b58:	bf18      	it	ne
  400b5a:	2101      	movne	r1, #1
  400b5c:	4620      	mov	r0, r4
  400b5e:	4b21      	ldr	r3, [pc, #132]	; (400be4 <syscalls_entry_point+0xb8>)
  400b60:	4798      	blx	r3
			break;
  400b62:	bd38      	pop	{r3, r4, r5, pc}
		case SVCLedRead:
			*((tLedState*)arg1) = hal_led_read((tLedNum)arg0);
  400b64:	4620      	mov	r0, r4
  400b66:	4b20      	ldr	r3, [pc, #128]	; (400be8 <syscalls_entry_point+0xbc>)
  400b68:	4798      	blx	r3
  400b6a:	7028      	strb	r0, [r5, #0]
			break;
  400b6c:	bd38      	pop	{r3, r4, r5, pc}
		//Button
		case SVCButtonStartEv:
			hal_button_start_int((void(*)(tButtonNum)) arg0);
  400b6e:	4620      	mov	r0, r4
  400b70:	4b1e      	ldr	r3, [pc, #120]	; (400bec <syscalls_entry_point+0xc0>)
  400b72:	4798      	blx	r3
			break;
  400b74:	bd38      	pop	{r3, r4, r5, pc}
		//Clock
		case SVCClockRead:
			hal_clock_read((tTime*)arg0);
  400b76:	4620      	mov	r0, r4
  400b78:	4b1d      	ldr	r3, [pc, #116]	; (400bf0 <syscalls_entry_point+0xc4>)
  400b7a:	4798      	blx	r3
			break;
  400b7c:	bd38      	pop	{r3, r4, r5, pc}
		case SVCClockWrite:
			hal_clock_write((tTime*)arg0);
  400b7e:	4620      	mov	r0, r4
  400b80:	4b1c      	ldr	r3, [pc, #112]	; (400bf4 <syscalls_entry_point+0xc8>)
  400b82:	4798      	blx	r3
			break;
  400b84:	bd38      	pop	{r3, r4, r5, pc}
		//Serial
		case SVCSerialPutc:
			hal_serial_putc((tSerialId)arg0, (uint8_t)arg1);
  400b86:	b2e9      	uxtb	r1, r5
  400b88:	4620      	mov	r0, r4
  400b8a:	4b1b      	ldr	r3, [pc, #108]	; (400bf8 <syscalls_entry_point+0xcc>)
  400b8c:	4798      	blx	r3
			break;
  400b8e:	bd38      	pop	{r3, r4, r5, pc}
		case SVCSerialGetc:
			hal_serial_getc((tSerialId)arg0);
  400b90:	4620      	mov	r0, r4
  400b92:	4b1a      	ldr	r3, [pc, #104]	; (400bfc <syscalls_entry_point+0xd0>)
  400b94:	4798      	blx	r3
			break;
  400b96:	bd38      	pop	{r3, r4, r5, pc}
		//Sensor
		case SVCSensorStartEv:
			hal_sensor_start((tSensorId)arg0);
  400b98:	4620      	mov	r0, r4
  400b9a:	4b19      	ldr	r3, [pc, #100]	; (400c00 <syscalls_entry_point+0xd4>)
  400b9c:	4798      	blx	r3
			break;
  400b9e:	bd38      	pop	{r3, r4, r5, pc}
		case SVCSensorRead:
			*((uint32_t*)arg1) = hal_sensor_read((tSensorId)arg0);
  400ba0:	4620      	mov	r0, r4
  400ba2:	4b18      	ldr	r3, [pc, #96]	; (400c04 <syscalls_entry_point+0xd8>)
  400ba4:	4798      	blx	r3
  400ba6:	6028      	str	r0, [r5, #0]
			break;
  400ba8:	bd38      	pop	{r3, r4, r5, pc}
		//Display
		case SVCDisplayCls:
			hal_display_cls();
  400baa:	4b17      	ldr	r3, [pc, #92]	; (400c08 <syscalls_entry_point+0xdc>)
  400bac:	4798      	blx	r3
			break;
  400bae:	bd38      	pop	{r3, r4, r5, pc}
		case SVCDisplayPutc:
			hal_display_putc((uint8_t)arg0);
  400bb0:	b2e0      	uxtb	r0, r4
  400bb2:	4b16      	ldr	r3, [pc, #88]	; (400c0c <syscalls_entry_point+0xe0>)
  400bb4:	4798      	blx	r3
			break;
  400bb6:	bd38      	pop	{r3, r4, r5, pc}
		case SVCDisplayGotoxy:
			hal_display_gotoxy((uint32_t)arg0, (uint32_t)arg1);
  400bb8:	4629      	mov	r1, r5
  400bba:	4620      	mov	r0, r4
  400bbc:	4b14      	ldr	r3, [pc, #80]	; (400c10 <syscalls_entry_point+0xe4>)
  400bbe:	4798      	blx	r3
			break;
  400bc0:	bd38      	pop	{r3, r4, r5, pc}
		case SVCDisplayNumLines:
			*((uint32_t*)arg0) = hal_display_numlines();
  400bc2:	4b14      	ldr	r3, [pc, #80]	; (400c14 <syscalls_entry_point+0xe8>)
  400bc4:	4798      	blx	r3
  400bc6:	6020      	str	r0, [r4, #0]
			break;
  400bc8:	bd38      	pop	{r3, r4, r5, pc}
		//Millisecond Timer
		case SVCMtimerStartEv:
			hal_mtimer_start((uint32_t)arg0);
  400bca:	4620      	mov	r0, r4
  400bcc:	4b12      	ldr	r3, [pc, #72]	; (400c18 <syscalls_entry_point+0xec>)
  400bce:	4798      	blx	r3
			break;
  400bd0:	bd38      	pop	{r3, r4, r5, pc}
		//case SVCMtimerStartPoll:
		//	hal_mtimer_start_int((uint32_t)arg0, ((void)*(void))arg1);
		//	break;
		case SVCMtimerStop:
			hal_mtimer_stop();
  400bd2:	4b12      	ldr	r3, [pc, #72]	; (400c1c <syscalls_entry_point+0xf0>)
  400bd4:	4798      	blx	r3
			break;
  400bd6:	bd38      	pop	{r3, r4, r5, pc}
		case SVCMtimerRead:
			*((uint32_t*)arg0) = hal_mtimer_read();
  400bd8:	4b11      	ldr	r3, [pc, #68]	; (400c20 <syscalls_entry_point+0xf4>)
  400bda:	4798      	blx	r3
  400bdc:	6020      	str	r0, [r4, #0]
  400bde:	bd38      	pop	{r3, r4, r5, pc}
  400be0:	00400213 	.word	0x00400213
  400be4:	004004a5 	.word	0x004004a5
  400be8:	004004f3 	.word	0x004004f3
  400bec:	0040085d 	.word	0x0040085d
  400bf0:	00400599 	.word	0x00400599
  400bf4:	00400565 	.word	0x00400565
  400bf8:	00400991 	.word	0x00400991
  400bfc:	004009d1 	.word	0x004009d1
  400c00:	00400745 	.word	0x00400745
  400c04:	004007b9 	.word	0x004007b9
  400c08:	00400689 	.word	0x00400689
  400c0c:	004005e9 	.word	0x004005e9
  400c10:	00400719 	.word	0x00400719
  400c14:	00400741 	.word	0x00400741
  400c18:	004003cd 	.word	0x004003cd
  400c1c:	00400425 	.word	0x00400425
  400c20:	0040044d 	.word	0x0040044d

00400c24 <syscalls_init>:
void syscalls_init(void){
  400c24:	b508      	push	{r3, lr}
	hal_svc_start( syscalls_entry_point );
  400c26:	4802      	ldr	r0, [pc, #8]	; (400c30 <syscalls_init+0xc>)
  400c28:	4b02      	ldr	r3, [pc, #8]	; (400c34 <syscalls_init+0x10>)
  400c2a:	4798      	blx	r3
  400c2c:	bd08      	pop	{r3, pc}
  400c2e:	bf00      	nop
  400c30:	00400b2d 	.word	0x00400b2d
  400c34:	004001b5 	.word	0x004001b5

00400c38 <init_sequence>:
	//but first they blink momentarily
	init_sequence();

}

void init_sequence(void){
  400c38:	e92d 43f8 	stmdb	sp!, {r3, r4, r5, r6, r7, r8, r9, lr}
		
	//All LEDs On
	hal_led_write(Led0, LedOn);
  400c3c:	2101      	movs	r1, #1
  400c3e:	2000      	movs	r0, #0
  400c40:	4c1a      	ldr	r4, [pc, #104]	; (400cac <init_sequence+0x74>)
  400c42:	47a0      	blx	r4
	hal_led_write(Led1, LedOn);
  400c44:	2101      	movs	r1, #1
  400c46:	4608      	mov	r0, r1
  400c48:	47a0      	blx	r4
	hal_led_write(Led2, LedOn);
  400c4a:	2101      	movs	r1, #1
  400c4c:	2002      	movs	r0, #2
  400c4e:	47a0      	blx	r4
	hal_led_write(Led3, LedOn);
  400c50:	2101      	movs	r1, #1
  400c52:	2003      	movs	r0, #3
  400c54:	47a0      	blx	r4
	hal_led_write(Led4, LedOn);
  400c56:	2101      	movs	r1, #1
  400c58:	2004      	movs	r0, #4
  400c5a:	47a0      	blx	r4
		
	//Screen "on"
	for(uint32_t i=0; i<4; i++){	 //rows
  400c5c:	2700      	movs	r7, #0
		hal_display_gotoxy(0, i);
  400c5e:	46b9      	mov	r9, r7
  400c60:	f8df 8058 	ldr.w	r8, [pc, #88]	; 400cbc <init_sequence+0x84>
		for(uint32_t j=0; j<95; j++) //columns
		hal_display_putc('|');
  400c64:	4e12      	ldr	r6, [pc, #72]	; (400cb0 <init_sequence+0x78>)
		hal_display_gotoxy(0, i);
  400c66:	4639      	mov	r1, r7
  400c68:	4648      	mov	r0, r9
  400c6a:	47c0      	blx	r8
  400c6c:	245f      	movs	r4, #95	; 0x5f
		hal_display_putc('|');
  400c6e:	257c      	movs	r5, #124	; 0x7c
  400c70:	4628      	mov	r0, r5
  400c72:	47b0      	blx	r6
		for(uint32_t j=0; j<95; j++) //columns
  400c74:	3c01      	subs	r4, #1
  400c76:	d1fb      	bne.n	400c70 <init_sequence+0x38>
	for(uint32_t i=0; i<4; i++){	 //rows
  400c78:	3701      	adds	r7, #1
  400c7a:	2f04      	cmp	r7, #4
  400c7c:	d1f3      	bne.n	400c66 <init_sequence+0x2e>
	}

	//Wait...
	hal_delay(200);
  400c7e:	20c8      	movs	r0, #200	; 0xc8
  400c80:	4b0c      	ldr	r3, [pc, #48]	; (400cb4 <init_sequence+0x7c>)
  400c82:	4798      	blx	r3
	
	//All LEDs Off
	hal_led_write(Led0, LedOff);
  400c84:	2100      	movs	r1, #0
  400c86:	4608      	mov	r0, r1
  400c88:	4c08      	ldr	r4, [pc, #32]	; (400cac <init_sequence+0x74>)
  400c8a:	47a0      	blx	r4
	hal_led_write(Led1, LedOff);
  400c8c:	2100      	movs	r1, #0
  400c8e:	2001      	movs	r0, #1
  400c90:	47a0      	blx	r4
	hal_led_write(Led2, LedOff);
  400c92:	2100      	movs	r1, #0
  400c94:	2002      	movs	r0, #2
  400c96:	47a0      	blx	r4
	hal_led_write(Led3, LedOff);
  400c98:	2100      	movs	r1, #0
  400c9a:	2003      	movs	r0, #3
  400c9c:	47a0      	blx	r4
	hal_led_write(Led4, LedOff);
  400c9e:	2100      	movs	r1, #0
  400ca0:	2004      	movs	r0, #4
  400ca2:	47a0      	blx	r4
		
	//clear screen
	hal_display_cls();
  400ca4:	4b04      	ldr	r3, [pc, #16]	; (400cb8 <init_sequence+0x80>)
  400ca6:	4798      	blx	r3
  400ca8:	e8bd 83f8 	ldmia.w	sp!, {r3, r4, r5, r6, r7, r8, r9, pc}
  400cac:	004004a5 	.word	0x004004a5
  400cb0:	004005e9 	.word	0x004005e9
  400cb4:	004001d1 	.word	0x004001d1
  400cb8:	00400689 	.word	0x00400689
  400cbc:	00400719 	.word	0x00400719

00400cc0 <io_init>:
void io_init(void){
  400cc0:	b530      	push	{r4, r5, lr}
  400cc2:	b087      	sub	sp, #28
	hal_sensor_start( SensorLight );
  400cc4:	2000      	movs	r0, #0
  400cc6:	4c12      	ldr	r4, [pc, #72]	; (400d10 <io_init+0x50>)
  400cc8:	47a0      	blx	r4
	hal_sensor_start( SensorTemp );
  400cca:	2001      	movs	r0, #1
  400ccc:	47a0      	blx	r4
	hal_clock_start();
  400cce:	4b11      	ldr	r3, [pc, #68]	; (400d14 <io_init+0x54>)
  400cd0:	4798      	blx	r3
	hal_display_start();
  400cd2:	4b11      	ldr	r3, [pc, #68]	; (400d18 <io_init+0x58>)
  400cd4:	4798      	blx	r3
	hal_serial_start( SerialA, SYS_CONF_SERIAL_A_BAUDRATE );
  400cd6:	f44f 31e1 	mov.w	r1, #115200	; 0x1c200
  400cda:	2000      	movs	r0, #0
  400cdc:	4c0f      	ldr	r4, [pc, #60]	; (400d1c <io_init+0x5c>)
  400cde:	47a0      	blx	r4
	hal_serial_start( SerialB, SYS_CONF_SERIAL_A_BAUDRATE );
  400ce0:	f44f 31e1 	mov.w	r1, #115200	; 0x1c200
  400ce4:	2001      	movs	r0, #1
  400ce6:	47a0      	blx	r4
	hal_led_start();
  400ce8:	4b0d      	ldr	r3, [pc, #52]	; (400d20 <io_init+0x60>)
  400cea:	4798      	blx	r3
	hal_nvmem_start( NVMemSDCardFAT );
  400cec:	2001      	movs	r0, #1
  400cee:	4b0d      	ldr	r3, [pc, #52]	; (400d24 <io_init+0x64>)
  400cf0:	4798      	blx	r3
	tTime time = {
  400cf2:	466c      	mov	r4, sp
  400cf4:	4d0c      	ldr	r5, [pc, #48]	; (400d28 <io_init+0x68>)
  400cf6:	cd0f      	ldmia	r5!, {r0, r1, r2, r3}
  400cf8:	c40f      	stmia	r4!, {r0, r1, r2, r3}
  400cfa:	e895 0003 	ldmia.w	r5, {r0, r1}
  400cfe:	e884 0003 	stmia.w	r4, {r0, r1}
	hal_clock_write(&time);
  400d02:	4668      	mov	r0, sp
  400d04:	4b09      	ldr	r3, [pc, #36]	; (400d2c <io_init+0x6c>)
  400d06:	4798      	blx	r3
	init_sequence();
  400d08:	4b09      	ldr	r3, [pc, #36]	; (400d30 <io_init+0x70>)
  400d0a:	4798      	blx	r3
}
  400d0c:	b007      	add	sp, #28
  400d0e:	bd30      	pop	{r4, r5, pc}
  400d10:	00400745 	.word	0x00400745
  400d14:	00400539 	.word	0x00400539
  400d18:	004005dd 	.word	0x004005dd
  400d1c:	0040096d 	.word	0x0040096d
  400d20:	00400461 	.word	0x00400461
  400d24:	00400ab1 	.word	0x00400ab1
  400d28:	00407bf4 	.word	0x00407bf4
  400d2c:	00400565 	.word	0x00400565
  400d30:	00400c39 	.word	0x00400c39

00400d34 <system_init>:
void system_init(void){
  400d34:	b508      	push	{r3, lr}
	hal_cpu_init();			
  400d36:	4b07      	ldr	r3, [pc, #28]	; (400d54 <system_init+0x20>)
  400d38:	4798      	blx	r3
	hal_io_init();		
  400d3a:	4b07      	ldr	r3, [pc, #28]	; (400d58 <system_init+0x24>)
  400d3c:	4798      	blx	r3
	hal_nvmem_init();
  400d3e:	4b07      	ldr	r3, [pc, #28]	; (400d5c <system_init+0x28>)
  400d40:	4798      	blx	r3
	hal_memreg_init();
  400d42:	4b07      	ldr	r3, [pc, #28]	; (400d60 <system_init+0x2c>)
  400d44:	4798      	blx	r3
	io_init();
  400d46:	4b07      	ldr	r3, [pc, #28]	; (400d64 <system_init+0x30>)
  400d48:	4798      	blx	r3
	console_init();
  400d4a:	4b07      	ldr	r3, [pc, #28]	; (400d68 <system_init+0x34>)
  400d4c:	4798      	blx	r3
	syscalls_init();
  400d4e:	4b07      	ldr	r3, [pc, #28]	; (400d6c <system_init+0x38>)
  400d50:	4798      	blx	r3
  400d52:	bd08      	pop	{r3, pc}
  400d54:	004001a9 	.word	0x004001a9
  400d58:	004003ad 	.word	0x004003ad
  400d5c:	00400aaf 	.word	0x00400aaf
  400d60:	00400aad 	.word	0x00400aad
  400d64:	00400cc1 	.word	0x00400cc1
  400d68:	004001a5 	.word	0x004001a5
  400d6c:	00400c25 	.word	0x00400c25

00400d70 <ssd1306_write_command>:
{
  400d70:	b570      	push	{r4, r5, r6, lr}
  400d72:	b082      	sub	sp, #8
  400d74:	4606      	mov	r6, r0
	struct spi_device device = {.id = SSD1306_CS_PIN};
  400d76:	ac02      	add	r4, sp, #8
  400d78:	2302      	movs	r3, #2
  400d7a:	f844 3d04 	str.w	r3, [r4, #-4]!
	spi_select_device(SSD1306_SPI, &device);
  400d7e:	4d09      	ldr	r5, [pc, #36]	; (400da4 <ssd1306_write_command+0x34>)
  400d80:	4621      	mov	r1, r4
  400d82:	4628      	mov	r0, r5
  400d84:	4b08      	ldr	r3, [pc, #32]	; (400da8 <ssd1306_write_command+0x38>)
  400d86:	4798      	blx	r3
		base->PIO_CODR = arch_ioport_pin_to_mask(pin);
  400d88:	f44f 1200 	mov.w	r2, #2097152	; 0x200000
  400d8c:	4b07      	ldr	r3, [pc, #28]	; (400dac <ssd1306_write_command+0x3c>)
  400d8e:	635a      	str	r2, [r3, #52]	; 0x34
  400d90:	60ee      	str	r6, [r5, #12]
	delay_us(SSD1306_LATENCY); // At least 3us
  400d92:	2056      	movs	r0, #86	; 0x56
  400d94:	4b06      	ldr	r3, [pc, #24]	; (400db0 <ssd1306_write_command+0x40>)
  400d96:	4798      	blx	r3
	spi_deselect_device(SSD1306_SPI, &device);
  400d98:	4621      	mov	r1, r4
  400d9a:	4628      	mov	r0, r5
  400d9c:	4b05      	ldr	r3, [pc, #20]	; (400db4 <ssd1306_write_command+0x44>)
  400d9e:	4798      	blx	r3
}
  400da0:	b002      	add	sp, #8
  400da2:	bd70      	pop	{r4, r5, r6, pc}
  400da4:	40008000 	.word	0x40008000
  400da8:	00401c79 	.word	0x00401c79
  400dac:	400e1200 	.word	0x400e1200
  400db0:	20000001 	.word	0x20000001
  400db4:	00401ca9 	.word	0x00401ca9

00400db8 <make_shape>:
// test: try making shape
Shape make_shape(gfx_shape shp, uint16_t x, uint16_t y) {	
	Shape chshape;
	chshape.x = x;
	chshape.y = y;
	switch (shp) {
  400db8:	2901      	cmp	r1, #1
  400dba:	d00c      	beq.n	400dd6 <make_shape+0x1e>
  400dbc:	b149      	cbz	r1, 400dd2 <make_shape+0x1a>
		break;
		case ship:
		chshape.body = '!';
		break;
		case bullet:
		chshape.body = '$';
  400dbe:	2902      	cmp	r1, #2
  400dc0:	bf0c      	ite	eq
  400dc2:	2124      	moveq	r1, #36	; 0x24
  400dc4:	2100      	movne	r1, #0
		break;
		default:
		break;
	}
	chshape.exists = true;
	return chshape;
  400dc6:	7001      	strb	r1, [r0, #0]
  400dc8:	8042      	strh	r2, [r0, #2]
  400dca:	8083      	strh	r3, [r0, #4]
  400dcc:	2301      	movs	r3, #1
  400dce:	7183      	strb	r3, [r0, #6]
}
  400dd0:	4770      	bx	lr
		chshape.body = '"';
  400dd2:	2122      	movs	r1, #34	; 0x22
  400dd4:	e7f7      	b.n	400dc6 <make_shape+0xe>
		chshape.body = '!';
  400dd6:	2121      	movs	r1, #33	; 0x21
		break;
  400dd8:	e7f5      	b.n	400dc6 <make_shape+0xe>
	...

00400ddc <draw_shape>:
void draw_shape(Shape* shp) {
	if (shp->exists)
  400ddc:	7983      	ldrb	r3, [r0, #6]
  400dde:	b903      	cbnz	r3, 400de2 <draw_shape+0x6>
  400de0:	4770      	bx	lr
void draw_shape(Shape* shp) {
  400de2:	b570      	push	{r4, r5, r6, lr}
  400de4:	4604      	mov	r4, r0
	address &= 0x0F;
  400de6:	7900      	ldrb	r0, [r0, #4]
	ssd1306_write_command(SSD1306_CMD_SET_PAGE_START_ADDRESS(address));
  400de8:	f000 0007 	and.w	r0, r0, #7
  400dec:	f040 00b0 	orr.w	r0, r0, #176	; 0xb0
  400df0:	4e08      	ldr	r6, [pc, #32]	; (400e14 <draw_shape+0x38>)
  400df2:	47b0      	blx	r6
	{
		ssd1306_set_page_address(shp->y);
		ssd1306_set_column_address(shp->x * 8);
  400df4:	78a5      	ldrb	r5, [r4, #2]
  400df6:	00ed      	lsls	r5, r5, #3
  400df8:	b2ed      	uxtb	r5, r5
	ssd1306_write_command(SSD1306_CMD_SET_HIGH_COL(address >> 4));
  400dfa:	f3c5 1002 	ubfx	r0, r5, #4, #3
  400dfe:	f040 0010 	orr.w	r0, r0, #16
  400e02:	47b0      	blx	r6
	ssd1306_write_command(SSD1306_CMD_SET_LOW_COL(address & 0x0F));
  400e04:	f005 0008 	and.w	r0, r5, #8
  400e08:	47b0      	blx	r6
		hal_display_putc(shp->body);
  400e0a:	7820      	ldrb	r0, [r4, #0]
  400e0c:	4b02      	ldr	r3, [pc, #8]	; (400e18 <draw_shape+0x3c>)
  400e0e:	4798      	blx	r3
  400e10:	bd70      	pop	{r4, r5, r6, pc}
  400e12:	bf00      	nop
  400e14:	00400d71 	.word	0x00400d71
  400e18:	004005e9 	.word	0x004005e9

00400e1c <move_shape_down>:
	}
}

void move_shape_down(Shape* shp) {
	uint16_t y = shp->y;
  400e1c:	8883      	ldrh	r3, [r0, #4]
	// add one to the y axis
	y++;
  400e1e:	3301      	adds	r3, #1
  400e20:	b29b      	uxth	r3, r3
	// check if it is still in bounds
	if (y <= 3) 
  400e22:	2b03      	cmp	r3, #3
		shp->y = y;
  400e24:	bf98      	it	ls
  400e26:	8083      	strhls	r3, [r0, #4]
  400e28:	4770      	bx	lr

00400e2a <move_shape_up>:
}

void move_shape_up(Shape* shp) {
	uint16_t y = shp->y;
  400e2a:	8883      	ldrh	r3, [r0, #4]
	// check if it is still in bounds
	if (y == 0)
  400e2c:	b10b      	cbz	r3, 400e32 <move_shape_up+0x8>
		return;
	// subtract one to the y axis
	y --;
  400e2e:	3b01      	subs	r3, #1
	shp->y = y;
  400e30:	8083      	strh	r3, [r0, #4]
  400e32:	4770      	bx	lr

00400e34 <move_shape_left>:
}

void move_shape_left(Shape* shp)
{
	uint16_t x = shp->x;
  400e34:	8843      	ldrh	r3, [r0, #2]
	// check if it is still in bounds
	if (x == 0)
  400e36:	b10b      	cbz	r3, 400e3c <move_shape_left+0x8>
		return;
	// subtract one from the x axis
	x --;
  400e38:	3b01      	subs	r3, #1
	shp->x = x;
  400e3a:	8043      	strh	r3, [r0, #2]
  400e3c:	4770      	bx	lr

00400e3e <move_shape_right>:
}

void move_shape_right(Shape* shp)
{
	uint16_t x = shp->x;
  400e3e:	8843      	ldrh	r3, [r0, #2]
	// add one to the x axis
	x ++;
  400e40:	3301      	adds	r3, #1
  400e42:	b29b      	uxth	r3, r3
	// check if it is still in bounds
	if (x <= 15) 
  400e44:	2b0f      	cmp	r3, #15
		shp->x = x;
  400e46:	bf98      	it	ls
  400e48:	8043      	strhls	r3, [r0, #2]
  400e4a:	4770      	bx	lr

00400e4c <ssd1306_write_command>:
{
  400e4c:	b570      	push	{r4, r5, r6, lr}
  400e4e:	b082      	sub	sp, #8
  400e50:	4606      	mov	r6, r0
	struct spi_device device = {.id = SSD1306_CS_PIN};
  400e52:	ac02      	add	r4, sp, #8
  400e54:	2302      	movs	r3, #2
  400e56:	f844 3d04 	str.w	r3, [r4, #-4]!
	spi_select_device(SSD1306_SPI, &device);
  400e5a:	4d09      	ldr	r5, [pc, #36]	; (400e80 <ssd1306_write_command+0x34>)
  400e5c:	4621      	mov	r1, r4
  400e5e:	4628      	mov	r0, r5
  400e60:	4b08      	ldr	r3, [pc, #32]	; (400e84 <ssd1306_write_command+0x38>)
  400e62:	4798      	blx	r3
  400e64:	f44f 1200 	mov.w	r2, #2097152	; 0x200000
  400e68:	4b07      	ldr	r3, [pc, #28]	; (400e88 <ssd1306_write_command+0x3c>)
  400e6a:	635a      	str	r2, [r3, #52]	; 0x34
  400e6c:	60ee      	str	r6, [r5, #12]
	delay_us(SSD1306_LATENCY); // At least 3us
  400e6e:	2056      	movs	r0, #86	; 0x56
  400e70:	4b06      	ldr	r3, [pc, #24]	; (400e8c <ssd1306_write_command+0x40>)
  400e72:	4798      	blx	r3
	spi_deselect_device(SSD1306_SPI, &device);
  400e74:	4621      	mov	r1, r4
  400e76:	4628      	mov	r0, r5
  400e78:	4b05      	ldr	r3, [pc, #20]	; (400e90 <ssd1306_write_command+0x44>)
  400e7a:	4798      	blx	r3
}
  400e7c:	b002      	add	sp, #8
  400e7e:	bd70      	pop	{r4, r5, r6, pc}
  400e80:	40008000 	.word	0x40008000
  400e84:	00401c79 	.word	0x00401c79
  400e88:	400e1200 	.word	0x400e1200
  400e8c:	20000001 	.word	0x20000001
  400e90:	00401ca9 	.word	0x00401ca9

00400e94 <ssd1306_init>:
 * Call this function to initialize the hardware interface and the OLED
 * controller. When initialization is done the display is turned on and ready
 * to receive data.
 */
void ssd1306_init(void)
{
  400e94:	b5f0      	push	{r4, r5, r6, r7, lr}
  400e96:	b085      	sub	sp, #20
  400e98:	4d25      	ldr	r5, [pc, #148]	; (400f30 <ssd1306_init+0x9c>)
  400e9a:	f04f 4600 	mov.w	r6, #2147483648	; 0x80000000
  400e9e:	636e      	str	r6, [r5, #52]	; 0x34
	delay_us(SSD1306_LATENCY); // At least 3us
  400ea0:	2056      	movs	r0, #86	; 0x56
  400ea2:	4c24      	ldr	r4, [pc, #144]	; (400f34 <ssd1306_init+0xa0>)
  400ea4:	47a0      	blx	r4
		base->PIO_SODR = arch_ioport_pin_to_mask(pin);
  400ea6:	632e      	str	r6, [r5, #48]	; 0x30
	delay_us(SSD1306_LATENCY); // At least 3us
  400ea8:	2056      	movs	r0, #86	; 0x56
  400eaa:	47a0      	blx	r4
	struct spi_device device = {
  400eac:	2702      	movs	r7, #2
  400eae:	ae04      	add	r6, sp, #16
  400eb0:	f846 7d04 	str.w	r7, [r6, #-4]!
	spi_master_init(SSD1306_SPI);
  400eb4:	4c20      	ldr	r4, [pc, #128]	; (400f38 <ssd1306_init+0xa4>)
  400eb6:	4620      	mov	r0, r4
  400eb8:	4b20      	ldr	r3, [pc, #128]	; (400f3c <ssd1306_init+0xa8>)
  400eba:	4798      	blx	r3
	spi_master_setup_device(SSD1306_SPI, &device, spi_flags,
  400ebc:	2500      	movs	r5, #0
  400ebe:	9500      	str	r5, [sp, #0]
  400ec0:	4b1f      	ldr	r3, [pc, #124]	; (400f40 <ssd1306_init+0xac>)
  400ec2:	462a      	mov	r2, r5
  400ec4:	4631      	mov	r1, r6
  400ec6:	4620      	mov	r0, r4
  400ec8:	4e1e      	ldr	r6, [pc, #120]	; (400f44 <ssd1306_init+0xb0>)
  400eca:	47b0      	blx	r6
	p_spi->SPI_CR = SPI_CR_SPIEN;
  400ecc:	2301      	movs	r3, #1
  400ece:	6023      	str	r3, [r4, #0]

	// Initialize the interface
	ssd1306_interface_init();

	// 1/32 Duty (0x0F~0x3F)
	ssd1306_write_command(SSD1306_CMD_SET_MULTIPLEX_RATIO);
  400ed0:	20a8      	movs	r0, #168	; 0xa8
  400ed2:	4c1d      	ldr	r4, [pc, #116]	; (400f48 <ssd1306_init+0xb4>)
  400ed4:	47a0      	blx	r4
	ssd1306_write_command(0x1F);
  400ed6:	201f      	movs	r0, #31
  400ed8:	47a0      	blx	r4

	// Shift Mapping RAM Counter (0x00~0x3F)
	ssd1306_write_command(SSD1306_CMD_SET_DISPLAY_OFFSET);
  400eda:	20d3      	movs	r0, #211	; 0xd3
  400edc:	47a0      	blx	r4
	ssd1306_write_command(0x00);
  400ede:	4628      	mov	r0, r5
  400ee0:	47a0      	blx	r4

	// Set Mapping RAM Display Start Line (0x00~0x3F)
	ssd1306_write_command(SSD1306_CMD_SET_START_LINE(0x00));
  400ee2:	2040      	movs	r0, #64	; 0x40
  400ee4:	47a0      	blx	r4

	// Set Column Address 0 Mapped to SEG0
	ssd1306_write_command(SSD1306_CMD_SET_SEGMENT_RE_MAP_COL127_SEG0);
  400ee6:	20a1      	movs	r0, #161	; 0xa1
  400ee8:	47a0      	blx	r4

	// Set COM/Row Scan Scan from COM63 to 0
	ssd1306_write_command(SSD1306_CMD_SET_COM_OUTPUT_SCAN_DOWN);
  400eea:	20c8      	movs	r0, #200	; 0xc8
  400eec:	47a0      	blx	r4

	// Set COM Pins hardware configuration
	ssd1306_write_command(SSD1306_CMD_SET_COM_PINS);
  400eee:	20da      	movs	r0, #218	; 0xda
  400ef0:	47a0      	blx	r4
	ssd1306_write_command(0x02);
  400ef2:	4638      	mov	r0, r7
  400ef4:	47a0      	blx	r4
	ssd1306_write_command(SSD1306_CMD_SET_CONTRAST_CONTROL_FOR_BANK0);
  400ef6:	2081      	movs	r0, #129	; 0x81
  400ef8:	47a0      	blx	r4
	ssd1306_write_command(contrast);
  400efa:	208f      	movs	r0, #143	; 0x8f
  400efc:	47a0      	blx	r4

	ssd1306_set_contrast(0x8F);

	// Disable Entire display On
	ssd1306_write_command(SSD1306_CMD_ENTIRE_DISPLAY_AND_GDDRAM_ON);
  400efe:	20a4      	movs	r0, #164	; 0xa4
  400f00:	47a0      	blx	r4
	ssd1306_write_command(SSD1306_CMD_SET_NORMAL_DISPLAY);
  400f02:	20a6      	movs	r0, #166	; 0xa6
  400f04:	47a0      	blx	r4

	ssd1306_display_invert_disable();

	// Set Display Clock Divide Ratio / Oscillator Frequency (Default => 0x80)
	ssd1306_write_command(SSD1306_CMD_SET_DISPLAY_CLOCK_DIVIDE_RATIO);
  400f06:	20d5      	movs	r0, #213	; 0xd5
  400f08:	47a0      	blx	r4
	ssd1306_write_command(0x80);
  400f0a:	2080      	movs	r0, #128	; 0x80
  400f0c:	47a0      	blx	r4

	// Enable charge pump regulator
	ssd1306_write_command(SSD1306_CMD_SET_CHARGE_PUMP_SETTING);
  400f0e:	208d      	movs	r0, #141	; 0x8d
  400f10:	47a0      	blx	r4
	ssd1306_write_command(0x14);
  400f12:	2014      	movs	r0, #20
  400f14:	47a0      	blx	r4

	// Set VCOMH Deselect Level
	ssd1306_write_command(SSD1306_CMD_SET_VCOMH_DESELECT_LEVEL);
  400f16:	20db      	movs	r0, #219	; 0xdb
  400f18:	47a0      	blx	r4
	ssd1306_write_command(0x40); // Default => 0x20 (0.77*VCC)
  400f1a:	2040      	movs	r0, #64	; 0x40
  400f1c:	47a0      	blx	r4

	// Set Pre-Charge as 15 Clocks & Discharge as 1 Clock
	ssd1306_write_command(SSD1306_CMD_SET_PRE_CHARGE_PERIOD);
  400f1e:	20d9      	movs	r0, #217	; 0xd9
  400f20:	47a0      	blx	r4
	ssd1306_write_command(0xF1);
  400f22:	20f1      	movs	r0, #241	; 0xf1
  400f24:	47a0      	blx	r4
	ssd1306_write_command(SSD1306_CMD_SET_DISPLAY_ON);
  400f26:	20af      	movs	r0, #175	; 0xaf
  400f28:	47a0      	blx	r4

	ssd1306_display_on();
}
  400f2a:	b005      	add	sp, #20
  400f2c:	bdf0      	pop	{r4, r5, r6, r7, pc}
  400f2e:	bf00      	nop
  400f30:	400e1200 	.word	0x400e1200
  400f34:	20000001 	.word	0x20000001
  400f38:	40008000 	.word	0x40008000
  400f3c:	00401ba5 	.word	0x00401ba5
  400f40:	004c4b40 	.word	0x004c4b40
  400f44:	00401bf9 	.word	0x00401bf9
  400f48:	00400e4d 	.word	0x00400e4d

00400f4c <at30tse_init>:

/**
 * \brief Initialize the TWI instance used for AT30TSE75x.
 */
void at30tse_init(void)
{
  400f4c:	b500      	push	{lr}
  400f4e:	b085      	sub	sp, #20
	twi_options_t opts = {
  400f50:	2300      	movs	r3, #0
  400f52:	9303      	str	r3, [sp, #12]
  400f54:	4b07      	ldr	r3, [pc, #28]	; (400f74 <at30tse_init+0x28>)
  400f56:	9301      	str	r3, [sp, #4]
  400f58:	f242 7310 	movw	r3, #10000	; 0x2710
  400f5c:	9302      	str	r3, [sp, #8]
  400f5e:	2013      	movs	r0, #19
  400f60:	4b05      	ldr	r3, [pc, #20]	; (400f78 <at30tse_init+0x2c>)
  400f62:	4798      	blx	r3
	flexcom_enable(BOARD_FLEXCOM_TWI);
	flexcom_set_opmode(BOARD_FLEXCOM_TWI, FLEXCOM_TWI);
#else
	sysclk_enable_peripheral_clock(BOARD_AT30TSE_TWI_ID);
#endif
	twi_master_init(BOARD_AT30TSE_TWI, &opts);
  400f64:	a901      	add	r1, sp, #4
  400f66:	4805      	ldr	r0, [pc, #20]	; (400f7c <at30tse_init+0x30>)
  400f68:	4b05      	ldr	r3, [pc, #20]	; (400f80 <at30tse_init+0x34>)
  400f6a:	4798      	blx	r3

}
  400f6c:	b005      	add	sp, #20
  400f6e:	f85d fb04 	ldr.w	pc, [sp], #4
  400f72:	bf00      	nop
  400f74:	07270e00 	.word	0x07270e00
  400f78:	00402565 	.word	0x00402565
  400f7c:	40018000 	.word	0x40018000
  400f80:	004029c9 	.word	0x004029c9

00400f84 <at30tse_read_register>:
 *
 * \return TWI_SUCCESS if success, otherwise false
 */
uint8_t at30tse_read_register(uint8_t reg, uint8_t reg_type,
		uint8_t reg_size, uint8_t* buffer)
{
  400f84:	b510      	push	{r4, lr}
  400f86:	b086      	sub	sp, #24
	twi_packet_t packet = {
  400f88:	2400      	movs	r4, #0
  400f8a:	9401      	str	r4, [sp, #4]
  400f8c:	9405      	str	r4, [sp, #20]
  400f8e:	4301      	orrs	r1, r0
  400f90:	f88d 1004 	strb.w	r1, [sp, #4]
  400f94:	2101      	movs	r1, #1
  400f96:	9102      	str	r1, [sp, #8]
  400f98:	9303      	str	r3, [sp, #12]
  400f9a:	9204      	str	r2, [sp, #16]
  400f9c:	234f      	movs	r3, #79	; 0x4f
  400f9e:	f88d 3014 	strb.w	r3, [sp, #20]
		.length = reg_size,
		/* Chip addr */
		.chip = AT30TSE_TEMPERATURE_TWI_ADDR
	};

	return twi_master_read(BOARD_AT30TSE_TWI, &packet);
  400fa2:	a901      	add	r1, sp, #4
  400fa4:	4802      	ldr	r0, [pc, #8]	; (400fb0 <at30tse_read_register+0x2c>)
  400fa6:	4b03      	ldr	r3, [pc, #12]	; (400fb4 <at30tse_read_register+0x30>)
  400fa8:	4798      	blx	r3
}
  400faa:	b2c0      	uxtb	r0, r0
  400fac:	b006      	add	sp, #24
  400fae:	bd10      	pop	{r4, pc}
  400fb0:	40018000 	.word	0x40018000
  400fb4:	00402a2d 	.word	0x00402a2d

00400fb8 <at30tse_read_temperature>:
 * stored
 *
 * \return TWI_SUCCESS if success, otherwise false
 */
uint8_t at30tse_read_temperature(double *temperature)
{
  400fb8:	b570      	push	{r4, r5, r6, lr}
  400fba:	b082      	sub	sp, #8
  400fbc:	4604      	mov	r4, r0
	/* Placeholder buffer to put temperature data in. */
	uint8_t buffer[2];
	uint8_t error_code = 0;
	buffer[0] = 0;
  400fbe:	2000      	movs	r0, #0
  400fc0:	f88d 0004 	strb.w	r0, [sp, #4]
	buffer[1] = 0;
  400fc4:	f88d 0005 	strb.w	r0, [sp, #5]

	/* Read the 16-bit temperature register. */
	error_code = at30tse_read_register(AT30TSE_TEMPERATURE_REG,
  400fc8:	ab01      	add	r3, sp, #4
  400fca:	2202      	movs	r2, #2
  400fcc:	4601      	mov	r1, r0
  400fce:	4d27      	ldr	r5, [pc, #156]	; (40106c <at30tse_read_temperature+0xb4>)
  400fd0:	47a8      	blx	r5
			AT30TSE_NON_VOLATILE_REG, AT30TSE_TEMPERATURE_REG_SIZE, buffer);

	/* Only convert temperature data if read success. */
	if (error_code == TWI_SUCCESS) {
  400fd2:	4605      	mov	r5, r0
  400fd4:	bb10      	cbnz	r0, 40101c <at30tse_read_temperature+0x64>
		uint16_t data = (buffer[0] << 8) | buffer[1];
  400fd6:	f89d 2004 	ldrb.w	r2, [sp, #4]
  400fda:	f89d 3005 	ldrb.w	r3, [sp, #5]
  400fde:	ea43 2302 	orr.w	r3, r3, r2, lsl #8
  400fe2:	b21b      	sxth	r3, r3
  400fe4:	b29a      	uxth	r2, r3
		int8_t sign = 1;

		/* Check if negative and clear sign bit. */
		if (data & (1 << 15)) {
  400fe6:	2b00      	cmp	r3, #0
			sign *= -1;
			data &= ~(1 << 15);
  400fe8:	bfba      	itte	lt
  400fea:	f3c2 020e 	ubfxlt	r2, r2, #0, #15
			sign *= -1;
  400fee:	f04f 30ff 	movlt.w	r0, #4294967295
		int8_t sign = 1;
  400ff2:	2001      	movge	r0, #1
		}

		/* Convert to temperature. */
		switch (resolution) {
  400ff4:	4b1e      	ldr	r3, [pc, #120]	; (401070 <at30tse_read_temperature+0xb8>)
  400ff6:	781b      	ldrb	r3, [r3, #0]
  400ff8:	b2db      	uxtb	r3, r3
  400ffa:	2b03      	cmp	r3, #3
  400ffc:	d80e      	bhi.n	40101c <at30tse_read_temperature+0x64>
  400ffe:	e8df f003 	tbb	[pc, r3]
  401002:	1002      	.short	0x1002
  401004:	291c      	.short	0x291c
		case AT30TSE_CONFIG_RES_9_bit:
			data = (data >> 7);
			*(temperature) = data * sign * 0.5;
  401006:	09d2      	lsrs	r2, r2, #7
  401008:	fb00 f002 	mul.w	r0, r0, r2
  40100c:	4b19      	ldr	r3, [pc, #100]	; (401074 <at30tse_read_temperature+0xbc>)
  40100e:	4798      	blx	r3
  401010:	2200      	movs	r2, #0
  401012:	4b19      	ldr	r3, [pc, #100]	; (401078 <at30tse_read_temperature+0xc0>)
  401014:	4e19      	ldr	r6, [pc, #100]	; (40107c <at30tse_read_temperature+0xc4>)
  401016:	47b0      	blx	r6
  401018:	e9c4 0100 	strd	r0, r1, [r4]
			break;
		}
	}

	return error_code;
}
  40101c:	4628      	mov	r0, r5
  40101e:	b002      	add	sp, #8
  401020:	bd70      	pop	{r4, r5, r6, pc}
			*(temperature) = data * sign * 0.25;
  401022:	0992      	lsrs	r2, r2, #6
  401024:	fb00 f002 	mul.w	r0, r0, r2
  401028:	4b12      	ldr	r3, [pc, #72]	; (401074 <at30tse_read_temperature+0xbc>)
  40102a:	4798      	blx	r3
  40102c:	2200      	movs	r2, #0
  40102e:	4b14      	ldr	r3, [pc, #80]	; (401080 <at30tse_read_temperature+0xc8>)
  401030:	4e12      	ldr	r6, [pc, #72]	; (40107c <at30tse_read_temperature+0xc4>)
  401032:	47b0      	blx	r6
  401034:	e9c4 0100 	strd	r0, r1, [r4]
			break;
  401038:	e7f0      	b.n	40101c <at30tse_read_temperature+0x64>
			*(temperature) = data * sign * 0.125;
  40103a:	0952      	lsrs	r2, r2, #5
  40103c:	fb00 f002 	mul.w	r0, r0, r2
  401040:	4b0c      	ldr	r3, [pc, #48]	; (401074 <at30tse_read_temperature+0xbc>)
  401042:	4798      	blx	r3
  401044:	2200      	movs	r2, #0
  401046:	f04f 537f 	mov.w	r3, #1069547520	; 0x3fc00000
  40104a:	4e0c      	ldr	r6, [pc, #48]	; (40107c <at30tse_read_temperature+0xc4>)
  40104c:	47b0      	blx	r6
  40104e:	e9c4 0100 	strd	r0, r1, [r4]
			break;
  401052:	e7e3      	b.n	40101c <at30tse_read_temperature+0x64>
			*(temperature) = data * sign * 0.0625;
  401054:	0912      	lsrs	r2, r2, #4
  401056:	fb00 f002 	mul.w	r0, r0, r2
  40105a:	4b06      	ldr	r3, [pc, #24]	; (401074 <at30tse_read_temperature+0xbc>)
  40105c:	4798      	blx	r3
  40105e:	2200      	movs	r2, #0
  401060:	4b08      	ldr	r3, [pc, #32]	; (401084 <at30tse_read_temperature+0xcc>)
  401062:	4e06      	ldr	r6, [pc, #24]	; (40107c <at30tse_read_temperature+0xc4>)
  401064:	47b0      	blx	r6
  401066:	e9c4 0100 	strd	r0, r1, [r4]
			break;
  40106a:	e7d7      	b.n	40101c <at30tse_read_temperature+0x64>
  40106c:	00400f85 	.word	0x00400f85
  401070:	20001069 	.word	0x20001069
  401074:	00403549 	.word	0x00403549
  401078:	3fe00000 	.word	0x3fe00000
  40107c:	00403615 	.word	0x00403615
  401080:	3fd00000 	.word	0x3fd00000
  401084:	3fb00000 	.word	0x3fb00000

00401088 <sd_mmc_configure_slot>:

/**
 * \brief Configures the driver with the selected card configuration
 */
static void sd_mmc_configure_slot(void)
{
  401088:	b510      	push	{r4, lr}
	driver_select_device(sd_mmc_slot_sel, sd_mmc_card->clock,
  40108a:	4b07      	ldr	r3, [pc, #28]	; (4010a8 <sd_mmc_configure_slot+0x20>)
  40108c:	6819      	ldr	r1, [r3, #0]
  40108e:	f891 3022 	ldrb.w	r3, [r1, #34]	; 0x22
  401092:	3300      	adds	r3, #0
  401094:	bf18      	it	ne
  401096:	2301      	movne	r3, #1
  401098:	7c4a      	ldrb	r2, [r1, #17]
  40109a:	6809      	ldr	r1, [r1, #0]
  40109c:	4803      	ldr	r0, [pc, #12]	; (4010ac <sd_mmc_configure_slot+0x24>)
  40109e:	7800      	ldrb	r0, [r0, #0]
  4010a0:	4c03      	ldr	r4, [pc, #12]	; (4010b0 <sd_mmc_configure_slot+0x28>)
  4010a2:	47a0      	blx	r4
  4010a4:	bd10      	pop	{r4, pc}
  4010a6:	bf00      	nop
  4010a8:	2000106c 	.word	0x2000106c
  4010ac:	20001071 	.word	0x20001071
  4010b0:	00401801 	.word	0x00401801

004010b4 <sd_mmc_select_slot>:
	if (slot >= SD_MMC_MEM_CNT) {
  4010b4:	b108      	cbz	r0, 4010ba <sd_mmc_select_slot+0x6>
		return SD_MMC_ERR_SLOT;
  4010b6:	2004      	movs	r0, #4
  4010b8:	4770      	bx	lr
	if (ioport_get_pin_level(sd_mmc_cards[slot].cd_gpio)
  4010ba:	4b33      	ldr	r3, [pc, #204]	; (401188 <sd_mmc_select_slot+0xd4>)
  4010bc:	689a      	ldr	r2, [r3, #8]
	return pin >> 5;
  4010be:	0953      	lsrs	r3, r2, #5
	return (Pio *)((uintptr_t)IOPORT_BASE_ADDRESS +
  4010c0:	f503 1300 	add.w	r3, r3, #2097152	; 0x200000
  4010c4:	f203 7307 	addw	r3, r3, #1799	; 0x707
  4010c8:	025b      	lsls	r3, r3, #9
	return arch_ioport_pin_to_base(pin)->PIO_PDSR & arch_ioport_pin_to_mask(pin);
  4010ca:	6bd9      	ldr	r1, [r3, #60]	; 0x3c
	return 1U << (pin & 0x1F);
  4010cc:	f002 021f 	and.w	r2, r2, #31
  4010d0:	2301      	movs	r3, #1
  4010d2:	fa03 f202 	lsl.w	r2, r3, r2
  4010d6:	420a      	tst	r2, r1
  4010d8:	d010      	beq.n	4010fc <sd_mmc_select_slot+0x48>
		if (sd_mmc_cards[slot].state == SD_MMC_CARD_STATE_DEBOUNCE) {
  4010da:	4b2b      	ldr	r3, [pc, #172]	; (401188 <sd_mmc_select_slot+0xd4>)
  4010dc:	7b9b      	ldrb	r3, [r3, #14]
  4010de:	2b01      	cmp	r3, #1
  4010e0:	d004      	beq.n	4010ec <sd_mmc_select_slot+0x38>
		sd_mmc_cards[slot].state = SD_MMC_CARD_STATE_NO_CARD;
  4010e2:	2204      	movs	r2, #4
  4010e4:	4b28      	ldr	r3, [pc, #160]	; (401188 <sd_mmc_select_slot+0xd4>)
  4010e6:	739a      	strb	r2, [r3, #14]
		return SD_MMC_ERR_NO_CARD;
  4010e8:	2002      	movs	r0, #2
  4010ea:	4770      	bx	lr
	if (sd_mmc_sam_systick_used) {
  4010ec:	4b27      	ldr	r3, [pc, #156]	; (40118c <sd_mmc_select_slot+0xd8>)
  4010ee:	781b      	ldrb	r3, [r3, #0]
  4010f0:	2b00      	cmp	r3, #0
  4010f2:	d0f6      	beq.n	4010e2 <sd_mmc_select_slot+0x2e>
		SysTick->CTRL = 0;
  4010f4:	2200      	movs	r2, #0
  4010f6:	4b26      	ldr	r3, [pc, #152]	; (401190 <sd_mmc_select_slot+0xdc>)
  4010f8:	601a      	str	r2, [r3, #0]
  4010fa:	e7f2      	b.n	4010e2 <sd_mmc_select_slot+0x2e>
{
  4010fc:	b510      	push	{r4, lr}
	if (sd_mmc_cards[slot].state == SD_MMC_CARD_STATE_NO_CARD) {
  4010fe:	4b22      	ldr	r3, [pc, #136]	; (401188 <sd_mmc_select_slot+0xd4>)
  401100:	7b9b      	ldrb	r3, [r3, #14]
  401102:	2b04      	cmp	r3, #4
  401104:	d005      	beq.n	401112 <sd_mmc_select_slot+0x5e>
	if (sd_mmc_cards[slot].state == SD_MMC_CARD_STATE_DEBOUNCE) {
  401106:	2b01      	cmp	r3, #1
  401108:	d019      	beq.n	40113e <sd_mmc_select_slot+0x8a>
	if (sd_mmc_cards[slot].state == SD_MMC_CARD_STATE_UNUSABLE) {
  40110a:	2b03      	cmp	r3, #3
  40110c:	d12c      	bne.n	401168 <sd_mmc_select_slot+0xb4>
		return SD_MMC_ERR_UNUSABLE;
  40110e:	2003      	movs	r0, #3
  401110:	bd10      	pop	{r4, pc}
		sd_mmc_cards[slot].state = SD_MMC_CARD_STATE_DEBOUNCE;
  401112:	2201      	movs	r2, #1
  401114:	4b1c      	ldr	r3, [pc, #112]	; (401188 <sd_mmc_select_slot+0xd4>)
  401116:	739a      	strb	r2, [r3, #14]
	if (!SysTick->CTRL) {
  401118:	4b1d      	ldr	r3, [pc, #116]	; (401190 <sd_mmc_select_slot+0xdc>)
  40111a:	681b      	ldr	r3, [r3, #0]
  40111c:	b93b      	cbnz	r3, 40112e <sd_mmc_select_slot+0x7a>
		sd_mmc_sam_systick_used = true;
  40111e:	4b1b      	ldr	r3, [pc, #108]	; (40118c <sd_mmc_select_slot+0xd8>)
  401120:	701a      	strb	r2, [r3, #0]
		SysTick->LOAD = (sysclk_get_cpu_hz() / (8 * 1000))
  401122:	4b1b      	ldr	r3, [pc, #108]	; (401190 <sd_mmc_select_slot+0xdc>)
  401124:	491b      	ldr	r1, [pc, #108]	; (401194 <sd_mmc_select_slot+0xe0>)
  401126:	6059      	str	r1, [r3, #4]
		SysTick->CTRL = SysTick_CTRL_ENABLE_Msk;
  401128:	601a      	str	r2, [r3, #0]
		return SD_MMC_ERR_NO_CARD;
  40112a:	2002      	movs	r0, #2
  40112c:	bd10      	pop	{r4, pc}
		sd_mmc_sam_systick_used = false;
  40112e:	2200      	movs	r2, #0
  401130:	4b16      	ldr	r3, [pc, #88]	; (40118c <sd_mmc_select_slot+0xd8>)
  401132:	701a      	strb	r2, [r3, #0]
		delay_ms(SD_MMC_DEBOUNCE_TIMEOUT);
  401134:	4818      	ldr	r0, [pc, #96]	; (401198 <sd_mmc_select_slot+0xe4>)
  401136:	4b19      	ldr	r3, [pc, #100]	; (40119c <sd_mmc_select_slot+0xe8>)
  401138:	4798      	blx	r3
		return SD_MMC_ERR_NO_CARD;
  40113a:	2002      	movs	r0, #2
  40113c:	bd10      	pop	{r4, pc}
	if (!sd_mmc_sam_systick_used) {
  40113e:	4b13      	ldr	r3, [pc, #76]	; (40118c <sd_mmc_select_slot+0xd8>)
  401140:	781b      	ldrb	r3, [r3, #0]
  401142:	b13b      	cbz	r3, 401154 <sd_mmc_select_slot+0xa0>
	if (SysTick->CTRL & SysTick_CTRL_COUNTFLAG_Msk) {
  401144:	4b12      	ldr	r3, [pc, #72]	; (401190 <sd_mmc_select_slot+0xdc>)
  401146:	681b      	ldr	r3, [r3, #0]
  401148:	f413 3f80 	tst.w	r3, #65536	; 0x10000
  40114c:	d01a      	beq.n	401184 <sd_mmc_select_slot+0xd0>
		SysTick->CTRL = 0;
  40114e:	2200      	movs	r2, #0
  401150:	4b0f      	ldr	r3, [pc, #60]	; (401190 <sd_mmc_select_slot+0xdc>)
  401152:	601a      	str	r2, [r3, #0]
		sd_mmc_cards[slot].state = SD_MMC_CARD_STATE_INIT;
  401154:	4b0c      	ldr	r3, [pc, #48]	; (401188 <sd_mmc_select_slot+0xd4>)
  401156:	2202      	movs	r2, #2
  401158:	739a      	strb	r2, [r3, #14]
		sd_mmc_cards[slot].clock = SDMMC_CLOCK_INIT;
  40115a:	4a11      	ldr	r2, [pc, #68]	; (4011a0 <sd_mmc_select_slot+0xec>)
  40115c:	601a      	str	r2, [r3, #0]
		sd_mmc_cards[slot].bus_width = 1;
  40115e:	2201      	movs	r2, #1
  401160:	745a      	strb	r2, [r3, #17]
		sd_mmc_cards[slot].high_speed = 0;
  401162:	2200      	movs	r2, #0
  401164:	f883 2022 	strb.w	r2, [r3, #34]	; 0x22
	sd_mmc_slot_sel = slot;
  401168:	2200      	movs	r2, #0
  40116a:	4b0e      	ldr	r3, [pc, #56]	; (4011a4 <sd_mmc_select_slot+0xf0>)
  40116c:	701a      	strb	r2, [r3, #0]
	sd_mmc_card = &sd_mmc_cards[slot];
  40116e:	4c06      	ldr	r4, [pc, #24]	; (401188 <sd_mmc_select_slot+0xd4>)
  401170:	4b0d      	ldr	r3, [pc, #52]	; (4011a8 <sd_mmc_select_slot+0xf4>)
  401172:	601c      	str	r4, [r3, #0]
	sd_mmc_configure_slot();
  401174:	4b0d      	ldr	r3, [pc, #52]	; (4011ac <sd_mmc_select_slot+0xf8>)
  401176:	4798      	blx	r3
			SD_MMC_INIT_ONGOING : SD_MMC_OK;
  401178:	7ba0      	ldrb	r0, [r4, #14]
  40117a:	2802      	cmp	r0, #2
  40117c:	bf14      	ite	ne
  40117e:	2000      	movne	r0, #0
  401180:	2001      	moveq	r0, #1
  401182:	bd10      	pop	{r4, pc}
			return SD_MMC_ERR_NO_CARD;
  401184:	2002      	movs	r0, #2
  401186:	bd10      	pop	{r4, pc}
  401188:	20000428 	.word	0x20000428
  40118c:	20001070 	.word	0x20001070
  401190:	e000e010 	.word	0xe000e010
  401194:	00e4e1c0 	.word	0x00e4e1c0
  401198:	0082ca25 	.word	0x0082ca25
  40119c:	20000001 	.word	0x20000001
  4011a0:	00061a80 	.word	0x00061a80
  4011a4:	20001071 	.word	0x20001071
  4011a8:	2000106c 	.word	0x2000106c
  4011ac:	00401089 	.word	0x00401089

004011b0 <sd_mmc_cmd13>:
{
  4011b0:	e92d 41f0 	stmdb	sp!, {r4, r5, r6, r7, r8, lr}
  4011b4:	4c09      	ldr	r4, [pc, #36]	; (4011dc <sd_mmc_cmd13+0x2c>)
			if (!driver_send_cmd(SDMMC_SPI_CMD13_SEND_STATUS, 0)) {
  4011b6:	2700      	movs	r7, #0
  4011b8:	4e09      	ldr	r6, [pc, #36]	; (4011e0 <sd_mmc_cmd13+0x30>)
			if (!(driver_get_response() & 0xFF)) {
  4011ba:	4d0a      	ldr	r5, [pc, #40]	; (4011e4 <sd_mmc_cmd13+0x34>)
			if (!driver_send_cmd(SDMMC_SPI_CMD13_SEND_STATUS, 0)) {
  4011bc:	4639      	mov	r1, r7
  4011be:	f641 300d 	movw	r0, #6925	; 0x1b0d
  4011c2:	47b0      	blx	r6
  4011c4:	4680      	mov	r8, r0
  4011c6:	b130      	cbz	r0, 4011d6 <sd_mmc_cmd13+0x26>
			if (!(driver_get_response() & 0xFF)) {
  4011c8:	47a8      	blx	r5
  4011ca:	b2c0      	uxtb	r0, r0
  4011cc:	b118      	cbz	r0, 4011d6 <sd_mmc_cmd13+0x26>
		if (nec_timeout-- == 0) {
  4011ce:	3c01      	subs	r4, #1
  4011d0:	d1f4      	bne.n	4011bc <sd_mmc_cmd13+0xc>
			return false;
  4011d2:	f04f 0800 	mov.w	r8, #0
}
  4011d6:	4640      	mov	r0, r8
  4011d8:	e8bd 81f0 	ldmia.w	sp!, {r4, r5, r6, r7, r8, pc}
  4011dc:	00030d41 	.word	0x00030d41
  4011e0:	00401a29 	.word	0x00401a29
  4011e4:	00401a41 	.word	0x00401a41

004011e8 <sd_mmc_cmd9_spi>:
{
  4011e8:	b510      	push	{r4, lr}
  4011ea:	b082      	sub	sp, #8
	if (!driver_adtc_start(SDMMC_SPI_CMD9_SEND_CSD, (uint32_t)sd_mmc_card->rca << 16,
  4011ec:	4b0d      	ldr	r3, [pc, #52]	; (401224 <sd_mmc_cmd9_spi+0x3c>)
  4011ee:	681b      	ldr	r3, [r3, #0]
  4011f0:	8999      	ldrh	r1, [r3, #12]
  4011f2:	2301      	movs	r3, #1
  4011f4:	9300      	str	r3, [sp, #0]
  4011f6:	2210      	movs	r2, #16
  4011f8:	4091      	lsls	r1, r2
  4011fa:	480b      	ldr	r0, [pc, #44]	; (401228 <sd_mmc_cmd9_spi+0x40>)
  4011fc:	4c0b      	ldr	r4, [pc, #44]	; (40122c <sd_mmc_cmd9_spi+0x44>)
  4011fe:	47a0      	blx	r4
  401200:	4603      	mov	r3, r0
  401202:	b910      	cbnz	r0, 40120a <sd_mmc_cmd9_spi+0x22>
}
  401204:	4618      	mov	r0, r3
  401206:	b002      	add	sp, #8
  401208:	bd10      	pop	{r4, pc}
	if (!driver_start_read_blocks(sd_mmc_card->csd, 1)) {
  40120a:	4b06      	ldr	r3, [pc, #24]	; (401224 <sd_mmc_cmd9_spi+0x3c>)
  40120c:	6818      	ldr	r0, [r3, #0]
  40120e:	2101      	movs	r1, #1
  401210:	3012      	adds	r0, #18
  401212:	4b07      	ldr	r3, [pc, #28]	; (401230 <sd_mmc_cmd9_spi+0x48>)
  401214:	4798      	blx	r3
  401216:	4603      	mov	r3, r0
  401218:	2800      	cmp	r0, #0
  40121a:	d0f3      	beq.n	401204 <sd_mmc_cmd9_spi+0x1c>
	return driver_wait_end_of_read_blocks();
  40121c:	4b05      	ldr	r3, [pc, #20]	; (401234 <sd_mmc_cmd9_spi+0x4c>)
  40121e:	4798      	blx	r3
  401220:	4603      	mov	r3, r0
  401222:	e7ef      	b.n	401204 <sd_mmc_cmd9_spi+0x1c>
  401224:	2000106c 	.word	0x2000106c
  401228:	00081109 	.word	0x00081109
  40122c:	004018a1 	.word	0x004018a1
  401230:	00401ac1 	.word	0x00401ac1
  401234:	00401b3d 	.word	0x00401b3d

00401238 <sd_mmc_deselect_slot>:

/**
 * \brief Deselect the current card slot
 */
static void sd_mmc_deselect_slot(void)
{
  401238:	b508      	push	{r3, lr}
	if (sd_mmc_slot_sel < SD_MMC_MEM_CNT) {
  40123a:	4b04      	ldr	r3, [pc, #16]	; (40124c <sd_mmc_deselect_slot+0x14>)
  40123c:	781b      	ldrb	r3, [r3, #0]
  40123e:	b103      	cbz	r3, 401242 <sd_mmc_deselect_slot+0xa>
  401240:	bd08      	pop	{r3, pc}
		driver_deselect_device(sd_mmc_slot_sel);
  401242:	2000      	movs	r0, #0
  401244:	4b02      	ldr	r3, [pc, #8]	; (401250 <sd_mmc_deselect_slot+0x18>)
  401246:	4798      	blx	r3
	}
}
  401248:	e7fa      	b.n	401240 <sd_mmc_deselect_slot+0x8>
  40124a:	bf00      	nop
  40124c:	20001071 	.word	0x20001071
  401250:	00401841 	.word	0x00401841

00401254 <sd_mmc_init>:

//-------------------------------------------------------------------
//--------------------- PUBLIC FUNCTIONS ----------------------------

void sd_mmc_init(void)
{
  401254:	b508      	push	{r3, lr}
	//! Enable the PMC clock for the card detect pins
#if (defined SD_MMC_0_CD_GPIO) && (SAM) && (!SAM4L)
# include "pmc.h"
# define SD_MMC_ENABLE_CD_PIN(slot, unused) \
	pmc_enable_periph_clk(SD_MMC_##slot##_CD_PIO_ID);
	MREPEAT(SD_MMC_MEM_CNT, SD_MMC_ENABLE_CD_PIN, ~)
  401256:	200d      	movs	r0, #13
  401258:	4b05      	ldr	r3, [pc, #20]	; (401270 <sd_mmc_init+0x1c>)
  40125a:	4798      	blx	r3
	pmc_enable_periph_clk(SD_MMC_##slot##_WP_PIO_ID);
	MREPEAT(SD_MMC_MEM_CNT, SD_MMC_ENABLE_WP_PIN, ~)
# undef SD_MMC_ENABLE_WP_PIN
#endif
	for (uint8_t slot = 0; slot < SD_MMC_MEM_CNT; slot++) {
		sd_mmc_cards[slot].state = SD_MMC_CARD_STATE_NO_CARD;
  40125c:	2204      	movs	r2, #4
  40125e:	4b05      	ldr	r3, [pc, #20]	; (401274 <sd_mmc_init+0x20>)
  401260:	739a      	strb	r2, [r3, #14]
	}
	sd_mmc_slot_sel = 0xFF; // No slot configurated
  401262:	22ff      	movs	r2, #255	; 0xff
  401264:	4b04      	ldr	r3, [pc, #16]	; (401278 <sd_mmc_init+0x24>)
  401266:	701a      	strb	r2, [r3, #0]
	driver_init();
  401268:	4b04      	ldr	r3, [pc, #16]	; (40127c <sd_mmc_init+0x28>)
  40126a:	4798      	blx	r3
  40126c:	bd08      	pop	{r3, pc}
  40126e:	bf00      	nop
  401270:	00402565 	.word	0x00402565
  401274:	20000428 	.word	0x20000428
  401278:	20001071 	.word	0x20001071
  40127c:	004017d1 	.word	0x004017d1

00401280 <sd_mmc_check>:
{
	return SD_MMC_MEM_CNT;
}

sd_mmc_err_t sd_mmc_check(uint8_t slot)
{
  401280:	e92d 43f0 	stmdb	sp!, {r4, r5, r6, r7, r8, r9, lr}
  401284:	b087      	sub	sp, #28
	sd_mmc_err_t sd_mmc_err;

	sd_mmc_err = sd_mmc_select_slot(slot);
  401286:	4b9a      	ldr	r3, [pc, #616]	; (4014f0 <sd_mmc_check+0x270>)
  401288:	4798      	blx	r3
  40128a:	4604      	mov	r4, r0
	if (sd_mmc_err != SD_MMC_INIT_ONGOING) {
  40128c:	2801      	cmp	r0, #1
  40128e:	d005      	beq.n	40129c <sd_mmc_check+0x1c>
		sd_mmc_deselect_slot();
  401290:	4b98      	ldr	r3, [pc, #608]	; (4014f4 <sd_mmc_check+0x274>)
  401292:	4798      	blx	r3
	}
	sd_mmc_debug("SD/MMC card initialization failed\n\r");
	sd_mmc_card->state = SD_MMC_CARD_STATE_UNUSABLE;
	sd_mmc_deselect_slot();
	return SD_MMC_ERR_UNUSABLE;
}
  401294:	4620      	mov	r0, r4
  401296:	b007      	add	sp, #28
  401298:	e8bd 83f0 	ldmia.w	sp!, {r4, r5, r6, r7, r8, r9, pc}
	sd_mmc_card->type = CARD_TYPE_SD;
  40129c:	4b96      	ldr	r3, [pc, #600]	; (4014f8 <sd_mmc_check+0x278>)
  40129e:	681b      	ldr	r3, [r3, #0]
  4012a0:	2201      	movs	r2, #1
  4012a2:	73da      	strb	r2, [r3, #15]
	sd_mmc_card->version = CARD_VER_UNKNOWN;
  4012a4:	2500      	movs	r5, #0
  4012a6:	741d      	strb	r5, [r3, #16]
	sd_mmc_card->rca = 0;
  4012a8:	819d      	strh	r5, [r3, #12]
	driver_send_clock();
  4012aa:	4b94      	ldr	r3, [pc, #592]	; (4014fc <sd_mmc_check+0x27c>)
  4012ac:	4798      	blx	r3
	if (!driver_send_cmd(SDMMC_SPI_CMD0_GO_IDLE_STATE, 0)) {
  4012ae:	4629      	mov	r1, r5
  4012b0:	f44f 5088 	mov.w	r0, #4352	; 0x1100
  4012b4:	4b92      	ldr	r3, [pc, #584]	; (401500 <sd_mmc_check+0x280>)
  4012b6:	4798      	blx	r3
  4012b8:	b930      	cbnz	r0, 4012c8 <sd_mmc_check+0x48>
	sd_mmc_card->state = SD_MMC_CARD_STATE_UNUSABLE;
  4012ba:	4b8f      	ldr	r3, [pc, #572]	; (4014f8 <sd_mmc_check+0x278>)
  4012bc:	681b      	ldr	r3, [r3, #0]
  4012be:	2403      	movs	r4, #3
  4012c0:	739c      	strb	r4, [r3, #14]
	sd_mmc_deselect_slot();
  4012c2:	4b8c      	ldr	r3, [pc, #560]	; (4014f4 <sd_mmc_check+0x274>)
  4012c4:	4798      	blx	r3
	return SD_MMC_ERR_UNUSABLE;
  4012c6:	e7e5      	b.n	401294 <sd_mmc_check+0x14>
	if (!driver_send_cmd(SD_CMD8_SEND_IF_COND,
  4012c8:	f44f 71d5 	mov.w	r1, #426	; 0x1aa
  4012cc:	f245 5008 	movw	r0, #21768	; 0x5508
  4012d0:	4b8b      	ldr	r3, [pc, #556]	; (401500 <sd_mmc_check+0x280>)
  4012d2:	4798      	blx	r3
  4012d4:	2800      	cmp	r0, #0
  4012d6:	d129      	bne.n	40132c <sd_mmc_check+0xac>
	*v2 = 0;
  4012d8:	2700      	movs	r7, #0
	if (sd_mmc_card->type & CARD_TYPE_SD) {
  4012da:	4b87      	ldr	r3, [pc, #540]	; (4014f8 <sd_mmc_check+0x278>)
  4012dc:	681b      	ldr	r3, [r3, #0]
  4012de:	7bdb      	ldrb	r3, [r3, #15]
  4012e0:	f013 0f01 	tst.w	r3, #1
  4012e4:	f040 81df 	bne.w	4016a6 <sd_mmc_check+0x426>
	if ((sd_mmc_card->type & CARD_TYPE_SD) &&
  4012e8:	4b83      	ldr	r3, [pc, #524]	; (4014f8 <sd_mmc_check+0x278>)
  4012ea:	681b      	ldr	r3, [r3, #0]
  4012ec:	7bdb      	ldrb	r3, [r3, #15]
  4012ee:	f003 0309 	and.w	r3, r3, #9
  4012f2:	2b01      	cmp	r3, #1
  4012f4:	d111      	bne.n	40131a <sd_mmc_check+0x9a>
		if (!driver_send_cmd(SDMMC_CMD16_SET_BLOCKLEN, SD_MMC_BLOCK_SIZE)) {
  4012f6:	f44f 7100 	mov.w	r1, #512	; 0x200
  4012fa:	f241 1010 	movw	r0, #4368	; 0x1110
  4012fe:	4b80      	ldr	r3, [pc, #512]	; (401500 <sd_mmc_check+0x280>)
  401300:	4798      	blx	r3
  401302:	2800      	cmp	r0, #0
  401304:	d0d9      	beq.n	4012ba <sd_mmc_check+0x3a>
	if (sd_mmc_card->type & CARD_TYPE_SD) {
  401306:	4b7c      	ldr	r3, [pc, #496]	; (4014f8 <sd_mmc_check+0x278>)
  401308:	681b      	ldr	r3, [r3, #0]
  40130a:	7bdb      	ldrb	r3, [r3, #15]
  40130c:	f013 0f01 	tst.w	r3, #1
  401310:	d003      	beq.n	40131a <sd_mmc_check+0x9a>
		if (!sd_mmc_cmd13()) {
  401312:	4b7c      	ldr	r3, [pc, #496]	; (401504 <sd_mmc_check+0x284>)
  401314:	4798      	blx	r3
  401316:	2800      	cmp	r0, #0
  401318:	d0cf      	beq.n	4012ba <sd_mmc_check+0x3a>
	sd_mmc_configure_slot();
  40131a:	4b7b      	ldr	r3, [pc, #492]	; (401508 <sd_mmc_check+0x288>)
  40131c:	4798      	blx	r3
		sd_mmc_card->state = SD_MMC_CARD_STATE_READY;
  40131e:	4b76      	ldr	r3, [pc, #472]	; (4014f8 <sd_mmc_check+0x278>)
  401320:	681b      	ldr	r3, [r3, #0]
  401322:	2200      	movs	r2, #0
  401324:	739a      	strb	r2, [r3, #14]
		sd_mmc_deselect_slot();
  401326:	4b73      	ldr	r3, [pc, #460]	; (4014f4 <sd_mmc_check+0x274>)
  401328:	4798      	blx	r3
		return SD_MMC_INIT_ONGOING;
  40132a:	e7b3      	b.n	401294 <sd_mmc_check+0x14>
	resp = driver_get_response();
  40132c:	4b77      	ldr	r3, [pc, #476]	; (40150c <sd_mmc_check+0x28c>)
  40132e:	4798      	blx	r3
	if (resp == 0xFFFFFFFF) {
  401330:	f1b0 3fff 	cmp.w	r0, #4294967295
  401334:	f000 81b5 	beq.w	4016a2 <sd_mmc_check+0x422>
	if ((resp & (SD_CMD8_MASK_PATTERN | SD_CMD8_MASK_VOLTAGE))
  401338:	f3c0 000b 	ubfx	r0, r0, #0, #12
  40133c:	f5b0 7fd5 	cmp.w	r0, #426	; 0x1aa
  401340:	d1bb      	bne.n	4012ba <sd_mmc_check+0x3a>
	*v2 = 1;
  401342:	2701      	movs	r7, #1
  401344:	e7c9      	b.n	4012da <sd_mmc_check+0x5a>
	if (!driver_send_cmd(SDMMC_SPI_CMD58_READ_OCR, 0)) {
  401346:	2100      	movs	r1, #0
  401348:	f240 503a 	movw	r0, #1338	; 0x53a
  40134c:	4b6c      	ldr	r3, [pc, #432]	; (401500 <sd_mmc_check+0x280>)
  40134e:	4798      	blx	r3
  401350:	b9f0      	cbnz	r0, 401390 <sd_mmc_check+0x110>
			sd_mmc_card->type = CARD_TYPE_MMC;
  401352:	4b69      	ldr	r3, [pc, #420]	; (4014f8 <sd_mmc_check+0x278>)
  401354:	681b      	ldr	r3, [r3, #0]
  401356:	2202      	movs	r2, #2
  401358:	73da      	strb	r2, [r3, #15]
	if (!driver_send_cmd(SDMMC_SPI_CMD0_GO_IDLE_STATE, 0)) {
  40135a:	2100      	movs	r1, #0
  40135c:	f44f 5088 	mov.w	r0, #4352	; 0x1100
  401360:	4b67      	ldr	r3, [pc, #412]	; (401500 <sd_mmc_check+0x280>)
  401362:	4798      	blx	r3
  401364:	2800      	cmp	r0, #0
  401366:	d0a8      	beq.n	4012ba <sd_mmc_check+0x3a>
  401368:	f641 35ef 	movw	r5, #7151	; 0x1bef
		if (!driver_send_cmd(MMC_SPI_CMD1_SEND_OP_COND, 0)) {
  40136c:	f04f 0800 	mov.w	r8, #0
  401370:	4e63      	ldr	r6, [pc, #396]	; (401500 <sd_mmc_check+0x280>)
		resp = driver_get_response();
  401372:	4f66      	ldr	r7, [pc, #408]	; (40150c <sd_mmc_check+0x28c>)
		if (!driver_send_cmd(MMC_SPI_CMD1_SEND_OP_COND, 0)) {
  401374:	4641      	mov	r1, r8
  401376:	f241 1001 	movw	r0, #4353	; 0x1101
  40137a:	47b0      	blx	r6
  40137c:	2800      	cmp	r0, #0
  40137e:	d09c      	beq.n	4012ba <sd_mmc_check+0x3a>
		resp = driver_get_response();
  401380:	47b8      	blx	r7
		if (!(resp & R1_SPI_IDLE)) {
  401382:	f010 0f01 	tst.w	r0, #1
  401386:	f000 8084 	beq.w	401492 <sd_mmc_check+0x212>
		if (retry-- == 0) {
  40138a:	3d01      	subs	r5, #1
  40138c:	d1f2      	bne.n	401374 <sd_mmc_check+0xf4>
  40138e:	e794      	b.n	4012ba <sd_mmc_check+0x3a>
	if ((driver_get_response() & OCR_CCS) != 0) {
  401390:	4b5e      	ldr	r3, [pc, #376]	; (40150c <sd_mmc_check+0x28c>)
  401392:	4798      	blx	r3
  401394:	f010 4f80 	tst.w	r0, #1073741824	; 0x40000000
  401398:	d005      	beq.n	4013a6 <sd_mmc_check+0x126>
		sd_mmc_card->type |= CARD_TYPE_HC;
  40139a:	4b57      	ldr	r3, [pc, #348]	; (4014f8 <sd_mmc_check+0x278>)
  40139c:	681a      	ldr	r2, [r3, #0]
  40139e:	7bd3      	ldrb	r3, [r2, #15]
  4013a0:	f043 0308 	orr.w	r3, r3, #8
  4013a4:	73d3      	strb	r3, [r2, #15]
		if (!driver_send_cmd(SDMMC_SPI_CMD59_CRC_ON_OFF, 0)) {
  4013a6:	2100      	movs	r1, #0
  4013a8:	f241 103b 	movw	r0, #4411	; 0x113b
  4013ac:	4b54      	ldr	r3, [pc, #336]	; (401500 <sd_mmc_check+0x280>)
  4013ae:	4798      	blx	r3
  4013b0:	2800      	cmp	r0, #0
  4013b2:	d082      	beq.n	4012ba <sd_mmc_check+0x3a>
	if (sd_mmc_card->type & CARD_TYPE_SD) {
  4013b4:	4b50      	ldr	r3, [pc, #320]	; (4014f8 <sd_mmc_check+0x278>)
  4013b6:	681b      	ldr	r3, [r3, #0]
  4013b8:	7bdb      	ldrb	r3, [r3, #15]
  4013ba:	f013 0f01 	tst.w	r3, #1
  4013be:	f000 8190 	beq.w	4016e2 <sd_mmc_check+0x462>
		if (!sd_mmc_cmd9_spi()) {
  4013c2:	4b53      	ldr	r3, [pc, #332]	; (401510 <sd_mmc_check+0x290>)
  4013c4:	4798      	blx	r3
  4013c6:	2800      	cmp	r0, #0
  4013c8:	f43f af77 	beq.w	4012ba <sd_mmc_check+0x3a>
	tran_speed = CSD_TRAN_SPEED(sd_mmc_card->csd);
  4013cc:	4b4a      	ldr	r3, [pc, #296]	; (4014f8 <sd_mmc_check+0x278>)
  4013ce:	681b      	ldr	r3, [r3, #0]
 */
static inline uint32_t SDMMC_UNSTUFF_BITS(uint8_t *reg, uint16_t reg_size,
		uint16_t pos, uint8_t size)
{
	uint32_t value;
	value = reg[((reg_size - pos + 7) / 8) - 1] >> (pos % 8);
  4013d0:	7d5a      	ldrb	r2, [r3, #21]
	unit = sd_mmc_trans_units[tran_speed & 0x7];
  4013d2:	f002 0007 	and.w	r0, r2, #7
	sd_mmc_card->clock = unit * mul * 1000;
  4013d6:	494f      	ldr	r1, [pc, #316]	; (401514 <sd_mmc_check+0x294>)
  4013d8:	f851 0020 	ldr.w	r0, [r1, r0, lsl #2]
  4013dc:	f44f 717a 	mov.w	r1, #1000	; 0x3e8
  4013e0:	fb01 f100 	mul.w	r1, r1, r0
	mul = sd_trans_multipliers[(tran_speed >> 3) & 0xF];
  4013e4:	f3c2 02c3 	ubfx	r2, r2, #3, #4
	sd_mmc_card->clock = unit * mul * 1000;
  4013e8:	484b      	ldr	r0, [pc, #300]	; (401518 <sd_mmc_check+0x298>)
  4013ea:	f850 2022 	ldr.w	r2, [r0, r2, lsl #2]
  4013ee:	fb02 f201 	mul.w	r2, r2, r1
  4013f2:	601a      	str	r2, [r3, #0]
	if (CSD_STRUCTURE_VERSION(sd_mmc_card->csd) >= SD_CSD_VER_2_0) {
  4013f4:	7c9a      	ldrb	r2, [r3, #18]
  4013f6:	0992      	lsrs	r2, r2, #6
  4013f8:	f040 812a 	bne.w	401650 <sd_mmc_check+0x3d0>
  4013fc:	7e99      	ldrb	r1, [r3, #26]
	if (((pos % 8) + size) > 8) {
		value |= (uint32_t)reg[((reg_size - pos + 7) / 8) - 2] << (8 - (pos % 8));
  4013fe:	7e58      	ldrb	r0, [r3, #25]
	}
	if (((pos % 8) + size) > 16) {
		value |= (uint32_t)reg[((reg_size - pos + 7) / 8) - 3] << (16 - (pos % 8));
  401400:	7e1a      	ldrb	r2, [r3, #24]
  401402:	0292      	lsls	r2, r2, #10
	}
	if (((pos % 8) + size) > 16) {
		value |= (uint32_t)reg[((reg_size - pos + 7) / 8) - 3] << (16 - (pos % 8));
  401404:	ea42 0280 	orr.w	r2, r2, r0, lsl #2
  401408:	ea42 12a1 	orr.w	r2, r2, r1, asr #6
	value = reg[((reg_size - pos + 7) / 8) - 1] >> (pos % 8);
  40140c:	7f18      	ldrb	r0, [r3, #28]
		value |= (uint32_t)reg[((reg_size - pos + 7) / 8) - 2] << (8 - (pos % 8));
  40140e:	7ed9      	ldrb	r1, [r3, #27]
  401410:	0049      	lsls	r1, r1, #1
  401412:	ea41 11e0 	orr.w	r1, r1, r0, asr #7
	}
	value &=  ((uint32_t)1 << size) - 1;
  401416:	f3c2 020b 	ubfx	r2, r2, #0, #12
		uint32_t blocknr = ((SD_CSD_1_0_C_SIZE(sd_mmc_card->csd) + 1) *
  40141a:	3201      	adds	r2, #1
  40141c:	f001 0107 	and.w	r1, r1, #7
				(1 << (SD_CSD_1_0_C_SIZE_MULT(sd_mmc_card->csd) + 2)));
  401420:	3102      	adds	r1, #2
		uint32_t blocknr = ((SD_CSD_1_0_C_SIZE(sd_mmc_card->csd) + 1) *
  401422:	408a      	lsls	r2, r1
  401424:	7dd9      	ldrb	r1, [r3, #23]
  401426:	f001 010f 	and.w	r1, r1, #15
		sd_mmc_card->capacity = blocknr *
  40142a:	408a      	lsls	r2, r1
				/ 1024;
  40142c:	0a92      	lsrs	r2, r2, #10
		sd_mmc_card->capacity = blocknr *
  40142e:	605a      	str	r2, [r3, #4]
	if (!driver_send_cmd(SDMMC_CMD55_APP_CMD, (uint32_t)sd_mmc_card->rca << 16)) {
  401430:	8999      	ldrh	r1, [r3, #12]
  401432:	0409      	lsls	r1, r1, #16
  401434:	f241 1037 	movw	r0, #4407	; 0x1137
  401438:	4b31      	ldr	r3, [pc, #196]	; (401500 <sd_mmc_check+0x280>)
  40143a:	4798      	blx	r3
  40143c:	2800      	cmp	r0, #0
  40143e:	f43f af3c 	beq.w	4012ba <sd_mmc_check+0x3a>
	if (!driver_adtc_start(SD_ACMD51_SEND_SCR, 0,
  401442:	2301      	movs	r3, #1
  401444:	9300      	str	r3, [sp, #0]
  401446:	2208      	movs	r2, #8
  401448:	2100      	movs	r1, #0
  40144a:	4834      	ldr	r0, [pc, #208]	; (40151c <sd_mmc_check+0x29c>)
  40144c:	4d34      	ldr	r5, [pc, #208]	; (401520 <sd_mmc_check+0x2a0>)
  40144e:	47a8      	blx	r5
  401450:	2800      	cmp	r0, #0
  401452:	f43f af32 	beq.w	4012ba <sd_mmc_check+0x3a>
	if (!driver_start_read_blocks(scr, 1)) {
  401456:	2101      	movs	r1, #1
  401458:	a804      	add	r0, sp, #16
  40145a:	4b32      	ldr	r3, [pc, #200]	; (401524 <sd_mmc_check+0x2a4>)
  40145c:	4798      	blx	r3
  40145e:	2800      	cmp	r0, #0
  401460:	f43f af2b 	beq.w	4012ba <sd_mmc_check+0x3a>
	if (!driver_wait_end_of_read_blocks()) {
  401464:	4b30      	ldr	r3, [pc, #192]	; (401528 <sd_mmc_check+0x2a8>)
  401466:	4798      	blx	r3
  401468:	2800      	cmp	r0, #0
  40146a:	f43f af26 	beq.w	4012ba <sd_mmc_check+0x3a>
	switch (SD_SCR_SD_SPEC(scr)) {
  40146e:	f89d 3010 	ldrb.w	r3, [sp, #16]
  401472:	f003 030f 	and.w	r3, r3, #15
  401476:	2b01      	cmp	r3, #1
  401478:	f000 8104 	beq.w	401684 <sd_mmc_check+0x404>
  40147c:	2b00      	cmp	r3, #0
  40147e:	f000 80f4 	beq.w	40166a <sd_mmc_check+0x3ea>
  401482:	2b02      	cmp	r3, #2
  401484:	f000 8103 	beq.w	40168e <sd_mmc_check+0x40e>
		sd_mmc_card->version = CARD_VER_SD_1_0;
  401488:	4b1b      	ldr	r3, [pc, #108]	; (4014f8 <sd_mmc_check+0x278>)
  40148a:	681b      	ldr	r3, [r3, #0]
  40148c:	2210      	movs	r2, #16
  40148e:	741a      	strb	r2, [r3, #16]
  401490:	e0ef      	b.n	401672 <sd_mmc_check+0x3f2>
	if (!driver_send_cmd(SDMMC_SPI_CMD58_READ_OCR, 0)) {
  401492:	2100      	movs	r1, #0
  401494:	f240 503a 	movw	r0, #1338	; 0x53a
  401498:	4b19      	ldr	r3, [pc, #100]	; (401500 <sd_mmc_check+0x280>)
  40149a:	4798      	blx	r3
  40149c:	2800      	cmp	r0, #0
  40149e:	f43f af0c 	beq.w	4012ba <sd_mmc_check+0x3a>
	if ((driver_get_response() & OCR_ACCESS_MODE_MASK)
  4014a2:	4b1a      	ldr	r3, [pc, #104]	; (40150c <sd_mmc_check+0x28c>)
  4014a4:	4798      	blx	r3
  4014a6:	f000 40c0 	and.w	r0, r0, #1610612736	; 0x60000000
  4014aa:	f1b0 4f80 	cmp.w	r0, #1073741824	; 0x40000000
  4014ae:	d105      	bne.n	4014bc <sd_mmc_check+0x23c>
		sd_mmc_card->type |= CARD_TYPE_HC;
  4014b0:	4b11      	ldr	r3, [pc, #68]	; (4014f8 <sd_mmc_check+0x278>)
  4014b2:	681a      	ldr	r2, [r3, #0]
  4014b4:	7bd3      	ldrb	r3, [r2, #15]
  4014b6:	f043 0308 	orr.w	r3, r3, #8
  4014ba:	73d3      	strb	r3, [r2, #15]
	if (!driver_send_cmd(SDMMC_SPI_CMD59_CRC_ON_OFF, 0)) {
  4014bc:	2100      	movs	r1, #0
  4014be:	f241 103b 	movw	r0, #4411	; 0x113b
  4014c2:	4b0f      	ldr	r3, [pc, #60]	; (401500 <sd_mmc_check+0x280>)
  4014c4:	4798      	blx	r3
  4014c6:	2800      	cmp	r0, #0
  4014c8:	f43f aef7 	beq.w	4012ba <sd_mmc_check+0x3a>
	if (!sd_mmc_cmd9_spi()) {
  4014cc:	4b10      	ldr	r3, [pc, #64]	; (401510 <sd_mmc_check+0x290>)
  4014ce:	4798      	blx	r3
  4014d0:	2800      	cmp	r0, #0
  4014d2:	f43f aef2 	beq.w	4012ba <sd_mmc_check+0x3a>
	switch (MMC_CSD_SPEC_VERS(sd_mmc_card->csd)) {
  4014d6:	4b08      	ldr	r3, [pc, #32]	; (4014f8 <sd_mmc_check+0x278>)
  4014d8:	681a      	ldr	r2, [r3, #0]
	value = reg[((reg_size - pos + 7) / 8) - 1] >> (pos % 8);
  4014da:	7c93      	ldrb	r3, [r2, #18]
	value &=  ((uint32_t)1 << size) - 1;
  4014dc:	f3c3 0383 	ubfx	r3, r3, #2, #4
  4014e0:	3b01      	subs	r3, #1
  4014e2:	2b03      	cmp	r3, #3
  4014e4:	d822      	bhi.n	40152c <sd_mmc_check+0x2ac>
  4014e6:	e8df f003 	tbb	[pc, r3]
  4014ea:	908d      	.short	0x908d
  4014ec:	9693      	.short	0x9693
  4014ee:	bf00      	nop
  4014f0:	004010b5 	.word	0x004010b5
  4014f4:	00401239 	.word	0x00401239
  4014f8:	2000106c 	.word	0x2000106c
  4014fc:	00401869 	.word	0x00401869
  401500:	00401a29 	.word	0x00401a29
  401504:	004011b1 	.word	0x004011b1
  401508:	00401089 	.word	0x00401089
  40150c:	00401a41 	.word	0x00401a41
  401510:	004011e9 	.word	0x004011e9
  401514:	00407c4c 	.word	0x00407c4c
  401518:	00407c68 	.word	0x00407c68
  40151c:	00081133 	.word	0x00081133
  401520:	004018a1 	.word	0x004018a1
  401524:	00401ac1 	.word	0x00401ac1
  401528:	00401b3d 	.word	0x00401b3d
		sd_mmc_card->version = CARD_VER_MMC_1_2;
  40152c:	2312      	movs	r3, #18
  40152e:	7413      	strb	r3, [r2, #16]
	value = reg[((reg_size - pos + 7) / 8) - 1] >> (pos % 8);
  401530:	7d53      	ldrb	r3, [r2, #21]
	mul = mmc_trans_multipliers[(tran_speed >> 3) & 0xF];
  401532:	f3c3 00c3 	ubfx	r0, r3, #3, #4
	unit = sd_mmc_trans_units[tran_speed & 0x7];
  401536:	f003 0307 	and.w	r3, r3, #7
	sd_mmc_card->clock = unit * mul * 1000;
  40153a:	496d      	ldr	r1, [pc, #436]	; (4016f0 <sd_mmc_check+0x470>)
  40153c:	f851 1023 	ldr.w	r1, [r1, r3, lsl #2]
  401540:	f44f 737a 	mov.w	r3, #1000	; 0x3e8
  401544:	fb03 f301 	mul.w	r3, r3, r1
  401548:	496a      	ldr	r1, [pc, #424]	; (4016f4 <sd_mmc_check+0x474>)
  40154a:	f851 1020 	ldr.w	r1, [r1, r0, lsl #2]
  40154e:	fb03 f301 	mul.w	r3, r3, r1
  401552:	6013      	str	r3, [r2, #0]
  401554:	7e91      	ldrb	r1, [r2, #26]
		value |= (uint32_t)reg[((reg_size - pos + 7) / 8) - 2] << (8 - (pos % 8));
  401556:	7e50      	ldrb	r0, [r2, #25]
		value |= (uint32_t)reg[((reg_size - pos + 7) / 8) - 3] << (16 - (pos % 8));
  401558:	7e13      	ldrb	r3, [r2, #24]
  40155a:	029b      	lsls	r3, r3, #10
		value |= (uint32_t)reg[((reg_size - pos + 7) / 8) - 3] << (16 - (pos % 8));
  40155c:	ea43 0380 	orr.w	r3, r3, r0, lsl #2
  401560:	ea43 13a1 	orr.w	r3, r3, r1, asr #6
	value &=  ((uint32_t)1 << size) - 1;
  401564:	f3c3 030b 	ubfx	r3, r3, #0, #12
	if (MMC_CSD_C_SIZE(sd_mmc_card->csd) != 0xFFF) {
  401568:	f640 71ff 	movw	r1, #4095	; 0xfff
  40156c:	428b      	cmp	r3, r1
  40156e:	d00f      	beq.n	401590 <sd_mmc_check+0x310>
	value = reg[((reg_size - pos + 7) / 8) - 1] >> (pos % 8);
  401570:	7f10      	ldrb	r0, [r2, #28]
		value |= (uint32_t)reg[((reg_size - pos + 7) / 8) - 2] << (8 - (pos % 8));
  401572:	7ed1      	ldrb	r1, [r2, #27]
  401574:	0049      	lsls	r1, r1, #1
  401576:	ea41 11e0 	orr.w	r1, r1, r0, asr #7
		uint32_t blocknr = ((MMC_CSD_C_SIZE(sd_mmc_card->csd) + 1) *
  40157a:	3301      	adds	r3, #1
	value &=  ((uint32_t)1 << size) - 1;
  40157c:	f001 0107 	and.w	r1, r1, #7
			(1 << (MMC_CSD_C_SIZE_MULT(sd_mmc_card->csd) + 2)));
  401580:	3102      	adds	r1, #2
		uint32_t blocknr = ((MMC_CSD_C_SIZE(sd_mmc_card->csd) + 1) *
  401582:	408b      	lsls	r3, r1
  401584:	7dd1      	ldrb	r1, [r2, #23]
  401586:	f001 010f 	and.w	r1, r1, #15
		sd_mmc_card->capacity = blocknr *
  40158a:	408b      	lsls	r3, r1
			(1 << MMC_CSD_READ_BL_LEN(sd_mmc_card->csd)) / 1024;
  40158c:	0a9b      	lsrs	r3, r3, #10
		sd_mmc_card->capacity = blocknr *
  40158e:	6053      	str	r3, [r2, #4]
	if (sd_mmc_card->version >= CARD_VER_MMC_4) {
  401590:	7c13      	ldrb	r3, [r2, #16]
  401592:	2b3f      	cmp	r3, #63	; 0x3f
  401594:	d94b      	bls.n	40162e <sd_mmc_check+0x3ae>
	if (!driver_adtc_start(MMC_CMD8_SEND_EXT_CSD, 0,
  401596:	2100      	movs	r1, #0
  401598:	9100      	str	r1, [sp, #0]
  40159a:	2301      	movs	r3, #1
  40159c:	f44f 7200 	mov.w	r2, #512	; 0x200
  4015a0:	4855      	ldr	r0, [pc, #340]	; (4016f8 <sd_mmc_check+0x478>)
  4015a2:	4d56      	ldr	r5, [pc, #344]	; (4016fc <sd_mmc_check+0x47c>)
  4015a4:	47a8      	blx	r5
  4015a6:	2800      	cmp	r0, #0
  4015a8:	f43f ae87 	beq.w	4012ba <sd_mmc_check+0x3a>
  4015ac:	2500      	movs	r5, #0
		if (!driver_read_word(&ext_csd)) {
  4015ae:	4e54      	ldr	r6, [pc, #336]	; (401700 <sd_mmc_check+0x480>)
  4015b0:	a803      	add	r0, sp, #12
  4015b2:	47b0      	blx	r6
  4015b4:	2800      	cmp	r0, #0
  4015b6:	f43f ae80 	beq.w	4012ba <sd_mmc_check+0x3a>
	for (i = 0; i < (EXT_CSD_CARD_TYPE_INDEX + 4) / 4; i++) {
  4015ba:	3501      	adds	r5, #1
  4015bc:	b2ad      	uxth	r5, r5
  4015be:	2d32      	cmp	r5, #50	; 0x32
  4015c0:	d1f6      	bne.n	4015b0 <sd_mmc_check+0x330>
	if (MMC_CSD_C_SIZE(sd_mmc_card->csd) == 0xFFF) {
  4015c2:	4b50      	ldr	r3, [pc, #320]	; (401704 <sd_mmc_check+0x484>)
  4015c4:	681b      	ldr	r3, [r3, #0]
	value = reg[((reg_size - pos + 7) / 8) - 1] >> (pos % 8);
  4015c6:	7e9a      	ldrb	r2, [r3, #26]
		value |= (uint32_t)reg[((reg_size - pos + 7) / 8) - 2] << (8 - (pos % 8));
  4015c8:	7e59      	ldrb	r1, [r3, #25]
		value |= (uint32_t)reg[((reg_size - pos + 7) / 8) - 3] << (16 - (pos % 8));
  4015ca:	7e1b      	ldrb	r3, [r3, #24]
  4015cc:	029b      	lsls	r3, r3, #10
		value |= (uint32_t)reg[((reg_size - pos + 7) / 8) - 3] << (16 - (pos % 8));
  4015ce:	ea43 0381 	orr.w	r3, r3, r1, lsl #2
  4015d2:	ea43 13a2 	orr.w	r3, r3, r2, asr #6
	value &=  ((uint32_t)1 << size) - 1;
  4015d6:	f3c3 030b 	ubfx	r3, r3, #0, #12
  4015da:	f640 72ff 	movw	r2, #4095	; 0xfff
  4015de:	4293      	cmp	r3, r2
  4015e0:	d10e      	bne.n	401600 <sd_mmc_check+0x380>
			if (!driver_read_word(&sec_count)) {
  4015e2:	4e47      	ldr	r6, [pc, #284]	; (401700 <sd_mmc_check+0x480>)
  4015e4:	a804      	add	r0, sp, #16
  4015e6:	47b0      	blx	r6
  4015e8:	2800      	cmp	r0, #0
  4015ea:	f43f ae66 	beq.w	4012ba <sd_mmc_check+0x3a>
		for (; i <(EXT_CSD_SEC_COUNT_INDEX + 4) / 4; i++) {
  4015ee:	3501      	adds	r5, #1
  4015f0:	b2ad      	uxth	r5, r5
  4015f2:	2d35      	cmp	r5, #53	; 0x35
  4015f4:	d9f6      	bls.n	4015e4 <sd_mmc_check+0x364>
		sd_mmc_card->capacity = sec_count / 2;
  4015f6:	4b43      	ldr	r3, [pc, #268]	; (401704 <sd_mmc_check+0x484>)
  4015f8:	681a      	ldr	r2, [r3, #0]
  4015fa:	9b04      	ldr	r3, [sp, #16]
  4015fc:	085b      	lsrs	r3, r3, #1
  4015fe:	6053      	str	r3, [r2, #4]
		if (!driver_read_word(&sec_count)) {
  401600:	4e3f      	ldr	r6, [pc, #252]	; (401700 <sd_mmc_check+0x480>)
  401602:	e012      	b.n	40162a <sd_mmc_check+0x3aa>
		sd_mmc_card->version = CARD_VER_MMC_1_4;
  401604:	2314      	movs	r3, #20
  401606:	7413      	strb	r3, [r2, #16]
  401608:	e792      	b.n	401530 <sd_mmc_check+0x2b0>
		sd_mmc_card->version = CARD_VER_MMC_2_2;
  40160a:	2322      	movs	r3, #34	; 0x22
  40160c:	7413      	strb	r3, [r2, #16]
  40160e:	e78f      	b.n	401530 <sd_mmc_check+0x2b0>
		sd_mmc_card->version = CARD_VER_MMC_3;
  401610:	2330      	movs	r3, #48	; 0x30
  401612:	7413      	strb	r3, [r2, #16]
  401614:	e78c      	b.n	401530 <sd_mmc_check+0x2b0>
		sd_mmc_card->version = CARD_VER_MMC_4;
  401616:	2340      	movs	r3, #64	; 0x40
  401618:	7413      	strb	r3, [r2, #16]
  40161a:	e789      	b.n	401530 <sd_mmc_check+0x2b0>
		if (!driver_read_word(&sec_count)) {
  40161c:	a804      	add	r0, sp, #16
  40161e:	47b0      	blx	r6
  401620:	2800      	cmp	r0, #0
  401622:	f43f ae4a 	beq.w	4012ba <sd_mmc_check+0x3a>
	for (; i < EXT_CSD_BSIZE / 4; i++) {
  401626:	3501      	adds	r5, #1
  401628:	b2ad      	uxth	r5, r5
  40162a:	2d7f      	cmp	r5, #127	; 0x7f
  40162c:	d9f6      	bls.n	40161c <sd_mmc_check+0x39c>
	if (!driver_send_cmd(SDMMC_CMD16_SET_BLOCKLEN, SD_MMC_BLOCK_SIZE)) {
  40162e:	f44f 7100 	mov.w	r1, #512	; 0x200
  401632:	f241 1010 	movw	r0, #4368	; 0x1110
  401636:	4b34      	ldr	r3, [pc, #208]	; (401708 <sd_mmc_check+0x488>)
  401638:	4798      	blx	r3
  40163a:	2800      	cmp	r0, #0
  40163c:	f43f ae3d 	beq.w	4012ba <sd_mmc_check+0x3a>
	if (!sd_mmc_cmd13()) {
  401640:	4b32      	ldr	r3, [pc, #200]	; (40170c <sd_mmc_check+0x48c>)
  401642:	4798      	blx	r3
  401644:	2800      	cmp	r0, #0
  401646:	f43f ae38 	beq.w	4012ba <sd_mmc_check+0x3a>
	sd_mmc_configure_slot();
  40164a:	4b31      	ldr	r3, [pc, #196]	; (401710 <sd_mmc_check+0x490>)
  40164c:	4798      	blx	r3
  40164e:	e666      	b.n	40131e <sd_mmc_check+0x9e>
	value = reg[((reg_size - pos + 7) / 8) - 1] >> (pos % 8);
  401650:	7ed9      	ldrb	r1, [r3, #27]
		value |= (uint32_t)reg[((reg_size - pos + 7) / 8) - 2] << (8 - (pos % 8));
  401652:	7e98      	ldrb	r0, [r3, #26]
		value |= (uint32_t)reg[((reg_size - pos + 7) / 8) - 3] << (16 - (pos % 8));
  401654:	7e5a      	ldrb	r2, [r3, #25]
  401656:	0412      	lsls	r2, r2, #16
		value |= (uint32_t)reg[((reg_size - pos + 7) / 8) - 3] << (16 - (pos % 8));
  401658:	ea42 2200 	orr.w	r2, r2, r0, lsl #8
  40165c:	430a      	orrs	r2, r1
	value &=  ((uint32_t)1 << size) - 1;
  40165e:	f3c2 0215 	ubfx	r2, r2, #0, #22
				* 512;
  401662:	3201      	adds	r2, #1
  401664:	0252      	lsls	r2, r2, #9
		sd_mmc_card->capacity =
  401666:	605a      	str	r2, [r3, #4]
  401668:	e6e2      	b.n	401430 <sd_mmc_check+0x1b0>
		sd_mmc_card->version = CARD_VER_SD_1_0;
  40166a:	4b26      	ldr	r3, [pc, #152]	; (401704 <sd_mmc_check+0x484>)
  40166c:	681b      	ldr	r3, [r3, #0]
  40166e:	2210      	movs	r2, #16
  401670:	741a      	strb	r2, [r3, #16]
	if ((sd_mmc_card->type & CARD_TYPE_SD) &&
  401672:	4b24      	ldr	r3, [pc, #144]	; (401704 <sd_mmc_check+0x484>)
  401674:	681b      	ldr	r3, [r3, #0]
  401676:	7bdb      	ldrb	r3, [r3, #15]
  401678:	f003 0309 	and.w	r3, r3, #9
  40167c:	2b01      	cmp	r3, #1
  40167e:	f47f ae42 	bne.w	401306 <sd_mmc_check+0x86>
  401682:	e638      	b.n	4012f6 <sd_mmc_check+0x76>
		sd_mmc_card->version = CARD_VER_SD_1_10;
  401684:	4b1f      	ldr	r3, [pc, #124]	; (401704 <sd_mmc_check+0x484>)
  401686:	681b      	ldr	r3, [r3, #0]
  401688:	221a      	movs	r2, #26
  40168a:	741a      	strb	r2, [r3, #16]
  40168c:	e7f1      	b.n	401672 <sd_mmc_check+0x3f2>
		if (SD_SCR_SD_SPEC3(scr) == SD_SCR_SD_SPEC_3_00) {
  40168e:	f89d 3012 	ldrb.w	r3, [sp, #18]
  401692:	09db      	lsrs	r3, r3, #7
			sd_mmc_card->version = CARD_VER_SD_3_0;
  401694:	4b1b      	ldr	r3, [pc, #108]	; (401704 <sd_mmc_check+0x484>)
  401696:	681b      	ldr	r3, [r3, #0]
  401698:	bf14      	ite	ne
  40169a:	2230      	movne	r2, #48	; 0x30
			sd_mmc_card->version = CARD_VER_SD_2_0;
  40169c:	2220      	moveq	r2, #32
  40169e:	741a      	strb	r2, [r3, #16]
  4016a0:	e7e7      	b.n	401672 <sd_mmc_check+0x3f2>
	*v2 = 0;
  4016a2:	2700      	movs	r7, #0
  4016a4:	e619      	b.n	4012da <sd_mmc_check+0x5a>
  4016a6:	07bf      	lsls	r7, r7, #30
	if (sd_mmc_card->type & CARD_TYPE_SD) {
  4016a8:	f641 35ef 	movw	r5, #7151	; 0x1bef
		if (!driver_send_cmd(SDMMC_CMD55_APP_CMD, 0)) {
  4016ac:	f04f 0800 	mov.w	r8, #0
  4016b0:	4e15      	ldr	r6, [pc, #84]	; (401708 <sd_mmc_check+0x488>)
		resp = driver_get_response();
  4016b2:	f8df 9060 	ldr.w	r9, [pc, #96]	; 401714 <sd_mmc_check+0x494>
		if (!driver_send_cmd(SDMMC_CMD55_APP_CMD, 0)) {
  4016b6:	4641      	mov	r1, r8
  4016b8:	f241 1037 	movw	r0, #4407	; 0x1137
  4016bc:	47b0      	blx	r6
  4016be:	2800      	cmp	r0, #0
  4016c0:	f43f ae47 	beq.w	401352 <sd_mmc_check+0xd2>
		if (!driver_send_cmd(SD_SPI_ACMD41_SD_SEND_OP_COND, arg)) {
  4016c4:	4639      	mov	r1, r7
  4016c6:	f241 1029 	movw	r0, #4393	; 0x1129
  4016ca:	47b0      	blx	r6
  4016cc:	2800      	cmp	r0, #0
  4016ce:	f43f ae40 	beq.w	401352 <sd_mmc_check+0xd2>
		resp = driver_get_response();
  4016d2:	47c8      	blx	r9
		if (!(resp & R1_SPI_IDLE)) {
  4016d4:	f010 0f01 	tst.w	r0, #1
  4016d8:	f43f ae35 	beq.w	401346 <sd_mmc_check+0xc6>
		if (retry-- == 0) {
  4016dc:	3d01      	subs	r5, #1
  4016de:	d1ea      	bne.n	4016b6 <sd_mmc_check+0x436>
  4016e0:	e637      	b.n	401352 <sd_mmc_check+0xd2>
	if ((sd_mmc_card->type & CARD_TYPE_SD) &&
  4016e2:	f003 0309 	and.w	r3, r3, #9
  4016e6:	2b01      	cmp	r3, #1
  4016e8:	f47f ae17 	bne.w	40131a <sd_mmc_check+0x9a>
  4016ec:	e603      	b.n	4012f6 <sd_mmc_check+0x76>
  4016ee:	bf00      	nop
  4016f0:	00407c4c 	.word	0x00407c4c
  4016f4:	00407c0c 	.word	0x00407c0c
  4016f8:	00081108 	.word	0x00081108
  4016fc:	004018a1 	.word	0x004018a1
  401700:	00401a4d 	.word	0x00401a4d
  401704:	2000106c 	.word	0x2000106c
  401708:	00401a29 	.word	0x00401a29
  40170c:	004011b1 	.word	0x004011b1
  401710:	00401089 	.word	0x00401089
  401714:	00401a41 	.word	0x00401a41

00401718 <sd_mmc_spi_wait_busy>:
 * \brief Wait the end of busy on DAT0 line
 *
 * \return true if success, otherwise false
 */
static bool sd_mmc_spi_wait_busy(void)
{
  401718:	b570      	push	{r4, r5, r6, lr}
  40171a:	b082      	sub	sp, #8
	uint8_t line = 0xFF;
  40171c:	ac02      	add	r4, sp, #8
  40171e:	23ff      	movs	r3, #255	; 0xff
  401720:	f804 3d01 	strb.w	r3, [r4, #-1]!

	/* Delay before check busy
	 * Nbr timing minimum = 8 cylces
	 */
	sd_mmc_spi_drv_read_packet(SD_MMC_SPI, &line, 1);
  401724:	4e0f      	ldr	r6, [pc, #60]	; (401764 <sd_mmc_spi_wait_busy+0x4c>)
  401726:	2201      	movs	r2, #1
  401728:	4621      	mov	r1, r4
  40172a:	4630      	mov	r0, r6
  40172c:	4d0e      	ldr	r5, [pc, #56]	; (401768 <sd_mmc_spi_wait_busy+0x50>)
  40172e:	47a8      	blx	r5
	 * Nec timing: 0 to unlimited
	 * However a timeout is used.
	 * 200 000 * 8 cycles
	 */
	uint32_t nec_timeout = 200000;
	sd_mmc_spi_drv_read_packet(SD_MMC_SPI, &line, 1);
  401730:	2201      	movs	r2, #1
  401732:	4621      	mov	r1, r4
  401734:	4630      	mov	r0, r6
  401736:	47a8      	blx	r5
	do {
		sd_mmc_spi_drv_read_packet(SD_MMC_SPI, &line, 1);
  401738:	2201      	movs	r2, #1
  40173a:	4621      	mov	r1, r4
  40173c:	4630      	mov	r0, r6
  40173e:	47a8      	blx	r5
  401740:	4c0a      	ldr	r4, [pc, #40]	; (40176c <sd_mmc_spi_wait_busy+0x54>)
		if (!(nec_timeout--)) {
			return false;
		}
	} while (line != 0xFF);
  401742:	f89d 3007 	ldrb.w	r3, [sp, #7]
  401746:	2bff      	cmp	r3, #255	; 0xff
  401748:	d008      	beq.n	40175c <sd_mmc_spi_wait_busy+0x44>
		sd_mmc_spi_drv_read_packet(SD_MMC_SPI, &line, 1);
  40174a:	2201      	movs	r2, #1
  40174c:	f10d 0107 	add.w	r1, sp, #7
  401750:	4630      	mov	r0, r6
  401752:	47a8      	blx	r5
		if (!(nec_timeout--)) {
  401754:	3c01      	subs	r4, #1
  401756:	d1f4      	bne.n	401742 <sd_mmc_spi_wait_busy+0x2a>
			return false;
  401758:	2000      	movs	r0, #0
  40175a:	e000      	b.n	40175e <sd_mmc_spi_wait_busy+0x46>
	return true;
  40175c:	2001      	movs	r0, #1
}
  40175e:	b002      	add	sp, #8
  401760:	bd70      	pop	{r4, r5, r6, pc}
  401762:	bf00      	nop
  401764:	40008000 	.word	0x40008000
  401768:	00401cfd 	.word	0x00401cfd
  40176c:	00030d40 	.word	0x00030d40

00401770 <sd_mmc_spi_start_read_block>:
 *
 * \return true if success, otherwise false
 *         with a update of \ref sd_mmc_spi_err.
 */
static bool sd_mmc_spi_start_read_block(void)
{
  401770:	b5f0      	push	{r4, r5, r6, r7, lr}
  401772:	b083      	sub	sp, #12
	 * Compute the maximum timeout:
	 * Frequency maximum = 25MHz
	 * 1 byte = 8 cycles
	 * 100ms = 312500 x sd_mmc_spi_drv_read_packet() maximum
	 */
	token = 0;
  401774:	ad02      	add	r5, sp, #8
  401776:	2300      	movs	r3, #0
  401778:	f805 3d01 	strb.w	r3, [r5, #-1]!
  40177c:	4c10      	ldr	r4, [pc, #64]	; (4017c0 <sd_mmc_spi_start_read_block+0x50>)
		if (i-- == 0) {
			sd_mmc_spi_err = SD_MMC_SPI_ERR_READ_TIMEOUT;
			sd_mmc_spi_debug("%s: Read blocks timeout\n\r", __func__);
			return false;
		}
		sd_mmc_spi_drv_read_packet(SD_MMC_SPI, &token, 1);
  40177e:	4f11      	ldr	r7, [pc, #68]	; (4017c4 <sd_mmc_spi_start_read_block+0x54>)
  401780:	4e11      	ldr	r6, [pc, #68]	; (4017c8 <sd_mmc_spi_start_read_block+0x58>)
  401782:	2201      	movs	r2, #1
  401784:	4629      	mov	r1, r5
  401786:	4638      	mov	r0, r7
  401788:	47b0      	blx	r6
		if (SPI_TOKEN_DATA_ERROR_VALID(token)) {
  40178a:	f89d 3007 	ldrb.w	r3, [sp, #7]
  40178e:	f013 0ff0 	tst.w	r3, #240	; 0xf0
  401792:	d008      	beq.n	4017a6 <sd_mmc_spi_start_read_block+0x36>
				sd_mmc_spi_debug("%s: Out of range data error token\n\r", __func__);
				sd_mmc_spi_err = SD_MMC_SPI_ERR_OUT_OF_RANGE;
			}
			return false;
		}
	} while (token != SPI_TOKEN_SINGLE_MULTI_READ);
  401794:	2bfe      	cmp	r3, #254	; 0xfe
  401796:	d010      	beq.n	4017ba <sd_mmc_spi_start_read_block+0x4a>
		if (i-- == 0) {
  401798:	3c01      	subs	r4, #1
  40179a:	d1f2      	bne.n	401782 <sd_mmc_spi_start_read_block+0x12>
			sd_mmc_spi_err = SD_MMC_SPI_ERR_READ_TIMEOUT;
  40179c:	2204      	movs	r2, #4
  40179e:	4b0b      	ldr	r3, [pc, #44]	; (4017cc <sd_mmc_spi_start_read_block+0x5c>)
  4017a0:	701a      	strb	r2, [r3, #0]
			return false;
  4017a2:	2000      	movs	r0, #0
  4017a4:	e007      	b.n	4017b6 <sd_mmc_spi_start_read_block+0x46>
			if (token & (SPI_TOKEN_DATA_ERROR_ERROR
  4017a6:	f013 0f07 	tst.w	r3, #7
				sd_mmc_spi_err = SD_MMC_SPI_ERR_READ_CRC;
  4017aa:	bf14      	ite	ne
  4017ac:	2207      	movne	r2, #7
				sd_mmc_spi_err = SD_MMC_SPI_ERR_OUT_OF_RANGE;
  4017ae:	220b      	moveq	r2, #11
  4017b0:	4b06      	ldr	r3, [pc, #24]	; (4017cc <sd_mmc_spi_start_read_block+0x5c>)
  4017b2:	701a      	strb	r2, [r3, #0]
			return false;
  4017b4:	2000      	movs	r0, #0

	return true;
}
  4017b6:	b003      	add	sp, #12
  4017b8:	bdf0      	pop	{r4, r5, r6, r7, pc}
	return true;
  4017ba:	2001      	movs	r0, #1
  4017bc:	e7fb      	b.n	4017b6 <sd_mmc_spi_start_read_block+0x46>
  4017be:	bf00      	nop
  4017c0:	0007a120 	.word	0x0007a120
  4017c4:	40008000 	.word	0x40008000
  4017c8:	00401cfd 	.word	0x00401cfd
  4017cc:	20001074 	.word	0x20001074

004017d0 <sd_mmc_spi_init>:
	return sd_mmc_spi_err;
}

void sd_mmc_spi_init(void)
{
	sd_mmc_spi_err = SD_MMC_SPI_NO_ERR;
  4017d0:	2200      	movs	r2, #0
  4017d2:	4b08      	ldr	r3, [pc, #32]	; (4017f4 <sd_mmc_spi_init+0x24>)
  4017d4:	701a      	strb	r2, [r3, #0]
	if (p_spi->SPI_SR & SPI_SR_SPIENS) {
  4017d6:	4b08      	ldr	r3, [pc, #32]	; (4017f8 <sd_mmc_spi_init+0x28>)
  4017d8:	691b      	ldr	r3, [r3, #16]
	// Initialize SPI interface and enable it
#if defined(SD_MMC_SPI_USES_USART_SPI_SERVICE)
		usart_spi_init(SD_MMC_SPI);
#else
	if (!spi_is_enabled(SD_MMC_SPI)) {
  4017da:	f413 3f80 	tst.w	r3, #65536	; 0x10000
  4017de:	d000      	beq.n	4017e2 <sd_mmc_spi_init+0x12>
  4017e0:	4770      	bx	lr
{
  4017e2:	b510      	push	{r4, lr}
		spi_master_init(SD_MMC_SPI);
  4017e4:	4c04      	ldr	r4, [pc, #16]	; (4017f8 <sd_mmc_spi_init+0x28>)
  4017e6:	4620      	mov	r0, r4
  4017e8:	4b04      	ldr	r3, [pc, #16]	; (4017fc <sd_mmc_spi_init+0x2c>)
  4017ea:	4798      	blx	r3
	p_spi->SPI_CR = SPI_CR_SPIEN;
  4017ec:	2301      	movs	r3, #1
  4017ee:	6023      	str	r3, [r4, #0]
  4017f0:	bd10      	pop	{r4, pc}
  4017f2:	bf00      	nop
  4017f4:	20001074 	.word	0x20001074
  4017f8:	40008000 	.word	0x40008000
  4017fc:	00401ba5 	.word	0x00401ba5

00401800 <sd_mmc_spi_select_device>:
#endif
}

void sd_mmc_spi_select_device(uint8_t slot, uint32_t clock, uint8_t bus_width,
		bool high_speed)
{
  401800:	b570      	push	{r4, r5, r6, lr}
  401802:	b082      	sub	sp, #8
	UNUSED(bus_width);
	UNUSED(high_speed);
	sd_mmc_spi_err = SD_MMC_SPI_NO_ERR;
  401804:	2200      	movs	r2, #0
  401806:	4b09      	ldr	r3, [pc, #36]	; (40182c <sd_mmc_spi_select_device+0x2c>)
  401808:	701a      	strb	r2, [r3, #0]
	if (clock > SD_MMC_SPI_MAX_CLOCK) {
		clock = SD_MMC_SPI_MAX_CLOCK;
	}
#endif

	sd_mmc_spi_drv_setup_device(SD_MMC_SPI, &sd_mmc_spi_devices[slot],
  40180a:	4c09      	ldr	r4, [pc, #36]	; (401830 <sd_mmc_spi_select_device+0x30>)
  40180c:	eb04 0480 	add.w	r4, r4, r0, lsl #2
  401810:	4d08      	ldr	r5, [pc, #32]	; (401834 <sd_mmc_spi_select_device+0x34>)
  401812:	9200      	str	r2, [sp, #0]
  401814:	460b      	mov	r3, r1
  401816:	4621      	mov	r1, r4
  401818:	4628      	mov	r0, r5
  40181a:	4e07      	ldr	r6, [pc, #28]	; (401838 <sd_mmc_spi_select_device+0x38>)
  40181c:	47b0      	blx	r6
			SPI_MODE_0, clock, 0);
	sd_mmc_spi_drv_select_device(SD_MMC_SPI, &sd_mmc_spi_devices[slot]);
  40181e:	4621      	mov	r1, r4
  401820:	4628      	mov	r0, r5
  401822:	4b06      	ldr	r3, [pc, #24]	; (40183c <sd_mmc_spi_select_device+0x3c>)
  401824:	4798      	blx	r3
}
  401826:	b002      	add	sp, #8
  401828:	bd70      	pop	{r4, r5, r6, pc}
  40182a:	bf00      	nop
  40182c:	20001074 	.word	0x20001074
  401830:	2000044c 	.word	0x2000044c
  401834:	40008000 	.word	0x40008000
  401838:	00401bf9 	.word	0x00401bf9
  40183c:	00401c79 	.word	0x00401c79

00401840 <sd_mmc_spi_deselect_device>:

void sd_mmc_spi_deselect_device(uint8_t slot)
{
  401840:	b508      	push	{r3, lr}
	sd_mmc_spi_err = SD_MMC_SPI_NO_ERR;
  401842:	2200      	movs	r2, #0
  401844:	4b04      	ldr	r3, [pc, #16]	; (401858 <sd_mmc_spi_deselect_device+0x18>)
  401846:	701a      	strb	r2, [r3, #0]
	sd_mmc_spi_drv_deselect_device(SD_MMC_SPI, &sd_mmc_spi_devices[slot]);
  401848:	4904      	ldr	r1, [pc, #16]	; (40185c <sd_mmc_spi_deselect_device+0x1c>)
  40184a:	eb01 0180 	add.w	r1, r1, r0, lsl #2
  40184e:	4804      	ldr	r0, [pc, #16]	; (401860 <sd_mmc_spi_deselect_device+0x20>)
  401850:	4b04      	ldr	r3, [pc, #16]	; (401864 <sd_mmc_spi_deselect_device+0x24>)
  401852:	4798      	blx	r3
  401854:	bd08      	pop	{r3, pc}
  401856:	bf00      	nop
  401858:	20001074 	.word	0x20001074
  40185c:	2000044c 	.word	0x2000044c
  401860:	40008000 	.word	0x40008000
  401864:	00401ca9 	.word	0x00401ca9

00401868 <sd_mmc_spi_send_clock>:
}

void sd_mmc_spi_send_clock(void)
{
  401868:	b5f0      	push	{r4, r5, r6, r7, lr}
  40186a:	b083      	sub	sp, #12
	uint8_t i;
	uint8_t dummy = 0xFF;
  40186c:	ad02      	add	r5, sp, #8
  40186e:	23ff      	movs	r3, #255	; 0xff
  401870:	f805 3d01 	strb.w	r3, [r5, #-1]!

	sd_mmc_spi_err = SD_MMC_SPI_NO_ERR;
  401874:	2200      	movs	r2, #0
  401876:	4b07      	ldr	r3, [pc, #28]	; (401894 <sd_mmc_spi_send_clock+0x2c>)
  401878:	701a      	strb	r2, [r3, #0]
  40187a:	240a      	movs	r4, #10
	//! Send 80 cycles
	for (i = 0; i < 10; i++) {
		sd_mmc_spi_drv_write_packet(SD_MMC_SPI, &dummy, 1); // 8 cycles
  40187c:	4f06      	ldr	r7, [pc, #24]	; (401898 <sd_mmc_spi_send_clock+0x30>)
  40187e:	4e07      	ldr	r6, [pc, #28]	; (40189c <sd_mmc_spi_send_clock+0x34>)
  401880:	2201      	movs	r2, #1
  401882:	4629      	mov	r1, r5
  401884:	4638      	mov	r0, r7
  401886:	47b0      	blx	r6
  401888:	1e63      	subs	r3, r4, #1
	for (i = 0; i < 10; i++) {
  40188a:	f013 04ff 	ands.w	r4, r3, #255	; 0xff
  40188e:	d1f7      	bne.n	401880 <sd_mmc_spi_send_clock+0x18>
	}
}
  401890:	b003      	add	sp, #12
  401892:	bdf0      	pop	{r4, r5, r6, r7, pc}
  401894:	20001074 	.word	0x20001074
  401898:	40008000 	.word	0x40008000
  40189c:	00401cc9 	.word	0x00401cc9

004018a0 <sd_mmc_spi_adtc_start>:
	return sd_mmc_spi_adtc_start(cmd, arg, 0, 0, false);
}

bool sd_mmc_spi_adtc_start(sdmmc_cmd_def_t cmd, uint32_t arg,
		uint16_t block_size, uint16_t nb_block, bool access_block)
{
  4018a0:	e92d 43f0 	stmdb	sp!, {r4, r5, r6, r7, r8, r9, lr}
  4018a4:	b085      	sub	sp, #20
  4018a6:	4604      	mov	r4, r0
  4018a8:	4691      	mov	r9, r2
  4018aa:	4698      	mov	r8, r3
	uint8_t dummy = 0xFF;
  4018ac:	23ff      	movs	r3, #255	; 0xff
  4018ae:	f88d 300f 	strb.w	r3, [sp, #15]
	uint8_t ncr_timeout;
	uint8_t r1; //! R1 response

	UNUSED(access_block);
	Assert(cmd & SDMMC_RESP_PRESENT); // Always a response in SPI mode
	sd_mmc_spi_err = SD_MMC_SPI_NO_ERR;
  4018b2:	2300      	movs	r3, #0
  4018b4:	4a53      	ldr	r2, [pc, #332]	; (401a04 <sd_mmc_spi_adtc_start+0x164>)
  4018b6:	7013      	strb	r3, [r2, #0]

	// Encode SPI command
	cmd_token[0] = SPI_CMD_ENCODE(SDMMC_CMD_GET_INDEX(cmd));
  4018b8:	f000 023f 	and.w	r2, r0, #63	; 0x3f
  4018bc:	f042 0240 	orr.w	r2, r2, #64	; 0x40
  4018c0:	f88d 2008 	strb.w	r2, [sp, #8]
	cmd_token[1] = arg >> 24;
  4018c4:	0e0a      	lsrs	r2, r1, #24
  4018c6:	f88d 2009 	strb.w	r2, [sp, #9]
	cmd_token[2] = arg >> 16;
  4018ca:	0c0a      	lsrs	r2, r1, #16
  4018cc:	f88d 200a 	strb.w	r2, [sp, #10]
	cmd_token[3] = arg >> 8;
  4018d0:	0a0a      	lsrs	r2, r1, #8
  4018d2:	f88d 200b 	strb.w	r2, [sp, #11]
	cmd_token[4] = arg;
  4018d6:	f88d 100c 	strb.w	r1, [sp, #12]
  4018da:	af02      	add	r7, sp, #8
		value = *buf++;
  4018dc:	f04f 0c08 	mov.w	ip, #8
	while (size--) {
  4018e0:	f10d 0e0d 	add.w	lr, sp, #13
  4018e4:	e001      	b.n	4018ea <sd_mmc_spi_adtc_start+0x4a>
  4018e6:	4577      	cmp	r7, lr
  4018e8:	d012      	beq.n	401910 <sd_mmc_spi_adtc_start+0x70>
		value = *buf++;
  4018ea:	f817 1b01 	ldrb.w	r1, [r7], #1
  4018ee:	4662      	mov	r2, ip
			crc <<= 1;
  4018f0:	005b      	lsls	r3, r3, #1
  4018f2:	b2db      	uxtb	r3, r3
			if ((value & 0x80) ^ (crc & 0x80)) {
  4018f4:	ea83 0001 	eor.w	r0, r3, r1
  4018f8:	f010 0f80 	tst.w	r0, #128	; 0x80
				crc ^= 0x09;
  4018fc:	bf18      	it	ne
  4018fe:	f083 0309 	eorne.w	r3, r3, #9
			value <<= 1;
  401902:	0049      	lsls	r1, r1, #1
  401904:	b2c9      	uxtb	r1, r1
  401906:	3a01      	subs	r2, #1
		for (i = 0; i < 8; i++) {
  401908:	f012 02ff 	ands.w	r2, r2, #255	; 0xff
  40190c:	d1f0      	bne.n	4018f0 <sd_mmc_spi_adtc_start+0x50>
  40190e:	e7ea      	b.n	4018e6 <sd_mmc_spi_adtc_start+0x46>
	crc = (crc << 1) | 1;
  401910:	005b      	lsls	r3, r3, #1
  401912:	f043 0301 	orr.w	r3, r3, #1
	cmd_token[5] = sd_mmc_spi_crc7(cmd_token, 5);
  401916:	f88d 300d 	strb.w	r3, [sp, #13]

	// 8 cycles to respect Ncs timing
	// Note: This byte does not include start bit "0",
	// thus it is ignored by card.
	sd_mmc_spi_drv_write_packet(SD_MMC_SPI, &dummy, 1);
  40191a:	4f3b      	ldr	r7, [pc, #236]	; (401a08 <sd_mmc_spi_adtc_start+0x168>)
  40191c:	2201      	movs	r2, #1
  40191e:	f10d 010f 	add.w	r1, sp, #15
  401922:	4638      	mov	r0, r7
  401924:	4d39      	ldr	r5, [pc, #228]	; (401a0c <sd_mmc_spi_adtc_start+0x16c>)
  401926:	47a8      	blx	r5
	// Send command
	sd_mmc_spi_drv_write_packet(SD_MMC_SPI, cmd_token, sizeof(cmd_token));
  401928:	2206      	movs	r2, #6
  40192a:	a902      	add	r1, sp, #8
  40192c:	4638      	mov	r0, r7
  40192e:	47a8      	blx	r5

	// Wait for response
	// Two retry will be done to manage the Ncr timing between command and reponse
	// Ncr: Min. 1x8 clock  cycle, Max. 8x8 clock cycles
	// WORKAROUND for no compliance card (Atmel Internal ref. SD13):
	r1 = 0xFF;
  401930:	a904      	add	r1, sp, #16
  401932:	23ff      	movs	r3, #255	; 0xff
  401934:	f801 3d09 	strb.w	r3, [r1, #-9]!
	// Ignore first byte because Ncr min. = 8 clock cylces
	sd_mmc_spi_drv_read_packet(SD_MMC_SPI, &r1, 1);
  401938:	2201      	movs	r2, #1
  40193a:	4638      	mov	r0, r7
  40193c:	4b34      	ldr	r3, [pc, #208]	; (401a10 <sd_mmc_spi_adtc_start+0x170>)
  40193e:	4798      	blx	r3
  401940:	2707      	movs	r7, #7
	ncr_timeout = 7;
	while (1) {
		sd_mmc_spi_drv_read_packet(SD_MMC_SPI, &r1, 1); // 8 cycles
  401942:	4e31      	ldr	r6, [pc, #196]	; (401a08 <sd_mmc_spi_adtc_start+0x168>)
  401944:	4d32      	ldr	r5, [pc, #200]	; (401a10 <sd_mmc_spi_adtc_start+0x170>)
  401946:	2201      	movs	r2, #1
  401948:	f10d 0107 	add.w	r1, sp, #7
  40194c:	4630      	mov	r0, r6
  40194e:	47a8      	blx	r5
		if ((r1 & R1_SPI_ERROR) == 0) {
  401950:	f89d 3007 	ldrb.w	r3, [sp, #7]
  401954:	f013 0f80 	tst.w	r3, #128	; 0x80
  401958:	d00b      	beq.n	401972 <sd_mmc_spi_adtc_start+0xd2>
  40195a:	1e7b      	subs	r3, r7, #1
			// Valid R1 response
			break;
		}
		if (--ncr_timeout == 0) {
  40195c:	f013 07ff 	ands.w	r7, r3, #255	; 0xff
  401960:	d1f1      	bne.n	401946 <sd_mmc_spi_adtc_start+0xa6>
			// Here Valid R1 response received
			sd_mmc_spi_debug("%s: cmd %02d, arg 0x%08lX, R1 timeout\n\r",
					__func__, (int)SDMMC_CMD_GET_INDEX(cmd), arg);
			sd_mmc_spi_err = SD_MMC_SPI_ERR_RESP_TIMEOUT;
  401962:	2202      	movs	r2, #2
  401964:	4b27      	ldr	r3, [pc, #156]	; (401a04 <sd_mmc_spi_adtc_start+0x164>)
  401966:	701a      	strb	r2, [r3, #0]
			return false;
  401968:	2300      	movs	r3, #0

	sd_mmc_spi_block_size = block_size;
	sd_mmc_spi_nb_block = nb_block;
	sd_mmc_spi_transfert_pos = 0;
	return true; // Command complete
}
  40196a:	4618      	mov	r0, r3
  40196c:	b005      	add	sp, #20
  40196e:	e8bd 83f0 	ldmia.w	sp!, {r4, r5, r6, r7, r8, r9, pc}
	sd_mmc_spi_response_32 = r1;
  401972:	4a28      	ldr	r2, [pc, #160]	; (401a14 <sd_mmc_spi_adtc_start+0x174>)
  401974:	6013      	str	r3, [r2, #0]
	if (r1 & R1_SPI_COM_CRC) {
  401976:	f013 0f08 	tst.w	r3, #8
  40197a:	d119      	bne.n	4019b0 <sd_mmc_spi_adtc_start+0x110>
	if (r1 & R1_SPI_ILLEGAL_COMMAND) {
  40197c:	f013 0f04 	tst.w	r3, #4
  401980:	d11b      	bne.n	4019ba <sd_mmc_spi_adtc_start+0x11a>
	if (r1 & ~R1_SPI_IDLE) {
  401982:	f033 0301 	bics.w	r3, r3, #1
  401986:	d11d      	bne.n	4019c4 <sd_mmc_spi_adtc_start+0x124>
	if (cmd & SDMMC_RESP_BUSY) {
  401988:	f414 5f00 	tst.w	r4, #8192	; 0x2000
  40198c:	d11f      	bne.n	4019ce <sd_mmc_spi_adtc_start+0x12e>
	if (cmd & SDMMC_RESP_8) {
  40198e:	f414 7f00 	tst.w	r4, #512	; 0x200
  401992:	d125      	bne.n	4019e0 <sd_mmc_spi_adtc_start+0x140>
	if (cmd & SDMMC_RESP_32) {
  401994:	f414 6f80 	tst.w	r4, #1024	; 0x400
  401998:	d12a      	bne.n	4019f0 <sd_mmc_spi_adtc_start+0x150>
	sd_mmc_spi_block_size = block_size;
  40199a:	4b1f      	ldr	r3, [pc, #124]	; (401a18 <sd_mmc_spi_adtc_start+0x178>)
  40199c:	f8a3 9000 	strh.w	r9, [r3]
	sd_mmc_spi_nb_block = nb_block;
  4019a0:	4b1e      	ldr	r3, [pc, #120]	; (401a1c <sd_mmc_spi_adtc_start+0x17c>)
  4019a2:	f8a3 8000 	strh.w	r8, [r3]
	sd_mmc_spi_transfert_pos = 0;
  4019a6:	2200      	movs	r2, #0
  4019a8:	4b1d      	ldr	r3, [pc, #116]	; (401a20 <sd_mmc_spi_adtc_start+0x180>)
  4019aa:	601a      	str	r2, [r3, #0]
	return true; // Command complete
  4019ac:	2301      	movs	r3, #1
  4019ae:	e7dc      	b.n	40196a <sd_mmc_spi_adtc_start+0xca>
		sd_mmc_spi_err = SD_MMC_SPI_ERR_RESP_CRC;
  4019b0:	2206      	movs	r2, #6
  4019b2:	4b14      	ldr	r3, [pc, #80]	; (401a04 <sd_mmc_spi_adtc_start+0x164>)
  4019b4:	701a      	strb	r2, [r3, #0]
		return false;
  4019b6:	2300      	movs	r3, #0
  4019b8:	e7d7      	b.n	40196a <sd_mmc_spi_adtc_start+0xca>
		sd_mmc_spi_err = SD_MMC_SPI_ERR_ILLEGAL_COMMAND;
  4019ba:	2209      	movs	r2, #9
  4019bc:	4b11      	ldr	r3, [pc, #68]	; (401a04 <sd_mmc_spi_adtc_start+0x164>)
  4019be:	701a      	strb	r2, [r3, #0]
		return false;
  4019c0:	2300      	movs	r3, #0
  4019c2:	e7d2      	b.n	40196a <sd_mmc_spi_adtc_start+0xca>
		sd_mmc_spi_err = SD_MMC_SPI_ERR;
  4019c4:	2201      	movs	r2, #1
  4019c6:	4b0f      	ldr	r3, [pc, #60]	; (401a04 <sd_mmc_spi_adtc_start+0x164>)
  4019c8:	701a      	strb	r2, [r3, #0]
		return false;
  4019ca:	2300      	movs	r3, #0
  4019cc:	e7cd      	b.n	40196a <sd_mmc_spi_adtc_start+0xca>
		if (!sd_mmc_spi_wait_busy()) {
  4019ce:	4b15      	ldr	r3, [pc, #84]	; (401a24 <sd_mmc_spi_adtc_start+0x184>)
  4019d0:	4798      	blx	r3
  4019d2:	4603      	mov	r3, r0
  4019d4:	2800      	cmp	r0, #0
  4019d6:	d1da      	bne.n	40198e <sd_mmc_spi_adtc_start+0xee>
			sd_mmc_spi_err = SD_MMC_SPI_ERR_RESP_BUSY_TIMEOUT;
  4019d8:	2103      	movs	r1, #3
  4019da:	4a0a      	ldr	r2, [pc, #40]	; (401a04 <sd_mmc_spi_adtc_start+0x164>)
  4019dc:	7011      	strb	r1, [r2, #0]
			return false;
  4019de:	e7c4      	b.n	40196a <sd_mmc_spi_adtc_start+0xca>
		sd_mmc_spi_response_32 = 0;
  4019e0:	490c      	ldr	r1, [pc, #48]	; (401a14 <sd_mmc_spi_adtc_start+0x174>)
  4019e2:	2300      	movs	r3, #0
  4019e4:	600b      	str	r3, [r1, #0]
		sd_mmc_spi_drv_read_packet(SD_MMC_SPI, (uint8_t*) & sd_mmc_spi_response_32, 1);
  4019e6:	2201      	movs	r2, #1
  4019e8:	4807      	ldr	r0, [pc, #28]	; (401a08 <sd_mmc_spi_adtc_start+0x168>)
  4019ea:	4b09      	ldr	r3, [pc, #36]	; (401a10 <sd_mmc_spi_adtc_start+0x170>)
  4019ec:	4798      	blx	r3
  4019ee:	e7d1      	b.n	401994 <sd_mmc_spi_adtc_start+0xf4>
		sd_mmc_spi_drv_read_packet(SD_MMC_SPI, (uint8_t*) & sd_mmc_spi_response_32, 4);
  4019f0:	4c08      	ldr	r4, [pc, #32]	; (401a14 <sd_mmc_spi_adtc_start+0x174>)
  4019f2:	2204      	movs	r2, #4
  4019f4:	4621      	mov	r1, r4
  4019f6:	4804      	ldr	r0, [pc, #16]	; (401a08 <sd_mmc_spi_adtc_start+0x168>)
  4019f8:	4b05      	ldr	r3, [pc, #20]	; (401a10 <sd_mmc_spi_adtc_start+0x170>)
  4019fa:	4798      	blx	r3
		sd_mmc_spi_response_32 = be32_to_cpu(sd_mmc_spi_response_32);
  4019fc:	6823      	ldr	r3, [r4, #0]
  4019fe:	ba1b      	rev	r3, r3
  401a00:	6023      	str	r3, [r4, #0]
  401a02:	e7ca      	b.n	40199a <sd_mmc_spi_adtc_start+0xfa>
  401a04:	20001074 	.word	0x20001074
  401a08:	40008000 	.word	0x40008000
  401a0c:	00401cc9 	.word	0x00401cc9
  401a10:	00401cfd 	.word	0x00401cfd
  401a14:	20001078 	.word	0x20001078
  401a18:	20001072 	.word	0x20001072
  401a1c:	20001076 	.word	0x20001076
  401a20:	2000107c 	.word	0x2000107c
  401a24:	00401719 	.word	0x00401719

00401a28 <sd_mmc_spi_send_cmd>:
{
  401a28:	b510      	push	{r4, lr}
  401a2a:	b082      	sub	sp, #8
	return sd_mmc_spi_adtc_start(cmd, arg, 0, 0, false);
  401a2c:	2200      	movs	r2, #0
  401a2e:	9200      	str	r2, [sp, #0]
  401a30:	4613      	mov	r3, r2
  401a32:	4c02      	ldr	r4, [pc, #8]	; (401a3c <sd_mmc_spi_send_cmd+0x14>)
  401a34:	47a0      	blx	r4
}
  401a36:	b002      	add	sp, #8
  401a38:	bd10      	pop	{r4, pc}
  401a3a:	bf00      	nop
  401a3c:	004018a1 	.word	0x004018a1

00401a40 <sd_mmc_spi_get_response>:

uint32_t sd_mmc_spi_get_response(void)
{
	return sd_mmc_spi_response_32;
}
  401a40:	4b01      	ldr	r3, [pc, #4]	; (401a48 <sd_mmc_spi_get_response+0x8>)
  401a42:	6818      	ldr	r0, [r3, #0]
  401a44:	4770      	bx	lr
  401a46:	bf00      	nop
  401a48:	20001078 	.word	0x20001078

00401a4c <sd_mmc_spi_read_word>:

bool sd_mmc_spi_read_word(uint32_t* value)
{
  401a4c:	b510      	push	{r4, lr}
  401a4e:	b082      	sub	sp, #8
  401a50:	4604      	mov	r4, r0
	sd_mmc_spi_err = SD_MMC_SPI_NO_ERR;
  401a52:	2200      	movs	r2, #0
  401a54:	4b14      	ldr	r3, [pc, #80]	; (401aa8 <sd_mmc_spi_read_word+0x5c>)
  401a56:	701a      	strb	r2, [r3, #0]
	Assert(sd_mmc_spi_nb_block >
			(sd_mmc_spi_transfert_pos / sd_mmc_spi_block_size));

	if (!(sd_mmc_spi_transfert_pos % sd_mmc_spi_block_size)) {
  401a58:	4b14      	ldr	r3, [pc, #80]	; (401aac <sd_mmc_spi_read_word+0x60>)
  401a5a:	881a      	ldrh	r2, [r3, #0]
  401a5c:	4b14      	ldr	r3, [pc, #80]	; (401ab0 <sd_mmc_spi_read_word+0x64>)
  401a5e:	6819      	ldr	r1, [r3, #0]
  401a60:	fbb1 f3f2 	udiv	r3, r1, r2
  401a64:	fb02 1313 	mls	r3, r2, r3, r1
  401a68:	b91b      	cbnz	r3, 401a72 <sd_mmc_spi_read_word+0x26>
		// New block
		if (!sd_mmc_spi_start_read_block()) {
  401a6a:	4b12      	ldr	r3, [pc, #72]	; (401ab4 <sd_mmc_spi_read_word+0x68>)
  401a6c:	4798      	blx	r3
  401a6e:	4603      	mov	r3, r0
  401a70:	b180      	cbz	r0, 401a94 <sd_mmc_spi_read_word+0x48>
			return false;
		}
	}
	// Read data
	sd_mmc_spi_drv_read_packet(SD_MMC_SPI, (uint8_t*)value, 4);
  401a72:	2204      	movs	r2, #4
  401a74:	4621      	mov	r1, r4
  401a76:	4810      	ldr	r0, [pc, #64]	; (401ab8 <sd_mmc_spi_read_word+0x6c>)
  401a78:	4b10      	ldr	r3, [pc, #64]	; (401abc <sd_mmc_spi_read_word+0x70>)
  401a7a:	4798      	blx	r3
	*value = le32_to_cpu(*value);
	sd_mmc_spi_transfert_pos += 4;
  401a7c:	4a0c      	ldr	r2, [pc, #48]	; (401ab0 <sd_mmc_spi_read_word+0x64>)
  401a7e:	6813      	ldr	r3, [r2, #0]
  401a80:	3304      	adds	r3, #4
  401a82:	6013      	str	r3, [r2, #0]

	if (!(sd_mmc_spi_transfert_pos % sd_mmc_spi_block_size)) {
  401a84:	4a09      	ldr	r2, [pc, #36]	; (401aac <sd_mmc_spi_read_word+0x60>)
  401a86:	8811      	ldrh	r1, [r2, #0]
  401a88:	fbb3 f2f1 	udiv	r2, r3, r1
  401a8c:	fb01 3312 	mls	r3, r1, r2, r3
  401a90:	b11b      	cbz	r3, 401a9a <sd_mmc_spi_read_word+0x4e>
		// End of block
		sd_mmc_spi_stop_read_block();
	}
	return true;
  401a92:	2301      	movs	r3, #1
}
  401a94:	4618      	mov	r0, r3
  401a96:	b002      	add	sp, #8
  401a98:	bd10      	pop	{r4, pc}
	sd_mmc_spi_drv_read_packet(SD_MMC_SPI, crc, 2);
  401a9a:	2202      	movs	r2, #2
  401a9c:	a901      	add	r1, sp, #4
  401a9e:	4806      	ldr	r0, [pc, #24]	; (401ab8 <sd_mmc_spi_read_word+0x6c>)
  401aa0:	4b06      	ldr	r3, [pc, #24]	; (401abc <sd_mmc_spi_read_word+0x70>)
  401aa2:	4798      	blx	r3
	return true;
  401aa4:	2301      	movs	r3, #1
  401aa6:	e7f5      	b.n	401a94 <sd_mmc_spi_read_word+0x48>
  401aa8:	20001074 	.word	0x20001074
  401aac:	20001072 	.word	0x20001072
  401ab0:	2000107c 	.word	0x2000107c
  401ab4:	00401771 	.word	0x00401771
  401ab8:	40008000 	.word	0x40008000
  401abc:	00401cfd 	.word	0x00401cfd

00401ac0 <sd_mmc_spi_start_read_blocks>:
	}
	return sd_mmc_spi_stop_multiwrite_block();
}

bool sd_mmc_spi_start_read_blocks(void *dest, uint16_t nb_block)
{
  401ac0:	e92d 4ff0 	stmdb	sp!, {r4, r5, r6, r7, r8, r9, sl, fp, lr}
  401ac4:	b083      	sub	sp, #12
	uint32_t pos;

	sd_mmc_spi_err = SD_MMC_SPI_NO_ERR;
  401ac6:	2200      	movs	r2, #0
  401ac8:	4b16      	ldr	r3, [pc, #88]	; (401b24 <sd_mmc_spi_start_read_blocks+0x64>)
  401aca:	701a      	strb	r2, [r3, #0]
	pos = 0;
	while (nb_block--) {
  401acc:	b339      	cbz	r1, 401b1e <sd_mmc_spi_start_read_blocks+0x5e>
  401ace:	1e4c      	subs	r4, r1, #1
  401ad0:	b2a4      	uxth	r4, r4
  401ad2:	4681      	mov	r9, r0
  401ad4:	4615      	mov	r5, r2
		Assert(sd_mmc_spi_nb_block >
				(sd_mmc_spi_transfert_pos / sd_mmc_spi_block_size));
		if (!sd_mmc_spi_start_read_block()) {
  401ad6:	f8df b05c 	ldr.w	fp, [pc, #92]	; 401b34 <sd_mmc_spi_start_read_blocks+0x74>
			return false;
		}

		// Read block
		sd_mmc_spi_drv_read_packet(SD_MMC_SPI, &((uint8_t*)dest)[pos], sd_mmc_spi_block_size);
  401ada:	f8df 805c 	ldr.w	r8, [pc, #92]	; 401b38 <sd_mmc_spi_start_read_blocks+0x78>
  401ade:	4f12      	ldr	r7, [pc, #72]	; (401b28 <sd_mmc_spi_start_read_blocks+0x68>)
		if (!sd_mmc_spi_start_read_block()) {
  401ae0:	47d8      	blx	fp
  401ae2:	4682      	mov	sl, r0
  401ae4:	b1b8      	cbz	r0, 401b16 <sd_mmc_spi_start_read_blocks+0x56>
		sd_mmc_spi_drv_read_packet(SD_MMC_SPI, &((uint8_t*)dest)[pos], sd_mmc_spi_block_size);
  401ae6:	f8b8 2000 	ldrh.w	r2, [r8]
  401aea:	eb09 0105 	add.w	r1, r9, r5
  401aee:	4638      	mov	r0, r7
  401af0:	4e0e      	ldr	r6, [pc, #56]	; (401b2c <sd_mmc_spi_start_read_blocks+0x6c>)
  401af2:	47b0      	blx	r6
		pos += sd_mmc_spi_block_size;
  401af4:	f8b8 1000 	ldrh.w	r1, [r8]
  401af8:	440d      	add	r5, r1
		sd_mmc_spi_transfert_pos += sd_mmc_spi_block_size;
  401afa:	4a0d      	ldr	r2, [pc, #52]	; (401b30 <sd_mmc_spi_start_read_blocks+0x70>)
  401afc:	6813      	ldr	r3, [r2, #0]
  401afe:	440b      	add	r3, r1
  401b00:	6013      	str	r3, [r2, #0]
	sd_mmc_spi_drv_read_packet(SD_MMC_SPI, crc, 2);
  401b02:	2202      	movs	r2, #2
  401b04:	a901      	add	r1, sp, #4
  401b06:	4638      	mov	r0, r7
  401b08:	47b0      	blx	r6
	while (nb_block--) {
  401b0a:	3c01      	subs	r4, #1
  401b0c:	b2a4      	uxth	r4, r4
  401b0e:	f64f 73ff 	movw	r3, #65535	; 0xffff
  401b12:	429c      	cmp	r4, r3
  401b14:	d1e4      	bne.n	401ae0 <sd_mmc_spi_start_read_blocks+0x20>

		sd_mmc_spi_stop_read_block();
	}
	return true;
}
  401b16:	4650      	mov	r0, sl
  401b18:	b003      	add	sp, #12
  401b1a:	e8bd 8ff0 	ldmia.w	sp!, {r4, r5, r6, r7, r8, r9, sl, fp, pc}
	return true;
  401b1e:	f04f 0a01 	mov.w	sl, #1
  401b22:	e7f8      	b.n	401b16 <sd_mmc_spi_start_read_blocks+0x56>
  401b24:	20001074 	.word	0x20001074
  401b28:	40008000 	.word	0x40008000
  401b2c:	00401cfd 	.word	0x00401cfd
  401b30:	2000107c 	.word	0x2000107c
  401b34:	00401771 	.word	0x00401771
  401b38:	20001072 	.word	0x20001072

00401b3c <sd_mmc_spi_wait_end_of_read_blocks>:

bool sd_mmc_spi_wait_end_of_read_blocks(void)
{
	return true;
}
  401b3c:	2001      	movs	r0, #1
  401b3e:	4770      	bx	lr

00401b40 <sysclk_init>:
	pmc_disable_udpck();
}
#endif // CONFIG_USBCLK_SOURCE

void sysclk_init(void)
{
  401b40:	b510      	push	{r4, lr}
	/* Set flash wait state to max in case the below clock switching. */
	system_init_flash(CHIP_FREQ_CPU_MAX);
  401b42:	480e      	ldr	r0, [pc, #56]	; (401b7c <sysclk_init+0x3c>)
  401b44:	4b0e      	ldr	r3, [pc, #56]	; (401b80 <sysclk_init+0x40>)
  401b46:	4798      	blx	r3
		pmc_switch_mainck_to_fastrc(CKGR_MOR_MOSCRCF_12_MHz);
		break;


	case OSC_MAINCK_XTAL:
		pmc_switch_mainck_to_xtal(PMC_OSC_XTAL,
  401b48:	213e      	movs	r1, #62	; 0x3e
  401b4a:	2000      	movs	r0, #0
  401b4c:	4b0d      	ldr	r3, [pc, #52]	; (401b84 <sysclk_init+0x44>)
  401b4e:	4798      	blx	r3
	case OSC_MAINCK_4M_RC:
	case OSC_MAINCK_8M_RC:
	case OSC_MAINCK_12M_RC:
	case OSC_MAINCK_XTAL:
	case OSC_MAINCK_BYPASS:
		return pmc_osc_is_ready_mainck();
  401b50:	4c0d      	ldr	r4, [pc, #52]	; (401b88 <sysclk_init+0x48>)
  401b52:	47a0      	blx	r4
 *
 * \param id A number identifying the oscillator to wait for.
 */
static inline void osc_wait_ready(uint8_t id)
{
	while (!osc_is_ready(id)) {
  401b54:	2800      	cmp	r0, #0
  401b56:	d0fc      	beq.n	401b52 <sysclk_init+0x12>
static inline void pll_enable(const struct pll_config *p_cfg, uint32_t ul_pll_id)
{
	Assert(ul_pll_id < NR_PLLS);

	if (ul_pll_id == PLLA_ID) {
		pmc_disable_pllack(); // Always stop PLL first!
  401b58:	4b0c      	ldr	r3, [pc, #48]	; (401b8c <sysclk_init+0x4c>)
  401b5a:	4798      	blx	r3
		PMC->CKGR_PLLAR = CKGR_PLLAR_ONE | p_cfg->ctrl;
  401b5c:	4a0c      	ldr	r2, [pc, #48]	; (401b90 <sysclk_init+0x50>)
  401b5e:	4b0d      	ldr	r3, [pc, #52]	; (401b94 <sysclk_init+0x54>)
  401b60:	629a      	str	r2, [r3, #40]	; 0x28
static inline uint32_t pll_is_locked(uint32_t ul_pll_id)
{
	Assert(ul_pll_id < NR_PLLS);

	if (ul_pll_id == PLLA_ID) {
		return pmc_is_locked_pllack();
  401b62:	4c0d      	ldr	r4, [pc, #52]	; (401b98 <sysclk_init+0x58>)
  401b64:	47a0      	blx	r4
 */
static inline int pll_wait_for_lock(unsigned int pll_id)
{
	Assert(pll_id < NR_PLLS);

	while (!pll_is_locked(pll_id)) {
  401b66:	2800      	cmp	r0, #0
  401b68:	d0fc      	beq.n	401b64 <sysclk_init+0x24>

		pll_enable_source(CONFIG_PLL0_SOURCE);
		pll_config_defaults(&pllcfg, 0);
		pll_enable(&pllcfg, 0);
		pll_wait_for_lock(0);
		pmc_switch_mck_to_pllack(CONFIG_SYSCLK_PRES);
  401b6a:	2010      	movs	r0, #16
  401b6c:	4b0b      	ldr	r3, [pc, #44]	; (401b9c <sysclk_init+0x5c>)
  401b6e:	4798      	blx	r3
		pmc_switch_mck_to_pllbck(CONFIG_SYSCLK_PRES);
	}
#endif

	/* Update the SystemFrequency variable */
	SystemCoreClockUpdate();
  401b70:	4b0b      	ldr	r3, [pc, #44]	; (401ba0 <sysclk_init+0x60>)
  401b72:	4798      	blx	r3

	/* Set a flash wait state depending on the new cpu frequency */
	system_init_flash(sysclk_get_cpu_hz());
  401b74:	4801      	ldr	r0, [pc, #4]	; (401b7c <sysclk_init+0x3c>)
  401b76:	4b02      	ldr	r3, [pc, #8]	; (401b80 <sysclk_init+0x40>)
  401b78:	4798      	blx	r3
  401b7a:	bd10      	pop	{r4, pc}
  401b7c:	07270e00 	.word	0x07270e00
  401b80:	00402e35 	.word	0x00402e35
  401b84:	004024e1 	.word	0x004024e1
  401b88:	00402535 	.word	0x00402535
  401b8c:	00402545 	.word	0x00402545
  401b90:	20133f01 	.word	0x20133f01
  401b94:	400e0400 	.word	0x400e0400
  401b98:	00402555 	.word	0x00402555
  401b9c:	00402439 	.word	0x00402439
  401ba0:	00402d25 	.word	0x00402d25

00401ba4 <spi_master_init>:
 *
 * \param p_spi  Base address of the SPI instance.
 *
 */
void spi_master_init(Spi *p_spi)
{
  401ba4:	b510      	push	{r4, lr}
  401ba6:	4604      	mov	r4, r0
#if SAMG55
	flexcom_enable(BOARD_FLEXCOM_SPI);
	flexcom_set_opmode(BOARD_FLEXCOM_SPI, FLEXCOM_SPI);
#else
	spi_enable_clock(p_spi);
  401ba8:	4b10      	ldr	r3, [pc, #64]	; (401bec <spi_master_init+0x48>)
  401baa:	4798      	blx	r3
	p_spi->SPI_CR = SPI_CR_SWRST;
  401bac:	2380      	movs	r3, #128	; 0x80
  401bae:	6023      	str	r3, [r4, #0]
	p_spi->SPI_MR |= SPI_MR_MSTR;
  401bb0:	6863      	ldr	r3, [r4, #4]
  401bb2:	f043 0301 	orr.w	r3, r3, #1
  401bb6:	6063      	str	r3, [r4, #4]
	p_spi->SPI_MR |= SPI_MR_MODFDIS;
  401bb8:	6863      	ldr	r3, [r4, #4]
  401bba:	f043 0310 	orr.w	r3, r3, #16
  401bbe:	6063      	str	r3, [r4, #4]
	p_spi->SPI_MR &= (~SPI_MR_LLB);
  401bc0:	6863      	ldr	r3, [r4, #4]
  401bc2:	f023 0380 	bic.w	r3, r3, #128	; 0x80
  401bc6:	6063      	str	r3, [r4, #4]
#endif
	spi_reset(p_spi);
	spi_set_master_mode(p_spi);
	spi_disable_mode_fault_detect(p_spi);
	spi_disable_loopback(p_spi);
	spi_set_peripheral_chip_select_value(p_spi, DEFAULT_CHIP_ID);
  401bc8:	2100      	movs	r1, #0
  401bca:	4620      	mov	r0, r4
  401bcc:	4b08      	ldr	r3, [pc, #32]	; (401bf0 <spi_master_init+0x4c>)
  401bce:	4798      	blx	r3
	p_spi->SPI_MR &= (~SPI_MR_PS);
  401bd0:	6863      	ldr	r3, [r4, #4]
  401bd2:	f023 0302 	bic.w	r3, r3, #2
  401bd6:	6063      	str	r3, [r4, #4]
	p_spi->SPI_MR &= (~SPI_MR_PCSDEC);
  401bd8:	6863      	ldr	r3, [r4, #4]
  401bda:	f023 0304 	bic.w	r3, r3, #4
  401bde:	6063      	str	r3, [r4, #4]
	spi_set_fixed_peripheral_select(p_spi);
	spi_disable_peripheral_select_decode(p_spi);
	spi_set_delay_between_chip_select(p_spi, CONFIG_SPI_MASTER_DELAY_BCS);
  401be0:	2100      	movs	r1, #0
  401be2:	4620      	mov	r0, r4
  401be4:	4b03      	ldr	r3, [pc, #12]	; (401bf4 <spi_master_init+0x50>)
  401be6:	4798      	blx	r3
  401be8:	bd10      	pop	{r4, pc}
  401bea:	bf00      	nop
  401bec:	004027e9 	.word	0x004027e9
  401bf0:	004027f9 	.word	0x004027f9
  401bf4:	0040280f 	.word	0x0040280f

00401bf8 <spi_master_setup_device>:
 * \param baud_rate Baud rate for communication with slave device in Hz.
 * \param sel_id    Board specific select id.
 */
void spi_master_setup_device(Spi *p_spi, struct spi_device *device,
		spi_flags_t flags, uint32_t baud_rate, board_spi_select_id_t sel_id)
{
  401bf8:	e92d 41f0 	stmdb	sp!, {r4, r5, r6, r7, r8, lr}
  401bfc:	4604      	mov	r4, r0
  401bfe:	460d      	mov	r5, r1
  401c00:	4616      	mov	r6, r2
#if (SAM4L)
    int16_t baud_div = spi_calc_baudrate_div(baud_rate, sysclk_get_pba_hz());
#else
	int16_t baud_div = spi_calc_baudrate_div(baud_rate, sysclk_get_peripheral_hz());
  401c02:	4915      	ldr	r1, [pc, #84]	; (401c58 <spi_master_setup_device+0x60>)
  401c04:	4618      	mov	r0, r3
  401c06:	4b15      	ldr	r3, [pc, #84]	; (401c5c <spi_master_setup_device+0x64>)
  401c08:	4798      	blx	r3
  401c0a:	4607      	mov	r7, r0
	/* avoid Cppcheck Warning */
	UNUSED(sel_id);
	if (-1 == baud_div) {
		Assert(0 == "Failed to find baudrate divider");
	}
	spi_set_transfer_delay(p_spi, device->id, CONFIG_SPI_MASTER_DELAY_BS,
  401c0c:	2300      	movs	r3, #0
  401c0e:	461a      	mov	r2, r3
  401c10:	6829      	ldr	r1, [r5, #0]
  401c12:	4620      	mov	r0, r4
  401c14:	f8df 805c 	ldr.w	r8, [pc, #92]	; 401c74 <spi_master_setup_device+0x7c>
  401c18:	47c0      	blx	r8
			CONFIG_SPI_MASTER_DELAY_BCT);
	spi_set_bits_per_transfer(p_spi, device->id,
  401c1a:	2208      	movs	r2, #8
  401c1c:	6829      	ldr	r1, [r5, #0]
  401c1e:	4620      	mov	r0, r4
  401c20:	4b0f      	ldr	r3, [pc, #60]	; (401c60 <spi_master_setup_device+0x68>)
  401c22:	4798      	blx	r3
			CONFIG_SPI_MASTER_BITS_PER_TRANSFER);
	spi_set_baudrate_div(p_spi, device->id, baud_div);
  401c24:	b2fa      	uxtb	r2, r7
  401c26:	6829      	ldr	r1, [r5, #0]
  401c28:	4620      	mov	r0, r4
  401c2a:	4b0e      	ldr	r3, [pc, #56]	; (401c64 <spi_master_setup_device+0x6c>)
  401c2c:	4798      	blx	r3
	spi_configure_cs_behavior(p_spi, device->id, SPI_CS_KEEP_LOW);
  401c2e:	2208      	movs	r2, #8
  401c30:	6829      	ldr	r1, [r5, #0]
  401c32:	4620      	mov	r0, r4
  401c34:	4b0c      	ldr	r3, [pc, #48]	; (401c68 <spi_master_setup_device+0x70>)
  401c36:	4798      	blx	r3
	spi_set_clock_polarity(p_spi, device->id, flags >> 1);
  401c38:	0872      	lsrs	r2, r6, #1
  401c3a:	6829      	ldr	r1, [r5, #0]
  401c3c:	4620      	mov	r0, r4
  401c3e:	4b0b      	ldr	r3, [pc, #44]	; (401c6c <spi_master_setup_device+0x74>)
  401c40:	4798      	blx	r3
	spi_set_clock_phase(p_spi, device->id, ((flags & 0x1) ^ 0x1));
  401c42:	f086 0201 	eor.w	r2, r6, #1
  401c46:	f002 0201 	and.w	r2, r2, #1
  401c4a:	6829      	ldr	r1, [r5, #0]
  401c4c:	4620      	mov	r0, r4
  401c4e:	4b08      	ldr	r3, [pc, #32]	; (401c70 <spi_master_setup_device+0x78>)
  401c50:	4798      	blx	r3
  401c52:	e8bd 81f0 	ldmia.w	sp!, {r4, r5, r6, r7, r8, pc}
  401c56:	bf00      	nop
  401c58:	07270e00 	.word	0x07270e00
  401c5c:	004028b7 	.word	0x004028b7
  401c60:	004028a3 	.word	0x004028a3
  401c64:	004028cd 	.word	0x004028cd
  401c68:	0040285d 	.word	0x0040285d
  401c6c:	00402821 	.word	0x00402821
  401c70:	0040283f 	.word	0x0040283f
  401c74:	004028f3 	.word	0x004028f3

00401c78 <spi_select_device>:
 * \param p_spi   Base address of the SPI instance.
 * \param device  SPI device.
 *
 */
void spi_select_device(Spi *p_spi, struct spi_device *device)
{
  401c78:	b508      	push	{r3, lr}
	if (p_spi->SPI_MR & SPI_MR_PCSDEC) {
  401c7a:	6843      	ldr	r3, [r0, #4]
	if (spi_get_peripheral_select_decode_setting(p_spi)) {
  401c7c:	f013 0f04 	tst.w	r3, #4
  401c80:	d006      	beq.n	401c90 <spi_select_device+0x18>
		if (device->id < MAX_NUM_WITH_DECODER) {
  401c82:	6809      	ldr	r1, [r1, #0]
  401c84:	290f      	cmp	r1, #15
  401c86:	d900      	bls.n	401c8a <spi_select_device+0x12>
  401c88:	bd08      	pop	{r3, pc}
			spi_set_peripheral_chip_select_value(p_spi, device->id);
  401c8a:	4b06      	ldr	r3, [pc, #24]	; (401ca4 <spi_select_device+0x2c>)
  401c8c:	4798      	blx	r3
  401c8e:	bd08      	pop	{r3, pc}
		}
	} else {
		if (device->id < MAX_NUM_WITHOUT_DECODER) {
  401c90:	6809      	ldr	r1, [r1, #0]
  401c92:	2903      	cmp	r1, #3
  401c94:	d8f8      	bhi.n	401c88 <spi_select_device+0x10>
			spi_set_peripheral_chip_select_value(p_spi, (~(1 << device->id)));
  401c96:	2301      	movs	r3, #1
  401c98:	fa03 f101 	lsl.w	r1, r3, r1
  401c9c:	43c9      	mvns	r1, r1
  401c9e:	4b01      	ldr	r3, [pc, #4]	; (401ca4 <spi_select_device+0x2c>)
  401ca0:	4798      	blx	r3
		}
	}
}
  401ca2:	e7f1      	b.n	401c88 <spi_select_device+0x10>
  401ca4:	004027f9 	.word	0x004027f9

00401ca8 <spi_deselect_device>:
 * \param device  SPI device.
 *
 * \pre SPI device must be selected with spi_select_device() first.
 */
void spi_deselect_device(Spi *p_spi, struct spi_device *device)
{
  401ca8:	b510      	push	{r4, lr}
  401caa:	4604      	mov	r4, r0
 * \retval 1 if transmissions are complete.
 * \retval 0 if transmissions are not complete.
 */
static inline uint32_t spi_is_tx_empty(Spi *p_spi)
{
	if (p_spi->SPI_SR & SPI_SR_TXEMPTY) {
  401cac:	6923      	ldr	r3, [r4, #16]
	/* avoid Cppcheck Warning */
	UNUSED(device);
	while (!spi_is_tx_empty(p_spi)) {
  401cae:	f413 7f00 	tst.w	r3, #512	; 0x200
  401cb2:	d0fb      	beq.n	401cac <spi_deselect_device+0x4>
	}

	// Assert all lines; no peripheral is selected.
	spi_set_peripheral_chip_select_value(p_spi, NONE_CHIP_SELECT_ID);
  401cb4:	210f      	movs	r1, #15
  401cb6:	4620      	mov	r0, r4
  401cb8:	4b02      	ldr	r3, [pc, #8]	; (401cc4 <spi_deselect_device+0x1c>)
  401cba:	4798      	blx	r3
	p_spi->SPI_CR = SPI_CR_LASTXFER;
  401cbc:	f04f 7380 	mov.w	r3, #16777216	; 0x1000000
  401cc0:	6023      	str	r3, [r4, #0]
  401cc2:	bd10      	pop	{r4, pc}
  401cc4:	004027f9 	.word	0x004027f9

00401cc8 <spi_write_packet>:
{
	uint32_t timeout = SPI_TIMEOUT;
	uint32_t i = 0;
	uint8_t val;

	while (len) {
  401cc8:	b11a      	cbz	r2, 401cd2 <spi_write_packet+0xa>
{
  401cca:	b410      	push	{r4}
  401ccc:	460c      	mov	r4, r1
  401cce:	4411      	add	r1, r2
  401cd0:	e006      	b.n	401ce0 <spi_write_packet+0x18>
		spi_write_single(p_spi, val);
		i++;
		len--;
	}

	return STATUS_OK;
  401cd2:	2000      	movs	r0, #0
  401cd4:	4770      	bx	lr
		val = data[i];
  401cd6:	f814 3b01 	ldrb.w	r3, [r4], #1
	p_spi->SPI_TDR = SPI_TDR_TD(data);
  401cda:	60c3      	str	r3, [r0, #12]
	while (len) {
  401cdc:	42a1      	cmp	r1, r4
  401cde:	d00b      	beq.n	401cf8 <spi_write_packet+0x30>
{
  401ce0:	f643 2399 	movw	r3, #15001	; 0x3a99
 * \retval 1 if transmissions are complete.
 * \retval 0 if transmissions are not complete.
 */
static inline uint32_t spi_is_tx_ready(Spi *p_spi)
{
	if (p_spi->SPI_SR & SPI_SR_TDRE) {
  401ce4:	6902      	ldr	r2, [r0, #16]
		while (!spi_is_tx_ready(p_spi)) {
  401ce6:	f012 0f02 	tst.w	r2, #2
  401cea:	d1f4      	bne.n	401cd6 <spi_write_packet+0xe>
			if (!timeout--) {
  401cec:	3b01      	subs	r3, #1
  401cee:	d1f9      	bne.n	401ce4 <spi_write_packet+0x1c>
				return ERR_TIMEOUT;
  401cf0:	f06f 0002 	mvn.w	r0, #2
}
  401cf4:	bc10      	pop	{r4}
  401cf6:	4770      	bx	lr
	return STATUS_OK;
  401cf8:	2000      	movs	r0, #0
  401cfa:	e7fb      	b.n	401cf4 <spi_write_packet+0x2c>

00401cfc <spi_read_packet>:
{
	uint32_t timeout = SPI_TIMEOUT;
	uint8_t val;
	uint32_t i = 0;

	while (len) {
  401cfc:	b13a      	cbz	r2, 401d0e <spi_read_packet+0x12>
{
  401cfe:	b470      	push	{r4, r5, r6}
  401d00:	4615      	mov	r5, r2
  401d02:	460c      	mov	r4, r1
  401d04:	440d      	add	r5, r1
	p_spi->SPI_TDR = SPI_TDR_TD(data);
  401d06:	26ff      	movs	r6, #255	; 0xff
 *
 * \return 1 if the SPI Receiver is ready, otherwise 0.
 */
static inline uint32_t spi_is_rx_ready(Spi *p_spi)
{
	if ((p_spi->SPI_SR & (SPI_SR_RDRF | SPI_SR_TXEMPTY))
  401d08:	f240 2101 	movw	r1, #513	; 0x201
  401d0c:	e012      	b.n	401d34 <spi_read_packet+0x38>
		data[i] = val;
		i++;
		len--;
	}

	return STATUS_OK;
  401d0e:	2000      	movs	r0, #0
  401d10:	4770      	bx	lr
	p_spi->SPI_TDR = SPI_TDR_TD(data);
  401d12:	60c6      	str	r6, [r0, #12]
		while (!spi_is_rx_ready(p_spi)) {
  401d14:	f643 2399 	movw	r3, #15001	; 0x3a99
	if ((p_spi->SPI_SR & (SPI_SR_RDRF | SPI_SR_TXEMPTY))
  401d18:	6902      	ldr	r2, [r0, #16]
  401d1a:	ea31 0202 	bics.w	r2, r1, r2
  401d1e:	d004      	beq.n	401d2a <spi_read_packet+0x2e>
			if (!timeout--) {
  401d20:	3b01      	subs	r3, #1
  401d22:	d1f9      	bne.n	401d18 <spi_read_packet+0x1c>
				return ERR_TIMEOUT;
  401d24:	f06f 0002 	mvn.w	r0, #2
  401d28:	e00e      	b.n	401d48 <spi_read_packet+0x4c>
	return (p_spi->SPI_RDR & SPI_RDR_RD_Msk);
  401d2a:	6883      	ldr	r3, [r0, #8]
 * \param data      Data to read.
 *
 */
static inline void spi_read_single(Spi *p_spi, uint8_t *data)
{
	*data = (uint8_t)spi_get(p_spi);
  401d2c:	f804 3b01 	strb.w	r3, [r4], #1
	while (len) {
  401d30:	42a5      	cmp	r5, r4
  401d32:	d00b      	beq.n	401d4c <spi_read_packet+0x50>
{
  401d34:	f643 2399 	movw	r3, #15001	; 0x3a99
	if (p_spi->SPI_SR & SPI_SR_TDRE) {
  401d38:	6902      	ldr	r2, [r0, #16]
		while (!spi_is_tx_ready(p_spi)) {
  401d3a:	f012 0f02 	tst.w	r2, #2
  401d3e:	d1e8      	bne.n	401d12 <spi_read_packet+0x16>
			if (!timeout--) {
  401d40:	3b01      	subs	r3, #1
  401d42:	d1f9      	bne.n	401d38 <spi_read_packet+0x3c>
				return ERR_TIMEOUT;
  401d44:	f06f 0002 	mvn.w	r0, #2
}
  401d48:	bc70      	pop	{r4, r5, r6}
  401d4a:	4770      	bx	lr
	return STATUS_OK;
  401d4c:	2000      	movs	r0, #0
  401d4e:	e7fb      	b.n	401d48 <spi_read_packet+0x4c>

00401d50 <board_init>:
 * \addtogroup sam4s_xplained_pro_group
 * @{
 */

void board_init(void)
{
  401d50:	b5f8      	push	{r3, r4, r5, r6, r7, lr}
#ifndef CONF_BOARD_KEEP_WATCHDOG_AT_INIT
	wdt_disable(WDT);
  401d52:	4838      	ldr	r0, [pc, #224]	; (401e34 <board_init+0xe4>)
  401d54:	4b38      	ldr	r3, [pc, #224]	; (401e38 <board_init+0xe8>)
  401d56:	4798      	blx	r3
  401d58:	200b      	movs	r0, #11
  401d5a:	4c38      	ldr	r4, [pc, #224]	; (401e3c <board_init+0xec>)
  401d5c:	47a0      	blx	r4
  401d5e:	200c      	movs	r0, #12
  401d60:	47a0      	blx	r4
  401d62:	200d      	movs	r0, #13
  401d64:	47a0      	blx	r4
		base->PIO_SODR = arch_ioport_pin_to_mask(pin);
  401d66:	4b36      	ldr	r3, [pc, #216]	; (401e40 <board_init+0xf0>)
  401d68:	f44f 0200 	mov.w	r2, #8388608	; 0x800000
  401d6c:	631a      	str	r2, [r3, #48]	; 0x30
		base->PIO_OER = arch_ioport_pin_to_mask(pin);
  401d6e:	611a      	str	r2, [r3, #16]
	base->PIO_OWER = arch_ioport_pin_to_mask(pin);
  401d70:	f8c3 20a0 	str.w	r2, [r3, #160]	; 0xa0
		base->PIO_ODR = arch_ioport_pin_to_mask(pin);
  401d74:	4c33      	ldr	r4, [pc, #204]	; (401e44 <board_init+0xf4>)
  401d76:	2504      	movs	r5, #4
  401d78:	6165      	str	r5, [r4, #20]
	base->PIO_OWER = arch_ioport_pin_to_mask(pin);
  401d7a:	f8c4 50a0 	str.w	r5, [r4, #160]	; 0xa0
		base->PIO_PUER = mask;
  401d7e:	6665      	str	r5, [r4, #100]	; 0x64
		base->PIO_PPDDR = mask;
  401d80:	f8c4 5090 	str.w	r5, [r4, #144]	; 0x90
		base->PIO_MDDR = mask;
  401d84:	6565      	str	r5, [r4, #84]	; 0x54
		base->PIO_IFDR = mask;
  401d86:	6265      	str	r5, [r4, #36]	; 0x24
		base->PIO_IFSCDR = mask;
  401d88:	f8c4 5080 	str.w	r5, [r4, #128]	; 0x80
		base->PIO_ABCDSR[0] &= ~mask;
  401d8c:	6f22      	ldr	r2, [r4, #112]	; 0x70
  401d8e:	f022 0204 	bic.w	r2, r2, #4
  401d92:	6722      	str	r2, [r4, #112]	; 0x70
		base->PIO_ABCDSR[1] &= ~mask;
  401d94:	6f62      	ldr	r2, [r4, #116]	; 0x74
  401d96:	f022 0204 	bic.w	r2, r2, #4
  401d9a:	6762      	str	r2, [r4, #116]	; 0x74
		base->PIO_SODR = arch_ioport_pin_to_mask(pin);
  401d9c:	f44f 1280 	mov.w	r2, #1048576	; 0x100000
  401da0:	631a      	str	r2, [r3, #48]	; 0x30
		base->PIO_OER = arch_ioport_pin_to_mask(pin);
  401da2:	611a      	str	r2, [r3, #16]
	base->PIO_OWER = arch_ioport_pin_to_mask(pin);
  401da4:	f8c3 20a0 	str.w	r2, [r3, #160]	; 0xa0
		base->PIO_SODR = arch_ioport_pin_to_mask(pin);
  401da8:	f44f 3280 	mov.w	r2, #65536	; 0x10000
  401dac:	6322      	str	r2, [r4, #48]	; 0x30
		base->PIO_OER = arch_ioport_pin_to_mask(pin);
  401dae:	6122      	str	r2, [r4, #16]
	base->PIO_OWER = arch_ioport_pin_to_mask(pin);
  401db0:	f8c4 20a0 	str.w	r2, [r4, #160]	; 0xa0
		base->PIO_SODR = arch_ioport_pin_to_mask(pin);
  401db4:	f44f 0280 	mov.w	r2, #4194304	; 0x400000
  401db8:	631a      	str	r2, [r3, #48]	; 0x30
		base->PIO_OER = arch_ioport_pin_to_mask(pin);
  401dba:	611a      	str	r2, [r3, #16]
	base->PIO_OWER = arch_ioport_pin_to_mask(pin);
  401dbc:	f8c3 20a0 	str.w	r2, [r3, #160]	; 0xa0
	ioport_set_pin_level(IO1_LED3_PIN, !IO1_LED3_ACTIVE);
	ioport_set_pin_dir(IO1_LED3_PIN, IOPORT_DIR_OUTPUT);

#ifdef CONF_BOARD_UART_CONSOLE
	/* Configure UART pins */
	gpio_configure_group(PINS_UART1_PIO, PINS_UART1, PINS_UART1_FLAGS);
  401dc0:	f04f 6200 	mov.w	r2, #134217728	; 0x8000000
  401dc4:	210c      	movs	r1, #12
  401dc6:	4820      	ldr	r0, [pc, #128]	; (401e48 <board_init+0xf8>)
  401dc8:	4b20      	ldr	r3, [pc, #128]	; (401e4c <board_init+0xfc>)
  401dca:	4798      	blx	r3
#endif

#ifdef CONF_BOARD_TWI0
	gpio_configure_pin(TWI0_DATA_GPIO, TWI0_DATA_FLAGS);
  401dcc:	4f20      	ldr	r7, [pc, #128]	; (401e50 <board_init+0x100>)
  401dce:	4639      	mov	r1, r7
  401dd0:	2003      	movs	r0, #3
  401dd2:	4e20      	ldr	r6, [pc, #128]	; (401e54 <board_init+0x104>)
  401dd4:	47b0      	blx	r6
	gpio_configure_pin(TWI0_CLK_GPIO, TWI0_CLK_FLAGS);
  401dd6:	4639      	mov	r1, r7
  401dd8:	4628      	mov	r0, r5
  401dda:	47b0      	blx	r6
#endif

	/* Configure SPI pins */
#ifdef CONF_BOARD_SPI
	gpio_configure_pin(SPI_MISO_GPIO, SPI_MISO_FLAGS);
  401ddc:	4639      	mov	r1, r7
  401dde:	200c      	movs	r0, #12
  401de0:	47b0      	blx	r6
	gpio_configure_pin(SPI_MOSI_GPIO, SPI_MOSI_FLAGS);
  401de2:	4639      	mov	r1, r7
  401de4:	200d      	movs	r0, #13
  401de6:	47b0      	blx	r6
	gpio_configure_pin(SPI_SPCK_GPIO, SPI_SPCK_FLAGS);
  401de8:	4639      	mov	r1, r7
  401dea:	200e      	movs	r0, #14
  401dec:	47b0      	blx	r6

#ifdef CONF_BOARD_SPI_NPCS1
#if defined(CONF_BOARD_SPI_NPCS1_GPIO) && defined(CONF_BOARD_SPI_NPCS1_FLAGS)
	gpio_configure_pin(CONF_BOARD_SPI_NPCS1_GPIO, CONF_BOARD_SPI_NPCS1_FLAGS);
#else
	gpio_configure_pin(SPI_NPCS1_PA9_GPIO, SPI_NPCS1_PA9_FLAGS);
  401dee:	f04f 5180 	mov.w	r1, #268435456	; 0x10000000
  401df2:	2009      	movs	r0, #9
  401df4:	47b0      	blx	r6

#ifdef CONF_BOARD_SPI_NPCS2
#if defined(CONF_BOARD_SPI_NPCS2_GPIO) && defined(CONF_BOARD_SPI_NPCS2_FLAGS)
	gpio_configure_pin(CONF_BOARD_SPI_NPCS2_GPIO, CONF_BOARD_SPI_NPCS2_FLAGS);
#else
	gpio_configure_pin(SPI_NPCS2_PA10_GPIO, SPI_NPCS2_PA10_FLAGS);
  401df6:	4918      	ldr	r1, [pc, #96]	; (401e58 <board_init+0x108>)
  401df8:	200a      	movs	r0, #10
  401dfa:	47b0      	blx	r6
#endif
#endif
#endif /* CONF_BOARD_SPI */

#ifdef CONF_BOARD_OLED_UG_2832HSWEG04
	gpio_configure_pin(UG_2832HSWEG04_DATA_CMD_GPIO, UG_2832HSWEG04_DATA_CMD_FLAGS);
  401dfc:	f107 5740 	add.w	r7, r7, #805306368	; 0x30000000
  401e00:	4639      	mov	r1, r7
  401e02:	2055      	movs	r0, #85	; 0x55
  401e04:	47b0      	blx	r6
	gpio_configure_pin(UG_2832HSWEG04_RESET_GPIO, UG_2832HSWEG04_RESET_FLAGS);
  401e06:	4639      	mov	r1, r7
  401e08:	205f      	movs	r0, #95	; 0x5f
  401e0a:	47b0      	blx	r6
#endif

#ifdef CONF_BOARD_SD_MMC_SPI
	gpio_configure_pin(SD_MMC_0_CD_GPIO, SD_MMC_0_CD_FLAGS);
  401e0c:	4913      	ldr	r1, [pc, #76]	; (401e5c <board_init+0x10c>)
  401e0e:	204c      	movs	r0, #76	; 0x4c
  401e10:	47b0      	blx	r6
		base->PIO_PUER = mask;
  401e12:	6665      	str	r5, [r4, #100]	; 0x64
		base->PIO_PPDDR = mask;
  401e14:	f8c4 5090 	str.w	r5, [r4, #144]	; 0x90
		base->PIO_MDDR = mask;
  401e18:	6565      	str	r5, [r4, #84]	; 0x54
		base->PIO_IFDR = mask;
  401e1a:	6265      	str	r5, [r4, #36]	; 0x24
		base->PIO_IFSCDR = mask;
  401e1c:	f8c4 5080 	str.w	r5, [r4, #128]	; 0x80
		base->PIO_ABCDSR[0] &= ~mask;
  401e20:	6f23      	ldr	r3, [r4, #112]	; 0x70
  401e22:	f023 0304 	bic.w	r3, r3, #4
  401e26:	6723      	str	r3, [r4, #112]	; 0x70
		base->PIO_ABCDSR[1] &= ~mask;
  401e28:	6f63      	ldr	r3, [r4, #116]	; 0x74
  401e2a:	f023 0304 	bic.w	r3, r3, #4
  401e2e:	6763      	str	r3, [r4, #116]	; 0x74
  401e30:	bdf8      	pop	{r3, r4, r5, r6, r7, pc}
  401e32:	bf00      	nop
  401e34:	400e1450 	.word	0x400e1450
  401e38:	00402c6d 	.word	0x00402c6d
  401e3c:	00402565 	.word	0x00402565
  401e40:	400e1200 	.word	0x400e1200
  401e44:	400e0e00 	.word	0x400e0e00
  401e48:	400e1000 	.word	0x400e1000
  401e4c:	004021cd 	.word	0x004021cd
  401e50:	08000001 	.word	0x08000001
  401e54:	004020ad 	.word	0x004020ad
  401e58:	10000001 	.word	0x10000001
  401e5c:	28000001 	.word	0x28000001

00401e60 <adc_init>:
 *
 * \return 0 on success.
 */
uint32_t adc_init(Adc *p_adc, const uint32_t ul_mck,
		const uint32_t ul_adc_clock, const enum adc_startup_time startup)
{
  401e60:	b430      	push	{r4, r5}
	uint32_t ul_prescal;

	/*  Reset the controller. */
	p_adc->ADC_CR = ADC_CR_SWRST;
  401e62:	2401      	movs	r4, #1
  401e64:	6004      	str	r4, [r0, #0]

	/* Reset Mode Register. */
	p_adc->ADC_MR = 0;
  401e66:	2400      	movs	r4, #0
  401e68:	6044      	str	r4, [r0, #4]

	/* Reset PDC transfer. */
	p_adc->ADC_PTCR = (ADC_PTCR_RXTDIS | ADC_PTCR_TXTDIS);
  401e6a:	f240 2502 	movw	r5, #514	; 0x202
  401e6e:	f8c0 5120 	str.w	r5, [r0, #288]	; 0x120
	p_adc->ADC_RCR = 0;
  401e72:	f8c0 4104 	str.w	r4, [r0, #260]	; 0x104
	p_adc->ADC_RNCR = 0;
  401e76:	f8c0 4114 	str.w	r4, [r0, #276]	; 0x114

	ul_prescal = ul_mck / (2 * ul_adc_clock) - 1;
	p_adc->ADC_MR |= ADC_MR_PRESCAL(ul_prescal) | startup;
  401e7a:	6845      	ldr	r5, [r0, #4]
	ul_prescal = ul_mck / (2 * ul_adc_clock) - 1;
  401e7c:	0052      	lsls	r2, r2, #1
  401e7e:	fbb1 f2f2 	udiv	r2, r1, r2
  401e82:	3a01      	subs	r2, #1
	p_adc->ADC_MR |= ADC_MR_PRESCAL(ul_prescal) | startup;
  401e84:	0212      	lsls	r2, r2, #8
  401e86:	b292      	uxth	r2, r2
  401e88:	432b      	orrs	r3, r5
  401e8a:	431a      	orrs	r2, r3
  401e8c:	6042      	str	r2, [r0, #4]
	return 0;
}
  401e8e:	4620      	mov	r0, r4
  401e90:	bc30      	pop	{r4, r5}
  401e92:	4770      	bx	lr

00401e94 <adc_configure_trigger>:
 *
 */
void adc_configure_trigger(Adc *p_adc, const enum adc_trigger_t trigger,
		uint8_t uc_freerun)
{
	p_adc->ADC_MR |= trigger | ((uc_freerun << 7) & ADC_MR_FREERUN);
  401e94:	6843      	ldr	r3, [r0, #4]
  401e96:	01d2      	lsls	r2, r2, #7
  401e98:	b2d2      	uxtb	r2, r2
  401e9a:	4319      	orrs	r1, r3
  401e9c:	430a      	orrs	r2, r1
  401e9e:	6042      	str	r2, [r0, #4]
  401ea0:	4770      	bx	lr

00401ea2 <adc_start>:
 * \param p_adc Pointer to an ADC instance.
 */

void adc_start(Adc *p_adc)
{
	p_adc->ADC_CR = ADC_CR_START;
  401ea2:	2302      	movs	r3, #2
  401ea4:	6003      	str	r3, [r0, #0]
  401ea6:	4770      	bx	lr

00401ea8 <adc_enable_channel>:
 * \param p_adc Pointer to an ADC instance.
 * \param adc_ch ADC channel number.
 */
void adc_enable_channel(Adc *p_adc, const enum adc_channel_num_t adc_ch)
{
	p_adc->ADC_CHER = 1 << adc_ch;
  401ea8:	2301      	movs	r3, #1
  401eaa:	fa03 f101 	lsl.w	r1, r3, r1
  401eae:	6101      	str	r1, [r0, #16]
  401eb0:	4770      	bx	lr

00401eb2 <adc_get_channel_value>:
 */
uint32_t adc_get_channel_value(const Adc *p_adc, const enum adc_channel_num_t adc_ch)
{
	uint32_t ul_data = 0;

	if (15 >= adc_ch) {
  401eb2:	290f      	cmp	r1, #15
		ul_data = *(p_adc->ADC_CDR + adc_ch);
  401eb4:	bf9a      	itte	ls
  401eb6:	3050      	addls	r0, #80	; 0x50
  401eb8:	f850 0021 	ldrls.w	r0, [r0, r1, lsl #2]
	uint32_t ul_data = 0;
  401ebc:	2000      	movhi	r0, #0
	}

	return ul_data;
}
  401ebe:	4770      	bx	lr

00401ec0 <pio_set_debounce_filter>:
void pio_set_debounce_filter(Pio *p_pio, const uint32_t ul_mask,
		const uint32_t ul_cut_off)
{
#if (SAM3S || SAM3N || SAM4S || SAM4E || SAM4N || SAM4C || SAMG || SAM4CP || SAM4CM || SAMV71 || SAMV70 || SAME70 || SAMS70)
	/* Set Debouncing, 0 bit field no effect */
	p_pio->PIO_IFSCER = ul_mask;
  401ec0:	f8c0 1084 	str.w	r1, [r0, #132]	; 0x84
	/*
	 * The debouncing filter can filter a pulse of less than 1/2 Period of a
	 * programmable Divided Slow Clock:
	 * Tdiv_slclk = ((DIV+1)*2).Tslow_clock
	 */
	p_pio->PIO_SCDR = PIO_SCDR_DIV((FREQ_SLOW_CLOCK_EXT /
  401ec4:	0053      	lsls	r3, r2, #1
  401ec6:	f44f 4200 	mov.w	r2, #32768	; 0x8000
  401eca:	fbb2 f2f3 	udiv	r2, r2, r3
  401ece:	3a01      	subs	r2, #1
  401ed0:	f3c2 020d 	ubfx	r2, r2, #0, #14
  401ed4:	f8c0 208c 	str.w	r2, [r0, #140]	; 0x8c
  401ed8:	4770      	bx	lr

00401eda <pio_set_peripheral>:
		const uint32_t ul_mask)
{
	uint32_t ul_sr;

	/* Disable interrupts on the pin(s) */
	p_pio->PIO_IDR = ul_mask;
  401eda:	6442      	str	r2, [r0, #68]	; 0x44

#if (SAM3S || SAM3N || SAM4S || SAM4E || SAM4N || SAM4C || SAMG || SAM4CP || SAM4CM || SAMV71 || SAMV70 || SAME70 || SAMS70)
	switch (ul_type) {
  401edc:	f1b1 5fc0 	cmp.w	r1, #402653184	; 0x18000000
  401ee0:	d039      	beq.n	401f56 <pio_set_peripheral+0x7c>
  401ee2:	d813      	bhi.n	401f0c <pio_set_peripheral+0x32>
  401ee4:	f1b1 6f00 	cmp.w	r1, #134217728	; 0x8000000
  401ee8:	d025      	beq.n	401f36 <pio_set_peripheral+0x5c>
  401eea:	f1b1 5f80 	cmp.w	r1, #268435456	; 0x10000000
  401eee:	d10a      	bne.n	401f06 <pio_set_peripheral+0x2c>

		ul_sr = p_pio->PIO_ABCDSR[1];
		p_pio->PIO_ABCDSR[1] &= (~ul_mask & ul_sr);
		break;
	case PIO_PERIPH_B:
		ul_sr = p_pio->PIO_ABCDSR[0];
  401ef0:	6f03      	ldr	r3, [r0, #112]	; 0x70
		p_pio->PIO_ABCDSR[0] = (ul_mask | ul_sr);
  401ef2:	4313      	orrs	r3, r2
  401ef4:	6703      	str	r3, [r0, #112]	; 0x70

		ul_sr = p_pio->PIO_ABCDSR[1];
  401ef6:	6f43      	ldr	r3, [r0, #116]	; 0x74
		p_pio->PIO_ABCDSR[1] &= (~ul_mask & ul_sr);
  401ef8:	6f41      	ldr	r1, [r0, #116]	; 0x74
  401efa:	400b      	ands	r3, r1
  401efc:	ea23 0302 	bic.w	r3, r3, r2
  401f00:	6743      	str	r3, [r0, #116]	; 0x74
#else
#error "Unsupported device"
#endif

	/* Remove the pins from under the control of PIO */
	p_pio->PIO_PDR = ul_mask;
  401f02:	6042      	str	r2, [r0, #4]
  401f04:	4770      	bx	lr
	switch (ul_type) {
  401f06:	2900      	cmp	r1, #0
  401f08:	d1fb      	bne.n	401f02 <pio_set_peripheral+0x28>
  401f0a:	4770      	bx	lr
  401f0c:	f1b1 5f20 	cmp.w	r1, #671088640	; 0x28000000
  401f10:	d020      	beq.n	401f54 <pio_set_peripheral+0x7a>
  401f12:	d809      	bhi.n	401f28 <pio_set_peripheral+0x4e>
  401f14:	f1b1 5f00 	cmp.w	r1, #536870912	; 0x20000000
  401f18:	d1f3      	bne.n	401f02 <pio_set_peripheral+0x28>
		ul_sr = p_pio->PIO_ABCDSR[0];
  401f1a:	6f03      	ldr	r3, [r0, #112]	; 0x70
		p_pio->PIO_ABCDSR[0] = (ul_mask | ul_sr);
  401f1c:	4313      	orrs	r3, r2
  401f1e:	6703      	str	r3, [r0, #112]	; 0x70
		ul_sr = p_pio->PIO_ABCDSR[1];
  401f20:	6f43      	ldr	r3, [r0, #116]	; 0x74
		p_pio->PIO_ABCDSR[1] = (ul_mask | ul_sr);
  401f22:	4313      	orrs	r3, r2
  401f24:	6743      	str	r3, [r0, #116]	; 0x74
		break;
  401f26:	e7ec      	b.n	401f02 <pio_set_peripheral+0x28>
	switch (ul_type) {
  401f28:	f1b1 5f40 	cmp.w	r1, #805306368	; 0x30000000
  401f2c:	d012      	beq.n	401f54 <pio_set_peripheral+0x7a>
  401f2e:	f1b1 5f60 	cmp.w	r1, #939524096	; 0x38000000
  401f32:	d00f      	beq.n	401f54 <pio_set_peripheral+0x7a>
  401f34:	e7e5      	b.n	401f02 <pio_set_peripheral+0x28>
{
  401f36:	b410      	push	{r4}
		ul_sr = p_pio->PIO_ABCDSR[0];
  401f38:	6f01      	ldr	r1, [r0, #112]	; 0x70
		p_pio->PIO_ABCDSR[0] &= (~ul_mask & ul_sr);
  401f3a:	6f04      	ldr	r4, [r0, #112]	; 0x70
  401f3c:	43d3      	mvns	r3, r2
  401f3e:	4021      	ands	r1, r4
  401f40:	461c      	mov	r4, r3
  401f42:	4019      	ands	r1, r3
  401f44:	6701      	str	r1, [r0, #112]	; 0x70
		ul_sr = p_pio->PIO_ABCDSR[1];
  401f46:	6f43      	ldr	r3, [r0, #116]	; 0x74
		p_pio->PIO_ABCDSR[1] &= (~ul_mask & ul_sr);
  401f48:	6f41      	ldr	r1, [r0, #116]	; 0x74
  401f4a:	400b      	ands	r3, r1
  401f4c:	4023      	ands	r3, r4
  401f4e:	6743      	str	r3, [r0, #116]	; 0x74
	p_pio->PIO_PDR = ul_mask;
  401f50:	6042      	str	r2, [r0, #4]
}
  401f52:	bc10      	pop	{r4}
  401f54:	4770      	bx	lr
		ul_sr = p_pio->PIO_ABCDSR[0];
  401f56:	6f03      	ldr	r3, [r0, #112]	; 0x70
		p_pio->PIO_ABCDSR[0] &= (~ul_mask & ul_sr);
  401f58:	6f01      	ldr	r1, [r0, #112]	; 0x70
  401f5a:	400b      	ands	r3, r1
  401f5c:	ea23 0302 	bic.w	r3, r3, r2
  401f60:	6703      	str	r3, [r0, #112]	; 0x70
		ul_sr = p_pio->PIO_ABCDSR[1];
  401f62:	6f43      	ldr	r3, [r0, #116]	; 0x74
		p_pio->PIO_ABCDSR[1] = (ul_mask | ul_sr);
  401f64:	4313      	orrs	r3, r2
  401f66:	6743      	str	r3, [r0, #116]	; 0x74
		break;
  401f68:	e7cb      	b.n	401f02 <pio_set_peripheral+0x28>

00401f6a <pio_set_input>:
 * \param p_pio Pointer to a PIO instance.
 * \param ul_mask Interrupt sources bit map.
 */
void pio_disable_interrupt(Pio *p_pio, const uint32_t ul_mask)
{
	p_pio->PIO_IDR = ul_mask;
  401f6a:	6441      	str	r1, [r0, #68]	; 0x44
	if (ul_pull_up_enable) {
  401f6c:	f012 0f01 	tst.w	r2, #1
		p_pio->PIO_PUER = ul_mask;
  401f70:	bf14      	ite	ne
  401f72:	6641      	strne	r1, [r0, #100]	; 0x64
		p_pio->PIO_PUDR = ul_mask;
  401f74:	6601      	streq	r1, [r0, #96]	; 0x60
	if (ul_attribute & (PIO_DEGLITCH | PIO_DEBOUNCE)) {
  401f76:	f012 0f0a 	tst.w	r2, #10
		p_pio->PIO_IFER = ul_mask;
  401f7a:	bf14      	ite	ne
  401f7c:	6201      	strne	r1, [r0, #32]
		p_pio->PIO_IFDR = ul_mask;
  401f7e:	6241      	streq	r1, [r0, #36]	; 0x24
	if (ul_attribute & PIO_DEGLITCH) {
  401f80:	f012 0f02 	tst.w	r2, #2
  401f84:	d107      	bne.n	401f96 <pio_set_input+0x2c>
		if (ul_attribute & PIO_DEBOUNCE) {
  401f86:	f012 0f08 	tst.w	r2, #8
			p_pio->PIO_IFSCER = ul_mask;
  401f8a:	bf18      	it	ne
  401f8c:	f8c0 1084 	strne.w	r1, [r0, #132]	; 0x84
	p_pio->PIO_ODR = ul_mask;
  401f90:	6141      	str	r1, [r0, #20]
	p_pio->PIO_PER = ul_mask;
  401f92:	6001      	str	r1, [r0, #0]
  401f94:	4770      	bx	lr
		p_pio->PIO_IFSCDR = ul_mask;
  401f96:	f8c0 1080 	str.w	r1, [r0, #128]	; 0x80
  401f9a:	e7f9      	b.n	401f90 <pio_set_input+0x26>

00401f9c <pio_set_output>:
{
  401f9c:	b410      	push	{r4}
  401f9e:	9c01      	ldr	r4, [sp, #4]
	p_pio->PIO_IDR = ul_mask;
  401fa0:	6441      	str	r1, [r0, #68]	; 0x44
	if (ul_pull_up_enable) {
  401fa2:	b944      	cbnz	r4, 401fb6 <pio_set_output+0x1a>
		p_pio->PIO_PUDR = ul_mask;
  401fa4:	6601      	str	r1, [r0, #96]	; 0x60
	if (ul_multidrive_enable) {
  401fa6:	b143      	cbz	r3, 401fba <pio_set_output+0x1e>
		p_pio->PIO_MDER = ul_mask;
  401fa8:	6501      	str	r1, [r0, #80]	; 0x50
	if (ul_default_level) {
  401faa:	b942      	cbnz	r2, 401fbe <pio_set_output+0x22>
		p_pio->PIO_CODR = ul_mask;
  401fac:	6341      	str	r1, [r0, #52]	; 0x34
	p_pio->PIO_OER = ul_mask;
  401fae:	6101      	str	r1, [r0, #16]
	p_pio->PIO_PER = ul_mask;
  401fb0:	6001      	str	r1, [r0, #0]
}
  401fb2:	bc10      	pop	{r4}
  401fb4:	4770      	bx	lr
		p_pio->PIO_PUER = ul_mask;
  401fb6:	6641      	str	r1, [r0, #100]	; 0x64
  401fb8:	e7f5      	b.n	401fa6 <pio_set_output+0xa>
		p_pio->PIO_MDDR = ul_mask;
  401fba:	6541      	str	r1, [r0, #84]	; 0x54
  401fbc:	e7f5      	b.n	401faa <pio_set_output+0xe>
		p_pio->PIO_SODR = ul_mask;
  401fbe:	6301      	str	r1, [r0, #48]	; 0x30
  401fc0:	e7f5      	b.n	401fae <pio_set_output+0x12>
	...

00401fc4 <pio_configure>:
{
  401fc4:	b570      	push	{r4, r5, r6, lr}
  401fc6:	b082      	sub	sp, #8
  401fc8:	4605      	mov	r5, r0
  401fca:	4616      	mov	r6, r2
  401fcc:	461c      	mov	r4, r3
	switch (ul_type) {
  401fce:	f1b1 5f00 	cmp.w	r1, #536870912	; 0x20000000
  401fd2:	d014      	beq.n	401ffe <pio_configure+0x3a>
  401fd4:	d90a      	bls.n	401fec <pio_configure+0x28>
  401fd6:	f1b1 5f40 	cmp.w	r1, #805306368	; 0x30000000
  401fda:	d022      	beq.n	402022 <pio_configure+0x5e>
  401fdc:	f1b1 5f60 	cmp.w	r1, #939524096	; 0x38000000
  401fe0:	d01f      	beq.n	402022 <pio_configure+0x5e>
  401fe2:	f1b1 5f20 	cmp.w	r1, #671088640	; 0x28000000
  401fe6:	d016      	beq.n	402016 <pio_configure+0x52>
		return 0;
  401fe8:	2000      	movs	r0, #0
  401fea:	e012      	b.n	402012 <pio_configure+0x4e>
	switch (ul_type) {
  401fec:	f1b1 5f80 	cmp.w	r1, #268435456	; 0x10000000
  401ff0:	d005      	beq.n	401ffe <pio_configure+0x3a>
  401ff2:	f1b1 5fc0 	cmp.w	r1, #402653184	; 0x18000000
  401ff6:	d002      	beq.n	401ffe <pio_configure+0x3a>
  401ff8:	f1b1 6f00 	cmp.w	r1, #134217728	; 0x8000000
  401ffc:	d1f4      	bne.n	401fe8 <pio_configure+0x24>
		pio_set_peripheral(p_pio, ul_type, ul_mask);
  401ffe:	4632      	mov	r2, r6
  402000:	4628      	mov	r0, r5
  402002:	4b10      	ldr	r3, [pc, #64]	; (402044 <pio_configure+0x80>)
  402004:	4798      	blx	r3
	if (ul_pull_up_enable) {
  402006:	f014 0f01 	tst.w	r4, #1
		p_pio->PIO_PUER = ul_mask;
  40200a:	bf14      	ite	ne
  40200c:	666e      	strne	r6, [r5, #100]	; 0x64
		p_pio->PIO_PUDR = ul_mask;
  40200e:	662e      	streq	r6, [r5, #96]	; 0x60
	return 1;
  402010:	2001      	movs	r0, #1
}
  402012:	b002      	add	sp, #8
  402014:	bd70      	pop	{r4, r5, r6, pc}
		pio_set_input(p_pio, ul_mask, ul_attribute);
  402016:	461a      	mov	r2, r3
  402018:	4631      	mov	r1, r6
  40201a:	4b0b      	ldr	r3, [pc, #44]	; (402048 <pio_configure+0x84>)
  40201c:	4798      	blx	r3
	return 1;
  40201e:	2001      	movs	r0, #1
		break;
  402020:	e7f7      	b.n	402012 <pio_configure+0x4e>
		pio_set_output(p_pio, ul_mask, (ul_type == PIO_OUTPUT_1),
  402022:	f004 0301 	and.w	r3, r4, #1
  402026:	9300      	str	r3, [sp, #0]
  402028:	f3c4 0380 	ubfx	r3, r4, #2, #1
  40202c:	f1b1 5f60 	cmp.w	r1, #939524096	; 0x38000000
  402030:	bf14      	ite	ne
  402032:	2200      	movne	r2, #0
  402034:	2201      	moveq	r2, #1
  402036:	4631      	mov	r1, r6
  402038:	4628      	mov	r0, r5
  40203a:	4c04      	ldr	r4, [pc, #16]	; (40204c <pio_configure+0x88>)
  40203c:	47a0      	blx	r4
	return 1;
  40203e:	2001      	movs	r0, #1
		break;
  402040:	e7e7      	b.n	402012 <pio_configure+0x4e>
  402042:	bf00      	nop
  402044:	00401edb 	.word	0x00401edb
  402048:	00401f6b 	.word	0x00401f6b
  40204c:	00401f9d 	.word	0x00401f9d

00402050 <pio_configure_interrupt>:
	if (ul_attr & PIO_IT_AIME) {
  402050:	f012 0f10 	tst.w	r2, #16
  402054:	d010      	beq.n	402078 <pio_configure_interrupt+0x28>
		p_pio->PIO_AIMER = ul_mask;
  402056:	f8c0 10b0 	str.w	r1, [r0, #176]	; 0xb0
		if (ul_attr & PIO_IT_RE_OR_HL) {
  40205a:	f012 0f20 	tst.w	r2, #32
			p_pio->PIO_REHLSR = ul_mask;
  40205e:	bf14      	ite	ne
  402060:	f8c0 10d4 	strne.w	r1, [r0, #212]	; 0xd4
			p_pio->PIO_FELLSR = ul_mask;
  402064:	f8c0 10d0 	streq.w	r1, [r0, #208]	; 0xd0
		if (ul_attr & PIO_IT_EDGE) {
  402068:	f012 0f40 	tst.w	r2, #64	; 0x40
			p_pio->PIO_ESR = ul_mask;
  40206c:	bf14      	ite	ne
  40206e:	f8c0 10c0 	strne.w	r1, [r0, #192]	; 0xc0
			p_pio->PIO_LSR = ul_mask;
  402072:	f8c0 10c4 	streq.w	r1, [r0, #196]	; 0xc4
  402076:	4770      	bx	lr
		p_pio->PIO_AIMDR = ul_mask;
  402078:	f8c0 10b4 	str.w	r1, [r0, #180]	; 0xb4
  40207c:	4770      	bx	lr

0040207e <pio_enable_interrupt>:
	p_pio->PIO_IER = ul_mask;
  40207e:	6401      	str	r1, [r0, #64]	; 0x40
  402080:	4770      	bx	lr

00402082 <pio_disable_interrupt>:
	p_pio->PIO_IDR = ul_mask;
  402082:	6441      	str	r1, [r0, #68]	; 0x44
  402084:	4770      	bx	lr

00402086 <pio_get_interrupt_status>:
 *
 * \return The interrupt status value.
 */
uint32_t pio_get_interrupt_status(const Pio *p_pio)
{
	return p_pio->PIO_ISR;
  402086:	6cc0      	ldr	r0, [r0, #76]	; 0x4c
}
  402088:	4770      	bx	lr

0040208a <pio_get_interrupt_mask>:
 *
 * \return The interrupt mask value.
 */
uint32_t pio_get_interrupt_mask(const Pio *p_pio)
{
	return p_pio->PIO_IMR;
  40208a:	6c80      	ldr	r0, [r0, #72]	; 0x48
}
  40208c:	4770      	bx	lr

0040208e <pio_get_pin_value>:
		p_pio = PIOC;
	} else {
		p_pio = (Pio *)((uint32_t)PIOA + (PIO_DELTA * (ul_pin >> 5)));
	}
#else
	p_pio = (Pio *)((uint32_t)PIOA + (PIO_DELTA * (ul_pin >> 5)));
  40208e:	0943      	lsrs	r3, r0, #5
  402090:	f503 1300 	add.w	r3, r3, #2097152	; 0x200000
  402094:	f203 7307 	addw	r3, r3, #1799	; 0x707
  402098:	025b      	lsls	r3, r3, #9
	return (p_pio->PIO_PDSR >> (ul_pin & 0x1F)) & 1;
  40209a:	6bdb      	ldr	r3, [r3, #60]	; 0x3c
  40209c:	f000 001f 	and.w	r0, r0, #31
  4020a0:	fa23 f000 	lsr.w	r0, r3, r0
}
  4020a4:	f000 0001 	and.w	r0, r0, #1
  4020a8:	4770      	bx	lr
	...

004020ac <pio_configure_pin>:
{
  4020ac:	b570      	push	{r4, r5, r6, lr}
  4020ae:	b082      	sub	sp, #8
  4020b0:	460d      	mov	r5, r1
	p_pio = (Pio *)((uint32_t)PIOA + (PIO_DELTA * (ul_pin >> 5)));
  4020b2:	0943      	lsrs	r3, r0, #5
  4020b4:	f503 1300 	add.w	r3, r3, #2097152	; 0x200000
  4020b8:	f203 7307 	addw	r3, r3, #1799	; 0x707
  4020bc:	025c      	lsls	r4, r3, #9
	switch (ul_flags & PIO_TYPE_Msk) {
  4020be:	f001 43f0 	and.w	r3, r1, #2013265920	; 0x78000000
  4020c2:	f1b3 5f00 	cmp.w	r3, #536870912	; 0x20000000
  4020c6:	d053      	beq.n	402170 <pio_configure_pin+0xc4>
  4020c8:	d80a      	bhi.n	4020e0 <pio_configure_pin+0x34>
  4020ca:	f1b3 5f80 	cmp.w	r3, #268435456	; 0x10000000
  4020ce:	d02d      	beq.n	40212c <pio_configure_pin+0x80>
  4020d0:	f1b3 5fc0 	cmp.w	r3, #402653184	; 0x18000000
  4020d4:	d03b      	beq.n	40214e <pio_configure_pin+0xa2>
  4020d6:	f1b3 6f00 	cmp.w	r3, #134217728	; 0x8000000
  4020da:	d015      	beq.n	402108 <pio_configure_pin+0x5c>
		return 0;
  4020dc:	2000      	movs	r0, #0
  4020de:	e023      	b.n	402128 <pio_configure_pin+0x7c>
	switch (ul_flags & PIO_TYPE_Msk) {
  4020e0:	f1b3 5f40 	cmp.w	r3, #805306368	; 0x30000000
  4020e4:	d055      	beq.n	402192 <pio_configure_pin+0xe6>
  4020e6:	f1b3 5f60 	cmp.w	r3, #939524096	; 0x38000000
  4020ea:	d052      	beq.n	402192 <pio_configure_pin+0xe6>
  4020ec:	f1b3 5f20 	cmp.w	r3, #671088640	; 0x28000000
  4020f0:	d1f4      	bne.n	4020dc <pio_configure_pin+0x30>
		pio_set_input(p_pio, (1 << (ul_pin & 0x1F)), ul_flags);
  4020f2:	f000 011f 	and.w	r1, r0, #31
  4020f6:	2601      	movs	r6, #1
  4020f8:	462a      	mov	r2, r5
  4020fa:	fa06 f101 	lsl.w	r1, r6, r1
  4020fe:	4620      	mov	r0, r4
  402100:	4b2f      	ldr	r3, [pc, #188]	; (4021c0 <pio_configure_pin+0x114>)
  402102:	4798      	blx	r3
	return 1;
  402104:	4630      	mov	r0, r6
		break;
  402106:	e00f      	b.n	402128 <pio_configure_pin+0x7c>
		pio_set_peripheral(p_pio, PIO_PERIPH_A, (1 << (ul_pin & 0x1F)));
  402108:	f000 001f 	and.w	r0, r0, #31
  40210c:	2601      	movs	r6, #1
  40210e:	4086      	lsls	r6, r0
  402110:	4632      	mov	r2, r6
  402112:	f04f 6100 	mov.w	r1, #134217728	; 0x8000000
  402116:	4620      	mov	r0, r4
  402118:	4b2a      	ldr	r3, [pc, #168]	; (4021c4 <pio_configure_pin+0x118>)
  40211a:	4798      	blx	r3
	if (ul_pull_up_enable) {
  40211c:	f015 0f01 	tst.w	r5, #1
		p_pio->PIO_PUER = ul_mask;
  402120:	bf14      	ite	ne
  402122:	6666      	strne	r6, [r4, #100]	; 0x64
		p_pio->PIO_PUDR = ul_mask;
  402124:	6626      	streq	r6, [r4, #96]	; 0x60
	return 1;
  402126:	2001      	movs	r0, #1
}
  402128:	b002      	add	sp, #8
  40212a:	bd70      	pop	{r4, r5, r6, pc}
		pio_set_peripheral(p_pio, PIO_PERIPH_B, (1 << (ul_pin & 0x1F)));
  40212c:	f000 001f 	and.w	r0, r0, #31
  402130:	2601      	movs	r6, #1
  402132:	4086      	lsls	r6, r0
  402134:	4632      	mov	r2, r6
  402136:	f04f 5180 	mov.w	r1, #268435456	; 0x10000000
  40213a:	4620      	mov	r0, r4
  40213c:	4b21      	ldr	r3, [pc, #132]	; (4021c4 <pio_configure_pin+0x118>)
  40213e:	4798      	blx	r3
	if (ul_pull_up_enable) {
  402140:	f015 0f01 	tst.w	r5, #1
		p_pio->PIO_PUER = ul_mask;
  402144:	bf14      	ite	ne
  402146:	6666      	strne	r6, [r4, #100]	; 0x64
		p_pio->PIO_PUDR = ul_mask;
  402148:	6626      	streq	r6, [r4, #96]	; 0x60
	return 1;
  40214a:	2001      	movs	r0, #1
  40214c:	e7ec      	b.n	402128 <pio_configure_pin+0x7c>
		pio_set_peripheral(p_pio, PIO_PERIPH_C, (1 << (ul_pin & 0x1F)));
  40214e:	f000 001f 	and.w	r0, r0, #31
  402152:	2601      	movs	r6, #1
  402154:	4086      	lsls	r6, r0
  402156:	4632      	mov	r2, r6
  402158:	f04f 51c0 	mov.w	r1, #402653184	; 0x18000000
  40215c:	4620      	mov	r0, r4
  40215e:	4b19      	ldr	r3, [pc, #100]	; (4021c4 <pio_configure_pin+0x118>)
  402160:	4798      	blx	r3
	if (ul_pull_up_enable) {
  402162:	f015 0f01 	tst.w	r5, #1
		p_pio->PIO_PUER = ul_mask;
  402166:	bf14      	ite	ne
  402168:	6666      	strne	r6, [r4, #100]	; 0x64
		p_pio->PIO_PUDR = ul_mask;
  40216a:	6626      	streq	r6, [r4, #96]	; 0x60
	return 1;
  40216c:	2001      	movs	r0, #1
  40216e:	e7db      	b.n	402128 <pio_configure_pin+0x7c>
		pio_set_peripheral(p_pio, PIO_PERIPH_D, (1 << (ul_pin & 0x1F)));
  402170:	f000 001f 	and.w	r0, r0, #31
  402174:	2601      	movs	r6, #1
  402176:	4086      	lsls	r6, r0
  402178:	4632      	mov	r2, r6
  40217a:	f04f 5100 	mov.w	r1, #536870912	; 0x20000000
  40217e:	4620      	mov	r0, r4
  402180:	4b10      	ldr	r3, [pc, #64]	; (4021c4 <pio_configure_pin+0x118>)
  402182:	4798      	blx	r3
	if (ul_pull_up_enable) {
  402184:	f015 0f01 	tst.w	r5, #1
		p_pio->PIO_PUER = ul_mask;
  402188:	bf14      	ite	ne
  40218a:	6666      	strne	r6, [r4, #100]	; 0x64
		p_pio->PIO_PUDR = ul_mask;
  40218c:	6626      	streq	r6, [r4, #96]	; 0x60
	return 1;
  40218e:	2001      	movs	r0, #1
  402190:	e7ca      	b.n	402128 <pio_configure_pin+0x7c>
				((ul_flags & PIO_TYPE_PIO_OUTPUT_1)
  402192:	f005 5260 	and.w	r2, r5, #939524096	; 0x38000000
		pio_set_output(p_pio, (1 << (ul_pin & 0x1F)),
  402196:	f000 011f 	and.w	r1, r0, #31
  40219a:	2601      	movs	r6, #1
  40219c:	ea05 0306 	and.w	r3, r5, r6
  4021a0:	9300      	str	r3, [sp, #0]
  4021a2:	f3c5 0380 	ubfx	r3, r5, #2, #1
  4021a6:	f1b2 5f60 	cmp.w	r2, #939524096	; 0x38000000
  4021aa:	bf14      	ite	ne
  4021ac:	2200      	movne	r2, #0
  4021ae:	2201      	moveq	r2, #1
  4021b0:	fa06 f101 	lsl.w	r1, r6, r1
  4021b4:	4620      	mov	r0, r4
  4021b6:	4c04      	ldr	r4, [pc, #16]	; (4021c8 <pio_configure_pin+0x11c>)
  4021b8:	47a0      	blx	r4
	return 1;
  4021ba:	4630      	mov	r0, r6
		break;
  4021bc:	e7b4      	b.n	402128 <pio_configure_pin+0x7c>
  4021be:	bf00      	nop
  4021c0:	00401f6b 	.word	0x00401f6b
  4021c4:	00401edb 	.word	0x00401edb
  4021c8:	00401f9d 	.word	0x00401f9d

004021cc <pio_configure_pin_group>:
{
  4021cc:	b570      	push	{r4, r5, r6, lr}
  4021ce:	b082      	sub	sp, #8
  4021d0:	4605      	mov	r5, r0
  4021d2:	460e      	mov	r6, r1
  4021d4:	4614      	mov	r4, r2
	switch (ul_flags & PIO_TYPE_Msk) {
  4021d6:	f002 43f0 	and.w	r3, r2, #2013265920	; 0x78000000
  4021da:	f1b3 5f00 	cmp.w	r3, #536870912	; 0x20000000
  4021de:	d03d      	beq.n	40225c <pio_configure_pin_group+0x90>
  4021e0:	d80a      	bhi.n	4021f8 <pio_configure_pin_group+0x2c>
  4021e2:	f1b3 5f80 	cmp.w	r3, #268435456	; 0x10000000
  4021e6:	d021      	beq.n	40222c <pio_configure_pin_group+0x60>
  4021e8:	f1b3 5fc0 	cmp.w	r3, #402653184	; 0x18000000
  4021ec:	d02a      	beq.n	402244 <pio_configure_pin_group+0x78>
  4021ee:	f1b3 6f00 	cmp.w	r3, #134217728	; 0x8000000
  4021f2:	d00e      	beq.n	402212 <pio_configure_pin_group+0x46>
		return 0;
  4021f4:	2000      	movs	r0, #0
  4021f6:	e017      	b.n	402228 <pio_configure_pin_group+0x5c>
	switch (ul_flags & PIO_TYPE_Msk) {
  4021f8:	f1b3 5f40 	cmp.w	r3, #805306368	; 0x30000000
  4021fc:	d03a      	beq.n	402274 <pio_configure_pin_group+0xa8>
  4021fe:	f1b3 5f60 	cmp.w	r3, #939524096	; 0x38000000
  402202:	d037      	beq.n	402274 <pio_configure_pin_group+0xa8>
  402204:	f1b3 5f20 	cmp.w	r3, #671088640	; 0x28000000
  402208:	d1f4      	bne.n	4021f4 <pio_configure_pin_group+0x28>
		pio_set_input(p_pio, ul_mask, ul_flags);
  40220a:	4b23      	ldr	r3, [pc, #140]	; (402298 <pio_configure_pin_group+0xcc>)
  40220c:	4798      	blx	r3
	return 1;
  40220e:	2001      	movs	r0, #1
		break;
  402210:	e00a      	b.n	402228 <pio_configure_pin_group+0x5c>
		pio_set_peripheral(p_pio, PIO_PERIPH_A, ul_mask);
  402212:	460a      	mov	r2, r1
  402214:	f04f 6100 	mov.w	r1, #134217728	; 0x8000000
  402218:	4b20      	ldr	r3, [pc, #128]	; (40229c <pio_configure_pin_group+0xd0>)
  40221a:	4798      	blx	r3
	if (ul_pull_up_enable) {
  40221c:	f014 0f01 	tst.w	r4, #1
		p_pio->PIO_PUER = ul_mask;
  402220:	bf14      	ite	ne
  402222:	666e      	strne	r6, [r5, #100]	; 0x64
		p_pio->PIO_PUDR = ul_mask;
  402224:	662e      	streq	r6, [r5, #96]	; 0x60
	return 1;
  402226:	2001      	movs	r0, #1
}
  402228:	b002      	add	sp, #8
  40222a:	bd70      	pop	{r4, r5, r6, pc}
		pio_set_peripheral(p_pio, PIO_PERIPH_B, ul_mask);
  40222c:	460a      	mov	r2, r1
  40222e:	f04f 5180 	mov.w	r1, #268435456	; 0x10000000
  402232:	4b1a      	ldr	r3, [pc, #104]	; (40229c <pio_configure_pin_group+0xd0>)
  402234:	4798      	blx	r3
	if (ul_pull_up_enable) {
  402236:	f014 0f01 	tst.w	r4, #1
		p_pio->PIO_PUER = ul_mask;
  40223a:	bf14      	ite	ne
  40223c:	666e      	strne	r6, [r5, #100]	; 0x64
		p_pio->PIO_PUDR = ul_mask;
  40223e:	662e      	streq	r6, [r5, #96]	; 0x60
	return 1;
  402240:	2001      	movs	r0, #1
  402242:	e7f1      	b.n	402228 <pio_configure_pin_group+0x5c>
		pio_set_peripheral(p_pio, PIO_PERIPH_C, ul_mask);
  402244:	460a      	mov	r2, r1
  402246:	f04f 51c0 	mov.w	r1, #402653184	; 0x18000000
  40224a:	4b14      	ldr	r3, [pc, #80]	; (40229c <pio_configure_pin_group+0xd0>)
  40224c:	4798      	blx	r3
	if (ul_pull_up_enable) {
  40224e:	f014 0f01 	tst.w	r4, #1
		p_pio->PIO_PUER = ul_mask;
  402252:	bf14      	ite	ne
  402254:	666e      	strne	r6, [r5, #100]	; 0x64
		p_pio->PIO_PUDR = ul_mask;
  402256:	662e      	streq	r6, [r5, #96]	; 0x60
	return 1;
  402258:	2001      	movs	r0, #1
  40225a:	e7e5      	b.n	402228 <pio_configure_pin_group+0x5c>
		pio_set_peripheral(p_pio, PIO_PERIPH_D, ul_mask);
  40225c:	460a      	mov	r2, r1
  40225e:	f04f 5100 	mov.w	r1, #536870912	; 0x20000000
  402262:	4b0e      	ldr	r3, [pc, #56]	; (40229c <pio_configure_pin_group+0xd0>)
  402264:	4798      	blx	r3
	if (ul_pull_up_enable) {
  402266:	f014 0f01 	tst.w	r4, #1
		p_pio->PIO_PUER = ul_mask;
  40226a:	bf14      	ite	ne
  40226c:	666e      	strne	r6, [r5, #100]	; 0x64
		p_pio->PIO_PUDR = ul_mask;
  40226e:	662e      	streq	r6, [r5, #96]	; 0x60
	return 1;
  402270:	2001      	movs	r0, #1
  402272:	e7d9      	b.n	402228 <pio_configure_pin_group+0x5c>
				((ul_flags & PIO_TYPE_PIO_OUTPUT_1)
  402274:	f004 5260 	and.w	r2, r4, #939524096	; 0x38000000
		pio_set_output(p_pio, ul_mask,
  402278:	f004 0301 	and.w	r3, r4, #1
  40227c:	9300      	str	r3, [sp, #0]
  40227e:	f3c4 0380 	ubfx	r3, r4, #2, #1
  402282:	f1b2 5f60 	cmp.w	r2, #939524096	; 0x38000000
  402286:	bf14      	ite	ne
  402288:	2200      	movne	r2, #0
  40228a:	2201      	moveq	r2, #1
  40228c:	4631      	mov	r1, r6
  40228e:	4628      	mov	r0, r5
  402290:	4c03      	ldr	r4, [pc, #12]	; (4022a0 <pio_configure_pin_group+0xd4>)
  402292:	47a0      	blx	r4
	return 1;
  402294:	2001      	movs	r0, #1
		break;
  402296:	e7c7      	b.n	402228 <pio_configure_pin_group+0x5c>
  402298:	00401f6b 	.word	0x00401f6b
  40229c:	00401edb 	.word	0x00401edb
  4022a0:	00401f9d 	.word	0x00401f9d

004022a4 <pio_handler_process>:
 *
 * \param p_pio PIO controller base address.
 * \param ul_id PIO controller ID.
 */
void pio_handler_process(Pio *p_pio, uint32_t ul_id)
{
  4022a4:	e92d 43f8 	stmdb	sp!, {r3, r4, r5, r6, r7, r8, r9, lr}
  4022a8:	4681      	mov	r9, r0
  4022aa:	460f      	mov	r7, r1
	uint32_t status;
	uint32_t i;

	/* Read PIO controller status */
	status = pio_get_interrupt_status(p_pio);
  4022ac:	4b12      	ldr	r3, [pc, #72]	; (4022f8 <pio_handler_process+0x54>)
  4022ae:	4798      	blx	r3
  4022b0:	4605      	mov	r5, r0
	status &= pio_get_interrupt_mask(p_pio);
  4022b2:	4648      	mov	r0, r9
  4022b4:	4b11      	ldr	r3, [pc, #68]	; (4022fc <pio_handler_process+0x58>)
  4022b6:	4798      	blx	r3

	/* Check pending events */
	if (status != 0) {
  4022b8:	4005      	ands	r5, r0
  4022ba:	d013      	beq.n	4022e4 <pio_handler_process+0x40>
  4022bc:	4c10      	ldr	r4, [pc, #64]	; (402300 <pio_handler_process+0x5c>)
  4022be:	f104 0660 	add.w	r6, r4, #96	; 0x60
  4022c2:	e003      	b.n	4022cc <pio_handler_process+0x28>
							gs_interrupt_sources[i].mask);
					status &= ~(gs_interrupt_sources[i].mask);
				}
			}
			i++;
			if (i >= MAX_INTERRUPT_SOURCES) {
  4022c4:	42b4      	cmp	r4, r6
  4022c6:	d00d      	beq.n	4022e4 <pio_handler_process+0x40>
  4022c8:	3410      	adds	r4, #16
		while (status != 0) {
  4022ca:	b15d      	cbz	r5, 4022e4 <pio_handler_process+0x40>
			if (gs_interrupt_sources[i].id == ul_id) {
  4022cc:	6820      	ldr	r0, [r4, #0]
  4022ce:	42b8      	cmp	r0, r7
  4022d0:	d1f8      	bne.n	4022c4 <pio_handler_process+0x20>
				if ((status & gs_interrupt_sources[i].mask) != 0) {
  4022d2:	6861      	ldr	r1, [r4, #4]
  4022d4:	4229      	tst	r1, r5
  4022d6:	d0f5      	beq.n	4022c4 <pio_handler_process+0x20>
					gs_interrupt_sources[i].handler(gs_interrupt_sources[i].id,
  4022d8:	68e3      	ldr	r3, [r4, #12]
  4022da:	4798      	blx	r3
					status &= ~(gs_interrupt_sources[i].mask);
  4022dc:	6863      	ldr	r3, [r4, #4]
  4022de:	ea25 0503 	bic.w	r5, r5, r3
  4022e2:	e7ef      	b.n	4022c4 <pio_handler_process+0x20>
		}
	}

	/* Check capture events */
#if (SAM3S || SAM4S || SAM4E)
	if (pio_capture_enable_flag) {
  4022e4:	4b07      	ldr	r3, [pc, #28]	; (402304 <pio_handler_process+0x60>)
  4022e6:	681b      	ldr	r3, [r3, #0]
  4022e8:	b123      	cbz	r3, 4022f4 <pio_handler_process+0x50>
		if (pio_capture_handler) {
  4022ea:	4b07      	ldr	r3, [pc, #28]	; (402308 <pio_handler_process+0x64>)
  4022ec:	681b      	ldr	r3, [r3, #0]
  4022ee:	b10b      	cbz	r3, 4022f4 <pio_handler_process+0x50>
			pio_capture_handler(p_pio);
  4022f0:	4648      	mov	r0, r9
  4022f2:	4798      	blx	r3
  4022f4:	e8bd 83f8 	ldmia.w	sp!, {r3, r4, r5, r6, r7, r8, r9, pc}
  4022f8:	00402087 	.word	0x00402087
  4022fc:	0040208b 	.word	0x0040208b
  402300:	20001080 	.word	0x20001080
  402304:	20001164 	.word	0x20001164
  402308:	200010f4 	.word	0x200010f4

0040230c <pio_handler_set>:
 *
 * \return 0 if successful, 1 if the maximum number of sources has been defined.
 */
uint32_t pio_handler_set(Pio *p_pio, uint32_t ul_id, uint32_t ul_mask,
		uint32_t ul_attr, void (*p_handler) (uint32_t, uint32_t))
{
  40230c:	b5f8      	push	{r3, r4, r5, r6, r7, lr}
    uint8_t i;
	struct s_interrupt_source *pSource;

	if (gs_ul_nb_sources >= MAX_INTERRUPT_SOURCES)
  40230e:	4c18      	ldr	r4, [pc, #96]	; (402370 <pio_handler_set+0x64>)
  402310:	6826      	ldr	r6, [r4, #0]
  402312:	2e06      	cmp	r6, #6
  402314:	d829      	bhi.n	40236a <pio_handler_set+0x5e>
  402316:	f04f 0c00 	mov.w	ip, #0
  40231a:	4664      	mov	r4, ip
		return 1;

    /* Check interrupt for this pin, if already defined, redefine it. */
	for (i = 0; i <= gs_ul_nb_sources; i++) {
		pSource = &(gs_interrupt_sources[i]);
		if (pSource->id == ul_id && pSource->mask == ul_mask) {
  40231c:	4f15      	ldr	r7, [pc, #84]	; (402374 <pio_handler_set+0x68>)
  40231e:	e004      	b.n	40232a <pio_handler_set+0x1e>
	for (i = 0; i <= gs_ul_nb_sources; i++) {
  402320:	3401      	adds	r4, #1
  402322:	b2e4      	uxtb	r4, r4
  402324:	46a4      	mov	ip, r4
  402326:	42a6      	cmp	r6, r4
  402328:	d309      	bcc.n	40233e <pio_handler_set+0x32>
		pSource = &(gs_interrupt_sources[i]);
  40232a:	46a6      	mov	lr, r4
		if (pSource->id == ul_id && pSource->mask == ul_mask) {
  40232c:	0125      	lsls	r5, r4, #4
  40232e:	597d      	ldr	r5, [r7, r5]
  402330:	428d      	cmp	r5, r1
  402332:	d1f5      	bne.n	402320 <pio_handler_set+0x14>
  402334:	eb07 1504 	add.w	r5, r7, r4, lsl #4
  402338:	686d      	ldr	r5, [r5, #4]
  40233a:	4295      	cmp	r5, r2
  40233c:	d1f0      	bne.n	402320 <pio_handler_set+0x14>
			break;
		}
	}

	/* Define new source */
	pSource->id = ul_id;
  40233e:	4d0d      	ldr	r5, [pc, #52]	; (402374 <pio_handler_set+0x68>)
  402340:	ea4f 1e0e 	mov.w	lr, lr, lsl #4
  402344:	eb05 040e 	add.w	r4, r5, lr
  402348:	f845 100e 	str.w	r1, [r5, lr]
	pSource->mask = ul_mask;
  40234c:	6062      	str	r2, [r4, #4]
	pSource->attr = ul_attr;
  40234e:	60a3      	str	r3, [r4, #8]
	pSource->handler = p_handler;
  402350:	9906      	ldr	r1, [sp, #24]
  402352:	60e1      	str	r1, [r4, #12]
	if (i == gs_ul_nb_sources + 1) {
  402354:	3601      	adds	r6, #1
  402356:	4566      	cmp	r6, ip
		gs_ul_nb_sources++;
  402358:	bf04      	itt	eq
  40235a:	4905      	ldreq	r1, [pc, #20]	; (402370 <pio_handler_set+0x64>)
  40235c:	600e      	streq	r6, [r1, #0]
  40235e:	4611      	mov	r1, r2
	}

	/* Configure interrupt mode */
	pio_configure_interrupt(p_pio, ul_mask, ul_attr);
  402360:	461a      	mov	r2, r3
  402362:	4b05      	ldr	r3, [pc, #20]	; (402378 <pio_handler_set+0x6c>)
  402364:	4798      	blx	r3

	return 0;
  402366:	2000      	movs	r0, #0
  402368:	bdf8      	pop	{r3, r4, r5, r6, r7, pc}
		return 1;
  40236a:	2001      	movs	r0, #1
}
  40236c:	bdf8      	pop	{r3, r4, r5, r6, r7, pc}
  40236e:	bf00      	nop
  402370:	200010f0 	.word	0x200010f0
  402374:	20001080 	.word	0x20001080
  402378:	00402051 	.word	0x00402051

0040237c <PIOA_Handler>:
/**
 * \brief Parallel IO Controller A interrupt handler.
 * Redefined PIOA interrupt handler for NVIC interrupt table.
 */
void PIOA_Handler(void)
{
  40237c:	b508      	push	{r3, lr}
	pio_handler_process(PIOA, ID_PIOA);
  40237e:	210b      	movs	r1, #11
  402380:	4801      	ldr	r0, [pc, #4]	; (402388 <PIOA_Handler+0xc>)
  402382:	4b02      	ldr	r3, [pc, #8]	; (40238c <PIOA_Handler+0x10>)
  402384:	4798      	blx	r3
  402386:	bd08      	pop	{r3, pc}
  402388:	400e0e00 	.word	0x400e0e00
  40238c:	004022a5 	.word	0x004022a5

00402390 <PIOB_Handler>:
/**
 * \brief Parallel IO Controller B interrupt handler
 * Redefined PIOB interrupt handler for NVIC interrupt table.
 */
void PIOB_Handler(void)
{
  402390:	b508      	push	{r3, lr}
    pio_handler_process(PIOB, ID_PIOB);
  402392:	210c      	movs	r1, #12
  402394:	4801      	ldr	r0, [pc, #4]	; (40239c <PIOB_Handler+0xc>)
  402396:	4b02      	ldr	r3, [pc, #8]	; (4023a0 <PIOB_Handler+0x10>)
  402398:	4798      	blx	r3
  40239a:	bd08      	pop	{r3, pc}
  40239c:	400e1000 	.word	0x400e1000
  4023a0:	004022a5 	.word	0x004022a5

004023a4 <PIOC_Handler>:
/**
 * \brief Parallel IO Controller C interrupt handler.
 * Redefined PIOC interrupt handler for NVIC interrupt table.
 */
void PIOC_Handler(void)
{
  4023a4:	b508      	push	{r3, lr}
	pio_handler_process(PIOC, ID_PIOC);
  4023a6:	210d      	movs	r1, #13
  4023a8:	4801      	ldr	r0, [pc, #4]	; (4023b0 <PIOC_Handler+0xc>)
  4023aa:	4b02      	ldr	r3, [pc, #8]	; (4023b4 <PIOC_Handler+0x10>)
  4023ac:	4798      	blx	r3
  4023ae:	bd08      	pop	{r3, pc}
  4023b0:	400e1200 	.word	0x400e1200
  4023b4:	004022a5 	.word	0x004022a5

004023b8 <pio_handler_set_priority>:
 * \param p_pio PIO controller base address.
 * \param ul_irqn NVIC line number.
 * \param ul_priority PIO controller interrupts priority.
 */
void pio_handler_set_priority(Pio *p_pio, IRQn_Type ul_irqn, uint32_t ul_priority)
{
  4023b8:	b5f8      	push	{r3, r4, r5, r6, r7, lr}
  4023ba:	4605      	mov	r5, r0
  4023bc:	460c      	mov	r4, r1
  4023be:	4617      	mov	r7, r2
	uint32_t bitmask = 0;

	bitmask = pio_get_interrupt_mask(p_pio);
  4023c0:	4b18      	ldr	r3, [pc, #96]	; (402424 <pio_handler_set_priority+0x6c>)
  4023c2:	4798      	blx	r3
  4023c4:	4606      	mov	r6, r0
	pio_disable_interrupt(p_pio, 0xFFFFFFFF);
  4023c6:	f04f 31ff 	mov.w	r1, #4294967295
  4023ca:	4628      	mov	r0, r5
  4023cc:	4b16      	ldr	r3, [pc, #88]	; (402428 <pio_handler_set_priority+0x70>)
  4023ce:	4798      	blx	r3
	pio_get_interrupt_status(p_pio);
  4023d0:	4628      	mov	r0, r5
  4023d2:	4b16      	ldr	r3, [pc, #88]	; (40242c <pio_handler_set_priority+0x74>)
  4023d4:	4798      	blx	r3
  NVIC->ICER[((uint32_t)(IRQn) >> 5)] = (1 << ((uint32_t)(IRQn) & 0x1F)); /* disable interrupt */
  4023d6:	b2e2      	uxtb	r2, r4
  4023d8:	f002 031f 	and.w	r3, r2, #31
  4023dc:	2101      	movs	r1, #1
  4023de:	4099      	lsls	r1, r3
  4023e0:	0963      	lsrs	r3, r4, #5
  4023e2:	009b      	lsls	r3, r3, #2
  4023e4:	f103 4360 	add.w	r3, r3, #3758096384	; 0xe0000000
  4023e8:	f503 4361 	add.w	r3, r3, #57600	; 0xe100
  4023ec:	f8c3 1080 	str.w	r1, [r3, #128]	; 0x80
  NVIC->ICPR[((uint32_t)(IRQn) >> 5)] = (1 << ((uint32_t)(IRQn) & 0x1F)); /* Clear pending interrupt */
  4023f0:	f8c3 1180 	str.w	r1, [r3, #384]	; 0x180
    \param [in]      IRQn  Interrupt number.
    \param [in]  priority  Priority to set.
 */
__STATIC_INLINE void NVIC_SetPriority(IRQn_Type IRQn, uint32_t priority)
{
  if(IRQn < 0) {
  4023f4:	2c00      	cmp	r4, #0
  4023f6:	db0d      	blt.n	402414 <pio_handler_set_priority+0x5c>
    SCB->SHP[((uint32_t)(IRQn) & 0xF)-4] = ((priority << (8 - __NVIC_PRIO_BITS)) & 0xff); } /* set Priority for Cortex-M  System Interrupts */
  else {
    NVIC->IP[(uint32_t)(IRQn)] = ((priority << (8 - __NVIC_PRIO_BITS)) & 0xff);    }        /* set Priority for device specific Interrupts  */
  4023f8:	013f      	lsls	r7, r7, #4
  4023fa:	b2ff      	uxtb	r7, r7
  4023fc:	f104 4460 	add.w	r4, r4, #3758096384	; 0xe0000000
  402400:	f504 4461 	add.w	r4, r4, #57600	; 0xe100
  402404:	f884 7300 	strb.w	r7, [r4, #768]	; 0x300
  NVIC->ISER[(uint32_t)((int32_t)IRQn) >> 5] = (uint32_t)(1 << ((uint32_t)((int32_t)IRQn) & (uint32_t)0x1F)); /* enable interrupt */
  402408:	6019      	str	r1, [r3, #0]
	NVIC_DisableIRQ(ul_irqn);
	NVIC_ClearPendingIRQ(ul_irqn);
	NVIC_SetPriority(ul_irqn, ul_priority);
	NVIC_EnableIRQ(ul_irqn);
	pio_enable_interrupt(p_pio, bitmask);
  40240a:	4631      	mov	r1, r6
  40240c:	4628      	mov	r0, r5
  40240e:	4b08      	ldr	r3, [pc, #32]	; (402430 <pio_handler_set_priority+0x78>)
  402410:	4798      	blx	r3
  402412:	bdf8      	pop	{r3, r4, r5, r6, r7, pc}
    SCB->SHP[((uint32_t)(IRQn) & 0xF)-4] = ((priority << (8 - __NVIC_PRIO_BITS)) & 0xff); } /* set Priority for Cortex-M  System Interrupts */
  402414:	f002 020f 	and.w	r2, r2, #15
  402418:	013f      	lsls	r7, r7, #4
  40241a:	b2ff      	uxtb	r7, r7
  40241c:	4805      	ldr	r0, [pc, #20]	; (402434 <pio_handler_set_priority+0x7c>)
  40241e:	5487      	strb	r7, [r0, r2]
  402420:	e7f2      	b.n	402408 <pio_handler_set_priority+0x50>
  402422:	bf00      	nop
  402424:	0040208b 	.word	0x0040208b
  402428:	00402083 	.word	0x00402083
  40242c:	00402087 	.word	0x00402087
  402430:	0040207f 	.word	0x0040207f
  402434:	e000ed14 	.word	0xe000ed14

00402438 <pmc_switch_mck_to_pllack>:
 */
uint32_t pmc_switch_mck_to_pllack(uint32_t ul_pres)
{
	uint32_t ul_timeout;

	PMC->PMC_MCKR = (PMC->PMC_MCKR & (~PMC_MCKR_PRES_Msk)) | ul_pres;
  402438:	4a17      	ldr	r2, [pc, #92]	; (402498 <pmc_switch_mck_to_pllack+0x60>)
  40243a:	6b13      	ldr	r3, [r2, #48]	; 0x30
  40243c:	f023 0370 	bic.w	r3, r3, #112	; 0x70
  402440:	4318      	orrs	r0, r3
  402442:	6310      	str	r0, [r2, #48]	; 0x30
	for (ul_timeout = PMC_TIMEOUT; !(PMC->PMC_SR & PMC_SR_MCKRDY);
  402444:	6e93      	ldr	r3, [r2, #104]	; 0x68
  402446:	f013 0f08 	tst.w	r3, #8
  40244a:	d10a      	bne.n	402462 <pmc_switch_mck_to_pllack+0x2a>
  40244c:	f44f 6300 	mov.w	r3, #2048	; 0x800
  402450:	4911      	ldr	r1, [pc, #68]	; (402498 <pmc_switch_mck_to_pllack+0x60>)
  402452:	6e8a      	ldr	r2, [r1, #104]	; 0x68
  402454:	f012 0f08 	tst.w	r2, #8
  402458:	d103      	bne.n	402462 <pmc_switch_mck_to_pllack+0x2a>
			--ul_timeout) {
		if (ul_timeout == 0) {
  40245a:	3b01      	subs	r3, #1
  40245c:	d1f9      	bne.n	402452 <pmc_switch_mck_to_pllack+0x1a>
			return 1;
  40245e:	2001      	movs	r0, #1
  402460:	4770      	bx	lr
		}
	}

	PMC->PMC_MCKR = (PMC->PMC_MCKR & (~PMC_MCKR_CSS_Msk)) |
  402462:	4a0d      	ldr	r2, [pc, #52]	; (402498 <pmc_switch_mck_to_pllack+0x60>)
  402464:	6b13      	ldr	r3, [r2, #48]	; 0x30
  402466:	f023 0303 	bic.w	r3, r3, #3
  40246a:	f043 0302 	orr.w	r3, r3, #2
  40246e:	6313      	str	r3, [r2, #48]	; 0x30
			PMC_MCKR_CSS_PLLA_CLK;

	for (ul_timeout = PMC_TIMEOUT; !(PMC->PMC_SR & PMC_SR_MCKRDY);
  402470:	6e93      	ldr	r3, [r2, #104]	; 0x68
  402472:	f013 0f08 	tst.w	r3, #8
  402476:	d10a      	bne.n	40248e <pmc_switch_mck_to_pllack+0x56>
  402478:	f44f 6300 	mov.w	r3, #2048	; 0x800
  40247c:	4906      	ldr	r1, [pc, #24]	; (402498 <pmc_switch_mck_to_pllack+0x60>)
  40247e:	6e8a      	ldr	r2, [r1, #104]	; 0x68
  402480:	f012 0f08 	tst.w	r2, #8
  402484:	d105      	bne.n	402492 <pmc_switch_mck_to_pllack+0x5a>
			--ul_timeout) {
		if (ul_timeout == 0) {
  402486:	3b01      	subs	r3, #1
  402488:	d1f9      	bne.n	40247e <pmc_switch_mck_to_pllack+0x46>
			return 1;
  40248a:	2001      	movs	r0, #1
		}
	}

	return 0;
}
  40248c:	4770      	bx	lr
	return 0;
  40248e:	2000      	movs	r0, #0
  402490:	4770      	bx	lr
  402492:	2000      	movs	r0, #0
  402494:	4770      	bx	lr
  402496:	bf00      	nop
  402498:	400e0400 	.word	0x400e0400

0040249c <pmc_switch_sclk_to_32kxtal>:
 * \param ul_bypass 0 for Xtal, 1 for bypass.
 */
void pmc_switch_sclk_to_32kxtal(uint32_t ul_bypass)
{
	/* Set Bypass mode if required */
	if (ul_bypass == 1) {
  40249c:	2801      	cmp	r0, #1
  40249e:	d003      	beq.n	4024a8 <pmc_switch_sclk_to_32kxtal+0xc>
		SUPC->SUPC_MR |= SUPC_MR_KEY_PASSWD |
			SUPC_MR_OSCBYPASS;
	}

	SUPC->SUPC_CR = SUPC_CR_KEY_PASSWD | SUPC_CR_XTALSEL;
  4024a0:	4a05      	ldr	r2, [pc, #20]	; (4024b8 <pmc_switch_sclk_to_32kxtal+0x1c>)
  4024a2:	4b06      	ldr	r3, [pc, #24]	; (4024bc <pmc_switch_sclk_to_32kxtal+0x20>)
  4024a4:	601a      	str	r2, [r3, #0]
  4024a6:	4770      	bx	lr
		SUPC->SUPC_MR |= SUPC_MR_KEY_PASSWD |
  4024a8:	4a04      	ldr	r2, [pc, #16]	; (4024bc <pmc_switch_sclk_to_32kxtal+0x20>)
  4024aa:	6893      	ldr	r3, [r2, #8]
  4024ac:	f043 4325 	orr.w	r3, r3, #2768240640	; 0xa5000000
  4024b0:	f443 1380 	orr.w	r3, r3, #1048576	; 0x100000
  4024b4:	6093      	str	r3, [r2, #8]
  4024b6:	e7f3      	b.n	4024a0 <pmc_switch_sclk_to_32kxtal+0x4>
  4024b8:	a5000008 	.word	0xa5000008
  4024bc:	400e1410 	.word	0x400e1410

004024c0 <pmc_osc_is_ready_32kxtal>:
 * \retval 1 External 32k Xtal is ready.
 * \retval 0 External 32k Xtal is not ready.
 */
uint32_t pmc_osc_is_ready_32kxtal(void)
{
	return ((SUPC->SUPC_SR & SUPC_SR_OSCSEL)
  4024c0:	4b05      	ldr	r3, [pc, #20]	; (4024d8 <pmc_osc_is_ready_32kxtal+0x18>)
  4024c2:	695b      	ldr	r3, [r3, #20]
			&& (PMC->PMC_SR & PMC_SR_OSCSELS));
  4024c4:	f013 0f80 	tst.w	r3, #128	; 0x80
  4024c8:	bf1d      	ittte	ne
  4024ca:	4b04      	ldrne	r3, [pc, #16]	; (4024dc <pmc_osc_is_ready_32kxtal+0x1c>)
  4024cc:	6e98      	ldrne	r0, [r3, #104]	; 0x68
  4024ce:	f3c0 10c0 	ubfxne	r0, r0, #7, #1
  4024d2:	2000      	moveq	r0, #0
}
  4024d4:	4770      	bx	lr
  4024d6:	bf00      	nop
  4024d8:	400e1410 	.word	0x400e1410
  4024dc:	400e0400 	.word	0x400e0400

004024e0 <pmc_switch_mainck_to_xtal>:
 */
void pmc_switch_mainck_to_xtal(uint32_t ul_bypass,
		uint32_t ul_xtal_startup_time)
{
	/* Enable Main Xtal oscillator */
	if (ul_bypass) {
  4024e0:	b9c8      	cbnz	r0, 402516 <pmc_switch_mainck_to_xtal+0x36>
		PMC->CKGR_MOR = (PMC->CKGR_MOR & ~CKGR_MOR_MOSCXTEN) |
				CKGR_MOR_KEY_PASSWD | CKGR_MOR_MOSCXTBY |
				CKGR_MOR_MOSCSEL;
	} else {
		PMC->CKGR_MOR = (PMC->CKGR_MOR & ~CKGR_MOR_MOSCXTBY) |
  4024e2:	4a11      	ldr	r2, [pc, #68]	; (402528 <pmc_switch_mainck_to_xtal+0x48>)
  4024e4:	6a13      	ldr	r3, [r2, #32]
				CKGR_MOR_KEY_PASSWD | CKGR_MOR_MOSCXTEN |
				CKGR_MOR_MOSCXTST(ul_xtal_startup_time);
  4024e6:	0209      	lsls	r1, r1, #8
  4024e8:	b289      	uxth	r1, r1
				CKGR_MOR_KEY_PASSWD | CKGR_MOR_MOSCXTEN |
  4024ea:	f423 135c 	bic.w	r3, r3, #3604480	; 0x370000
  4024ee:	f023 0303 	bic.w	r3, r3, #3
  4024f2:	f443 135c 	orr.w	r3, r3, #3604480	; 0x370000
  4024f6:	f043 0301 	orr.w	r3, r3, #1
  4024fa:	430b      	orrs	r3, r1
		PMC->CKGR_MOR = (PMC->CKGR_MOR & ~CKGR_MOR_MOSCXTBY) |
  4024fc:	6213      	str	r3, [r2, #32]
		/* Wait the Xtal to stabilize */
		while (!(PMC->PMC_SR & PMC_SR_MOSCXTS));
  4024fe:	6e93      	ldr	r3, [r2, #104]	; 0x68
  402500:	f013 0f01 	tst.w	r3, #1
  402504:	d0fb      	beq.n	4024fe <pmc_switch_mainck_to_xtal+0x1e>

		PMC->CKGR_MOR |= CKGR_MOR_KEY_PASSWD | CKGR_MOR_MOSCSEL;
  402506:	4a08      	ldr	r2, [pc, #32]	; (402528 <pmc_switch_mainck_to_xtal+0x48>)
  402508:	6a13      	ldr	r3, [r2, #32]
  40250a:	f043 739b 	orr.w	r3, r3, #20316160	; 0x1360000
  40250e:	f443 3380 	orr.w	r3, r3, #65536	; 0x10000
  402512:	6213      	str	r3, [r2, #32]
  402514:	4770      	bx	lr
		PMC->CKGR_MOR = (PMC->CKGR_MOR & ~CKGR_MOR_MOSCXTEN) |
  402516:	4904      	ldr	r1, [pc, #16]	; (402528 <pmc_switch_mainck_to_xtal+0x48>)
  402518:	6a0b      	ldr	r3, [r1, #32]
				CKGR_MOR_KEY_PASSWD | CKGR_MOR_MOSCXTBY |
  40251a:	4a04      	ldr	r2, [pc, #16]	; (40252c <pmc_switch_mainck_to_xtal+0x4c>)
  40251c:	401a      	ands	r2, r3
  40251e:	4b04      	ldr	r3, [pc, #16]	; (402530 <pmc_switch_mainck_to_xtal+0x50>)
  402520:	4313      	orrs	r3, r2
		PMC->CKGR_MOR = (PMC->CKGR_MOR & ~CKGR_MOR_MOSCXTEN) |
  402522:	620b      	str	r3, [r1, #32]
  402524:	4770      	bx	lr
  402526:	bf00      	nop
  402528:	400e0400 	.word	0x400e0400
  40252c:	fec8fffc 	.word	0xfec8fffc
  402530:	01370002 	.word	0x01370002

00402534 <pmc_osc_is_ready_mainck>:
 * \retval 1 Xtal is ready.
 * \retval 0 Xtal is not ready.
 */
uint32_t pmc_osc_is_ready_mainck(void)
{
	return PMC->PMC_SR & PMC_SR_MOSCSELS;
  402534:	4b02      	ldr	r3, [pc, #8]	; (402540 <pmc_osc_is_ready_mainck+0xc>)
  402536:	6e98      	ldr	r0, [r3, #104]	; 0x68
}
  402538:	f400 3080 	and.w	r0, r0, #65536	; 0x10000
  40253c:	4770      	bx	lr
  40253e:	bf00      	nop
  402540:	400e0400 	.word	0x400e0400

00402544 <pmc_disable_pllack>:
void pmc_disable_pllack(void)
{
#if (SAM4C || SAM4CM || SAM4CP || SAMG)
	PMC->CKGR_PLLAR = CKGR_PLLAR_MULA(0);
#else
	PMC->CKGR_PLLAR = CKGR_PLLAR_ONE | CKGR_PLLAR_MULA(0);
  402544:	f04f 5200 	mov.w	r2, #536870912	; 0x20000000
  402548:	4b01      	ldr	r3, [pc, #4]	; (402550 <pmc_disable_pllack+0xc>)
  40254a:	629a      	str	r2, [r3, #40]	; 0x28
  40254c:	4770      	bx	lr
  40254e:	bf00      	nop
  402550:	400e0400 	.word	0x400e0400

00402554 <pmc_is_locked_pllack>:
 * \retval 0 Not locked.
 * \retval 1 Locked.
 */
uint32_t pmc_is_locked_pllack(void)
{
	return (PMC->PMC_SR & PMC_SR_LOCKA);
  402554:	4b02      	ldr	r3, [pc, #8]	; (402560 <pmc_is_locked_pllack+0xc>)
  402556:	6e98      	ldr	r0, [r3, #104]	; 0x68
}
  402558:	f000 0002 	and.w	r0, r0, #2
  40255c:	4770      	bx	lr
  40255e:	bf00      	nop
  402560:	400e0400 	.word	0x400e0400

00402564 <pmc_enable_periph_clk>:
 * \retval 0 Success.
 * \retval 1 Invalid parameter.
 */
uint32_t pmc_enable_periph_clk(uint32_t ul_id)
{
	if (ul_id > MAX_PERIPH_ID) {
  402564:	2822      	cmp	r0, #34	; 0x22
  402566:	d81e      	bhi.n	4025a6 <pmc_enable_periph_clk+0x42>
		return 1;
	}

	if (ul_id < 32) {
  402568:	281f      	cmp	r0, #31
  40256a:	d80c      	bhi.n	402586 <pmc_enable_periph_clk+0x22>
		if ((PMC->PMC_PCSR0 & (1u << ul_id)) != (1u << ul_id)) {
  40256c:	4b11      	ldr	r3, [pc, #68]	; (4025b4 <pmc_enable_periph_clk+0x50>)
  40256e:	699a      	ldr	r2, [r3, #24]
  402570:	2301      	movs	r3, #1
  402572:	4083      	lsls	r3, r0
  402574:	4393      	bics	r3, r2
  402576:	d018      	beq.n	4025aa <pmc_enable_periph_clk+0x46>
			PMC->PMC_PCER0 = 1 << ul_id;
  402578:	2301      	movs	r3, #1
  40257a:	fa03 f000 	lsl.w	r0, r3, r0
  40257e:	4b0d      	ldr	r3, [pc, #52]	; (4025b4 <pmc_enable_periph_clk+0x50>)
  402580:	6118      	str	r0, [r3, #16]
			PMC->PMC_PCER1 = 1 << ul_id;
		}
#endif
	}

	return 0;
  402582:	2000      	movs	r0, #0
  402584:	4770      	bx	lr
		ul_id -= 32;
  402586:	3820      	subs	r0, #32
		if ((PMC->PMC_PCSR1 & (1u << ul_id)) != (1u << ul_id)) {
  402588:	4b0a      	ldr	r3, [pc, #40]	; (4025b4 <pmc_enable_periph_clk+0x50>)
  40258a:	f8d3 2108 	ldr.w	r2, [r3, #264]	; 0x108
  40258e:	2301      	movs	r3, #1
  402590:	4083      	lsls	r3, r0
  402592:	4393      	bics	r3, r2
  402594:	d00b      	beq.n	4025ae <pmc_enable_periph_clk+0x4a>
			PMC->PMC_PCER1 = 1 << ul_id;
  402596:	2301      	movs	r3, #1
  402598:	fa03 f000 	lsl.w	r0, r3, r0
  40259c:	4b05      	ldr	r3, [pc, #20]	; (4025b4 <pmc_enable_periph_clk+0x50>)
  40259e:	f8c3 0100 	str.w	r0, [r3, #256]	; 0x100
	return 0;
  4025a2:	2000      	movs	r0, #0
  4025a4:	4770      	bx	lr
		return 1;
  4025a6:	2001      	movs	r0, #1
  4025a8:	4770      	bx	lr
	return 0;
  4025aa:	2000      	movs	r0, #0
  4025ac:	4770      	bx	lr
  4025ae:	2000      	movs	r0, #0
}
  4025b0:	4770      	bx	lr
  4025b2:	bf00      	nop
  4025b4:	400e0400 	.word	0x400e0400

004025b8 <rtc_set_hour_mode>:
 * \param p_rtc Pointer to an RTC instance.
 * \param ul_mode 1 for 12-hour mode, 0 for 24-hour mode.
 */
void rtc_set_hour_mode(Rtc *p_rtc, uint32_t ul_mode)
{
	if (ul_mode) {
  4025b8:	b921      	cbnz	r1, 4025c4 <rtc_set_hour_mode+0xc>
		p_rtc->RTC_MR |= RTC_MR_HRMOD;
	} else {
		p_rtc->RTC_MR &= (~RTC_MR_HRMOD);
  4025ba:	6843      	ldr	r3, [r0, #4]
  4025bc:	f023 0301 	bic.w	r3, r3, #1
  4025c0:	6043      	str	r3, [r0, #4]
  4025c2:	4770      	bx	lr
		p_rtc->RTC_MR |= RTC_MR_HRMOD;
  4025c4:	6843      	ldr	r3, [r0, #4]
  4025c6:	f043 0301 	orr.w	r3, r3, #1
  4025ca:	6043      	str	r3, [r0, #4]
  4025cc:	4770      	bx	lr

004025ce <rtc_get_time>:
 * \param pul_minute Current minute.
 * \param pul_second Current second.
 */
void rtc_get_time(Rtc *p_rtc, uint32_t *pul_hour, uint32_t *pul_minute,
		uint32_t *pul_second)
{
  4025ce:	b430      	push	{r4, r5}
	uint32_t ul_time;
	uint32_t ul_temp;

	/* Get the current RTC time (multiple reads are necessary to insure a stable value). */
	ul_time = p_rtc->RTC_TIMR;
  4025d0:	6885      	ldr	r5, [r0, #8]
	while (ul_time != p_rtc->RTC_TIMR) {
  4025d2:	6884      	ldr	r4, [r0, #8]
  4025d4:	42a5      	cmp	r5, r4
  4025d6:	d003      	beq.n	4025e0 <rtc_get_time+0x12>
		ul_time = p_rtc->RTC_TIMR;
  4025d8:	6885      	ldr	r5, [r0, #8]
	while (ul_time != p_rtc->RTC_TIMR) {
  4025da:	6884      	ldr	r4, [r0, #8]
  4025dc:	42ac      	cmp	r4, r5
  4025de:	d1fb      	bne.n	4025d8 <rtc_get_time+0xa>
	}

	/* Hour */
	if (pul_hour) {
  4025e0:	b161      	cbz	r1, 4025fc <rtc_get_time+0x2e>
		ul_temp = (ul_time & RTC_TIMR_HOUR_Msk) >> RTC_TIMR_HOUR_Pos;
		*pul_hour = (ul_temp >> BCD_SHIFT) * BCD_FACTOR + (ul_temp & BCD_MASK);
  4025e2:	f3c4 5001 	ubfx	r0, r4, #20, #2
  4025e6:	eb00 0580 	add.w	r5, r0, r0, lsl #2
  4025ea:	f3c4 4003 	ubfx	r0, r4, #16, #4
  4025ee:	eb00 0045 	add.w	r0, r0, r5, lsl #1

		if ((ul_time & RTC_TIMR_AMPM) == RTC_TIMR_AMPM) {
  4025f2:	f414 0f80 	tst.w	r4, #4194304	; 0x400000
			*pul_hour += 12;
  4025f6:	bf18      	it	ne
  4025f8:	300c      	addne	r0, #12
  4025fa:	6008      	str	r0, [r1, #0]
		}
	}

	/* Minute */
	if (pul_minute) {
  4025fc:	b142      	cbz	r2, 402610 <rtc_get_time+0x42>
		ul_temp = (ul_time & RTC_TIMR_MIN_Msk) >> RTC_TIMR_MIN_Pos;
		*pul_minute = (ul_temp >> BCD_SHIFT) * BCD_FACTOR +  (ul_temp & BCD_MASK);
  4025fe:	f3c4 3102 	ubfx	r1, r4, #12, #3
  402602:	eb01 0181 	add.w	r1, r1, r1, lsl #2
  402606:	f3c4 2003 	ubfx	r0, r4, #8, #4
  40260a:	eb00 0141 	add.w	r1, r0, r1, lsl #1
  40260e:	6011      	str	r1, [r2, #0]
	}

	/* Second */
	if (pul_second) {
  402610:	b143      	cbz	r3, 402624 <rtc_get_time+0x56>
		ul_temp = (ul_time & RTC_TIMR_SEC_Msk) >> RTC_TIMR_SEC_Pos;
		*pul_second = (ul_temp >> BCD_SHIFT) * BCD_FACTOR + (ul_temp & BCD_MASK);
  402612:	f3c4 1202 	ubfx	r2, r4, #4, #3
  402616:	eb02 0282 	add.w	r2, r2, r2, lsl #2
  40261a:	f004 040f 	and.w	r4, r4, #15
  40261e:	eb04 0442 	add.w	r4, r4, r2, lsl #1
  402622:	601c      	str	r4, [r3, #0]
	}
}
  402624:	bc30      	pop	{r4, r5}
  402626:	4770      	bx	lr

00402628 <rtc_set_time>:
 *
 * \return 0 for OK, else invalid setting.
 */
uint32_t rtc_set_time(Rtc *p_rtc, uint32_t ul_hour, uint32_t ul_minute,
		uint32_t ul_second)
{
  402628:	b4f0      	push	{r4, r5, r6, r7}
	uint32_t ul_time = 0;

	/* If 12-hour mode, set AMPM bit */
	if ((p_rtc->RTC_MR & RTC_MR_HRMOD) == RTC_MR_HRMOD) {
  40262a:	6844      	ldr	r4, [r0, #4]
  40262c:	f014 0f01 	tst.w	r4, #1
  402630:	d005      	beq.n	40263e <rtc_set_time+0x16>
		if (ul_hour > 12) {
  402632:	290c      	cmp	r1, #12
  402634:	d93d      	bls.n	4026b2 <rtc_set_time+0x8a>
			ul_hour -= 12;
  402636:	390c      	subs	r1, #12
			ul_time |= RTC_TIMR_AMPM;
  402638:	f44f 0780 	mov.w	r7, #4194304	; 0x400000
  40263c:	e000      	b.n	402640 <rtc_set_time+0x18>
	uint32_t ul_time = 0;
  40263e:	2700      	movs	r7, #0
	/* Minute */
	ul_time |= ((ul_minute / BCD_FACTOR) << (RTC_TIMR_MIN_Pos + BCD_SHIFT)) |
			((ul_minute % BCD_FACTOR) << RTC_TIMR_MIN_Pos);

	/* Second */
	ul_time |= ((ul_second / BCD_FACTOR) << (RTC_TIMR_SEC_Pos + BCD_SHIFT)) |
  402640:	4c1d      	ldr	r4, [pc, #116]	; (4026b8 <rtc_set_time+0x90>)
  402642:	fba4 5603 	umull	r5, r6, r4, r3
  402646:	08f6      	lsrs	r6, r6, #3
			((ul_second % BCD_FACTOR) << RTC_TIMR_SEC_Pos);
  402648:	eb06 0586 	add.w	r5, r6, r6, lsl #2
  40264c:	eba3 0345 	sub.w	r3, r3, r5, lsl #1
  402650:	ea43 1306 	orr.w	r3, r3, r6, lsl #4
	ul_time |= ((ul_minute / BCD_FACTOR) << (RTC_TIMR_MIN_Pos + BCD_SHIFT)) |
  402654:	fba4 6502 	umull	r6, r5, r4, r2
  402658:	08ed      	lsrs	r5, r5, #3
  40265a:	ea43 3305 	orr.w	r3, r3, r5, lsl #12
			((ul_minute % BCD_FACTOR) << RTC_TIMR_MIN_Pos);
  40265e:	eb05 0585 	add.w	r5, r5, r5, lsl #2
  402662:	eba2 0545 	sub.w	r5, r2, r5, lsl #1
  402666:	ea43 2305 	orr.w	r3, r3, r5, lsl #8
  40266a:	433b      	orrs	r3, r7
	ul_time |= ((ul_hour / BCD_FACTOR) << (RTC_TIMR_HOUR_Pos + BCD_SHIFT)) |
  40266c:	fba4 4201 	umull	r4, r2, r4, r1
  402670:	08d2      	lsrs	r2, r2, #3
  402672:	ea43 5302 	orr.w	r3, r3, r2, lsl #20
			((ul_hour % BCD_FACTOR) << RTC_TIMR_HOUR_Pos);
  402676:	eb02 0282 	add.w	r2, r2, r2, lsl #2
  40267a:	eba1 0142 	sub.w	r1, r1, r2, lsl #1
	ul_time |= ((ul_second / BCD_FACTOR) << (RTC_TIMR_SEC_Pos + BCD_SHIFT)) |
  40267e:	ea43 4101 	orr.w	r1, r3, r1, lsl #16

	/* Update time register. Check the spec for the flow. */
	while ((p_rtc->RTC_SR & RTC_SR_SEC) != RTC_SR_SEC);
  402682:	6983      	ldr	r3, [r0, #24]
  402684:	f013 0f04 	tst.w	r3, #4
  402688:	d0fb      	beq.n	402682 <rtc_set_time+0x5a>
	p_rtc->RTC_CR |= RTC_CR_UPDTIM;
  40268a:	6803      	ldr	r3, [r0, #0]
  40268c:	f043 0301 	orr.w	r3, r3, #1
  402690:	6003      	str	r3, [r0, #0]
	while ((p_rtc->RTC_SR & RTC_SR_ACKUPD) != RTC_SR_ACKUPD);
  402692:	6983      	ldr	r3, [r0, #24]
  402694:	f013 0f01 	tst.w	r3, #1
  402698:	d0fb      	beq.n	402692 <rtc_set_time+0x6a>
	p_rtc->RTC_SCCR = RTC_SCCR_ACKCLR;
  40269a:	2301      	movs	r3, #1
  40269c:	61c3      	str	r3, [r0, #28]
	p_rtc->RTC_TIMR = ul_time;
  40269e:	6081      	str	r1, [r0, #8]
	p_rtc->RTC_CR &= (~RTC_CR_UPDTIM);
  4026a0:	6803      	ldr	r3, [r0, #0]
  4026a2:	f023 0301 	bic.w	r3, r3, #1
  4026a6:	6003      	str	r3, [r0, #0]

	return (p_rtc->RTC_VER & RTC_VER_NVTIM);
  4026a8:	6ac0      	ldr	r0, [r0, #44]	; 0x2c
}
  4026aa:	f000 0001 	and.w	r0, r0, #1
  4026ae:	bcf0      	pop	{r4, r5, r6, r7}
  4026b0:	4770      	bx	lr
	uint32_t ul_time = 0;
  4026b2:	2700      	movs	r7, #0
  4026b4:	e7c4      	b.n	402640 <rtc_set_time+0x18>
  4026b6:	bf00      	nop
  4026b8:	cccccccd 	.word	0xcccccccd

004026bc <rtc_get_date>:
 * \param pul_day Current day.
 * \param pul_week Current day in current week.
 */
void rtc_get_date(Rtc *p_rtc, uint32_t *pul_year, uint32_t *pul_month,
		uint32_t *pul_day, uint32_t *pul_week)
{
  4026bc:	b4f0      	push	{r4, r5, r6, r7}
  4026be:	9e04      	ldr	r6, [sp, #16]
	uint32_t ul_date;
	uint32_t ul_cent;
	uint32_t ul_temp;

	/* Get the current date (multiple reads are necessary to insure a stable value). */
	ul_date = p_rtc->RTC_CALR;
  4026c0:	68c5      	ldr	r5, [r0, #12]
	while (ul_date != p_rtc->RTC_CALR) {
  4026c2:	68c4      	ldr	r4, [r0, #12]
  4026c4:	42a5      	cmp	r5, r4
  4026c6:	d003      	beq.n	4026d0 <rtc_get_date+0x14>
		ul_date = p_rtc->RTC_CALR;
  4026c8:	68c5      	ldr	r5, [r0, #12]
	while (ul_date != p_rtc->RTC_CALR) {
  4026ca:	68c4      	ldr	r4, [r0, #12]
  4026cc:	42ac      	cmp	r4, r5
  4026ce:	d1fb      	bne.n	4026c8 <rtc_get_date+0xc>
	}

	/* Retrieve year */
	if (pul_year) {
  4026d0:	b199      	cbz	r1, 4026fa <rtc_get_date+0x3e>
		ul_temp = (ul_date & RTC_CALR_CENT_Msk) >> RTC_CALR_CENT_Pos;
		ul_cent = (ul_temp >> BCD_SHIFT) * BCD_FACTOR + (ul_temp & BCD_MASK);
		ul_temp = (ul_date & RTC_CALR_YEAR_Msk) >> RTC_CALR_YEAR_Pos;
		*pul_year = (ul_cent * BCD_FACTOR * BCD_FACTOR) +
				(ul_temp >> BCD_SHIFT) * BCD_FACTOR + (ul_temp & BCD_MASK);
  4026d2:	f3c4 3003 	ubfx	r0, r4, #12, #4
  4026d6:	eb00 0080 	add.w	r0, r0, r0, lsl #2
  4026da:	f3c4 2703 	ubfx	r7, r4, #8, #4
  4026de:	eb07 0740 	add.w	r7, r7, r0, lsl #1
		ul_cent = (ul_temp >> BCD_SHIFT) * BCD_FACTOR + (ul_temp & BCD_MASK);
  4026e2:	f3c4 1002 	ubfx	r0, r4, #4, #3
  4026e6:	eb00 0580 	add.w	r5, r0, r0, lsl #2
  4026ea:	f004 000f 	and.w	r0, r4, #15
  4026ee:	eb00 0045 	add.w	r0, r0, r5, lsl #1
				(ul_temp >> BCD_SHIFT) * BCD_FACTOR + (ul_temp & BCD_MASK);
  4026f2:	2564      	movs	r5, #100	; 0x64
  4026f4:	fb05 7000 	mla	r0, r5, r0, r7
		*pul_year = (ul_cent * BCD_FACTOR * BCD_FACTOR) +
  4026f8:	6008      	str	r0, [r1, #0]
	}

	/* Retrieve month */
	if (pul_month) {
  4026fa:	b142      	cbz	r2, 40270e <rtc_get_date+0x52>
		ul_temp = (ul_date & RTC_CALR_MONTH_Msk) >> RTC_CALR_MONTH_Pos;
		*pul_month = (ul_temp >> BCD_SHIFT) * BCD_FACTOR + (ul_temp & BCD_MASK);
  4026fc:	f3c4 5000 	ubfx	r0, r4, #20, #1
  402700:	0081      	lsls	r1, r0, #2
  402702:	4408      	add	r0, r1
  402704:	f3c4 4103 	ubfx	r1, r4, #16, #4
  402708:	eb01 0140 	add.w	r1, r1, r0, lsl #1
  40270c:	6011      	str	r1, [r2, #0]
	}

	/* Retrieve day */
	if (pul_day) {
  40270e:	b143      	cbz	r3, 402722 <rtc_get_date+0x66>
		ul_temp = (ul_date & RTC_CALR_DATE_Msk) >> RTC_CALR_DATE_Pos;
		*pul_day = (ul_temp >> BCD_SHIFT) * BCD_FACTOR + (ul_temp & BCD_MASK);
  402710:	f3c4 7201 	ubfx	r2, r4, #28, #2
  402714:	eb02 0282 	add.w	r2, r2, r2, lsl #2
  402718:	f3c4 6103 	ubfx	r1, r4, #24, #4
  40271c:	eb01 0242 	add.w	r2, r1, r2, lsl #1
  402720:	601a      	str	r2, [r3, #0]
	}

	/* Retrieve week */
	if (pul_week) {
  402722:	b116      	cbz	r6, 40272a <rtc_get_date+0x6e>
		*pul_week = ((ul_date & RTC_CALR_DAY_Msk) >> RTC_CALR_DAY_Pos);
  402724:	f3c4 5442 	ubfx	r4, r4, #21, #3
  402728:	6034      	str	r4, [r6, #0]
	}
}
  40272a:	bcf0      	pop	{r4, r5, r6, r7}
  40272c:	4770      	bx	lr
	...

00402730 <rtc_set_date>:
 *
 * \return 0 for OK, else invalid setting.
 */
uint32_t rtc_set_date(Rtc *p_rtc, uint32_t ul_year, uint32_t ul_month,
		uint32_t ul_day, uint32_t ul_week)
{
  402730:	b470      	push	{r4, r5, r6}

	/* Week */
	ul_date |= (ul_week << RTC_CALR_DAY_Pos);

	/* Day */
	ul_date |= ((ul_day / BCD_FACTOR) << (RTC_CALR_DATE_Pos + BCD_SHIFT)) |
  402732:	4d2a      	ldr	r5, [pc, #168]	; (4027dc <rtc_set_date+0xac>)
  402734:	fba5 4603 	umull	r4, r6, r5, r3
  402738:	08f6      	lsrs	r6, r6, #3
	ul_date |= (ul_week << RTC_CALR_DAY_Pos);
  40273a:	9c03      	ldr	r4, [sp, #12]
  40273c:	0564      	lsls	r4, r4, #21
	ul_date |= ((ul_day / BCD_FACTOR) << (RTC_CALR_DATE_Pos + BCD_SHIFT)) |
  40273e:	ea44 7406 	orr.w	r4, r4, r6, lsl #28
			((ul_day % BCD_FACTOR) << RTC_CALR_DATE_Pos);
  402742:	eb06 0686 	add.w	r6, r6, r6, lsl #2
  402746:	eba3 0346 	sub.w	r3, r3, r6, lsl #1
	ul_date |= ((ul_day / BCD_FACTOR) << (RTC_CALR_DATE_Pos + BCD_SHIFT)) |
  40274a:	ea44 6303 	orr.w	r3, r4, r3, lsl #24
	ul_date |= ((ul_month / BCD_FACTOR) << (RTC_CALR_MONTH_Pos + BCD_SHIFT)) |
  40274e:	fba5 6402 	umull	r6, r4, r5, r2
  402752:	08e4      	lsrs	r4, r4, #3
	ul_date |= ((ul_day / BCD_FACTOR) << (RTC_CALR_DATE_Pos + BCD_SHIFT)) |
  402754:	ea43 5304 	orr.w	r3, r3, r4, lsl #20
			((ul_month % BCD_FACTOR) << RTC_CALR_MONTH_Pos);
  402758:	eb04 0484 	add.w	r4, r4, r4, lsl #2
  40275c:	eba2 0244 	sub.w	r2, r2, r4, lsl #1
	ul_date |= ((ul_day / BCD_FACTOR) << (RTC_CALR_DATE_Pos + BCD_SHIFT)) |
  402760:	ea43 4202 	orr.w	r2, r3, r2, lsl #16
	ul_date |= ((ul_year / BCD_FACTOR / BCD_FACTOR / BCD_FACTOR) <<
  402764:	4b1e      	ldr	r3, [pc, #120]	; (4027e0 <rtc_set_date+0xb0>)
  402766:	fba3 4301 	umull	r4, r3, r3, r1
  40276a:	099b      	lsrs	r3, r3, #6
	ul_date |= ((ul_day / BCD_FACTOR) << (RTC_CALR_DATE_Pos + BCD_SHIFT)) |
  40276c:	ea42 1203 	orr.w	r2, r2, r3, lsl #4
			((ul_year / BCD_FACTOR / BCD_FACTOR) % BCD_FACTOR) <<  RTC_CALR_CENT_Pos);
  402770:	4b1c      	ldr	r3, [pc, #112]	; (4027e4 <rtc_set_date+0xb4>)
  402772:	fba3 4301 	umull	r4, r3, r3, r1
  402776:	095b      	lsrs	r3, r3, #5
  402778:	fba5 6403 	umull	r6, r4, r5, r3
  40277c:	08e4      	lsrs	r4, r4, #3
  40277e:	eb04 0484 	add.w	r4, r4, r4, lsl #2
  402782:	eba3 0344 	sub.w	r3, r3, r4, lsl #1
	ul_date |= ((ul_day / BCD_FACTOR) << (RTC_CALR_DATE_Pos + BCD_SHIFT)) |
  402786:	431a      	orrs	r2, r3
			((ul_year % BCD_FACTOR) << RTC_CALR_YEAR_Pos);
  402788:	fba5 4301 	umull	r4, r3, r5, r1
  40278c:	08db      	lsrs	r3, r3, #3
  40278e:	eb03 0483 	add.w	r4, r3, r3, lsl #2
  402792:	eba1 0144 	sub.w	r1, r1, r4, lsl #1
	ul_date |= ((ul_day / BCD_FACTOR) << (RTC_CALR_DATE_Pos + BCD_SHIFT)) |
  402796:	ea42 2201 	orr.w	r2, r2, r1, lsl #8
	ul_date |= (((ul_year / BCD_FACTOR) % BCD_FACTOR) <<
  40279a:	fba5 1503 	umull	r1, r5, r5, r3
  40279e:	08ed      	lsrs	r5, r5, #3
  4027a0:	eb05 0585 	add.w	r5, r5, r5, lsl #2
  4027a4:	eba3 0545 	sub.w	r5, r3, r5, lsl #1
	ul_date |= ((ul_day / BCD_FACTOR) << (RTC_CALR_DATE_Pos + BCD_SHIFT)) |
  4027a8:	ea42 3205 	orr.w	r2, r2, r5, lsl #12

	/* Update calendar register. Check the spec for the flow. */
	while ((p_rtc->RTC_SR & RTC_SR_SEC) != RTC_SR_SEC);
  4027ac:	6983      	ldr	r3, [r0, #24]
  4027ae:	f013 0f04 	tst.w	r3, #4
  4027b2:	d0fb      	beq.n	4027ac <rtc_set_date+0x7c>
	p_rtc->RTC_CR |= RTC_CR_UPDCAL;
  4027b4:	6803      	ldr	r3, [r0, #0]
  4027b6:	f043 0302 	orr.w	r3, r3, #2
  4027ba:	6003      	str	r3, [r0, #0]
	while ((p_rtc->RTC_SR & RTC_SR_ACKUPD) != RTC_SR_ACKUPD);
  4027bc:	6983      	ldr	r3, [r0, #24]
  4027be:	f013 0f01 	tst.w	r3, #1
  4027c2:	d0fb      	beq.n	4027bc <rtc_set_date+0x8c>
	p_rtc->RTC_SCCR = RTC_SCCR_ACKCLR;
  4027c4:	2301      	movs	r3, #1
  4027c6:	61c3      	str	r3, [r0, #28]
	p_rtc->RTC_CALR = ul_date;
  4027c8:	60c2      	str	r2, [r0, #12]
	p_rtc->RTC_CR &= (~RTC_CR_UPDCAL);
  4027ca:	6803      	ldr	r3, [r0, #0]
  4027cc:	f023 0302 	bic.w	r3, r3, #2
  4027d0:	6003      	str	r3, [r0, #0]

	return (p_rtc->RTC_VER & RTC_VER_NVCAL);
  4027d2:	6ac0      	ldr	r0, [r0, #44]	; 0x2c
}
  4027d4:	f000 0002 	and.w	r0, r0, #2
  4027d8:	bc70      	pop	{r4, r5, r6}
  4027da:	4770      	bx	lr
  4027dc:	cccccccd 	.word	0xcccccccd
  4027e0:	10624dd3 	.word	0x10624dd3
  4027e4:	51eb851f 	.word	0x51eb851f

004027e8 <spi_enable_clock>:
 * \brief Enable SPI clock.
 *
 * \param p_spi Pointer to an SPI instance.
 */
void spi_enable_clock(Spi *p_spi)
{
  4027e8:	b508      	push	{r3, lr}
  4027ea:	2015      	movs	r0, #21
  4027ec:	4b01      	ldr	r3, [pc, #4]	; (4027f4 <spi_enable_clock+0xc>)
  4027ee:	4798      	blx	r3
  4027f0:	bd08      	pop	{r3, pc}
  4027f2:	bf00      	nop
  4027f4:	00402565 	.word	0x00402565

004027f8 <spi_set_peripheral_chip_select_value>:
 *                 \ref spi_enable_peripheral_select_decode,
 *                 \ref spi_disable_peripheral_select_decode.
 */
void spi_set_peripheral_chip_select_value(Spi *p_spi, uint32_t ul_value)
{
	p_spi->SPI_MR &= (~SPI_MR_PCS_Msk);
  4027f8:	6843      	ldr	r3, [r0, #4]
  4027fa:	f423 2370 	bic.w	r3, r3, #983040	; 0xf0000
  4027fe:	6043      	str	r3, [r0, #4]
	p_spi->SPI_MR |= SPI_MR_PCS(ul_value);
  402800:	6843      	ldr	r3, [r0, #4]
  402802:	0409      	lsls	r1, r1, #16
  402804:	f401 2170 	and.w	r1, r1, #983040	; 0xf0000
  402808:	4319      	orrs	r1, r3
  40280a:	6041      	str	r1, [r0, #4]
  40280c:	4770      	bx	lr

0040280e <spi_set_delay_between_chip_select>:
 * \param p_spi Pointer to an SPI instance.
 * \param ul_delay Delay between chip selects (in number of MCK clocks).
 */
void spi_set_delay_between_chip_select(Spi *p_spi, uint32_t ul_delay)
{
	p_spi->SPI_MR &= (~SPI_MR_DLYBCS_Msk);
  40280e:	6843      	ldr	r3, [r0, #4]
  402810:	f023 437f 	bic.w	r3, r3, #4278190080	; 0xff000000
  402814:	6043      	str	r3, [r0, #4]
	p_spi->SPI_MR |= SPI_MR_DLYBCS(ul_delay);
  402816:	6843      	ldr	r3, [r0, #4]
  402818:	ea43 6101 	orr.w	r1, r3, r1, lsl #24
  40281c:	6041      	str	r1, [r0, #4]
  40281e:	4770      	bx	lr

00402820 <spi_set_clock_polarity>:
 * \param ul_polarity Default clock state is logical one(high)/zero(low).
 */
void spi_set_clock_polarity(Spi *p_spi, uint32_t ul_pcs_ch,
		uint32_t ul_polarity)
{
	if (ul_polarity) {
  402820:	b932      	cbnz	r2, 402830 <spi_set_clock_polarity+0x10>
  402822:	eb00 0081 	add.w	r0, r0, r1, lsl #2
		p_spi->SPI_CSR[ul_pcs_ch] |= SPI_CSR_CPOL;
	} else {
		p_spi->SPI_CSR[ul_pcs_ch] &= (~SPI_CSR_CPOL);
  402826:	6b03      	ldr	r3, [r0, #48]	; 0x30
  402828:	f023 0301 	bic.w	r3, r3, #1
  40282c:	6303      	str	r3, [r0, #48]	; 0x30
  40282e:	4770      	bx	lr
  402830:	eb00 0081 	add.w	r0, r0, r1, lsl #2
		p_spi->SPI_CSR[ul_pcs_ch] |= SPI_CSR_CPOL;
  402834:	6b03      	ldr	r3, [r0, #48]	; 0x30
  402836:	f043 0301 	orr.w	r3, r3, #1
  40283a:	6303      	str	r3, [r0, #48]	; 0x30
  40283c:	4770      	bx	lr

0040283e <spi_set_clock_phase>:
 *  \param ul_pcs_ch Peripheral Chip Select channel (0~3).
 *  \param ul_phase Data capture on the rising/falling edge of clock.
 */
void spi_set_clock_phase(Spi *p_spi, uint32_t ul_pcs_ch, uint32_t ul_phase)
{
	if (ul_phase) {
  40283e:	b932      	cbnz	r2, 40284e <spi_set_clock_phase+0x10>
  402840:	eb00 0081 	add.w	r0, r0, r1, lsl #2
		p_spi->SPI_CSR[ul_pcs_ch] |= SPI_CSR_NCPHA;
	} else {
		p_spi->SPI_CSR[ul_pcs_ch] &= (~SPI_CSR_NCPHA);
  402844:	6b03      	ldr	r3, [r0, #48]	; 0x30
  402846:	f023 0302 	bic.w	r3, r3, #2
  40284a:	6303      	str	r3, [r0, #48]	; 0x30
  40284c:	4770      	bx	lr
  40284e:	eb00 0081 	add.w	r0, r0, r1, lsl #2
		p_spi->SPI_CSR[ul_pcs_ch] |= SPI_CSR_NCPHA;
  402852:	6b03      	ldr	r3, [r0, #48]	; 0x30
  402854:	f043 0302 	orr.w	r3, r3, #2
  402858:	6303      	str	r3, [r0, #48]	; 0x30
  40285a:	4770      	bx	lr

0040285c <spi_configure_cs_behavior>:
 * \param ul_cs_behavior Behavior of the Chip Select after transfer.
 */
void spi_configure_cs_behavior(Spi *p_spi, uint32_t ul_pcs_ch,
		uint32_t ul_cs_behavior)
{
	if (ul_cs_behavior == SPI_CS_RISE_FORCED) {
  40285c:	2a04      	cmp	r2, #4
  40285e:	d003      	beq.n	402868 <spi_configure_cs_behavior+0xc>
		p_spi->SPI_CSR[ul_pcs_ch] &= (~SPI_CSR_CSAAT);
		p_spi->SPI_CSR[ul_pcs_ch] |= SPI_CSR_CSNAAT;
	} else if (ul_cs_behavior == SPI_CS_RISE_NO_TX) {
  402860:	b16a      	cbz	r2, 40287e <spi_configure_cs_behavior+0x22>
		p_spi->SPI_CSR[ul_pcs_ch] &= (~SPI_CSR_CSAAT);
		p_spi->SPI_CSR[ul_pcs_ch] &= (~SPI_CSR_CSNAAT);
	} else if (ul_cs_behavior == SPI_CS_KEEP_LOW) {
  402862:	2a08      	cmp	r2, #8
  402864:	d016      	beq.n	402894 <spi_configure_cs_behavior+0x38>
  402866:	4770      	bx	lr
  402868:	eb00 0081 	add.w	r0, r0, r1, lsl #2
		p_spi->SPI_CSR[ul_pcs_ch] &= (~SPI_CSR_CSAAT);
  40286c:	6b03      	ldr	r3, [r0, #48]	; 0x30
  40286e:	f023 0308 	bic.w	r3, r3, #8
  402872:	6303      	str	r3, [r0, #48]	; 0x30
		p_spi->SPI_CSR[ul_pcs_ch] |= SPI_CSR_CSNAAT;
  402874:	6b03      	ldr	r3, [r0, #48]	; 0x30
  402876:	f043 0304 	orr.w	r3, r3, #4
  40287a:	6303      	str	r3, [r0, #48]	; 0x30
  40287c:	4770      	bx	lr
  40287e:	eb00 0081 	add.w	r0, r0, r1, lsl #2
		p_spi->SPI_CSR[ul_pcs_ch] &= (~SPI_CSR_CSAAT);
  402882:	6b03      	ldr	r3, [r0, #48]	; 0x30
  402884:	f023 0308 	bic.w	r3, r3, #8
  402888:	6303      	str	r3, [r0, #48]	; 0x30
		p_spi->SPI_CSR[ul_pcs_ch] &= (~SPI_CSR_CSNAAT);
  40288a:	6b03      	ldr	r3, [r0, #48]	; 0x30
  40288c:	f023 0304 	bic.w	r3, r3, #4
  402890:	6303      	str	r3, [r0, #48]	; 0x30
  402892:	4770      	bx	lr
  402894:	eb00 0081 	add.w	r0, r0, r1, lsl #2
		p_spi->SPI_CSR[ul_pcs_ch] |= SPI_CSR_CSAAT;
  402898:	6b03      	ldr	r3, [r0, #48]	; 0x30
  40289a:	f043 0308 	orr.w	r3, r3, #8
  40289e:	6303      	str	r3, [r0, #48]	; 0x30
	}
}
  4028a0:	e7e1      	b.n	402866 <spi_configure_cs_behavior+0xa>

004028a2 <spi_set_bits_per_transfer>:
 * \param ul_bits Number of bits (8~16), use the pattern defined
 *        in the device header file.
 */
void spi_set_bits_per_transfer(Spi *p_spi, uint32_t ul_pcs_ch,
		uint32_t ul_bits)
{
  4028a2:	eb00 0181 	add.w	r1, r0, r1, lsl #2
	p_spi->SPI_CSR[ul_pcs_ch] &= (~SPI_CSR_BITS_Msk);
  4028a6:	6b0b      	ldr	r3, [r1, #48]	; 0x30
  4028a8:	f023 03f0 	bic.w	r3, r3, #240	; 0xf0
  4028ac:	630b      	str	r3, [r1, #48]	; 0x30
	p_spi->SPI_CSR[ul_pcs_ch] |= ul_bits;
  4028ae:	6b0b      	ldr	r3, [r1, #48]	; 0x30
  4028b0:	431a      	orrs	r2, r3
  4028b2:	630a      	str	r2, [r1, #48]	; 0x30
  4028b4:	4770      	bx	lr

004028b6 <spi_calc_baudrate_div>:
 *   \retval > 0  Success.
 *   \retval < 0  Error.
 */
int16_t spi_calc_baudrate_div(const uint32_t baudrate, uint32_t mck)
{
	int baud_div = div_ceil(mck, baudrate);
  4028b6:	1e43      	subs	r3, r0, #1
  4028b8:	4419      	add	r1, r3
  4028ba:	fbb1 f0f0 	udiv	r0, r1, r0

	/* The value of baud_div is from 1 to 255 in the SCBR field. */
	if (baud_div <= 0 || baud_div > 255) {
  4028be:	1e43      	subs	r3, r0, #1
  4028c0:	2bfe      	cmp	r3, #254	; 0xfe
		return -1;
	}

	return baud_div;
  4028c2:	bf94      	ite	ls
  4028c4:	b200      	sxthls	r0, r0
		return -1;
  4028c6:	f04f 30ff 	movhi.w	r0, #4294967295
}
  4028ca:	4770      	bx	lr

004028cc <spi_set_baudrate_div>:
 */
int16_t spi_set_baudrate_div(Spi *p_spi, uint32_t ul_pcs_ch,
		uint8_t uc_baudrate_divider)
{
    /* Programming the SCBR field to 0 is forbidden */
    if (!uc_baudrate_divider)
  4028cc:	b172      	cbz	r2, 4028ec <spi_set_baudrate_div+0x20>
{
  4028ce:	b410      	push	{r4}
  4028d0:	4614      	mov	r4, r2
  4028d2:	eb00 0181 	add.w	r1, r0, r1, lsl #2
        return -1;

	p_spi->SPI_CSR[ul_pcs_ch] &= (~SPI_CSR_SCBR_Msk);
  4028d6:	6b0b      	ldr	r3, [r1, #48]	; 0x30
  4028d8:	f423 437f 	bic.w	r3, r3, #65280	; 0xff00
  4028dc:	630b      	str	r3, [r1, #48]	; 0x30
	p_spi->SPI_CSR[ul_pcs_ch] |= SPI_CSR_SCBR(uc_baudrate_divider);
  4028de:	6b0a      	ldr	r2, [r1, #48]	; 0x30
  4028e0:	ea42 2204 	orr.w	r2, r2, r4, lsl #8
  4028e4:	630a      	str	r2, [r1, #48]	; 0x30
    return 0;
  4028e6:	2000      	movs	r0, #0
}
  4028e8:	bc10      	pop	{r4}
  4028ea:	4770      	bx	lr
        return -1;
  4028ec:	f04f 30ff 	mov.w	r0, #4294967295
  4028f0:	4770      	bx	lr

004028f2 <spi_set_transfer_delay>:
 * \param uc_dlybs Delay before SPCK (in number of MCK clocks).
 * \param uc_dlybct Delay between consecutive transfers (in number of MCK clocks).
 */
void spi_set_transfer_delay(Spi *p_spi, uint32_t ul_pcs_ch,
		uint8_t uc_dlybs, uint8_t uc_dlybct)
{
  4028f2:	b410      	push	{r4}
  4028f4:	eb00 0181 	add.w	r1, r0, r1, lsl #2
	p_spi->SPI_CSR[ul_pcs_ch] &= ~(SPI_CSR_DLYBS_Msk | SPI_CSR_DLYBCT_Msk);
  4028f8:	6b08      	ldr	r0, [r1, #48]	; 0x30
  4028fa:	b280      	uxth	r0, r0
  4028fc:	6308      	str	r0, [r1, #48]	; 0x30
	p_spi->SPI_CSR[ul_pcs_ch] |= SPI_CSR_DLYBS(uc_dlybs)
  4028fe:	6b0c      	ldr	r4, [r1, #48]	; 0x30
  402900:	ea44 6303 	orr.w	r3, r4, r3, lsl #24
  402904:	ea43 4302 	orr.w	r3, r3, r2, lsl #16
  402908:	630b      	str	r3, [r1, #48]	; 0x30
			| SPI_CSR_DLYBCT(uc_dlybct);
}
  40290a:	bc10      	pop	{r4}
  40290c:	4770      	bx	lr
	...

00402910 <twi_set_speed>:
{
	uint32_t ckdiv = 0;
	uint32_t c_lh_div;
	uint32_t cldiv, chdiv;

	if (ul_speed > I2C_FAST_MODE_SPEED) {
  402910:	4b2a      	ldr	r3, [pc, #168]	; (4029bc <twi_set_speed+0xac>)
  402912:	4299      	cmp	r1, r3
  402914:	d849      	bhi.n	4029aa <twi_set_speed+0x9a>
		return FAIL;
	}

	/* Low level time not less than 1.3us of I2C Fast Mode. */
	if (ul_speed > LOW_LEVEL_TIME_LIMIT) {
  402916:	f5a3 537a 	sub.w	r3, r3, #16000	; 0x3e80
  40291a:	4299      	cmp	r1, r3
  40291c:	d92b      	bls.n	402976 <twi_set_speed+0x66>
{
  40291e:	b410      	push	{r4}
		/* Low level of time fixed for 1.3us. */
		cldiv = ul_mck / (LOW_LEVEL_TIME_LIMIT * TWI_CLK_DIVIDER) - TWI_CLK_CALC_ARGU;
  402920:	4c27      	ldr	r4, [pc, #156]	; (4029c0 <twi_set_speed+0xb0>)
  402922:	fba4 3402 	umull	r3, r4, r4, r2
  402926:	0ba4      	lsrs	r4, r4, #14
  402928:	3c04      	subs	r4, #4
		chdiv = ul_mck / ((ul_speed + (ul_speed - LOW_LEVEL_TIME_LIMIT)) * TWI_CLK_DIVIDER) - TWI_CLK_CALC_ARGU;
  40292a:	4b26      	ldr	r3, [pc, #152]	; (4029c4 <twi_set_speed+0xb4>)
  40292c:	440b      	add	r3, r1
  40292e:	009b      	lsls	r3, r3, #2
  402930:	fbb2 f2f3 	udiv	r2, r2, r3
  402934:	3a04      	subs	r2, #4
		
		/* cldiv must fit in 8 bits, ckdiv must fit in 3 bits */
		while ((cldiv > TWI_CLK_DIV_MAX) && (ckdiv < TWI_CLK_DIV_MIN)) {
  402936:	2cff      	cmp	r4, #255	; 0xff
  402938:	d939      	bls.n	4029ae <twi_set_speed+0x9e>
  40293a:	2100      	movs	r1, #0
			/* Increase clock divider */
			ckdiv++;
  40293c:	3101      	adds	r1, #1
			/* Divide cldiv value */
			cldiv /= TWI_CLK_DIVIDER;
  40293e:	0864      	lsrs	r4, r4, #1
		while ((cldiv > TWI_CLK_DIV_MAX) && (ckdiv < TWI_CLK_DIV_MIN)) {
  402940:	2cff      	cmp	r4, #255	; 0xff
  402942:	d90d      	bls.n	402960 <twi_set_speed+0x50>
  402944:	2907      	cmp	r1, #7
  402946:	d1f9      	bne.n	40293c <twi_set_speed+0x2c>
			chdiv /= TWI_CLK_DIVIDER;
		}

		/* set clock waveform generator register */
		p_twi->TWI_CWGR =
				TWI_CWGR_CLDIV(cldiv) | TWI_CWGR_CHDIV(chdiv) |
  402948:	0213      	lsls	r3, r2, #8
  40294a:	b29b      	uxth	r3, r3
				TWI_CWGR_CKDIV(ckdiv);		
  40294c:	0409      	lsls	r1, r1, #16
  40294e:	f401 21e0 	and.w	r1, r1, #458752	; 0x70000
				TWI_CWGR_CLDIV(cldiv) | TWI_CWGR_CHDIV(chdiv) |
  402952:	430b      	orrs	r3, r1
  402954:	b2e4      	uxtb	r4, r4
  402956:	4323      	orrs	r3, r4
		p_twi->TWI_CWGR =
  402958:	6103      	str	r3, [r0, #16]
		p_twi->TWI_CWGR =
				TWI_CWGR_CLDIV(c_lh_div) | TWI_CWGR_CHDIV(c_lh_div) |
				TWI_CWGR_CKDIV(ckdiv);
	}

	return PASS;
  40295a:	2000      	movs	r0, #0
}
  40295c:	bc10      	pop	{r4}
  40295e:	4770      	bx	lr
		while ((chdiv > TWI_CLK_DIV_MAX) && (ckdiv < TWI_CLK_DIV_MIN)) {
  402960:	2aff      	cmp	r2, #255	; 0xff
  402962:	d9f1      	bls.n	402948 <twi_set_speed+0x38>
  402964:	2906      	cmp	r1, #6
  402966:	d8ef      	bhi.n	402948 <twi_set_speed+0x38>
			ckdiv++;
  402968:	3101      	adds	r1, #1
			chdiv /= TWI_CLK_DIVIDER;
  40296a:	0852      	lsrs	r2, r2, #1
		while ((chdiv > TWI_CLK_DIV_MAX) && (ckdiv < TWI_CLK_DIV_MIN)) {
  40296c:	2aff      	cmp	r2, #255	; 0xff
  40296e:	d9eb      	bls.n	402948 <twi_set_speed+0x38>
  402970:	2906      	cmp	r1, #6
  402972:	d9f9      	bls.n	402968 <twi_set_speed+0x58>
  402974:	e7e8      	b.n	402948 <twi_set_speed+0x38>
		c_lh_div = ul_mck / (ul_speed * TWI_CLK_DIVIDER) - TWI_CLK_CALC_ARGU;
  402976:	0049      	lsls	r1, r1, #1
  402978:	fbb2 f2f1 	udiv	r2, r2, r1
  40297c:	3a04      	subs	r2, #4
		while ((c_lh_div > TWI_CLK_DIV_MAX) && (ckdiv < TWI_CLK_DIV_MIN)) {
  40297e:	2aff      	cmp	r2, #255	; 0xff
  402980:	d911      	bls.n	4029a6 <twi_set_speed+0x96>
  402982:	2300      	movs	r3, #0
			ckdiv++;
  402984:	3301      	adds	r3, #1
			c_lh_div /= TWI_CLK_DIVIDER;
  402986:	0852      	lsrs	r2, r2, #1
		while ((c_lh_div > TWI_CLK_DIV_MAX) && (ckdiv < TWI_CLK_DIV_MIN)) {
  402988:	2aff      	cmp	r2, #255	; 0xff
  40298a:	d901      	bls.n	402990 <twi_set_speed+0x80>
  40298c:	2b07      	cmp	r3, #7
  40298e:	d1f9      	bne.n	402984 <twi_set_speed+0x74>
				TWI_CWGR_CLDIV(c_lh_div) | TWI_CWGR_CHDIV(c_lh_div) |
  402990:	0211      	lsls	r1, r2, #8
  402992:	b289      	uxth	r1, r1
				TWI_CWGR_CKDIV(ckdiv);
  402994:	041b      	lsls	r3, r3, #16
  402996:	f403 23e0 	and.w	r3, r3, #458752	; 0x70000
				TWI_CWGR_CLDIV(c_lh_div) | TWI_CWGR_CHDIV(c_lh_div) |
  40299a:	430b      	orrs	r3, r1
  40299c:	b2d2      	uxtb	r2, r2
  40299e:	431a      	orrs	r2, r3
		p_twi->TWI_CWGR =
  4029a0:	6102      	str	r2, [r0, #16]
	return PASS;
  4029a2:	2000      	movs	r0, #0
  4029a4:	4770      	bx	lr
	uint32_t ckdiv = 0;
  4029a6:	2300      	movs	r3, #0
  4029a8:	e7f2      	b.n	402990 <twi_set_speed+0x80>
		return FAIL;
  4029aa:	2001      	movs	r0, #1
  4029ac:	4770      	bx	lr
		while ((chdiv > TWI_CLK_DIV_MAX) && (ckdiv < TWI_CLK_DIV_MIN)) {
  4029ae:	2aff      	cmp	r2, #255	; 0xff
	uint32_t ckdiv = 0;
  4029b0:	bf88      	it	hi
  4029b2:	2100      	movhi	r1, #0
		while ((chdiv > TWI_CLK_DIV_MAX) && (ckdiv < TWI_CLK_DIV_MIN)) {
  4029b4:	d8d8      	bhi.n	402968 <twi_set_speed+0x58>
	uint32_t ckdiv = 0;
  4029b6:	2100      	movs	r1, #0
  4029b8:	e7c6      	b.n	402948 <twi_set_speed+0x38>
  4029ba:	bf00      	nop
  4029bc:	00061a80 	.word	0x00061a80
  4029c0:	057619f1 	.word	0x057619f1
  4029c4:	3ffd1200 	.word	0x3ffd1200

004029c8 <twi_master_init>:
{
  4029c8:	b538      	push	{r3, r4, r5, lr}
  4029ca:	4604      	mov	r4, r0
  4029cc:	460d      	mov	r5, r1
	p_twi->TWI_IDR = ~0UL;
  4029ce:	f04f 33ff 	mov.w	r3, #4294967295
  4029d2:	6283      	str	r3, [r0, #40]	; 0x28
	p_twi->TWI_SR;
  4029d4:	6a03      	ldr	r3, [r0, #32]
 * \param p_twi Pointer to a TWI instance.
 */
void twi_reset(Twi *p_twi)
{
	/* Set SWRST bit to reset TWI peripheral */
	p_twi->TWI_CR = TWI_CR_SWRST;
  4029d6:	2380      	movs	r3, #128	; 0x80
  4029d8:	6003      	str	r3, [r0, #0]
	p_twi->TWI_RHR;
  4029da:	6b03      	ldr	r3, [r0, #48]	; 0x30
	p_twi->TWI_CR = TWI_CR_MSDIS;
  4029dc:	2308      	movs	r3, #8
  4029de:	6003      	str	r3, [r0, #0]
	p_twi->TWI_CR = TWI_CR_SVDIS;
  4029e0:	2320      	movs	r3, #32
  4029e2:	6003      	str	r3, [r0, #0]
	p_twi->TWI_CR = TWI_CR_MSEN;
  4029e4:	2304      	movs	r3, #4
  4029e6:	6003      	str	r3, [r0, #0]
	if (twi_set_speed(p_twi, p_opt->speed, p_opt->master_clk) == FAIL) {
  4029e8:	680a      	ldr	r2, [r1, #0]
  4029ea:	6849      	ldr	r1, [r1, #4]
  4029ec:	4b05      	ldr	r3, [pc, #20]	; (402a04 <twi_master_init+0x3c>)
  4029ee:	4798      	blx	r3
  4029f0:	2801      	cmp	r0, #1
  4029f2:	bf14      	ite	ne
  4029f4:	2000      	movne	r0, #0
  4029f6:	2001      	moveq	r0, #1
	if (p_opt->smbus == 1) {
  4029f8:	7a6b      	ldrb	r3, [r5, #9]
  4029fa:	2b01      	cmp	r3, #1
		p_twi->TWI_CR = TWI_CR_QUICK;
  4029fc:	bf04      	itt	eq
  4029fe:	2340      	moveq	r3, #64	; 0x40
  402a00:	6023      	streq	r3, [r4, #0]
}
  402a02:	bd38      	pop	{r3, r4, r5, pc}
  402a04:	00402911 	.word	0x00402911

00402a08 <twi_mk_addr>:
	if (len == 0)
  402a08:	460a      	mov	r2, r1
  402a0a:	b159      	cbz	r1, 402a24 <twi_mk_addr+0x1c>
	val = addr[0];
  402a0c:	7803      	ldrb	r3, [r0, #0]
	if (len > 1) {
  402a0e:	2901      	cmp	r1, #1
		val |= addr[1];
  402a10:	bfc4      	itt	gt
  402a12:	7841      	ldrbgt	r1, [r0, #1]
  402a14:	ea41 2303 	orrgt.w	r3, r1, r3, lsl #8
	if (len > 2) {
  402a18:	2a02      	cmp	r2, #2
  402a1a:	dd04      	ble.n	402a26 <twi_mk_addr+0x1e>
		val |= addr[2];
  402a1c:	7882      	ldrb	r2, [r0, #2]
  402a1e:	ea42 2303 	orr.w	r3, r2, r3, lsl #8
  402a22:	e000      	b.n	402a26 <twi_mk_addr+0x1e>
		return 0;
  402a24:	2300      	movs	r3, #0
}
  402a26:	4618      	mov	r0, r3
  402a28:	4770      	bx	lr
	...

00402a2c <twi_master_read>:
{
  402a2c:	b5f8      	push	{r3, r4, r5, r6, r7, lr}
	uint32_t cnt = p_packet->length;
  402a2e:	68cc      	ldr	r4, [r1, #12]
	if (cnt == 0) {
  402a30:	2c00      	cmp	r4, #0
  402a32:	d04f      	beq.n	402ad4 <twi_master_read+0xa8>
  402a34:	460b      	mov	r3, r1
  402a36:	4605      	mov	r5, r0
	uint8_t *buffer = p_packet->buffer;
  402a38:	688e      	ldr	r6, [r1, #8]
	p_twi->TWI_MMR = 0;
  402a3a:	2000      	movs	r0, #0
  402a3c:	6068      	str	r0, [r5, #4]
			((p_packet->addr_length << TWI_MMR_IADRSZ_Pos) &
  402a3e:	684a      	ldr	r2, [r1, #4]
  402a40:	0212      	lsls	r2, r2, #8
  402a42:	f402 7240 	and.w	r2, r2, #768	; 0x300
	p_twi->TWI_MMR = TWI_MMR_MREAD | TWI_MMR_DADR(p_packet->chip) |
  402a46:	f442 5280 	orr.w	r2, r2, #4096	; 0x1000
  402a4a:	7c09      	ldrb	r1, [r1, #16]
  402a4c:	0409      	lsls	r1, r1, #16
  402a4e:	f401 01fe 	and.w	r1, r1, #8323072	; 0x7f0000
  402a52:	430a      	orrs	r2, r1
  402a54:	606a      	str	r2, [r5, #4]
	p_twi->TWI_IADR = 0;
  402a56:	60e8      	str	r0, [r5, #12]
	p_twi->TWI_IADR = twi_mk_addr(p_packet->addr, p_packet->addr_length);
  402a58:	6859      	ldr	r1, [r3, #4]
  402a5a:	4618      	mov	r0, r3
  402a5c:	4b22      	ldr	r3, [pc, #136]	; (402ae8 <twi_master_read+0xbc>)
  402a5e:	4798      	blx	r3
  402a60:	60e8      	str	r0, [r5, #12]
	if (cnt == 1) {
  402a62:	2c01      	cmp	r4, #1
  402a64:	d00f      	beq.n	402a86 <twi_master_read+0x5a>
		p_twi->TWI_CR = TWI_CR_START;
  402a66:	2301      	movs	r3, #1
  402a68:	602b      	str	r3, [r5, #0]
		stop_sent = 0;
  402a6a:	2000      	movs	r0, #0
		status = p_twi->TWI_SR;
  402a6c:	6a2b      	ldr	r3, [r5, #32]
		if (status & TWI_SR_NACK) {
  402a6e:	f413 7f80 	tst.w	r3, #256	; 0x100
  402a72:	d136      	bne.n	402ae2 <twi_master_read+0xb6>
  402a74:	f247 512f 	movw	r1, #29999	; 0x752f
		timeout = TWI_TIMEOUT;
  402a78:	f247 5730 	movw	r7, #30000	; 0x7530
		if (!(status & TWI_SR_RXRDY)) {
  402a7c:	f04f 0e01 	mov.w	lr, #1
			p_twi->TWI_CR = TWI_CR_STOP;
  402a80:	f04f 0c02 	mov.w	ip, #2
  402a84:	e019      	b.n	402aba <twi_master_read+0x8e>
		p_twi->TWI_CR = TWI_CR_START | TWI_CR_STOP;
  402a86:	2303      	movs	r3, #3
  402a88:	602b      	str	r3, [r5, #0]
		stop_sent = 1;
  402a8a:	2001      	movs	r0, #1
  402a8c:	e7ee      	b.n	402a6c <twi_master_read+0x40>
		if (!(status & TWI_SR_RXRDY)) {
  402a8e:	460a      	mov	r2, r1
  402a90:	4670      	mov	r0, lr
  402a92:	e00c      	b.n	402aae <twi_master_read+0x82>
		if (cnt == 1  && !stop_sent) {
  402a94:	b908      	cbnz	r0, 402a9a <twi_master_read+0x6e>
			p_twi->TWI_CR = TWI_CR_STOP;
  402a96:	f8c5 c000 	str.w	ip, [r5]
		if (!(status & TWI_SR_RXRDY)) {
  402a9a:	f013 0f02 	tst.w	r3, #2
  402a9e:	d0f6      	beq.n	402a8e <twi_master_read+0x62>
  402aa0:	4670      	mov	r0, lr
		*buffer++ = p_twi->TWI_RHR;
  402aa2:	6b2b      	ldr	r3, [r5, #48]	; 0x30
  402aa4:	7033      	strb	r3, [r6, #0]
		cnt--;
  402aa6:	3c01      	subs	r4, #1
		*buffer++ = p_twi->TWI_RHR;
  402aa8:	3601      	adds	r6, #1
		timeout = TWI_TIMEOUT;
  402aaa:	463a      	mov	r2, r7
	while (cnt > 0) {
  402aac:	b164      	cbz	r4, 402ac8 <twi_master_read+0x9c>
		status = p_twi->TWI_SR;
  402aae:	6a2b      	ldr	r3, [r5, #32]
		if (status & TWI_SR_NACK) {
  402ab0:	f413 7f80 	tst.w	r3, #256	; 0x100
  402ab4:	d111      	bne.n	402ada <twi_master_read+0xae>
		if (!timeout--) {
  402ab6:	1e51      	subs	r1, r2, #1
  402ab8:	b18a      	cbz	r2, 402ade <twi_master_read+0xb2>
		if (cnt == 1  && !stop_sent) {
  402aba:	2c01      	cmp	r4, #1
  402abc:	d0ea      	beq.n	402a94 <twi_master_read+0x68>
		if (!(status & TWI_SR_RXRDY)) {
  402abe:	f013 0f02 	tst.w	r3, #2
  402ac2:	d1ee      	bne.n	402aa2 <twi_master_read+0x76>
  402ac4:	460a      	mov	r2, r1
  402ac6:	e7f1      	b.n	402aac <twi_master_read+0x80>
	while (!(p_twi->TWI_SR & TWI_SR_TXCOMP)) {
  402ac8:	6a2b      	ldr	r3, [r5, #32]
  402aca:	f013 0f01 	tst.w	r3, #1
  402ace:	d0fb      	beq.n	402ac8 <twi_master_read+0x9c>
	p_twi->TWI_SR;
  402ad0:	6a2b      	ldr	r3, [r5, #32]
	return TWI_SUCCESS;
  402ad2:	e000      	b.n	402ad6 <twi_master_read+0xaa>
		return TWI_INVALID_ARGUMENT;
  402ad4:	2401      	movs	r4, #1
}
  402ad6:	4620      	mov	r0, r4
  402ad8:	bdf8      	pop	{r3, r4, r5, r6, r7, pc}
			return TWI_RECEIVE_NACK;
  402ada:	2405      	movs	r4, #5
  402adc:	e7fb      	b.n	402ad6 <twi_master_read+0xaa>
			return TWI_ERROR_TIMEOUT;
  402ade:	2409      	movs	r4, #9
  402ae0:	e7f9      	b.n	402ad6 <twi_master_read+0xaa>
			return TWI_RECEIVE_NACK;
  402ae2:	2405      	movs	r4, #5
  402ae4:	e7f7      	b.n	402ad6 <twi_master_read+0xaa>
  402ae6:	bf00      	nop
  402ae8:	00402a09 	.word	0x00402a09

00402aec <uart_init>:
 *
 * \retval 0 Success.
 * \retval 1 Bad baud rate generator value.
 */
uint32_t uart_init(Uart *p_uart, const sam_uart_opt_t *p_uart_opt)
{
  402aec:	b410      	push	{r4}
	uint32_t cd = 0;

	/* Reset and disable receiver & transmitter */
	p_uart->UART_CR = UART_CR_RSTRX | UART_CR_RSTTX
  402aee:	23ac      	movs	r3, #172	; 0xac
  402af0:	6003      	str	r3, [r0, #0]
			| UART_CR_RXDIS | UART_CR_TXDIS;

	/* Check and configure baudrate */
	/* Asynchronous, no oversampling */
	cd = (p_uart_opt->ul_mck / p_uart_opt->ul_baudrate) / UART_MCK_DIV;
  402af2:	680b      	ldr	r3, [r1, #0]
  402af4:	684a      	ldr	r2, [r1, #4]
  402af6:	fbb3 f3f2 	udiv	r3, r3, r2
  402afa:	091b      	lsrs	r3, r3, #4
	if (cd < UART_MCK_DIV_MIN_FACTOR || cd > UART_MCK_DIV_MAX_FACTOR)
  402afc:	1e5c      	subs	r4, r3, #1
  402afe:	f64f 72fe 	movw	r2, #65534	; 0xfffe
  402b02:	4294      	cmp	r4, r2
  402b04:	d80b      	bhi.n	402b1e <uart_init+0x32>
		return 1;

	p_uart->UART_BRGR = cd;
  402b06:	6203      	str	r3, [r0, #32]
	/* Configure mode */
	p_uart->UART_MR = p_uart_opt->ul_mode;
  402b08:	688b      	ldr	r3, [r1, #8]
  402b0a:	6043      	str	r3, [r0, #4]

#if (!SAMV71 && !SAMV70 && !SAME70 && !SAMS70)
	/* Disable PDC channel */
	p_uart->UART_PTCR = UART_PTCR_RXTDIS | UART_PTCR_TXTDIS;
  402b0c:	f240 2302 	movw	r3, #514	; 0x202
  402b10:	f8c0 3120 	str.w	r3, [r0, #288]	; 0x120
#endif

	/* Enable receiver and transmitter */
	p_uart->UART_CR = UART_CR_RXEN | UART_CR_TXEN;
  402b14:	2350      	movs	r3, #80	; 0x50
  402b16:	6003      	str	r3, [r0, #0]

	return 0;
  402b18:	2000      	movs	r0, #0
}
  402b1a:	bc10      	pop	{r4}
  402b1c:	4770      	bx	lr
		return 1;
  402b1e:	2001      	movs	r0, #1
  402b20:	e7fb      	b.n	402b1a <uart_init+0x2e>

00402b22 <uart_enable_tx>:
 * \param p_uart Pointer to a UART instance.
 */
void uart_enable_tx(Uart *p_uart)
{
	/* Enable transmitter */
	p_uart->UART_CR = UART_CR_TXEN;
  402b22:	2340      	movs	r3, #64	; 0x40
  402b24:	6003      	str	r3, [r0, #0]
  402b26:	4770      	bx	lr

00402b28 <uart_enable_rx>:
 * \param p_uart Pointer to a UART instance.
 */
void uart_enable_rx(Uart *p_uart)
{
	/* Enable receiver */
	p_uart->UART_CR = UART_CR_RXEN;
  402b28:	2310      	movs	r3, #16
  402b2a:	6003      	str	r3, [r0, #0]
  402b2c:	4770      	bx	lr

00402b2e <uart_get_status>:
 *
 * \return The current UART status.
 */
uint32_t uart_get_status(Uart *p_uart)
{
	return p_uart->UART_SR;
  402b2e:	6940      	ldr	r0, [r0, #20]
}
  402b30:	4770      	bx	lr

00402b32 <uart_write>:
 * \retval 1 I/O Failure, UART is not ready.
 */
uint32_t uart_write(Uart *p_uart, const uint8_t uc_data)
{
	/* Check if the transmitter is ready */
	if (!(p_uart->UART_SR & UART_SR_TXRDY))
  402b32:	6943      	ldr	r3, [r0, #20]
  402b34:	f013 0f02 	tst.w	r3, #2
		return 1;

	/* Send character */
	p_uart->UART_THR = uc_data;
  402b38:	bf1a      	itte	ne
  402b3a:	61c1      	strne	r1, [r0, #28]
	return 0;
  402b3c:	2000      	movne	r0, #0
		return 1;
  402b3e:	2001      	moveq	r0, #1
}
  402b40:	4770      	bx	lr

00402b42 <uart_read>:
 * \retval 1 I/O Failure, UART is not ready.
 */
uint32_t uart_read(Uart *p_uart, uint8_t *puc_data)
{
	/* Check if the receiver is ready */
	if ((p_uart->UART_SR & UART_SR_RXRDY) == 0)
  402b42:	6943      	ldr	r3, [r0, #20]
  402b44:	f013 0f01 	tst.w	r3, #1
		return 1;

	/* Read character */
	*puc_data = (uint8_t) p_uart->UART_RHR;
  402b48:	bf1d      	ittte	ne
  402b4a:	6983      	ldrne	r3, [r0, #24]
  402b4c:	700b      	strbne	r3, [r1, #0]
	return 0;
  402b4e:	2000      	movne	r0, #0
		return 1;
  402b50:	2001      	moveq	r0, #1
}
  402b52:	4770      	bx	lr

00402b54 <usart_set_async_baudrate>:
 * \retval 1 Baud rate set point is out of range for the given input clock
 * frequency.
 */
uint32_t usart_set_async_baudrate(Usart *p_usart,
		uint32_t baudrate, uint32_t ul_mck)
{
  402b54:	b410      	push	{r4}
	uint32_t cd_fp;
	uint32_t cd;
	uint32_t fp;

	/* Calculate the receiver sampling divide of baudrate clock. */
	if (ul_mck >= HIGH_FRQ_SAMPLE_DIV * baudrate) {
  402b56:	010b      	lsls	r3, r1, #4
  402b58:	4293      	cmp	r3, r2
  402b5a:	d914      	bls.n	402b86 <usart_set_async_baudrate+0x32>
	} else {
		over = LOW_FRQ_SAMPLE_DIV;
	}

	/* Calculate clock divider according to the fraction calculated formula. */
	cd_fp = (8 * ul_mck + (over * baudrate) / 2) / (over * baudrate);
  402b5c:	00c9      	lsls	r1, r1, #3
  402b5e:	084b      	lsrs	r3, r1, #1
  402b60:	eb03 02c2 	add.w	r2, r3, r2, lsl #3
  402b64:	fbb2 f2f1 	udiv	r2, r2, r1
	cd = cd_fp >> 3;
  402b68:	08d3      	lsrs	r3, r2, #3
	fp = cd_fp & 0x07;
	if (cd < MIN_CD_VALUE || cd > MAX_CD_VALUE) {
  402b6a:	1e5c      	subs	r4, r3, #1
  402b6c:	f64f 71fe 	movw	r1, #65534	; 0xfffe
  402b70:	428c      	cmp	r4, r1
  402b72:	d901      	bls.n	402b78 <usart_set_async_baudrate+0x24>
		return 1;
  402b74:	2001      	movs	r0, #1
  402b76:	e017      	b.n	402ba8 <usart_set_async_baudrate+0x54>
	}

	/* Configure the OVER bit in MR register. */
	if (over == 8) {
		p_usart->US_MR |= US_MR_OVER;
  402b78:	6841      	ldr	r1, [r0, #4]
  402b7a:	f441 2100 	orr.w	r1, r1, #524288	; 0x80000
  402b7e:	6041      	str	r1, [r0, #4]
  402b80:	e00c      	b.n	402b9c <usart_set_async_baudrate+0x48>
		return 1;
  402b82:	2001      	movs	r0, #1
  402b84:	e010      	b.n	402ba8 <usart_set_async_baudrate+0x54>
	cd_fp = (8 * ul_mck + (over * baudrate) / 2) / (over * baudrate);
  402b86:	0859      	lsrs	r1, r3, #1
  402b88:	eb01 02c2 	add.w	r2, r1, r2, lsl #3
  402b8c:	fbb2 f2f3 	udiv	r2, r2, r3
	cd = cd_fp >> 3;
  402b90:	08d3      	lsrs	r3, r2, #3
	if (cd < MIN_CD_VALUE || cd > MAX_CD_VALUE) {
  402b92:	1e5c      	subs	r4, r3, #1
  402b94:	f64f 71fe 	movw	r1, #65534	; 0xfffe
  402b98:	428c      	cmp	r4, r1
  402b9a:	d8f2      	bhi.n	402b82 <usart_set_async_baudrate+0x2e>
	}

	/* Configure the baudrate generate register. */
	p_usart->US_BRGR = (cd << US_BRGR_CD_Pos) | (fp << US_BRGR_FP_Pos);
  402b9c:	0412      	lsls	r2, r2, #16
  402b9e:	f402 22e0 	and.w	r2, r2, #458752	; 0x70000
  402ba2:	431a      	orrs	r2, r3
  402ba4:	6202      	str	r2, [r0, #32]

	return 0;
  402ba6:	2000      	movs	r0, #0
}
  402ba8:	bc10      	pop	{r4}
  402baa:	4770      	bx	lr

00402bac <usart_reset>:
 *
 * \param p_usart Pointer to a USART instance.
 */
void usart_disable_writeprotect(Usart *p_usart)
{
	p_usart->US_WPMR = US_WPMR_WPKEY_PASSWD;
  402bac:	4b0a      	ldr	r3, [pc, #40]	; (402bd8 <usart_reset+0x2c>)
  402bae:	f8c0 30e4 	str.w	r3, [r0, #228]	; 0xe4
	p_usart->US_MR = 0;
  402bb2:	2300      	movs	r3, #0
  402bb4:	6043      	str	r3, [r0, #4]
	p_usart->US_RTOR = 0;
  402bb6:	6243      	str	r3, [r0, #36]	; 0x24
	p_usart->US_TTGR = 0;
  402bb8:	6283      	str	r3, [r0, #40]	; 0x28
	p_usart->US_CR = US_CR_RSTTX | US_CR_TXDIS;
  402bba:	2388      	movs	r3, #136	; 0x88
  402bbc:	6003      	str	r3, [r0, #0]
	p_usart->US_CR = US_CR_RSTRX | US_CR_RXDIS;
  402bbe:	2324      	movs	r3, #36	; 0x24
  402bc0:	6003      	str	r3, [r0, #0]
	p_usart->US_CR = US_CR_RSTSTA;
  402bc2:	f44f 7380 	mov.w	r3, #256	; 0x100
  402bc6:	6003      	str	r3, [r0, #0]
	p_usart->US_CR = US_CR_RTSDIS;
  402bc8:	f44f 2300 	mov.w	r3, #524288	; 0x80000
  402bcc:	6003      	str	r3, [r0, #0]
	p_usart->US_CR = US_CR_DTRDIS;
  402bce:	f44f 3300 	mov.w	r3, #131072	; 0x20000
  402bd2:	6003      	str	r3, [r0, #0]
  402bd4:	4770      	bx	lr
  402bd6:	bf00      	nop
  402bd8:	55534100 	.word	0x55534100

00402bdc <usart_init_rs232>:
{
  402bdc:	b570      	push	{r4, r5, r6, lr}
  402bde:	4605      	mov	r5, r0
  402be0:	460c      	mov	r4, r1
  402be2:	4616      	mov	r6, r2
	usart_reset(p_usart);
  402be4:	4b0f      	ldr	r3, [pc, #60]	; (402c24 <usart_init_rs232+0x48>)
  402be6:	4798      	blx	r3
	ul_reg_val = 0;
  402be8:	2200      	movs	r2, #0
  402bea:	4b0f      	ldr	r3, [pc, #60]	; (402c28 <usart_init_rs232+0x4c>)
  402bec:	601a      	str	r2, [r3, #0]
	if (!p_usart_opt || usart_set_async_baudrate(p_usart,
  402bee:	b1a4      	cbz	r4, 402c1a <usart_init_rs232+0x3e>
  402bf0:	4632      	mov	r2, r6
  402bf2:	6821      	ldr	r1, [r4, #0]
  402bf4:	4628      	mov	r0, r5
  402bf6:	4b0d      	ldr	r3, [pc, #52]	; (402c2c <usart_init_rs232+0x50>)
  402bf8:	4798      	blx	r3
  402bfa:	4602      	mov	r2, r0
  402bfc:	b978      	cbnz	r0, 402c1e <usart_init_rs232+0x42>
	ul_reg_val |= p_usart_opt->char_length | p_usart_opt->parity_type |
  402bfe:	6863      	ldr	r3, [r4, #4]
  402c00:	68a1      	ldr	r1, [r4, #8]
  402c02:	430b      	orrs	r3, r1
  402c04:	6921      	ldr	r1, [r4, #16]
  402c06:	430b      	orrs	r3, r1
			p_usart_opt->channel_mode | p_usart_opt->stop_bits;
  402c08:	68e1      	ldr	r1, [r4, #12]
  402c0a:	430b      	orrs	r3, r1
	ul_reg_val |= p_usart_opt->char_length | p_usart_opt->parity_type |
  402c0c:	4906      	ldr	r1, [pc, #24]	; (402c28 <usart_init_rs232+0x4c>)
  402c0e:	600b      	str	r3, [r1, #0]
	p_usart->US_MR |= ul_reg_val;
  402c10:	6869      	ldr	r1, [r5, #4]
  402c12:	430b      	orrs	r3, r1
  402c14:	606b      	str	r3, [r5, #4]
}
  402c16:	4610      	mov	r0, r2
  402c18:	bd70      	pop	{r4, r5, r6, pc}
		return 1;
  402c1a:	2201      	movs	r2, #1
  402c1c:	e7fb      	b.n	402c16 <usart_init_rs232+0x3a>
  402c1e:	2201      	movs	r2, #1
  402c20:	e7f9      	b.n	402c16 <usart_init_rs232+0x3a>
  402c22:	bf00      	nop
  402c24:	00402bad 	.word	0x00402bad
  402c28:	200010f8 	.word	0x200010f8
  402c2c:	00402b55 	.word	0x00402b55

00402c30 <usart_enable_tx>:
	p_usart->US_CR = US_CR_TXEN;
  402c30:	2340      	movs	r3, #64	; 0x40
  402c32:	6003      	str	r3, [r0, #0]
  402c34:	4770      	bx	lr

00402c36 <usart_enable_rx>:
	p_usart->US_CR = US_CR_RXEN;
  402c36:	2310      	movs	r3, #16
  402c38:	6003      	str	r3, [r0, #0]
  402c3a:	4770      	bx	lr

00402c3c <usart_get_status>:
	return p_usart->US_CSR;
  402c3c:	6940      	ldr	r0, [r0, #20]
}
  402c3e:	4770      	bx	lr

00402c40 <usart_write>:
	if (!(p_usart->US_CSR & US_CSR_TXRDY)) {
  402c40:	6943      	ldr	r3, [r0, #20]
  402c42:	f013 0f02 	tst.w	r3, #2
	p_usart->US_THR = US_THR_TXCHR(c);
  402c46:	bf1d      	ittte	ne
  402c48:	f3c1 0108 	ubfxne	r1, r1, #0, #9
  402c4c:	61c1      	strne	r1, [r0, #28]
	return 0;
  402c4e:	2000      	movne	r0, #0
		return 1;
  402c50:	2001      	moveq	r0, #1
}
  402c52:	4770      	bx	lr

00402c54 <usart_read>:
	if (!(p_usart->US_CSR & US_CSR_RXRDY)) {
  402c54:	6943      	ldr	r3, [r0, #20]
  402c56:	f013 0f01 	tst.w	r3, #1
  402c5a:	d005      	beq.n	402c68 <usart_read+0x14>
	*c = p_usart->US_RHR & US_RHR_RXCHR_Msk;
  402c5c:	6983      	ldr	r3, [r0, #24]
  402c5e:	f3c3 0308 	ubfx	r3, r3, #0, #9
  402c62:	600b      	str	r3, [r1, #0]
	return 0;
  402c64:	2000      	movs	r0, #0
  402c66:	4770      	bx	lr
		return 1;
  402c68:	2001      	movs	r0, #1
}
  402c6a:	4770      	bx	lr

00402c6c <wdt_disable>:
/**
 * \brief Disable the watchdog timer.
 */
void wdt_disable(Wdt *p_wdt)
{
	p_wdt->WDT_MR = WDT_MR_WDDIS;
  402c6c:	f44f 4300 	mov.w	r3, #32768	; 0x8000
  402c70:	6043      	str	r3, [r0, #4]
  402c72:	4770      	bx	lr

00402c74 <Dummy_Handler>:

/**
 * \brief Default interrupt handler for unused IRQs.
 */
void Dummy_Handler(void)
{
  402c74:	e7fe      	b.n	402c74 <Dummy_Handler>
	...

00402c78 <Reset_Handler>:
{
  402c78:	b508      	push	{r3, lr}
	if (pSrc > pDest) {
  402c7a:	4b21      	ldr	r3, [pc, #132]	; (402d00 <Reset_Handler+0x88>)
  402c7c:	4a21      	ldr	r2, [pc, #132]	; (402d04 <Reset_Handler+0x8c>)
  402c7e:	429a      	cmp	r2, r3
  402c80:	d928      	bls.n	402cd4 <Reset_Handler+0x5c>
		for (; pDest < &_erelocate;) {
  402c82:	4b21      	ldr	r3, [pc, #132]	; (402d08 <Reset_Handler+0x90>)
  402c84:	4a1e      	ldr	r2, [pc, #120]	; (402d00 <Reset_Handler+0x88>)
  402c86:	429a      	cmp	r2, r3
  402c88:	d20c      	bcs.n	402ca4 <Reset_Handler+0x2c>
  402c8a:	3b01      	subs	r3, #1
  402c8c:	1a9b      	subs	r3, r3, r2
  402c8e:	f023 0303 	bic.w	r3, r3, #3
  402c92:	3304      	adds	r3, #4
  402c94:	4413      	add	r3, r2
  402c96:	491b      	ldr	r1, [pc, #108]	; (402d04 <Reset_Handler+0x8c>)
			*pDest++ = *pSrc++;
  402c98:	f851 0b04 	ldr.w	r0, [r1], #4
  402c9c:	f842 0b04 	str.w	r0, [r2], #4
		for (; pDest < &_erelocate;) {
  402ca0:	429a      	cmp	r2, r3
  402ca2:	d1f9      	bne.n	402c98 <Reset_Handler+0x20>

    No Operation does nothing. This instruction can be used for code alignment purposes.
 */
__attribute__( ( always_inline ) ) __STATIC_INLINE void __NOP(void)
{
  __ASM volatile ("nop");
  402ca4:	bf00      	nop
	for (pDest = &_szero; pDest < &_ezero;) {
  402ca6:	4b19      	ldr	r3, [pc, #100]	; (402d0c <Reset_Handler+0x94>)
  402ca8:	4a19      	ldr	r2, [pc, #100]	; (402d10 <Reset_Handler+0x98>)
  402caa:	429a      	cmp	r2, r3
  402cac:	d20a      	bcs.n	402cc4 <Reset_Handler+0x4c>
  402cae:	3b01      	subs	r3, #1
  402cb0:	1a9b      	subs	r3, r3, r2
  402cb2:	f023 0303 	bic.w	r3, r3, #3
  402cb6:	3304      	adds	r3, #4
  402cb8:	4413      	add	r3, r2
		*pDest++ = 0;
  402cba:	2100      	movs	r1, #0
  402cbc:	f842 1b04 	str.w	r1, [r2], #4
	for (pDest = &_szero; pDest < &_ezero;) {
  402cc0:	429a      	cmp	r2, r3
  402cc2:	d1fb      	bne.n	402cbc <Reset_Handler+0x44>
	SCB->VTOR = ((uint32_t) pSrc);
  402cc4:	4b13      	ldr	r3, [pc, #76]	; (402d14 <Reset_Handler+0x9c>)
  402cc6:	4a14      	ldr	r2, [pc, #80]	; (402d18 <Reset_Handler+0xa0>)
  402cc8:	609a      	str	r2, [r3, #8]
	__libc_init_array();
  402cca:	4b14      	ldr	r3, [pc, #80]	; (402d1c <Reset_Handler+0xa4>)
  402ccc:	4798      	blx	r3
	main();
  402cce:	4b14      	ldr	r3, [pc, #80]	; (402d20 <Reset_Handler+0xa8>)
  402cd0:	4798      	blx	r3
  402cd2:	e7fe      	b.n	402cd2 <Reset_Handler+0x5a>
	} else if (pSrc < pDest) {
  402cd4:	4b0a      	ldr	r3, [pc, #40]	; (402d00 <Reset_Handler+0x88>)
  402cd6:	4a0b      	ldr	r2, [pc, #44]	; (402d04 <Reset_Handler+0x8c>)
  402cd8:	429a      	cmp	r2, r3
  402cda:	d2e3      	bcs.n	402ca4 <Reset_Handler+0x2c>
		uint32_t nb_bytes = (uint32_t)&_erelocate - (uint32_t)&_srelocate;
  402cdc:	4b0a      	ldr	r3, [pc, #40]	; (402d08 <Reset_Handler+0x90>)
  402cde:	4808      	ldr	r0, [pc, #32]	; (402d00 <Reset_Handler+0x88>)
  402ce0:	1a18      	subs	r0, r3, r0
		pSrc = (uint32_t*)((uint32_t)pSrc + nb_bytes) - 1;
  402ce2:	4611      	mov	r1, r2
  402ce4:	3a04      	subs	r2, #4
  402ce6:	4402      	add	r2, r0
		for (;nb_bytes;nb_bytes -= 4) {
  402ce8:	2800      	cmp	r0, #0
  402cea:	d0db      	beq.n	402ca4 <Reset_Handler+0x2c>
  402cec:	f1c1 0104 	rsb	r1, r1, #4
			*pDest-- = *pSrc--;
  402cf0:	f852 0904 	ldr.w	r0, [r2], #-4
  402cf4:	f843 0d04 	str.w	r0, [r3, #-4]!
		for (;nb_bytes;nb_bytes -= 4) {
  402cf8:	42ca      	cmn	r2, r1
  402cfa:	d1f9      	bne.n	402cf0 <Reset_Handler+0x78>
  402cfc:	e7d2      	b.n	402ca4 <Reset_Handler+0x2c>
  402cfe:	bf00      	nop
  402d00:	20000000 	.word	0x20000000
  402d04:	00407f6c 	.word	0x00407f6c
  402d08:	20000e08 	.word	0x20000e08
  402d0c:	200011d8 	.word	0x200011d8
  402d10:	20000e08 	.word	0x20000e08
  402d14:	e000ed00 	.word	0xe000ed00
  402d18:	00400000 	.word	0x00400000
  402d1c:	00403d89 	.word	0x00403d89
  402d20:	00402fc1 	.word	0x00402fc1

00402d24 <SystemCoreClockUpdate>:
 * \brief Get Core Clock Frequency.
 */
void SystemCoreClockUpdate( void )
{
	/* Determine clock frequency according to clock register values */
	switch ( PMC->PMC_MCKR & (uint32_t) PMC_MCKR_CSS_Msk ) {
  402d24:	4b3c      	ldr	r3, [pc, #240]	; (402e18 <SystemCoreClockUpdate+0xf4>)
  402d26:	6b1b      	ldr	r3, [r3, #48]	; 0x30
  402d28:	f003 0303 	and.w	r3, r3, #3
  402d2c:	2b03      	cmp	r3, #3
  402d2e:	d80e      	bhi.n	402d4e <SystemCoreClockUpdate+0x2a>
  402d30:	e8df f003 	tbb	[pc, r3]
  402d34:	38381c02 	.word	0x38381c02
	case PMC_MCKR_CSS_SLOW_CLK: /* Slow clock */
			if ( SUPC->SUPC_SR & SUPC_SR_OSCSEL ) {
  402d38:	4b38      	ldr	r3, [pc, #224]	; (402e1c <SystemCoreClockUpdate+0xf8>)
  402d3a:	695b      	ldr	r3, [r3, #20]
  402d3c:	f013 0f80 	tst.w	r3, #128	; 0x80
				SystemCoreClock = CHIP_FREQ_XTAL_32K;
  402d40:	bf14      	ite	ne
  402d42:	f44f 4200 	movne.w	r2, #32768	; 0x8000
			} else {
				SystemCoreClock = CHIP_FREQ_SLCK_RC;
  402d46:	f44f 42fa 	moveq.w	r2, #32000	; 0x7d00
  402d4a:	4b35      	ldr	r3, [pc, #212]	; (402e20 <SystemCoreClockUpdate+0xfc>)
  402d4c:	601a      	str	r2, [r3, #0]
		
	default:
		break;
	}

	if ( (PMC->PMC_MCKR & PMC_MCKR_PRES_Msk) == PMC_MCKR_PRES_CLK_3 ) {
  402d4e:	4b32      	ldr	r3, [pc, #200]	; (402e18 <SystemCoreClockUpdate+0xf4>)
  402d50:	6b1b      	ldr	r3, [r3, #48]	; 0x30
  402d52:	f003 0370 	and.w	r3, r3, #112	; 0x70
  402d56:	2b70      	cmp	r3, #112	; 0x70
  402d58:	d055      	beq.n	402e06 <SystemCoreClockUpdate+0xe2>
		SystemCoreClock /= 3U;
	} else {
		SystemCoreClock >>=
			((PMC->PMC_MCKR & PMC_MCKR_PRES_Msk) >> PMC_MCKR_PRES_Pos);
  402d5a:	4b2f      	ldr	r3, [pc, #188]	; (402e18 <SystemCoreClockUpdate+0xf4>)
  402d5c:	6b1a      	ldr	r2, [r3, #48]	; 0x30
		SystemCoreClock >>=
  402d5e:	4930      	ldr	r1, [pc, #192]	; (402e20 <SystemCoreClockUpdate+0xfc>)
			((PMC->PMC_MCKR & PMC_MCKR_PRES_Msk) >> PMC_MCKR_PRES_Pos);
  402d60:	f3c2 1202 	ubfx	r2, r2, #4, #3
		SystemCoreClock >>=
  402d64:	680b      	ldr	r3, [r1, #0]
  402d66:	40d3      	lsrs	r3, r2
  402d68:	600b      	str	r3, [r1, #0]
  402d6a:	4770      	bx	lr
		if ( PMC->CKGR_MOR & CKGR_MOR_MOSCSEL ) {
  402d6c:	4b2a      	ldr	r3, [pc, #168]	; (402e18 <SystemCoreClockUpdate+0xf4>)
  402d6e:	6a1b      	ldr	r3, [r3, #32]
  402d70:	f013 7f80 	tst.w	r3, #16777216	; 0x1000000
  402d74:	d003      	beq.n	402d7e <SystemCoreClockUpdate+0x5a>
			SystemCoreClock = CHIP_FREQ_XTAL;
  402d76:	4a2b      	ldr	r2, [pc, #172]	; (402e24 <SystemCoreClockUpdate+0x100>)
  402d78:	4b29      	ldr	r3, [pc, #164]	; (402e20 <SystemCoreClockUpdate+0xfc>)
  402d7a:	601a      	str	r2, [r3, #0]
  402d7c:	e7e7      	b.n	402d4e <SystemCoreClockUpdate+0x2a>
			SystemCoreClock = CHIP_FREQ_MAINCK_RC_4MHZ;
  402d7e:	4a2a      	ldr	r2, [pc, #168]	; (402e28 <SystemCoreClockUpdate+0x104>)
  402d80:	4b27      	ldr	r3, [pc, #156]	; (402e20 <SystemCoreClockUpdate+0xfc>)
  402d82:	601a      	str	r2, [r3, #0]
			switch ( PMC->CKGR_MOR & CKGR_MOR_MOSCRCF_Msk ) {
  402d84:	4b24      	ldr	r3, [pc, #144]	; (402e18 <SystemCoreClockUpdate+0xf4>)
  402d86:	6a1b      	ldr	r3, [r3, #32]
  402d88:	f003 0370 	and.w	r3, r3, #112	; 0x70
  402d8c:	2b10      	cmp	r3, #16
  402d8e:	d005      	beq.n	402d9c <SystemCoreClockUpdate+0x78>
  402d90:	2b20      	cmp	r3, #32
  402d92:	d1dc      	bne.n	402d4e <SystemCoreClockUpdate+0x2a>
				SystemCoreClock = CHIP_FREQ_MAINCK_RC_12MHZ;
  402d94:	4a23      	ldr	r2, [pc, #140]	; (402e24 <SystemCoreClockUpdate+0x100>)
  402d96:	4b22      	ldr	r3, [pc, #136]	; (402e20 <SystemCoreClockUpdate+0xfc>)
  402d98:	601a      	str	r2, [r3, #0]
			break;
  402d9a:	e7d8      	b.n	402d4e <SystemCoreClockUpdate+0x2a>
				SystemCoreClock = CHIP_FREQ_MAINCK_RC_8MHZ;
  402d9c:	4a23      	ldr	r2, [pc, #140]	; (402e2c <SystemCoreClockUpdate+0x108>)
  402d9e:	4b20      	ldr	r3, [pc, #128]	; (402e20 <SystemCoreClockUpdate+0xfc>)
  402da0:	601a      	str	r2, [r3, #0]
			break;
  402da2:	e7d4      	b.n	402d4e <SystemCoreClockUpdate+0x2a>
			if ( PMC->CKGR_MOR & CKGR_MOR_MOSCSEL ) {
  402da4:	4b1c      	ldr	r3, [pc, #112]	; (402e18 <SystemCoreClockUpdate+0xf4>)
  402da6:	6a1b      	ldr	r3, [r3, #32]
  402da8:	f013 7f80 	tst.w	r3, #16777216	; 0x1000000
  402dac:	d018      	beq.n	402de0 <SystemCoreClockUpdate+0xbc>
				SystemCoreClock = CHIP_FREQ_XTAL;
  402dae:	4a1d      	ldr	r2, [pc, #116]	; (402e24 <SystemCoreClockUpdate+0x100>)
  402db0:	4b1b      	ldr	r3, [pc, #108]	; (402e20 <SystemCoreClockUpdate+0xfc>)
  402db2:	601a      	str	r2, [r3, #0]
			if ( (uint32_t)(PMC->PMC_MCKR & (uint32_t) PMC_MCKR_CSS_Msk) ==
  402db4:	4b18      	ldr	r3, [pc, #96]	; (402e18 <SystemCoreClockUpdate+0xf4>)
  402db6:	6b1b      	ldr	r3, [r3, #48]	; 0x30
  402db8:	f003 0303 	and.w	r3, r3, #3
  402dbc:	2b02      	cmp	r3, #2
				SystemCoreClock *= ((((PMC->CKGR_PLLAR) & CKGR_PLLAR_MULA_Msk)
  402dbe:	4a16      	ldr	r2, [pc, #88]	; (402e18 <SystemCoreClockUpdate+0xf4>)
  402dc0:	bf07      	ittee	eq
  402dc2:	6a91      	ldreq	r1, [r2, #40]	; 0x28
				SystemCoreClock /= ((((PMC->CKGR_PLLAR) & CKGR_PLLAR_DIVA_Msk)
  402dc4:	6a92      	ldreq	r2, [r2, #40]	; 0x28
				SystemCoreClock *= ((((PMC->CKGR_PLLBR) & CKGR_PLLBR_MULB_Msk)
  402dc6:	6ad1      	ldrne	r1, [r2, #44]	; 0x2c
				SystemCoreClock /= ((((PMC->CKGR_PLLBR) & CKGR_PLLBR_DIVB_Msk)
  402dc8:	6ad2      	ldrne	r2, [r2, #44]	; 0x2c
  402dca:	4815      	ldr	r0, [pc, #84]	; (402e20 <SystemCoreClockUpdate+0xfc>)
						>> CKGR_PLLBR_MULB_Pos) + 1U);
  402dcc:	f3c1 410a 	ubfx	r1, r1, #16, #11
				SystemCoreClock *= ((((PMC->CKGR_PLLBR) & CKGR_PLLBR_MULB_Msk)
  402dd0:	6803      	ldr	r3, [r0, #0]
  402dd2:	fb01 3303 	mla	r3, r1, r3, r3
						>> CKGR_PLLBR_DIVB_Pos));
  402dd6:	b2d2      	uxtb	r2, r2
				SystemCoreClock /= ((((PMC->CKGR_PLLBR) & CKGR_PLLBR_DIVB_Msk)
  402dd8:	fbb3 f3f2 	udiv	r3, r3, r2
  402ddc:	6003      	str	r3, [r0, #0]
  402dde:	e7b6      	b.n	402d4e <SystemCoreClockUpdate+0x2a>
				SystemCoreClock = CHIP_FREQ_MAINCK_RC_4MHZ;
  402de0:	4a11      	ldr	r2, [pc, #68]	; (402e28 <SystemCoreClockUpdate+0x104>)
  402de2:	4b0f      	ldr	r3, [pc, #60]	; (402e20 <SystemCoreClockUpdate+0xfc>)
  402de4:	601a      	str	r2, [r3, #0]
				switch ( PMC->CKGR_MOR & CKGR_MOR_MOSCRCF_Msk ) {
  402de6:	4b0c      	ldr	r3, [pc, #48]	; (402e18 <SystemCoreClockUpdate+0xf4>)
  402de8:	6a1b      	ldr	r3, [r3, #32]
  402dea:	f003 0370 	and.w	r3, r3, #112	; 0x70
  402dee:	2b10      	cmp	r3, #16
  402df0:	d005      	beq.n	402dfe <SystemCoreClockUpdate+0xda>
  402df2:	2b20      	cmp	r3, #32
  402df4:	d1de      	bne.n	402db4 <SystemCoreClockUpdate+0x90>
					SystemCoreClock = CHIP_FREQ_MAINCK_RC_12MHZ;
  402df6:	4a0b      	ldr	r2, [pc, #44]	; (402e24 <SystemCoreClockUpdate+0x100>)
  402df8:	4b09      	ldr	r3, [pc, #36]	; (402e20 <SystemCoreClockUpdate+0xfc>)
  402dfa:	601a      	str	r2, [r3, #0]
					break;
  402dfc:	e7da      	b.n	402db4 <SystemCoreClockUpdate+0x90>
					SystemCoreClock = CHIP_FREQ_MAINCK_RC_8MHZ;
  402dfe:	4a0b      	ldr	r2, [pc, #44]	; (402e2c <SystemCoreClockUpdate+0x108>)
  402e00:	4b07      	ldr	r3, [pc, #28]	; (402e20 <SystemCoreClockUpdate+0xfc>)
  402e02:	601a      	str	r2, [r3, #0]
					break;
  402e04:	e7d6      	b.n	402db4 <SystemCoreClockUpdate+0x90>
		SystemCoreClock /= 3U;
  402e06:	4a06      	ldr	r2, [pc, #24]	; (402e20 <SystemCoreClockUpdate+0xfc>)
  402e08:	6813      	ldr	r3, [r2, #0]
  402e0a:	4909      	ldr	r1, [pc, #36]	; (402e30 <SystemCoreClockUpdate+0x10c>)
  402e0c:	fba1 1303 	umull	r1, r3, r1, r3
  402e10:	085b      	lsrs	r3, r3, #1
  402e12:	6013      	str	r3, [r2, #0]
  402e14:	4770      	bx	lr
  402e16:	bf00      	nop
  402e18:	400e0400 	.word	0x400e0400
  402e1c:	400e1410 	.word	0x400e1410
  402e20:	20000450 	.word	0x20000450
  402e24:	00b71b00 	.word	0x00b71b00
  402e28:	003d0900 	.word	0x003d0900
  402e2c:	007a1200 	.word	0x007a1200
  402e30:	aaaaaaab 	.word	0xaaaaaaab

00402e34 <system_init_flash>:
				}
			}
		}
	}
#else
	if ( ul_clk < CHIP_FREQ_FWS_0 ) {
  402e34:	4b1a      	ldr	r3, [pc, #104]	; (402ea0 <system_init_flash+0x6c>)
  402e36:	4298      	cmp	r0, r3
  402e38:	d914      	bls.n	402e64 <system_init_flash+0x30>
		EFC0->EEFC_FMR = EEFC_FMR_FWS(0)|EEFC_FMR_CLOE;
		EFC1->EEFC_FMR = EEFC_FMR_FWS(0)|EEFC_FMR_CLOE;
	} else {
		if ( ul_clk < CHIP_FREQ_FWS_1 ) {
  402e3a:	4b1a      	ldr	r3, [pc, #104]	; (402ea4 <system_init_flash+0x70>)
  402e3c:	4298      	cmp	r0, r3
  402e3e:	d919      	bls.n	402e74 <system_init_flash+0x40>
			EFC0->EEFC_FMR = EEFC_FMR_FWS(1)|EEFC_FMR_CLOE;
			EFC1->EEFC_FMR = EEFC_FMR_FWS(1)|EEFC_FMR_CLOE;
		} else {
			if ( ul_clk < CHIP_FREQ_FWS_2 ) {
  402e40:	4b19      	ldr	r3, [pc, #100]	; (402ea8 <system_init_flash+0x74>)
  402e42:	4298      	cmp	r0, r3
  402e44:	d91d      	bls.n	402e82 <system_init_flash+0x4e>
				EFC0->EEFC_FMR = EEFC_FMR_FWS(2)|EEFC_FMR_CLOE;
				EFC1->EEFC_FMR = EEFC_FMR_FWS(2)|EEFC_FMR_CLOE;
			} else {
				if ( ul_clk < CHIP_FREQ_FWS_3 ) {
  402e46:	4b19      	ldr	r3, [pc, #100]	; (402eac <system_init_flash+0x78>)
  402e48:	4298      	cmp	r0, r3
  402e4a:	d921      	bls.n	402e90 <system_init_flash+0x5c>
					EFC0->EEFC_FMR = EEFC_FMR_FWS(3)|EEFC_FMR_CLOE;
					EFC1->EEFC_FMR = EEFC_FMR_FWS(3)|EEFC_FMR_CLOE;
				} else {
					if ( ul_clk < CHIP_FREQ_FWS_4 ) {
  402e4c:	4b18      	ldr	r3, [pc, #96]	; (402eb0 <system_init_flash+0x7c>)
  402e4e:	4298      	cmp	r0, r3
						EFC0->EEFC_FMR = EEFC_FMR_FWS(4)|EEFC_FMR_CLOE;
  402e50:	bf94      	ite	ls
  402e52:	f04f 2304 	movls.w	r3, #67109888	; 0x4000400
						EFC1->EEFC_FMR = EEFC_FMR_FWS(4)|EEFC_FMR_CLOE;
					} else {
						EFC0->EEFC_FMR = EEFC_FMR_FWS(5)|EEFC_FMR_CLOE;
  402e56:	4b17      	ldrhi	r3, [pc, #92]	; (402eb4 <system_init_flash+0x80>)
  402e58:	4a17      	ldr	r2, [pc, #92]	; (402eb8 <system_init_flash+0x84>)
  402e5a:	6013      	str	r3, [r2, #0]
						EFC1->EEFC_FMR = EEFC_FMR_FWS(5)|EEFC_FMR_CLOE;
  402e5c:	f502 7200 	add.w	r2, r2, #512	; 0x200
  402e60:	6013      	str	r3, [r2, #0]
  402e62:	4770      	bx	lr
		EFC0->EEFC_FMR = EEFC_FMR_FWS(0)|EEFC_FMR_CLOE;
  402e64:	f04f 6380 	mov.w	r3, #67108864	; 0x4000000
  402e68:	4a13      	ldr	r2, [pc, #76]	; (402eb8 <system_init_flash+0x84>)
  402e6a:	6013      	str	r3, [r2, #0]
		EFC1->EEFC_FMR = EEFC_FMR_FWS(0)|EEFC_FMR_CLOE;
  402e6c:	f502 7200 	add.w	r2, r2, #512	; 0x200
  402e70:	6013      	str	r3, [r2, #0]
  402e72:	4770      	bx	lr
			EFC0->EEFC_FMR = EEFC_FMR_FWS(1)|EEFC_FMR_CLOE;
  402e74:	4b11      	ldr	r3, [pc, #68]	; (402ebc <system_init_flash+0x88>)
  402e76:	4a10      	ldr	r2, [pc, #64]	; (402eb8 <system_init_flash+0x84>)
  402e78:	6013      	str	r3, [r2, #0]
			EFC1->EEFC_FMR = EEFC_FMR_FWS(1)|EEFC_FMR_CLOE;
  402e7a:	f502 7200 	add.w	r2, r2, #512	; 0x200
  402e7e:	6013      	str	r3, [r2, #0]
  402e80:	4770      	bx	lr
				EFC0->EEFC_FMR = EEFC_FMR_FWS(2)|EEFC_FMR_CLOE;
  402e82:	4b0f      	ldr	r3, [pc, #60]	; (402ec0 <system_init_flash+0x8c>)
  402e84:	4a0c      	ldr	r2, [pc, #48]	; (402eb8 <system_init_flash+0x84>)
  402e86:	6013      	str	r3, [r2, #0]
				EFC1->EEFC_FMR = EEFC_FMR_FWS(2)|EEFC_FMR_CLOE;
  402e88:	f502 7200 	add.w	r2, r2, #512	; 0x200
  402e8c:	6013      	str	r3, [r2, #0]
  402e8e:	4770      	bx	lr
					EFC0->EEFC_FMR = EEFC_FMR_FWS(3)|EEFC_FMR_CLOE;
  402e90:	4b0c      	ldr	r3, [pc, #48]	; (402ec4 <system_init_flash+0x90>)
  402e92:	4a09      	ldr	r2, [pc, #36]	; (402eb8 <system_init_flash+0x84>)
  402e94:	6013      	str	r3, [r2, #0]
					EFC1->EEFC_FMR = EEFC_FMR_FWS(3)|EEFC_FMR_CLOE;
  402e96:	f502 7200 	add.w	r2, r2, #512	; 0x200
  402e9a:	6013      	str	r3, [r2, #0]
  402e9c:	4770      	bx	lr
  402e9e:	bf00      	nop
  402ea0:	01312cff 	.word	0x01312cff
  402ea4:	026259ff 	.word	0x026259ff
  402ea8:	039386ff 	.word	0x039386ff
  402eac:	04c4b3ff 	.word	0x04c4b3ff
  402eb0:	05f5e0ff 	.word	0x05f5e0ff
  402eb4:	04000500 	.word	0x04000500
  402eb8:	400e0a00 	.word	0x400e0a00
  402ebc:	04000100 	.word	0x04000100
  402ec0:	04000200 	.word	0x04000200
  402ec4:	04000300 	.word	0x04000300

00402ec8 <_sbrk>:
{
	static unsigned char *heap = NULL;
	unsigned char *prev_heap;
	int ramend = (int)&__ram_end__;

	if (heap == NULL) {
  402ec8:	4b0a      	ldr	r3, [pc, #40]	; (402ef4 <_sbrk+0x2c>)
  402eca:	681b      	ldr	r3, [r3, #0]
  402ecc:	b153      	cbz	r3, 402ee4 <_sbrk+0x1c>
		heap = (unsigned char *)&_end;
	}
	prev_heap = heap;
  402ece:	4b09      	ldr	r3, [pc, #36]	; (402ef4 <_sbrk+0x2c>)
  402ed0:	681b      	ldr	r3, [r3, #0]

	if (((int)prev_heap + incr) > ramend) {
  402ed2:	181a      	adds	r2, r3, r0
  402ed4:	4908      	ldr	r1, [pc, #32]	; (402ef8 <_sbrk+0x30>)
  402ed6:	4291      	cmp	r1, r2
  402ed8:	db08      	blt.n	402eec <_sbrk+0x24>
		return (caddr_t) -1;	
	}

	heap += incr;
  402eda:	4610      	mov	r0, r2
  402edc:	4a05      	ldr	r2, [pc, #20]	; (402ef4 <_sbrk+0x2c>)
  402ede:	6010      	str	r0, [r2, #0]

	return (caddr_t) prev_heap;
  402ee0:	4618      	mov	r0, r3
  402ee2:	4770      	bx	lr
		heap = (unsigned char *)&_end;
  402ee4:	4a05      	ldr	r2, [pc, #20]	; (402efc <_sbrk+0x34>)
  402ee6:	4b03      	ldr	r3, [pc, #12]	; (402ef4 <_sbrk+0x2c>)
  402ee8:	601a      	str	r2, [r3, #0]
  402eea:	e7f0      	b.n	402ece <_sbrk+0x6>
		return (caddr_t) -1;	
  402eec:	f04f 30ff 	mov.w	r0, #4294967295
}
  402ef0:	4770      	bx	lr
  402ef2:	bf00      	nop
  402ef4:	200010fc 	.word	0x200010fc
  402ef8:	20013ffc 	.word	0x20013ffc
  402efc:	200041d8 	.word	0x200041d8

00402f00 <f_mount>:
)
{
	FATFS *rfs;


	if (vol >= _VOLUMES)		/* Check if the drive number is valid */
  402f00:	2807      	cmp	r0, #7
  402f02:	d901      	bls.n	402f08 <f_mount+0x8>
		return FR_INVALID_DRIVE;
  402f04:	200b      	movs	r0, #11
#endif
	}
	FatFs[vol] = fs;			/* Register new fs object */

	return FR_OK;
}
  402f06:	4770      	bx	lr
	rfs = FatFs[vol];			/* Get current fs object */
  402f08:	4b06      	ldr	r3, [pc, #24]	; (402f24 <f_mount+0x24>)
  402f0a:	f853 3020 	ldr.w	r3, [r3, r0, lsl #2]
	if (rfs) {
  402f0e:	b10b      	cbz	r3, 402f14 <f_mount+0x14>
		rfs->fs_type = 0;		/* Clear old fs object */
  402f10:	2200      	movs	r2, #0
  402f12:	701a      	strb	r2, [r3, #0]
	if (fs) {
  402f14:	b109      	cbz	r1, 402f1a <f_mount+0x1a>
		fs->fs_type = 0;		/* Clear new fs object */
  402f16:	2300      	movs	r3, #0
  402f18:	700b      	strb	r3, [r1, #0]
	FatFs[vol] = fs;			/* Register new fs object */
  402f1a:	4b02      	ldr	r3, [pc, #8]	; (402f24 <f_mount+0x24>)
  402f1c:	f843 1020 	str.w	r1, [r3, r0, lsl #2]
	return FR_OK;
  402f20:	2000      	movs	r0, #0
  402f22:	4770      	bx	lr
  402f24:	20001100 	.word	0x20001100

00402f28 <button_callback>:
	}
}

void button_callback (tButtonNum b)
{
	button_pressed = true;
  402f28:	2201      	movs	r2, #1
  402f2a:	4b02      	ldr	r3, [pc, #8]	; (402f34 <button_callback+0xc>)
  402f2c:	701a      	strb	r2, [r3, #0]
	seleced_button = b;
  402f2e:	4b02      	ldr	r3, [pc, #8]	; (402f38 <button_callback+0x10>)
  402f30:	6018      	str	r0, [r3, #0]
  402f32:	4770      	bx	lr
  402f34:	20001120 	.word	0x20001120
  402f38:	2000116c 	.word	0x2000116c

00402f3c <move_aliens>:
}

void move_aliens ()
{
  402f3c:	e92d 43f8 	stmdb	sp!, {r3, r4, r5, r6, r7, r8, r9, lr}
	//move all the aliens in a sort of zig zag movement
	bool move_down = aliens_at_top;
  402f40:	4b0e      	ldr	r3, [pc, #56]	; (402f7c <move_aliens+0x40>)
  402f42:	781d      	ldrb	r5, [r3, #0]
  402f44:	4c0e      	ldr	r4, [pc, #56]	; (402f80 <move_aliens+0x44>)
  402f46:	f104 073c 	add.w	r7, r4, #60	; 0x3c
		{
			// move alien down
			move_shape_down(aliens[i]);
		} else {
			// else move it up
			move_shape_up(aliens[i]);
  402f4a:	f8df 903c 	ldr.w	r9, [pc, #60]	; 402f88 <move_aliens+0x4c>
			move_shape_down(aliens[i]);
  402f4e:	f8df 803c 	ldr.w	r8, [pc, #60]	; 402f8c <move_aliens+0x50>
		}
		// and move the aliens to left
		move_shape_left(aliens[i]);
  402f52:	4e0c      	ldr	r6, [pc, #48]	; (402f84 <move_aliens+0x48>)
  402f54:	e006      	b.n	402f64 <move_aliens+0x28>
			move_shape_up(aliens[i]);
  402f56:	6820      	ldr	r0, [r4, #0]
  402f58:	47c8      	blx	r9
		move_shape_left(aliens[i]);
  402f5a:	f854 0b04 	ldr.w	r0, [r4], #4
  402f5e:	47b0      	blx	r6
	for (uint16_t i = 0; i<ALIEN_NUM; i++)
  402f60:	42bc      	cmp	r4, r7
  402f62:	d004      	beq.n	402f6e <move_aliens+0x32>
		if (move_down)
  402f64:	2d00      	cmp	r5, #0
  402f66:	d0f6      	beq.n	402f56 <move_aliens+0x1a>
			move_shape_down(aliens[i]);
  402f68:	6820      	ldr	r0, [r4, #0]
  402f6a:	47c0      	blx	r8
  402f6c:	e7f5      	b.n	402f5a <move_aliens+0x1e>
	}
	aliens_at_top = !move_down;
  402f6e:	f085 0501 	eor.w	r5, r5, #1
  402f72:	4b02      	ldr	r3, [pc, #8]	; (402f7c <move_aliens+0x40>)
  402f74:	701d      	strb	r5, [r3, #0]
  402f76:	e8bd 83f8 	ldmia.w	sp!, {r3, r4, r5, r6, r7, r8, r9, pc}
  402f7a:	bf00      	nop
  402f7c:	20000454 	.word	0x20000454
  402f80:	20001170 	.word	0x20001170
  402f84:	00400e35 	.word	0x00400e35
  402f88:	00400e2b 	.word	0x00400e2b
  402f8c:	00400e1d 	.word	0x00400e1d

00402f90 <print_string>:
}

void print_string (uint8_t* string)
{
  402f90:	e92d 41f0 	stmdb	sp!, {r4, r5, r6, r7, r8, lr}
  402f94:	4606      	mov	r6, r0
  402f96:	1e45      	subs	r5, r0, #1
	for (uint i = 0; i < strlen(string); i++)	
  402f98:	2400      	movs	r4, #0
  402f9a:	4f07      	ldr	r7, [pc, #28]	; (402fb8 <print_string+0x28>)
	{
		hal_display_putc(string[i]);
  402f9c:	f8df 801c 	ldr.w	r8, [pc, #28]	; 402fbc <print_string+0x2c>
	for (uint i = 0; i < strlen(string); i++)	
  402fa0:	e003      	b.n	402faa <print_string+0x1a>
		hal_display_putc(string[i]);
  402fa2:	f815 0f01 	ldrb.w	r0, [r5, #1]!
  402fa6:	47c0      	blx	r8
	for (uint i = 0; i < strlen(string); i++)	
  402fa8:	3401      	adds	r4, #1
  402faa:	4630      	mov	r0, r6
  402fac:	47b8      	blx	r7
  402fae:	4284      	cmp	r4, r0
  402fb0:	d3f7      	bcc.n	402fa2 <print_string+0x12>
	}
}
  402fb2:	e8bd 81f0 	ldmia.w	sp!, {r4, r5, r6, r7, r8, pc}
  402fb6:	bf00      	nop
  402fb8:	00404481 	.word	0x00404481
  402fbc:	004005e9 	.word	0x004005e9

00402fc0 <main>:
{
  402fc0:	e92d 4ff0 	stmdb	sp!, {r4, r5, r6, r7, r8, r9, sl, fp, lr}
  402fc4:	b091      	sub	sp, #68	; 0x44
	system_init();		
  402fc6:	4b9d      	ldr	r3, [pc, #628]	; (40323c <main+0x27c>)
  402fc8:	4798      	blx	r3
	hal_button_start_int(button_callback);
  402fca:	489d      	ldr	r0, [pc, #628]	; (403240 <main+0x280>)
  402fcc:	4b9d      	ldr	r3, [pc, #628]	; (403244 <main+0x284>)
  402fce:	4798      	blx	r3
		gameover = false;
  402fd0:	f04f 0b00 	mov.w	fp, #0
  402fd4:	f88d b00f 	strb.w	fp, [sp, #15]
			draw_shape(aliens[i]);
  402fd8:	f8df 92c0 	ldr.w	r9, [pc, #704]	; 40329c <main+0x2dc>
  402fdc:	e11e      	b.n	40321c <main+0x25c>
  402fde:	3703      	adds	r7, #3
  402fe0:	b2bf      	uxth	r7, r7
		for (uint16_t i=10; i<15; i++) {
  402fe2:	9b01      	ldr	r3, [sp, #4]
  402fe4:	3301      	adds	r3, #1
  402fe6:	b29b      	uxth	r3, r3
  402fe8:	9301      	str	r3, [sp, #4]
  402fea:	2f0f      	cmp	r7, #15
  402fec:	d014      	beq.n	403018 <main+0x58>
{
  402fee:	2500      	movs	r5, #0
  402ff0:	b2ab      	uxth	r3, r5
  402ff2:	18fc      	adds	r4, r7, r3
  402ff4:	b2a4      	uxth	r4, r4
				Alien[k] = make_shape(alien, i, j);
  402ff6:	9a02      	ldr	r2, [sp, #8]
  402ff8:	eb02 06c4 	add.w	r6, r2, r4, lsl #3
  402ffc:	9a01      	ldr	r2, [sp, #4]
  402ffe:	4659      	mov	r1, fp
  403000:	a804      	add	r0, sp, #16
  403002:	47d0      	blx	sl
  403004:	4633      	mov	r3, r6
  403006:	9804      	ldr	r0, [sp, #16]
  403008:	9905      	ldr	r1, [sp, #20]
  40300a:	c303      	stmia	r3!, {r0, r1}
				aliens[k] = &Alien[k];
  40300c:	f848 6024 	str.w	r6, [r8, r4, lsl #2]
  403010:	3501      	adds	r5, #1
			for (uint16_t j=0; j<3; j++) {
  403012:	2d03      	cmp	r5, #3
  403014:	d1ec      	bne.n	402ff0 <main+0x30>
  403016:	e7e2      	b.n	402fde <main+0x1e>
		Shape Ship = make_shape(ship, 0, 2);
  403018:	ac07      	add	r4, sp, #28
  40301a:	2302      	movs	r3, #2
  40301c:	465a      	mov	r2, fp
  40301e:	2101      	movs	r1, #1
  403020:	4620      	mov	r0, r4
  403022:	4d89      	ldr	r5, [pc, #548]	; (403248 <main+0x288>)
  403024:	47a8      	blx	r5
		spaceship = &Ship;
  403026:	4b89      	ldr	r3, [pc, #548]	; (40324c <main+0x28c>)
  403028:	601c      	str	r4, [r3, #0]
		Shape Bullet = make_shape(bullet, 0, 0);
  40302a:	ac09      	add	r4, sp, #36	; 0x24
  40302c:	465b      	mov	r3, fp
  40302e:	465a      	mov	r2, fp
  403030:	2102      	movs	r1, #2
  403032:	4620      	mov	r0, r4
  403034:	47a8      	blx	r5
		bullets = &Bullet;
  403036:	4b86      	ldr	r3, [pc, #536]	; (403250 <main+0x290>)
  403038:	601c      	str	r4, [r3, #0]
		bullets->exists = false;
  40303a:	f89d 300f 	ldrb.w	r3, [sp, #15]
  40303e:	f88d 302a 	strb.w	r3, [sp, #42]	; 0x2a
  403042:	f8df a25c 	ldr.w	sl, [pc, #604]	; 4032a0 <main+0x2e0>
  403046:	f10a 053c 	add.w	r5, sl, #60	; 0x3c
  40304a:	4654      	mov	r4, sl
			draw_shape(aliens[i]);
  40304c:	f854 0f04 	ldr.w	r0, [r4, #4]!
  403050:	47c8      	blx	r9
		for (uint16_t i = 0; i < ALIEN_NUM; i++)
  403052:	42ac      	cmp	r4, r5
  403054:	d1fa      	bne.n	40304c <main+0x8c>
		draw_shape(spaceship);
  403056:	4b7d      	ldr	r3, [pc, #500]	; (40324c <main+0x28c>)
  403058:	6818      	ldr	r0, [r3, #0]
  40305a:	47c8      	blx	r9
		score = 0;
  40305c:	4b7d      	ldr	r3, [pc, #500]	; (403254 <main+0x294>)
  40305e:	f8a3 b000 	strh.w	fp, [r3]
		while (!gameover)
  403062:	e079      	b.n	403158 <main+0x198>
						move_shape_up(spaceship);
  403064:	4b79      	ldr	r3, [pc, #484]	; (40324c <main+0x28c>)
  403066:	6818      	ldr	r0, [r3, #0]
  403068:	4b7b      	ldr	r3, [pc, #492]	; (403258 <main+0x298>)
  40306a:	4798      	blx	r3
						break;
  40306c:	e088      	b.n	403180 <main+0x1c0>
						if (!bullets->exists)
  40306e:	4b78      	ldr	r3, [pc, #480]	; (403250 <main+0x290>)
  403070:	681b      	ldr	r3, [r3, #0]
  403072:	799a      	ldrb	r2, [r3, #6]
  403074:	2a00      	cmp	r2, #0
  403076:	f040 8083 	bne.w	403180 <main+0x1c0>
							bullets->exists = true;
  40307a:	2201      	movs	r2, #1
  40307c:	719a      	strb	r2, [r3, #6]
							bullets->x = spaceship->x + 1;
  40307e:	4973      	ldr	r1, [pc, #460]	; (40324c <main+0x28c>)
  403080:	680a      	ldr	r2, [r1, #0]
  403082:	8852      	ldrh	r2, [r2, #2]
  403084:	3201      	adds	r2, #1
  403086:	805a      	strh	r2, [r3, #2]
							bullets->y = spaceship->y;
  403088:	680b      	ldr	r3, [r1, #0]
  40308a:	889a      	ldrh	r2, [r3, #4]
  40308c:	4b70      	ldr	r3, [pc, #448]	; (403250 <main+0x290>)
  40308e:	681b      	ldr	r3, [r3, #0]
  403090:	809a      	strh	r2, [r3, #4]
  403092:	e075      	b.n	403180 <main+0x1c0>
						move_shape_down(spaceship);
  403094:	4b6d      	ldr	r3, [pc, #436]	; (40324c <main+0x28c>)
  403096:	6818      	ldr	r0, [r3, #0]
  403098:	4b70      	ldr	r3, [pc, #448]	; (40325c <main+0x29c>)
  40309a:	4798      	blx	r3
						break;
  40309c:	e070      	b.n	403180 <main+0x1c0>
				bullets->exists = false;
  40309e:	f880 b006 	strb.w	fp, [r0, #6]
  4030a2:	e078      	b.n	403196 <main+0x1d6>
				move_shape_right(bullets);
  4030a4:	4b6e      	ldr	r3, [pc, #440]	; (403260 <main+0x2a0>)
  4030a6:	4798      	blx	r3
  4030a8:	e075      	b.n	403196 <main+0x1d6>
				move_aliens();
  4030aa:	4b6e      	ldr	r3, [pc, #440]	; (403264 <main+0x2a4>)
  4030ac:	4798      	blx	r3
			update_alien = (update_alien == ALIEN_UPDATE) ? 0 : update_alien + 1;
  4030ae:	4b6e      	ldr	r3, [pc, #440]	; (403268 <main+0x2a8>)
  4030b0:	881b      	ldrh	r3, [r3, #0]
  4030b2:	2b05      	cmp	r3, #5
  4030b4:	bf08      	it	eq
  4030b6:	465b      	moveq	r3, fp
  4030b8:	d073      	beq.n	4031a2 <main+0x1e2>
  4030ba:	e070      	b.n	40319e <main+0x1de>
  4030bc:	3304      	adds	r3, #4
			for (uint16_t i = 0; i < ALIEN_NUM; i++)
  4030be:	428b      	cmp	r3, r1
  4030c0:	d014      	beq.n	4030ec <main+0x12c>
				if (bullets->exists && (current_alien->x == bullets->x) && (current_alien->y == bullets->y) && current_alien->exists)
  4030c2:	2800      	cmp	r0, #0
  4030c4:	d0fa      	beq.n	4030bc <main+0xfc>
				Shape* current_alien = aliens[i];
  4030c6:	681a      	ldr	r2, [r3, #0]
				if (bullets->exists && (current_alien->x == bullets->x) && (current_alien->y == bullets->y) && current_alien->exists)
  4030c8:	8857      	ldrh	r7, [r2, #2]
  4030ca:	f8be 5002 	ldrh.w	r5, [lr, #2]
  4030ce:	42af      	cmp	r7, r5
  4030d0:	d1f4      	bne.n	4030bc <main+0xfc>
  4030d2:	8897      	ldrh	r7, [r2, #4]
  4030d4:	f8be 5004 	ldrh.w	r5, [lr, #4]
  4030d8:	42af      	cmp	r7, r5
  4030da:	d1ef      	bne.n	4030bc <main+0xfc>
  4030dc:	7995      	ldrb	r5, [r2, #6]
					collided_alian = current_alien;
  4030de:	2d00      	cmp	r5, #0
  4030e0:	bf18      	it	ne
  4030e2:	4690      	movne	r8, r2
  4030e4:	2d00      	cmp	r5, #0
  4030e6:	bf18      	it	ne
  4030e8:	46ac      	movne	ip, r5
  4030ea:	e7e7      	b.n	4030bc <main+0xfc>
			if (collision_found)
  4030ec:	f1bc 0f00 	cmp.w	ip, #0
  4030f0:	d007      	beq.n	403102 <main+0x142>
				collided_alian->exists = false;
  4030f2:	f888 b006 	strb.w	fp, [r8, #6]
				bullets->exists = false;
  4030f6:	f88e b006 	strb.w	fp, [lr, #6]
				score += 10;
  4030fa:	4a56      	ldr	r2, [pc, #344]	; (403254 <main+0x294>)
  4030fc:	8813      	ldrh	r3, [r2, #0]
  4030fe:	330a      	adds	r3, #10
  403100:	8013      	strh	r3, [r2, #0]
			hal_display_cls();
  403102:	4b5a      	ldr	r3, [pc, #360]	; (40326c <main+0x2ac>)
  403104:	4798      	blx	r3
  403106:	4655      	mov	r5, sl
  403108:	e001      	b.n	40310e <main+0x14e>
			for (uint16_t i = 0; i < 15; i++)
  40310a:	42a5      	cmp	r5, r4
  40310c:	d006      	beq.n	40311c <main+0x15c>
				if (aliens[i]->exists)
  40310e:	f855 0f04 	ldr.w	r0, [r5, #4]!
  403112:	7983      	ldrb	r3, [r0, #6]
  403114:	2b00      	cmp	r3, #0
  403116:	d0f8      	beq.n	40310a <main+0x14a>
					draw_shape(aliens[i]);
  403118:	47c8      	blx	r9
  40311a:	e7f6      	b.n	40310a <main+0x14a>
			draw_shape(spaceship);
  40311c:	4b4b      	ldr	r3, [pc, #300]	; (40324c <main+0x28c>)
  40311e:	6818      	ldr	r0, [r3, #0]
  403120:	47c8      	blx	r9
			if (bullets->exists)
  403122:	4b4b      	ldr	r3, [pc, #300]	; (403250 <main+0x290>)
  403124:	6818      	ldr	r0, [r3, #0]
  403126:	7983      	ldrb	r3, [r0, #6]
  403128:	b91b      	cbnz	r3, 403132 <main+0x172>
  40312a:	4b51      	ldr	r3, [pc, #324]	; (403270 <main+0x2b0>)
  40312c:	7818      	ldrb	r0, [r3, #0]
			hal_display_cls();
  40312e:	4653      	mov	r3, sl
  403130:	e003      	b.n	40313a <main+0x17a>
				draw_shape(bullets);
  403132:	47c8      	blx	r9
  403134:	e7f9      	b.n	40312a <main+0x16a>
		for (uint16_t i = 0; i < ALIEN_NUM; i++)
  403136:	429d      	cmp	r5, r3
  403138:	d00c      	beq.n	403154 <main+0x194>
			Shape* current_alien = aliens[i];
  40313a:	f853 2f04 	ldr.w	r2, [r3, #4]!
			if ((current_alien->x == 0) && current_alien->exists)
  40313e:	8851      	ldrh	r1, [r2, #2]
  403140:	2900      	cmp	r1, #0
  403142:	d1f8      	bne.n	403136 <main+0x176>
  403144:	7992      	ldrb	r2, [r2, #6]
  403146:	2a00      	cmp	r2, #0
  403148:	bf18      	it	ne
  40314a:	4616      	movne	r6, r2
  40314c:	2a00      	cmp	r2, #0
  40314e:	bf18      	it	ne
  403150:	4610      	movne	r0, r2
  403152:	e7f0      	b.n	403136 <main+0x176>
  403154:	2e00      	cmp	r6, #0
  403156:	d132      	bne.n	4031be <main+0x1fe>
		while (!gameover)
  403158:	4b45      	ldr	r3, [pc, #276]	; (403270 <main+0x2b0>)
  40315a:	781e      	ldrb	r6, [r3, #0]
  40315c:	2e00      	cmp	r6, #0
  40315e:	d131      	bne.n	4031c4 <main+0x204>
			hal_delay(200);
  403160:	20c8      	movs	r0, #200	; 0xc8
  403162:	4b44      	ldr	r3, [pc, #272]	; (403274 <main+0x2b4>)
  403164:	4798      	blx	r3
			if (button_pressed)
  403166:	4b44      	ldr	r3, [pc, #272]	; (403278 <main+0x2b8>)
  403168:	781b      	ldrb	r3, [r3, #0]
  40316a:	b163      	cbz	r3, 403186 <main+0x1c6>
				switch(seleced_button)
  40316c:	4b43      	ldr	r3, [pc, #268]	; (40327c <main+0x2bc>)
  40316e:	681b      	ldr	r3, [r3, #0]
  403170:	2b02      	cmp	r3, #2
  403172:	f43f af7c 	beq.w	40306e <main+0xae>
  403176:	2b03      	cmp	r3, #3
  403178:	d08c      	beq.n	403094 <main+0xd4>
  40317a:	2b01      	cmp	r3, #1
  40317c:	f43f af72 	beq.w	403064 <main+0xa4>
				button_pressed = false;
  403180:	4b3d      	ldr	r3, [pc, #244]	; (403278 <main+0x2b8>)
  403182:	f883 b000 	strb.w	fp, [r3]
			if (bullets->x == 15)
  403186:	4b32      	ldr	r3, [pc, #200]	; (403250 <main+0x290>)
  403188:	6818      	ldr	r0, [r3, #0]
  40318a:	8843      	ldrh	r3, [r0, #2]
  40318c:	2b0f      	cmp	r3, #15
  40318e:	d086      	beq.n	40309e <main+0xde>
			if (bullets->exists)
  403190:	7983      	ldrb	r3, [r0, #6]
  403192:	2b00      	cmp	r3, #0
  403194:	d186      	bne.n	4030a4 <main+0xe4>
			if (update_alien == ALIEN_UPDATE)
  403196:	4b34      	ldr	r3, [pc, #208]	; (403268 <main+0x2a8>)
  403198:	881b      	ldrh	r3, [r3, #0]
  40319a:	2b05      	cmp	r3, #5
  40319c:	d085      	beq.n	4030aa <main+0xea>
			update_alien = (update_alien == ALIEN_UPDATE) ? 0 : update_alien + 1;
  40319e:	3301      	adds	r3, #1
  4031a0:	b29b      	uxth	r3, r3
  4031a2:	4a31      	ldr	r2, [pc, #196]	; (403268 <main+0x2a8>)
  4031a4:	8013      	strh	r3, [r2, #0]
				if (bullets->exists && (current_alien->x == bullets->x) && (current_alien->y == bullets->y) && current_alien->exists)
  4031a6:	4b2a      	ldr	r3, [pc, #168]	; (403250 <main+0x290>)
  4031a8:	f8d3 e000 	ldr.w	lr, [r3]
  4031ac:	f89e 0006 	ldrb.w	r0, [lr, #6]
  4031b0:	4b33      	ldr	r3, [pc, #204]	; (403280 <main+0x2c0>)
  4031b2:	f103 013c 	add.w	r1, r3, #60	; 0x3c
			bool collision_found = false;
  4031b6:	46b4      	mov	ip, r6
			Shape* collided_alian = NULL;
  4031b8:	f04f 0800 	mov.w	r8, #0
  4031bc:	e781      	b.n	4030c2 <main+0x102>
  4031be:	4b2c      	ldr	r3, [pc, #176]	; (403270 <main+0x2b0>)
  4031c0:	7018      	strb	r0, [r3, #0]
  4031c2:	e7c9      	b.n	403158 <main+0x198>
		free(Alien);
  4031c4:	9802      	ldr	r0, [sp, #8]
  4031c6:	4b2f      	ldr	r3, [pc, #188]	; (403284 <main+0x2c4>)
  4031c8:	4798      	blx	r3
		hal_display_cls();
  4031ca:	4b28      	ldr	r3, [pc, #160]	; (40326c <main+0x2ac>)
  4031cc:	4798      	blx	r3
		sprintf(string, "Score: %d", score);
  4031ce:	4b21      	ldr	r3, [pc, #132]	; (403254 <main+0x294>)
  4031d0:	881a      	ldrh	r2, [r3, #0]
  4031d2:	492d      	ldr	r1, [pc, #180]	; (403288 <main+0x2c8>)
  4031d4:	a80b      	add	r0, sp, #44	; 0x2c
  4031d6:	4b2d      	ldr	r3, [pc, #180]	; (40328c <main+0x2cc>)
  4031d8:	4798      	blx	r3
		print_string(string);
  4031da:	a80b      	add	r0, sp, #44	; 0x2c
  4031dc:	4b2c      	ldr	r3, [pc, #176]	; (403290 <main+0x2d0>)
  4031de:	4798      	blx	r3
		while(!button_pressed)
  4031e0:	4b25      	ldr	r3, [pc, #148]	; (403278 <main+0x2b8>)
  4031e2:	781b      	ldrb	r3, [r3, #0]
  4031e4:	b9bb      	cbnz	r3, 403216 <main+0x256>
			hal_led_write(Led1, LedOn);
  4031e6:	2501      	movs	r5, #1
  4031e8:	4c2a      	ldr	r4, [pc, #168]	; (403294 <main+0x2d4>)
  4031ea:	4629      	mov	r1, r5
  4031ec:	4628      	mov	r0, r5
  4031ee:	47a0      	blx	r4
			hal_led_write(Led2, LedOn);
  4031f0:	4629      	mov	r1, r5
  4031f2:	2002      	movs	r0, #2
  4031f4:	47a0      	blx	r4
			hal_led_write(Led3, LedOn);
  4031f6:	4629      	mov	r1, r5
  4031f8:	2003      	movs	r0, #3
  4031fa:	47a0      	blx	r4
			hal_led_write(Led1, LedOff);
  4031fc:	4659      	mov	r1, fp
  4031fe:	4628      	mov	r0, r5
  403200:	47a0      	blx	r4
			hal_led_write(Led2, LedOff);
  403202:	4659      	mov	r1, fp
  403204:	2002      	movs	r0, #2
  403206:	47a0      	blx	r4
			hal_led_write(Led3, LedOff);
  403208:	4659      	mov	r1, fp
  40320a:	2003      	movs	r0, #3
  40320c:	47a0      	blx	r4
		while(!button_pressed)
  40320e:	4b1a      	ldr	r3, [pc, #104]	; (403278 <main+0x2b8>)
  403210:	781b      	ldrb	r3, [r3, #0]
  403212:	2b00      	cmp	r3, #0
  403214:	d0e9      	beq.n	4031ea <main+0x22a>
		button_pressed = false;
  403216:	4b18      	ldr	r3, [pc, #96]	; (403278 <main+0x2b8>)
  403218:	f883 b000 	strb.w	fp, [r3]
		gameover = false;
  40321c:	4b14      	ldr	r3, [pc, #80]	; (403270 <main+0x2b0>)
  40321e:	f89d 200f 	ldrb.w	r2, [sp, #15]
  403222:	701a      	strb	r2, [r3, #0]
		Shape *Alien = malloc(15*sizeof(Shape));
  403224:	2078      	movs	r0, #120	; 0x78
  403226:	4b1c      	ldr	r3, [pc, #112]	; (403298 <main+0x2d8>)
  403228:	4798      	blx	r3
  40322a:	9002      	str	r0, [sp, #8]
		for (uint16_t i=10; i<15; i++) {
  40322c:	230a      	movs	r3, #10
  40322e:	9301      	str	r3, [sp, #4]
		uint16_t k=0;
  403230:	465f      	mov	r7, fp
				Alien[k] = make_shape(alien, i, j);
  403232:	f8df a014 	ldr.w	sl, [pc, #20]	; 403248 <main+0x288>
				aliens[k] = &Alien[k];
  403236:	f8df 8048 	ldr.w	r8, [pc, #72]	; 403280 <main+0x2c0>
  40323a:	e6d8      	b.n	402fee <main+0x2e>
  40323c:	00400d35 	.word	0x00400d35
  403240:	00402f29 	.word	0x00402f29
  403244:	0040085d 	.word	0x0040085d
  403248:	00400db9 	.word	0x00400db9
  40324c:	200011ac 	.word	0x200011ac
  403250:	20001168 	.word	0x20001168
  403254:	20001122 	.word	0x20001122
  403258:	00400e2b 	.word	0x00400e2b
  40325c:	00400e1d 	.word	0x00400e1d
  403260:	00400e3f 	.word	0x00400e3f
  403264:	00402f3d 	.word	0x00402f3d
  403268:	20001124 	.word	0x20001124
  40326c:	00400689 	.word	0x00400689
  403270:	20001121 	.word	0x20001121
  403274:	004001d1 	.word	0x004001d1
  403278:	20001120 	.word	0x20001120
  40327c:	2000116c 	.word	0x2000116c
  403280:	20001170 	.word	0x20001170
  403284:	00403de9 	.word	0x00403de9
  403288:	00407ca8 	.word	0x00407ca8
  40328c:	00404431 	.word	0x00404431
  403290:	00402f91 	.word	0x00402f91
  403294:	004004a5 	.word	0x004004a5
  403298:	00403dd9 	.word	0x00403dd9
  40329c:	00400ddd 	.word	0x00400ddd
  4032a0:	2000116c 	.word	0x2000116c

004032a4 <__aeabi_drsub>:
  4032a4:	f081 4100 	eor.w	r1, r1, #2147483648	; 0x80000000
  4032a8:	e002      	b.n	4032b0 <__adddf3>
  4032aa:	bf00      	nop

004032ac <__aeabi_dsub>:
  4032ac:	f083 4300 	eor.w	r3, r3, #2147483648	; 0x80000000

004032b0 <__adddf3>:
  4032b0:	b530      	push	{r4, r5, lr}
  4032b2:	ea4f 0441 	mov.w	r4, r1, lsl #1
  4032b6:	ea4f 0543 	mov.w	r5, r3, lsl #1
  4032ba:	ea94 0f05 	teq	r4, r5
  4032be:	bf08      	it	eq
  4032c0:	ea90 0f02 	teqeq	r0, r2
  4032c4:	bf1f      	itttt	ne
  4032c6:	ea54 0c00 	orrsne.w	ip, r4, r0
  4032ca:	ea55 0c02 	orrsne.w	ip, r5, r2
  4032ce:	ea7f 5c64 	mvnsne.w	ip, r4, asr #21
  4032d2:	ea7f 5c65 	mvnsne.w	ip, r5, asr #21
  4032d6:	f000 80e2 	beq.w	40349e <__adddf3+0x1ee>
  4032da:	ea4f 5454 	mov.w	r4, r4, lsr #21
  4032de:	ebd4 5555 	rsbs	r5, r4, r5, lsr #21
  4032e2:	bfb8      	it	lt
  4032e4:	426d      	neglt	r5, r5
  4032e6:	dd0c      	ble.n	403302 <__adddf3+0x52>
  4032e8:	442c      	add	r4, r5
  4032ea:	ea80 0202 	eor.w	r2, r0, r2
  4032ee:	ea81 0303 	eor.w	r3, r1, r3
  4032f2:	ea82 0000 	eor.w	r0, r2, r0
  4032f6:	ea83 0101 	eor.w	r1, r3, r1
  4032fa:	ea80 0202 	eor.w	r2, r0, r2
  4032fe:	ea81 0303 	eor.w	r3, r1, r3
  403302:	2d36      	cmp	r5, #54	; 0x36
  403304:	bf88      	it	hi
  403306:	bd30      	pophi	{r4, r5, pc}
  403308:	f011 4f00 	tst.w	r1, #2147483648	; 0x80000000
  40330c:	ea4f 3101 	mov.w	r1, r1, lsl #12
  403310:	f44f 1c80 	mov.w	ip, #1048576	; 0x100000
  403314:	ea4c 3111 	orr.w	r1, ip, r1, lsr #12
  403318:	d002      	beq.n	403320 <__adddf3+0x70>
  40331a:	4240      	negs	r0, r0
  40331c:	eb61 0141 	sbc.w	r1, r1, r1, lsl #1
  403320:	f013 4f00 	tst.w	r3, #2147483648	; 0x80000000
  403324:	ea4f 3303 	mov.w	r3, r3, lsl #12
  403328:	ea4c 3313 	orr.w	r3, ip, r3, lsr #12
  40332c:	d002      	beq.n	403334 <__adddf3+0x84>
  40332e:	4252      	negs	r2, r2
  403330:	eb63 0343 	sbc.w	r3, r3, r3, lsl #1
  403334:	ea94 0f05 	teq	r4, r5
  403338:	f000 80a7 	beq.w	40348a <__adddf3+0x1da>
  40333c:	f1a4 0401 	sub.w	r4, r4, #1
  403340:	f1d5 0e20 	rsbs	lr, r5, #32
  403344:	db0d      	blt.n	403362 <__adddf3+0xb2>
  403346:	fa02 fc0e 	lsl.w	ip, r2, lr
  40334a:	fa22 f205 	lsr.w	r2, r2, r5
  40334e:	1880      	adds	r0, r0, r2
  403350:	f141 0100 	adc.w	r1, r1, #0
  403354:	fa03 f20e 	lsl.w	r2, r3, lr
  403358:	1880      	adds	r0, r0, r2
  40335a:	fa43 f305 	asr.w	r3, r3, r5
  40335e:	4159      	adcs	r1, r3
  403360:	e00e      	b.n	403380 <__adddf3+0xd0>
  403362:	f1a5 0520 	sub.w	r5, r5, #32
  403366:	f10e 0e20 	add.w	lr, lr, #32
  40336a:	2a01      	cmp	r2, #1
  40336c:	fa03 fc0e 	lsl.w	ip, r3, lr
  403370:	bf28      	it	cs
  403372:	f04c 0c02 	orrcs.w	ip, ip, #2
  403376:	fa43 f305 	asr.w	r3, r3, r5
  40337a:	18c0      	adds	r0, r0, r3
  40337c:	eb51 71e3 	adcs.w	r1, r1, r3, asr #31
  403380:	f001 4500 	and.w	r5, r1, #2147483648	; 0x80000000
  403384:	d507      	bpl.n	403396 <__adddf3+0xe6>
  403386:	f04f 0e00 	mov.w	lr, #0
  40338a:	f1dc 0c00 	rsbs	ip, ip, #0
  40338e:	eb7e 0000 	sbcs.w	r0, lr, r0
  403392:	eb6e 0101 	sbc.w	r1, lr, r1
  403396:	f5b1 1f80 	cmp.w	r1, #1048576	; 0x100000
  40339a:	d31b      	bcc.n	4033d4 <__adddf3+0x124>
  40339c:	f5b1 1f00 	cmp.w	r1, #2097152	; 0x200000
  4033a0:	d30c      	bcc.n	4033bc <__adddf3+0x10c>
  4033a2:	0849      	lsrs	r1, r1, #1
  4033a4:	ea5f 0030 	movs.w	r0, r0, rrx
  4033a8:	ea4f 0c3c 	mov.w	ip, ip, rrx
  4033ac:	f104 0401 	add.w	r4, r4, #1
  4033b0:	ea4f 5244 	mov.w	r2, r4, lsl #21
  4033b4:	f512 0f80 	cmn.w	r2, #4194304	; 0x400000
  4033b8:	f080 809a 	bcs.w	4034f0 <__adddf3+0x240>
  4033bc:	f1bc 4f00 	cmp.w	ip, #2147483648	; 0x80000000
  4033c0:	bf08      	it	eq
  4033c2:	ea5f 0c50 	movseq.w	ip, r0, lsr #1
  4033c6:	f150 0000 	adcs.w	r0, r0, #0
  4033ca:	eb41 5104 	adc.w	r1, r1, r4, lsl #20
  4033ce:	ea41 0105 	orr.w	r1, r1, r5
  4033d2:	bd30      	pop	{r4, r5, pc}
  4033d4:	ea5f 0c4c 	movs.w	ip, ip, lsl #1
  4033d8:	4140      	adcs	r0, r0
  4033da:	eb41 0101 	adc.w	r1, r1, r1
  4033de:	f411 1f80 	tst.w	r1, #1048576	; 0x100000
  4033e2:	f1a4 0401 	sub.w	r4, r4, #1
  4033e6:	d1e9      	bne.n	4033bc <__adddf3+0x10c>
  4033e8:	f091 0f00 	teq	r1, #0
  4033ec:	bf04      	itt	eq
  4033ee:	4601      	moveq	r1, r0
  4033f0:	2000      	moveq	r0, #0
  4033f2:	fab1 f381 	clz	r3, r1
  4033f6:	bf08      	it	eq
  4033f8:	3320      	addeq	r3, #32
  4033fa:	f1a3 030b 	sub.w	r3, r3, #11
  4033fe:	f1b3 0220 	subs.w	r2, r3, #32
  403402:	da0c      	bge.n	40341e <__adddf3+0x16e>
  403404:	320c      	adds	r2, #12
  403406:	dd08      	ble.n	40341a <__adddf3+0x16a>
  403408:	f102 0c14 	add.w	ip, r2, #20
  40340c:	f1c2 020c 	rsb	r2, r2, #12
  403410:	fa01 f00c 	lsl.w	r0, r1, ip
  403414:	fa21 f102 	lsr.w	r1, r1, r2
  403418:	e00c      	b.n	403434 <__adddf3+0x184>
  40341a:	f102 0214 	add.w	r2, r2, #20
  40341e:	bfd8      	it	le
  403420:	f1c2 0c20 	rsble	ip, r2, #32
  403424:	fa01 f102 	lsl.w	r1, r1, r2
  403428:	fa20 fc0c 	lsr.w	ip, r0, ip
  40342c:	bfdc      	itt	le
  40342e:	ea41 010c 	orrle.w	r1, r1, ip
  403432:	4090      	lslle	r0, r2
  403434:	1ae4      	subs	r4, r4, r3
  403436:	bfa2      	ittt	ge
  403438:	eb01 5104 	addge.w	r1, r1, r4, lsl #20
  40343c:	4329      	orrge	r1, r5
  40343e:	bd30      	popge	{r4, r5, pc}
  403440:	ea6f 0404 	mvn.w	r4, r4
  403444:	3c1f      	subs	r4, #31
  403446:	da1c      	bge.n	403482 <__adddf3+0x1d2>
  403448:	340c      	adds	r4, #12
  40344a:	dc0e      	bgt.n	40346a <__adddf3+0x1ba>
  40344c:	f104 0414 	add.w	r4, r4, #20
  403450:	f1c4 0220 	rsb	r2, r4, #32
  403454:	fa20 f004 	lsr.w	r0, r0, r4
  403458:	fa01 f302 	lsl.w	r3, r1, r2
  40345c:	ea40 0003 	orr.w	r0, r0, r3
  403460:	fa21 f304 	lsr.w	r3, r1, r4
  403464:	ea45 0103 	orr.w	r1, r5, r3
  403468:	bd30      	pop	{r4, r5, pc}
  40346a:	f1c4 040c 	rsb	r4, r4, #12
  40346e:	f1c4 0220 	rsb	r2, r4, #32
  403472:	fa20 f002 	lsr.w	r0, r0, r2
  403476:	fa01 f304 	lsl.w	r3, r1, r4
  40347a:	ea40 0003 	orr.w	r0, r0, r3
  40347e:	4629      	mov	r1, r5
  403480:	bd30      	pop	{r4, r5, pc}
  403482:	fa21 f004 	lsr.w	r0, r1, r4
  403486:	4629      	mov	r1, r5
  403488:	bd30      	pop	{r4, r5, pc}
  40348a:	f094 0f00 	teq	r4, #0
  40348e:	f483 1380 	eor.w	r3, r3, #1048576	; 0x100000
  403492:	bf06      	itte	eq
  403494:	f481 1180 	eoreq.w	r1, r1, #1048576	; 0x100000
  403498:	3401      	addeq	r4, #1
  40349a:	3d01      	subne	r5, #1
  40349c:	e74e      	b.n	40333c <__adddf3+0x8c>
  40349e:	ea7f 5c64 	mvns.w	ip, r4, asr #21
  4034a2:	bf18      	it	ne
  4034a4:	ea7f 5c65 	mvnsne.w	ip, r5, asr #21
  4034a8:	d029      	beq.n	4034fe <__adddf3+0x24e>
  4034aa:	ea94 0f05 	teq	r4, r5
  4034ae:	bf08      	it	eq
  4034b0:	ea90 0f02 	teqeq	r0, r2
  4034b4:	d005      	beq.n	4034c2 <__adddf3+0x212>
  4034b6:	ea54 0c00 	orrs.w	ip, r4, r0
  4034ba:	bf04      	itt	eq
  4034bc:	4619      	moveq	r1, r3
  4034be:	4610      	moveq	r0, r2
  4034c0:	bd30      	pop	{r4, r5, pc}
  4034c2:	ea91 0f03 	teq	r1, r3
  4034c6:	bf1e      	ittt	ne
  4034c8:	2100      	movne	r1, #0
  4034ca:	2000      	movne	r0, #0
  4034cc:	bd30      	popne	{r4, r5, pc}
  4034ce:	ea5f 5c54 	movs.w	ip, r4, lsr #21
  4034d2:	d105      	bne.n	4034e0 <__adddf3+0x230>
  4034d4:	0040      	lsls	r0, r0, #1
  4034d6:	4149      	adcs	r1, r1
  4034d8:	bf28      	it	cs
  4034da:	f041 4100 	orrcs.w	r1, r1, #2147483648	; 0x80000000
  4034de:	bd30      	pop	{r4, r5, pc}
  4034e0:	f514 0480 	adds.w	r4, r4, #4194304	; 0x400000
  4034e4:	bf3c      	itt	cc
  4034e6:	f501 1180 	addcc.w	r1, r1, #1048576	; 0x100000
  4034ea:	bd30      	popcc	{r4, r5, pc}
  4034ec:	f001 4500 	and.w	r5, r1, #2147483648	; 0x80000000
  4034f0:	f045 41fe 	orr.w	r1, r5, #2130706432	; 0x7f000000
  4034f4:	f441 0170 	orr.w	r1, r1, #15728640	; 0xf00000
  4034f8:	f04f 0000 	mov.w	r0, #0
  4034fc:	bd30      	pop	{r4, r5, pc}
  4034fe:	ea7f 5c64 	mvns.w	ip, r4, asr #21
  403502:	bf1a      	itte	ne
  403504:	4619      	movne	r1, r3
  403506:	4610      	movne	r0, r2
  403508:	ea7f 5c65 	mvnseq.w	ip, r5, asr #21
  40350c:	bf1c      	itt	ne
  40350e:	460b      	movne	r3, r1
  403510:	4602      	movne	r2, r0
  403512:	ea50 3401 	orrs.w	r4, r0, r1, lsl #12
  403516:	bf06      	itte	eq
  403518:	ea52 3503 	orrseq.w	r5, r2, r3, lsl #12
  40351c:	ea91 0f03 	teqeq	r1, r3
  403520:	f441 2100 	orrne.w	r1, r1, #524288	; 0x80000
  403524:	bd30      	pop	{r4, r5, pc}
  403526:	bf00      	nop

00403528 <__aeabi_ui2d>:
  403528:	f090 0f00 	teq	r0, #0
  40352c:	bf04      	itt	eq
  40352e:	2100      	moveq	r1, #0
  403530:	4770      	bxeq	lr
  403532:	b530      	push	{r4, r5, lr}
  403534:	f44f 6480 	mov.w	r4, #1024	; 0x400
  403538:	f104 0432 	add.w	r4, r4, #50	; 0x32
  40353c:	f04f 0500 	mov.w	r5, #0
  403540:	f04f 0100 	mov.w	r1, #0
  403544:	e750      	b.n	4033e8 <__adddf3+0x138>
  403546:	bf00      	nop

00403548 <__aeabi_i2d>:
  403548:	f090 0f00 	teq	r0, #0
  40354c:	bf04      	itt	eq
  40354e:	2100      	moveq	r1, #0
  403550:	4770      	bxeq	lr
  403552:	b530      	push	{r4, r5, lr}
  403554:	f44f 6480 	mov.w	r4, #1024	; 0x400
  403558:	f104 0432 	add.w	r4, r4, #50	; 0x32
  40355c:	f010 4500 	ands.w	r5, r0, #2147483648	; 0x80000000
  403560:	bf48      	it	mi
  403562:	4240      	negmi	r0, r0
  403564:	f04f 0100 	mov.w	r1, #0
  403568:	e73e      	b.n	4033e8 <__adddf3+0x138>
  40356a:	bf00      	nop

0040356c <__aeabi_f2d>:
  40356c:	0042      	lsls	r2, r0, #1
  40356e:	ea4f 01e2 	mov.w	r1, r2, asr #3
  403572:	ea4f 0131 	mov.w	r1, r1, rrx
  403576:	ea4f 7002 	mov.w	r0, r2, lsl #28
  40357a:	bf1f      	itttt	ne
  40357c:	f012 437f 	andsne.w	r3, r2, #4278190080	; 0xff000000
  403580:	f093 4f7f 	teqne	r3, #4278190080	; 0xff000000
  403584:	f081 5160 	eorne.w	r1, r1, #939524096	; 0x38000000
  403588:	4770      	bxne	lr
  40358a:	f092 0f00 	teq	r2, #0
  40358e:	bf14      	ite	ne
  403590:	f093 4f7f 	teqne	r3, #4278190080	; 0xff000000
  403594:	4770      	bxeq	lr
  403596:	b530      	push	{r4, r5, lr}
  403598:	f44f 7460 	mov.w	r4, #896	; 0x380
  40359c:	f001 4500 	and.w	r5, r1, #2147483648	; 0x80000000
  4035a0:	f021 4100 	bic.w	r1, r1, #2147483648	; 0x80000000
  4035a4:	e720      	b.n	4033e8 <__adddf3+0x138>
  4035a6:	bf00      	nop

004035a8 <__aeabi_ul2d>:
  4035a8:	ea50 0201 	orrs.w	r2, r0, r1
  4035ac:	bf08      	it	eq
  4035ae:	4770      	bxeq	lr
  4035b0:	b530      	push	{r4, r5, lr}
  4035b2:	f04f 0500 	mov.w	r5, #0
  4035b6:	e00a      	b.n	4035ce <__aeabi_l2d+0x16>

004035b8 <__aeabi_l2d>:
  4035b8:	ea50 0201 	orrs.w	r2, r0, r1
  4035bc:	bf08      	it	eq
  4035be:	4770      	bxeq	lr
  4035c0:	b530      	push	{r4, r5, lr}
  4035c2:	f011 4500 	ands.w	r5, r1, #2147483648	; 0x80000000
  4035c6:	d502      	bpl.n	4035ce <__aeabi_l2d+0x16>
  4035c8:	4240      	negs	r0, r0
  4035ca:	eb61 0141 	sbc.w	r1, r1, r1, lsl #1
  4035ce:	f44f 6480 	mov.w	r4, #1024	; 0x400
  4035d2:	f104 0432 	add.w	r4, r4, #50	; 0x32
  4035d6:	ea5f 5c91 	movs.w	ip, r1, lsr #22
  4035da:	f43f aedc 	beq.w	403396 <__adddf3+0xe6>
  4035de:	f04f 0203 	mov.w	r2, #3
  4035e2:	ea5f 0cdc 	movs.w	ip, ip, lsr #3
  4035e6:	bf18      	it	ne
  4035e8:	3203      	addne	r2, #3
  4035ea:	ea5f 0cdc 	movs.w	ip, ip, lsr #3
  4035ee:	bf18      	it	ne
  4035f0:	3203      	addne	r2, #3
  4035f2:	eb02 02dc 	add.w	r2, r2, ip, lsr #3
  4035f6:	f1c2 0320 	rsb	r3, r2, #32
  4035fa:	fa00 fc03 	lsl.w	ip, r0, r3
  4035fe:	fa20 f002 	lsr.w	r0, r0, r2
  403602:	fa01 fe03 	lsl.w	lr, r1, r3
  403606:	ea40 000e 	orr.w	r0, r0, lr
  40360a:	fa21 f102 	lsr.w	r1, r1, r2
  40360e:	4414      	add	r4, r2
  403610:	e6c1      	b.n	403396 <__adddf3+0xe6>
  403612:	bf00      	nop

00403614 <__aeabi_dmul>:
  403614:	b570      	push	{r4, r5, r6, lr}
  403616:	f04f 0cff 	mov.w	ip, #255	; 0xff
  40361a:	f44c 6ce0 	orr.w	ip, ip, #1792	; 0x700
  40361e:	ea1c 5411 	ands.w	r4, ip, r1, lsr #20
  403622:	bf1d      	ittte	ne
  403624:	ea1c 5513 	andsne.w	r5, ip, r3, lsr #20
  403628:	ea94 0f0c 	teqne	r4, ip
  40362c:	ea95 0f0c 	teqne	r5, ip
  403630:	f000 f8de 	bleq	4037f0 <__aeabi_dmul+0x1dc>
  403634:	442c      	add	r4, r5
  403636:	ea81 0603 	eor.w	r6, r1, r3
  40363a:	ea21 514c 	bic.w	r1, r1, ip, lsl #21
  40363e:	ea23 534c 	bic.w	r3, r3, ip, lsl #21
  403642:	ea50 3501 	orrs.w	r5, r0, r1, lsl #12
  403646:	bf18      	it	ne
  403648:	ea52 3503 	orrsne.w	r5, r2, r3, lsl #12
  40364c:	f441 1180 	orr.w	r1, r1, #1048576	; 0x100000
  403650:	f443 1380 	orr.w	r3, r3, #1048576	; 0x100000
  403654:	d038      	beq.n	4036c8 <__aeabi_dmul+0xb4>
  403656:	fba0 ce02 	umull	ip, lr, r0, r2
  40365a:	f04f 0500 	mov.w	r5, #0
  40365e:	fbe1 e502 	umlal	lr, r5, r1, r2
  403662:	f006 4200 	and.w	r2, r6, #2147483648	; 0x80000000
  403666:	fbe0 e503 	umlal	lr, r5, r0, r3
  40366a:	f04f 0600 	mov.w	r6, #0
  40366e:	fbe1 5603 	umlal	r5, r6, r1, r3
  403672:	f09c 0f00 	teq	ip, #0
  403676:	bf18      	it	ne
  403678:	f04e 0e01 	orrne.w	lr, lr, #1
  40367c:	f1a4 04ff 	sub.w	r4, r4, #255	; 0xff
  403680:	f5b6 7f00 	cmp.w	r6, #512	; 0x200
  403684:	f564 7440 	sbc.w	r4, r4, #768	; 0x300
  403688:	d204      	bcs.n	403694 <__aeabi_dmul+0x80>
  40368a:	ea5f 0e4e 	movs.w	lr, lr, lsl #1
  40368e:	416d      	adcs	r5, r5
  403690:	eb46 0606 	adc.w	r6, r6, r6
  403694:	ea42 21c6 	orr.w	r1, r2, r6, lsl #11
  403698:	ea41 5155 	orr.w	r1, r1, r5, lsr #21
  40369c:	ea4f 20c5 	mov.w	r0, r5, lsl #11
  4036a0:	ea40 505e 	orr.w	r0, r0, lr, lsr #21
  4036a4:	ea4f 2ece 	mov.w	lr, lr, lsl #11
  4036a8:	f1b4 0cfd 	subs.w	ip, r4, #253	; 0xfd
  4036ac:	bf88      	it	hi
  4036ae:	f5bc 6fe0 	cmphi.w	ip, #1792	; 0x700
  4036b2:	d81e      	bhi.n	4036f2 <__aeabi_dmul+0xde>
  4036b4:	f1be 4f00 	cmp.w	lr, #2147483648	; 0x80000000
  4036b8:	bf08      	it	eq
  4036ba:	ea5f 0e50 	movseq.w	lr, r0, lsr #1
  4036be:	f150 0000 	adcs.w	r0, r0, #0
  4036c2:	eb41 5104 	adc.w	r1, r1, r4, lsl #20
  4036c6:	bd70      	pop	{r4, r5, r6, pc}
  4036c8:	f006 4600 	and.w	r6, r6, #2147483648	; 0x80000000
  4036cc:	ea46 0101 	orr.w	r1, r6, r1
  4036d0:	ea40 0002 	orr.w	r0, r0, r2
  4036d4:	ea81 0103 	eor.w	r1, r1, r3
  4036d8:	ebb4 045c 	subs.w	r4, r4, ip, lsr #1
  4036dc:	bfc2      	ittt	gt
  4036de:	ebd4 050c 	rsbsgt	r5, r4, ip
  4036e2:	ea41 5104 	orrgt.w	r1, r1, r4, lsl #20
  4036e6:	bd70      	popgt	{r4, r5, r6, pc}
  4036e8:	f441 1180 	orr.w	r1, r1, #1048576	; 0x100000
  4036ec:	f04f 0e00 	mov.w	lr, #0
  4036f0:	3c01      	subs	r4, #1
  4036f2:	f300 80ab 	bgt.w	40384c <__aeabi_dmul+0x238>
  4036f6:	f114 0f36 	cmn.w	r4, #54	; 0x36
  4036fa:	bfde      	ittt	le
  4036fc:	2000      	movle	r0, #0
  4036fe:	f001 4100 	andle.w	r1, r1, #2147483648	; 0x80000000
  403702:	bd70      	pople	{r4, r5, r6, pc}
  403704:	f1c4 0400 	rsb	r4, r4, #0
  403708:	3c20      	subs	r4, #32
  40370a:	da35      	bge.n	403778 <__aeabi_dmul+0x164>
  40370c:	340c      	adds	r4, #12
  40370e:	dc1b      	bgt.n	403748 <__aeabi_dmul+0x134>
  403710:	f104 0414 	add.w	r4, r4, #20
  403714:	f1c4 0520 	rsb	r5, r4, #32
  403718:	fa00 f305 	lsl.w	r3, r0, r5
  40371c:	fa20 f004 	lsr.w	r0, r0, r4
  403720:	fa01 f205 	lsl.w	r2, r1, r5
  403724:	ea40 0002 	orr.w	r0, r0, r2
  403728:	f001 4200 	and.w	r2, r1, #2147483648	; 0x80000000
  40372c:	f021 4100 	bic.w	r1, r1, #2147483648	; 0x80000000
  403730:	eb10 70d3 	adds.w	r0, r0, r3, lsr #31
  403734:	fa21 f604 	lsr.w	r6, r1, r4
  403738:	eb42 0106 	adc.w	r1, r2, r6
  40373c:	ea5e 0e43 	orrs.w	lr, lr, r3, lsl #1
  403740:	bf08      	it	eq
  403742:	ea20 70d3 	biceq.w	r0, r0, r3, lsr #31
  403746:	bd70      	pop	{r4, r5, r6, pc}
  403748:	f1c4 040c 	rsb	r4, r4, #12
  40374c:	f1c4 0520 	rsb	r5, r4, #32
  403750:	fa00 f304 	lsl.w	r3, r0, r4
  403754:	fa20 f005 	lsr.w	r0, r0, r5
  403758:	fa01 f204 	lsl.w	r2, r1, r4
  40375c:	ea40 0002 	orr.w	r0, r0, r2
  403760:	f001 4100 	and.w	r1, r1, #2147483648	; 0x80000000
  403764:	eb10 70d3 	adds.w	r0, r0, r3, lsr #31
  403768:	f141 0100 	adc.w	r1, r1, #0
  40376c:	ea5e 0e43 	orrs.w	lr, lr, r3, lsl #1
  403770:	bf08      	it	eq
  403772:	ea20 70d3 	biceq.w	r0, r0, r3, lsr #31
  403776:	bd70      	pop	{r4, r5, r6, pc}
  403778:	f1c4 0520 	rsb	r5, r4, #32
  40377c:	fa00 f205 	lsl.w	r2, r0, r5
  403780:	ea4e 0e02 	orr.w	lr, lr, r2
  403784:	fa20 f304 	lsr.w	r3, r0, r4
  403788:	fa01 f205 	lsl.w	r2, r1, r5
  40378c:	ea43 0302 	orr.w	r3, r3, r2
  403790:	fa21 f004 	lsr.w	r0, r1, r4
  403794:	f001 4100 	and.w	r1, r1, #2147483648	; 0x80000000
  403798:	fa21 f204 	lsr.w	r2, r1, r4
  40379c:	ea20 0002 	bic.w	r0, r0, r2
  4037a0:	eb00 70d3 	add.w	r0, r0, r3, lsr #31
  4037a4:	ea5e 0e43 	orrs.w	lr, lr, r3, lsl #1
  4037a8:	bf08      	it	eq
  4037aa:	ea20 70d3 	biceq.w	r0, r0, r3, lsr #31
  4037ae:	bd70      	pop	{r4, r5, r6, pc}
  4037b0:	f094 0f00 	teq	r4, #0
  4037b4:	d10f      	bne.n	4037d6 <__aeabi_dmul+0x1c2>
  4037b6:	f001 4600 	and.w	r6, r1, #2147483648	; 0x80000000
  4037ba:	0040      	lsls	r0, r0, #1
  4037bc:	eb41 0101 	adc.w	r1, r1, r1
  4037c0:	f411 1f80 	tst.w	r1, #1048576	; 0x100000
  4037c4:	bf08      	it	eq
  4037c6:	3c01      	subeq	r4, #1
  4037c8:	d0f7      	beq.n	4037ba <__aeabi_dmul+0x1a6>
  4037ca:	ea41 0106 	orr.w	r1, r1, r6
  4037ce:	f095 0f00 	teq	r5, #0
  4037d2:	bf18      	it	ne
  4037d4:	4770      	bxne	lr
  4037d6:	f003 4600 	and.w	r6, r3, #2147483648	; 0x80000000
  4037da:	0052      	lsls	r2, r2, #1
  4037dc:	eb43 0303 	adc.w	r3, r3, r3
  4037e0:	f413 1f80 	tst.w	r3, #1048576	; 0x100000
  4037e4:	bf08      	it	eq
  4037e6:	3d01      	subeq	r5, #1
  4037e8:	d0f7      	beq.n	4037da <__aeabi_dmul+0x1c6>
  4037ea:	ea43 0306 	orr.w	r3, r3, r6
  4037ee:	4770      	bx	lr
  4037f0:	ea94 0f0c 	teq	r4, ip
  4037f4:	ea0c 5513 	and.w	r5, ip, r3, lsr #20
  4037f8:	bf18      	it	ne
  4037fa:	ea95 0f0c 	teqne	r5, ip
  4037fe:	d00c      	beq.n	40381a <__aeabi_dmul+0x206>
  403800:	ea50 0641 	orrs.w	r6, r0, r1, lsl #1
  403804:	bf18      	it	ne
  403806:	ea52 0643 	orrsne.w	r6, r2, r3, lsl #1
  40380a:	d1d1      	bne.n	4037b0 <__aeabi_dmul+0x19c>
  40380c:	ea81 0103 	eor.w	r1, r1, r3
  403810:	f001 4100 	and.w	r1, r1, #2147483648	; 0x80000000
  403814:	f04f 0000 	mov.w	r0, #0
  403818:	bd70      	pop	{r4, r5, r6, pc}
  40381a:	ea50 0641 	orrs.w	r6, r0, r1, lsl #1
  40381e:	bf06      	itte	eq
  403820:	4610      	moveq	r0, r2
  403822:	4619      	moveq	r1, r3
  403824:	ea52 0643 	orrsne.w	r6, r2, r3, lsl #1
  403828:	d019      	beq.n	40385e <__aeabi_dmul+0x24a>
  40382a:	ea94 0f0c 	teq	r4, ip
  40382e:	d102      	bne.n	403836 <__aeabi_dmul+0x222>
  403830:	ea50 3601 	orrs.w	r6, r0, r1, lsl #12
  403834:	d113      	bne.n	40385e <__aeabi_dmul+0x24a>
  403836:	ea95 0f0c 	teq	r5, ip
  40383a:	d105      	bne.n	403848 <__aeabi_dmul+0x234>
  40383c:	ea52 3603 	orrs.w	r6, r2, r3, lsl #12
  403840:	bf1c      	itt	ne
  403842:	4610      	movne	r0, r2
  403844:	4619      	movne	r1, r3
  403846:	d10a      	bne.n	40385e <__aeabi_dmul+0x24a>
  403848:	ea81 0103 	eor.w	r1, r1, r3
  40384c:	f001 4100 	and.w	r1, r1, #2147483648	; 0x80000000
  403850:	f041 41fe 	orr.w	r1, r1, #2130706432	; 0x7f000000
  403854:	f441 0170 	orr.w	r1, r1, #15728640	; 0xf00000
  403858:	f04f 0000 	mov.w	r0, #0
  40385c:	bd70      	pop	{r4, r5, r6, pc}
  40385e:	f041 41fe 	orr.w	r1, r1, #2130706432	; 0x7f000000
  403862:	f441 0178 	orr.w	r1, r1, #16252928	; 0xf80000
  403866:	bd70      	pop	{r4, r5, r6, pc}

00403868 <__aeabi_ddiv>:
  403868:	b570      	push	{r4, r5, r6, lr}
  40386a:	f04f 0cff 	mov.w	ip, #255	; 0xff
  40386e:	f44c 6ce0 	orr.w	ip, ip, #1792	; 0x700
  403872:	ea1c 5411 	ands.w	r4, ip, r1, lsr #20
  403876:	bf1d      	ittte	ne
  403878:	ea1c 5513 	andsne.w	r5, ip, r3, lsr #20
  40387c:	ea94 0f0c 	teqne	r4, ip
  403880:	ea95 0f0c 	teqne	r5, ip
  403884:	f000 f8a7 	bleq	4039d6 <__aeabi_ddiv+0x16e>
  403888:	eba4 0405 	sub.w	r4, r4, r5
  40388c:	ea81 0e03 	eor.w	lr, r1, r3
  403890:	ea52 3503 	orrs.w	r5, r2, r3, lsl #12
  403894:	ea4f 3101 	mov.w	r1, r1, lsl #12
  403898:	f000 8088 	beq.w	4039ac <__aeabi_ddiv+0x144>
  40389c:	ea4f 3303 	mov.w	r3, r3, lsl #12
  4038a0:	f04f 5580 	mov.w	r5, #268435456	; 0x10000000
  4038a4:	ea45 1313 	orr.w	r3, r5, r3, lsr #4
  4038a8:	ea43 6312 	orr.w	r3, r3, r2, lsr #24
  4038ac:	ea4f 2202 	mov.w	r2, r2, lsl #8
  4038b0:	ea45 1511 	orr.w	r5, r5, r1, lsr #4
  4038b4:	ea45 6510 	orr.w	r5, r5, r0, lsr #24
  4038b8:	ea4f 2600 	mov.w	r6, r0, lsl #8
  4038bc:	f00e 4100 	and.w	r1, lr, #2147483648	; 0x80000000
  4038c0:	429d      	cmp	r5, r3
  4038c2:	bf08      	it	eq
  4038c4:	4296      	cmpeq	r6, r2
  4038c6:	f144 04fd 	adc.w	r4, r4, #253	; 0xfd
  4038ca:	f504 7440 	add.w	r4, r4, #768	; 0x300
  4038ce:	d202      	bcs.n	4038d6 <__aeabi_ddiv+0x6e>
  4038d0:	085b      	lsrs	r3, r3, #1
  4038d2:	ea4f 0232 	mov.w	r2, r2, rrx
  4038d6:	1ab6      	subs	r6, r6, r2
  4038d8:	eb65 0503 	sbc.w	r5, r5, r3
  4038dc:	085b      	lsrs	r3, r3, #1
  4038de:	ea4f 0232 	mov.w	r2, r2, rrx
  4038e2:	f44f 1080 	mov.w	r0, #1048576	; 0x100000
  4038e6:	f44f 2c00 	mov.w	ip, #524288	; 0x80000
  4038ea:	ebb6 0e02 	subs.w	lr, r6, r2
  4038ee:	eb75 0e03 	sbcs.w	lr, r5, r3
  4038f2:	bf22      	ittt	cs
  4038f4:	1ab6      	subcs	r6, r6, r2
  4038f6:	4675      	movcs	r5, lr
  4038f8:	ea40 000c 	orrcs.w	r0, r0, ip
  4038fc:	085b      	lsrs	r3, r3, #1
  4038fe:	ea4f 0232 	mov.w	r2, r2, rrx
  403902:	ebb6 0e02 	subs.w	lr, r6, r2
  403906:	eb75 0e03 	sbcs.w	lr, r5, r3
  40390a:	bf22      	ittt	cs
  40390c:	1ab6      	subcs	r6, r6, r2
  40390e:	4675      	movcs	r5, lr
  403910:	ea40 005c 	orrcs.w	r0, r0, ip, lsr #1
  403914:	085b      	lsrs	r3, r3, #1
  403916:	ea4f 0232 	mov.w	r2, r2, rrx
  40391a:	ebb6 0e02 	subs.w	lr, r6, r2
  40391e:	eb75 0e03 	sbcs.w	lr, r5, r3
  403922:	bf22      	ittt	cs
  403924:	1ab6      	subcs	r6, r6, r2
  403926:	4675      	movcs	r5, lr
  403928:	ea40 009c 	orrcs.w	r0, r0, ip, lsr #2
  40392c:	085b      	lsrs	r3, r3, #1
  40392e:	ea4f 0232 	mov.w	r2, r2, rrx
  403932:	ebb6 0e02 	subs.w	lr, r6, r2
  403936:	eb75 0e03 	sbcs.w	lr, r5, r3
  40393a:	bf22      	ittt	cs
  40393c:	1ab6      	subcs	r6, r6, r2
  40393e:	4675      	movcs	r5, lr
  403940:	ea40 00dc 	orrcs.w	r0, r0, ip, lsr #3
  403944:	ea55 0e06 	orrs.w	lr, r5, r6
  403948:	d018      	beq.n	40397c <__aeabi_ddiv+0x114>
  40394a:	ea4f 1505 	mov.w	r5, r5, lsl #4
  40394e:	ea45 7516 	orr.w	r5, r5, r6, lsr #28
  403952:	ea4f 1606 	mov.w	r6, r6, lsl #4
  403956:	ea4f 03c3 	mov.w	r3, r3, lsl #3
  40395a:	ea43 7352 	orr.w	r3, r3, r2, lsr #29
  40395e:	ea4f 02c2 	mov.w	r2, r2, lsl #3
  403962:	ea5f 1c1c 	movs.w	ip, ip, lsr #4
  403966:	d1c0      	bne.n	4038ea <__aeabi_ddiv+0x82>
  403968:	f411 1f80 	tst.w	r1, #1048576	; 0x100000
  40396c:	d10b      	bne.n	403986 <__aeabi_ddiv+0x11e>
  40396e:	ea41 0100 	orr.w	r1, r1, r0
  403972:	f04f 0000 	mov.w	r0, #0
  403976:	f04f 4c00 	mov.w	ip, #2147483648	; 0x80000000
  40397a:	e7b6      	b.n	4038ea <__aeabi_ddiv+0x82>
  40397c:	f411 1f80 	tst.w	r1, #1048576	; 0x100000
  403980:	bf04      	itt	eq
  403982:	4301      	orreq	r1, r0
  403984:	2000      	moveq	r0, #0
  403986:	f1b4 0cfd 	subs.w	ip, r4, #253	; 0xfd
  40398a:	bf88      	it	hi
  40398c:	f5bc 6fe0 	cmphi.w	ip, #1792	; 0x700
  403990:	f63f aeaf 	bhi.w	4036f2 <__aeabi_dmul+0xde>
  403994:	ebb5 0c03 	subs.w	ip, r5, r3
  403998:	bf04      	itt	eq
  40399a:	ebb6 0c02 	subseq.w	ip, r6, r2
  40399e:	ea5f 0c50 	movseq.w	ip, r0, lsr #1
  4039a2:	f150 0000 	adcs.w	r0, r0, #0
  4039a6:	eb41 5104 	adc.w	r1, r1, r4, lsl #20
  4039aa:	bd70      	pop	{r4, r5, r6, pc}
  4039ac:	f00e 4e00 	and.w	lr, lr, #2147483648	; 0x80000000
  4039b0:	ea4e 3111 	orr.w	r1, lr, r1, lsr #12
  4039b4:	eb14 045c 	adds.w	r4, r4, ip, lsr #1
  4039b8:	bfc2      	ittt	gt
  4039ba:	ebd4 050c 	rsbsgt	r5, r4, ip
  4039be:	ea41 5104 	orrgt.w	r1, r1, r4, lsl #20
  4039c2:	bd70      	popgt	{r4, r5, r6, pc}
  4039c4:	f441 1180 	orr.w	r1, r1, #1048576	; 0x100000
  4039c8:	f04f 0e00 	mov.w	lr, #0
  4039cc:	3c01      	subs	r4, #1
  4039ce:	e690      	b.n	4036f2 <__aeabi_dmul+0xde>
  4039d0:	ea45 0e06 	orr.w	lr, r5, r6
  4039d4:	e68d      	b.n	4036f2 <__aeabi_dmul+0xde>
  4039d6:	ea0c 5513 	and.w	r5, ip, r3, lsr #20
  4039da:	ea94 0f0c 	teq	r4, ip
  4039de:	bf08      	it	eq
  4039e0:	ea95 0f0c 	teqeq	r5, ip
  4039e4:	f43f af3b 	beq.w	40385e <__aeabi_dmul+0x24a>
  4039e8:	ea94 0f0c 	teq	r4, ip
  4039ec:	d10a      	bne.n	403a04 <__aeabi_ddiv+0x19c>
  4039ee:	ea50 3401 	orrs.w	r4, r0, r1, lsl #12
  4039f2:	f47f af34 	bne.w	40385e <__aeabi_dmul+0x24a>
  4039f6:	ea95 0f0c 	teq	r5, ip
  4039fa:	f47f af25 	bne.w	403848 <__aeabi_dmul+0x234>
  4039fe:	4610      	mov	r0, r2
  403a00:	4619      	mov	r1, r3
  403a02:	e72c      	b.n	40385e <__aeabi_dmul+0x24a>
  403a04:	ea95 0f0c 	teq	r5, ip
  403a08:	d106      	bne.n	403a18 <__aeabi_ddiv+0x1b0>
  403a0a:	ea52 3503 	orrs.w	r5, r2, r3, lsl #12
  403a0e:	f43f aefd 	beq.w	40380c <__aeabi_dmul+0x1f8>
  403a12:	4610      	mov	r0, r2
  403a14:	4619      	mov	r1, r3
  403a16:	e722      	b.n	40385e <__aeabi_dmul+0x24a>
  403a18:	ea50 0641 	orrs.w	r6, r0, r1, lsl #1
  403a1c:	bf18      	it	ne
  403a1e:	ea52 0643 	orrsne.w	r6, r2, r3, lsl #1
  403a22:	f47f aec5 	bne.w	4037b0 <__aeabi_dmul+0x19c>
  403a26:	ea50 0441 	orrs.w	r4, r0, r1, lsl #1
  403a2a:	f47f af0d 	bne.w	403848 <__aeabi_dmul+0x234>
  403a2e:	ea52 0543 	orrs.w	r5, r2, r3, lsl #1
  403a32:	f47f aeeb 	bne.w	40380c <__aeabi_dmul+0x1f8>
  403a36:	e712      	b.n	40385e <__aeabi_dmul+0x24a>

00403a38 <__aeabi_d2uiz>:
  403a38:	004a      	lsls	r2, r1, #1
  403a3a:	d211      	bcs.n	403a60 <__aeabi_d2uiz+0x28>
  403a3c:	f512 1200 	adds.w	r2, r2, #2097152	; 0x200000
  403a40:	d211      	bcs.n	403a66 <__aeabi_d2uiz+0x2e>
  403a42:	d50d      	bpl.n	403a60 <__aeabi_d2uiz+0x28>
  403a44:	f46f 7378 	mvn.w	r3, #992	; 0x3e0
  403a48:	ebb3 5262 	subs.w	r2, r3, r2, asr #21
  403a4c:	d40e      	bmi.n	403a6c <__aeabi_d2uiz+0x34>
  403a4e:	ea4f 23c1 	mov.w	r3, r1, lsl #11
  403a52:	f043 4300 	orr.w	r3, r3, #2147483648	; 0x80000000
  403a56:	ea43 5350 	orr.w	r3, r3, r0, lsr #21
  403a5a:	fa23 f002 	lsr.w	r0, r3, r2
  403a5e:	4770      	bx	lr
  403a60:	f04f 0000 	mov.w	r0, #0
  403a64:	4770      	bx	lr
  403a66:	ea50 3001 	orrs.w	r0, r0, r1, lsl #12
  403a6a:	d102      	bne.n	403a72 <__aeabi_d2uiz+0x3a>
  403a6c:	f04f 30ff 	mov.w	r0, #4294967295
  403a70:	4770      	bx	lr
  403a72:	f04f 0000 	mov.w	r0, #0
  403a76:	4770      	bx	lr

00403a78 <__aeabi_uldivmod>:
  403a78:	b953      	cbnz	r3, 403a90 <__aeabi_uldivmod+0x18>
  403a7a:	b94a      	cbnz	r2, 403a90 <__aeabi_uldivmod+0x18>
  403a7c:	2900      	cmp	r1, #0
  403a7e:	bf08      	it	eq
  403a80:	2800      	cmpeq	r0, #0
  403a82:	bf1c      	itt	ne
  403a84:	f04f 31ff 	movne.w	r1, #4294967295
  403a88:	f04f 30ff 	movne.w	r0, #4294967295
  403a8c:	f000 b97a 	b.w	403d84 <__aeabi_idiv0>
  403a90:	f1ad 0c08 	sub.w	ip, sp, #8
  403a94:	e96d ce04 	strd	ip, lr, [sp, #-16]!
  403a98:	f000 f806 	bl	403aa8 <__udivmoddi4>
  403a9c:	f8dd e004 	ldr.w	lr, [sp, #4]
  403aa0:	e9dd 2302 	ldrd	r2, r3, [sp, #8]
  403aa4:	b004      	add	sp, #16
  403aa6:	4770      	bx	lr

00403aa8 <__udivmoddi4>:
  403aa8:	e92d 47f0 	stmdb	sp!, {r4, r5, r6, r7, r8, r9, sl, lr}
  403aac:	468c      	mov	ip, r1
  403aae:	460d      	mov	r5, r1
  403ab0:	4604      	mov	r4, r0
  403ab2:	9e08      	ldr	r6, [sp, #32]
  403ab4:	2b00      	cmp	r3, #0
  403ab6:	d151      	bne.n	403b5c <__udivmoddi4+0xb4>
  403ab8:	428a      	cmp	r2, r1
  403aba:	4617      	mov	r7, r2
  403abc:	d96d      	bls.n	403b9a <__udivmoddi4+0xf2>
  403abe:	fab2 fe82 	clz	lr, r2
  403ac2:	f1be 0f00 	cmp.w	lr, #0
  403ac6:	d00b      	beq.n	403ae0 <__udivmoddi4+0x38>
  403ac8:	f1ce 0c20 	rsb	ip, lr, #32
  403acc:	fa01 f50e 	lsl.w	r5, r1, lr
  403ad0:	fa20 fc0c 	lsr.w	ip, r0, ip
  403ad4:	fa02 f70e 	lsl.w	r7, r2, lr
  403ad8:	ea4c 0c05 	orr.w	ip, ip, r5
  403adc:	fa00 f40e 	lsl.w	r4, r0, lr
  403ae0:	ea4f 4a17 	mov.w	sl, r7, lsr #16
  403ae4:	0c25      	lsrs	r5, r4, #16
  403ae6:	fbbc f8fa 	udiv	r8, ip, sl
  403aea:	fa1f f987 	uxth.w	r9, r7
  403aee:	fb0a cc18 	mls	ip, sl, r8, ip
  403af2:	ea45 450c 	orr.w	r5, r5, ip, lsl #16
  403af6:	fb08 f309 	mul.w	r3, r8, r9
  403afa:	42ab      	cmp	r3, r5
  403afc:	d90a      	bls.n	403b14 <__udivmoddi4+0x6c>
  403afe:	19ed      	adds	r5, r5, r7
  403b00:	f108 32ff 	add.w	r2, r8, #4294967295
  403b04:	f080 8123 	bcs.w	403d4e <__udivmoddi4+0x2a6>
  403b08:	42ab      	cmp	r3, r5
  403b0a:	f240 8120 	bls.w	403d4e <__udivmoddi4+0x2a6>
  403b0e:	f1a8 0802 	sub.w	r8, r8, #2
  403b12:	443d      	add	r5, r7
  403b14:	1aed      	subs	r5, r5, r3
  403b16:	b2a4      	uxth	r4, r4
  403b18:	fbb5 f0fa 	udiv	r0, r5, sl
  403b1c:	fb0a 5510 	mls	r5, sl, r0, r5
  403b20:	ea44 4405 	orr.w	r4, r4, r5, lsl #16
  403b24:	fb00 f909 	mul.w	r9, r0, r9
  403b28:	45a1      	cmp	r9, r4
  403b2a:	d909      	bls.n	403b40 <__udivmoddi4+0x98>
  403b2c:	19e4      	adds	r4, r4, r7
  403b2e:	f100 33ff 	add.w	r3, r0, #4294967295
  403b32:	f080 810a 	bcs.w	403d4a <__udivmoddi4+0x2a2>
  403b36:	45a1      	cmp	r9, r4
  403b38:	f240 8107 	bls.w	403d4a <__udivmoddi4+0x2a2>
  403b3c:	3802      	subs	r0, #2
  403b3e:	443c      	add	r4, r7
  403b40:	eba4 0409 	sub.w	r4, r4, r9
  403b44:	ea40 4008 	orr.w	r0, r0, r8, lsl #16
  403b48:	2100      	movs	r1, #0
  403b4a:	2e00      	cmp	r6, #0
  403b4c:	d061      	beq.n	403c12 <__udivmoddi4+0x16a>
  403b4e:	fa24 f40e 	lsr.w	r4, r4, lr
  403b52:	2300      	movs	r3, #0
  403b54:	6034      	str	r4, [r6, #0]
  403b56:	6073      	str	r3, [r6, #4]
  403b58:	e8bd 87f0 	ldmia.w	sp!, {r4, r5, r6, r7, r8, r9, sl, pc}
  403b5c:	428b      	cmp	r3, r1
  403b5e:	d907      	bls.n	403b70 <__udivmoddi4+0xc8>
  403b60:	2e00      	cmp	r6, #0
  403b62:	d054      	beq.n	403c0e <__udivmoddi4+0x166>
  403b64:	2100      	movs	r1, #0
  403b66:	e886 0021 	stmia.w	r6, {r0, r5}
  403b6a:	4608      	mov	r0, r1
  403b6c:	e8bd 87f0 	ldmia.w	sp!, {r4, r5, r6, r7, r8, r9, sl, pc}
  403b70:	fab3 f183 	clz	r1, r3
  403b74:	2900      	cmp	r1, #0
  403b76:	f040 808e 	bne.w	403c96 <__udivmoddi4+0x1ee>
  403b7a:	42ab      	cmp	r3, r5
  403b7c:	d302      	bcc.n	403b84 <__udivmoddi4+0xdc>
  403b7e:	4282      	cmp	r2, r0
  403b80:	f200 80fa 	bhi.w	403d78 <__udivmoddi4+0x2d0>
  403b84:	1a84      	subs	r4, r0, r2
  403b86:	eb65 0503 	sbc.w	r5, r5, r3
  403b8a:	2001      	movs	r0, #1
  403b8c:	46ac      	mov	ip, r5
  403b8e:	2e00      	cmp	r6, #0
  403b90:	d03f      	beq.n	403c12 <__udivmoddi4+0x16a>
  403b92:	e886 1010 	stmia.w	r6, {r4, ip}
  403b96:	e8bd 87f0 	ldmia.w	sp!, {r4, r5, r6, r7, r8, r9, sl, pc}
  403b9a:	b912      	cbnz	r2, 403ba2 <__udivmoddi4+0xfa>
  403b9c:	2701      	movs	r7, #1
  403b9e:	fbb7 f7f2 	udiv	r7, r7, r2
  403ba2:	fab7 fe87 	clz	lr, r7
  403ba6:	f1be 0f00 	cmp.w	lr, #0
  403baa:	d134      	bne.n	403c16 <__udivmoddi4+0x16e>
  403bac:	1beb      	subs	r3, r5, r7
  403bae:	0c3a      	lsrs	r2, r7, #16
  403bb0:	fa1f fc87 	uxth.w	ip, r7
  403bb4:	2101      	movs	r1, #1
  403bb6:	fbb3 f8f2 	udiv	r8, r3, r2
  403bba:	0c25      	lsrs	r5, r4, #16
  403bbc:	fb02 3318 	mls	r3, r2, r8, r3
  403bc0:	ea45 4503 	orr.w	r5, r5, r3, lsl #16
  403bc4:	fb0c f308 	mul.w	r3, ip, r8
  403bc8:	42ab      	cmp	r3, r5
  403bca:	d907      	bls.n	403bdc <__udivmoddi4+0x134>
  403bcc:	19ed      	adds	r5, r5, r7
  403bce:	f108 30ff 	add.w	r0, r8, #4294967295
  403bd2:	d202      	bcs.n	403bda <__udivmoddi4+0x132>
  403bd4:	42ab      	cmp	r3, r5
  403bd6:	f200 80d1 	bhi.w	403d7c <__udivmoddi4+0x2d4>
  403bda:	4680      	mov	r8, r0
  403bdc:	1aed      	subs	r5, r5, r3
  403bde:	b2a3      	uxth	r3, r4
  403be0:	fbb5 f0f2 	udiv	r0, r5, r2
  403be4:	fb02 5510 	mls	r5, r2, r0, r5
  403be8:	ea43 4405 	orr.w	r4, r3, r5, lsl #16
  403bec:	fb0c fc00 	mul.w	ip, ip, r0
  403bf0:	45a4      	cmp	ip, r4
  403bf2:	d907      	bls.n	403c04 <__udivmoddi4+0x15c>
  403bf4:	19e4      	adds	r4, r4, r7
  403bf6:	f100 33ff 	add.w	r3, r0, #4294967295
  403bfa:	d202      	bcs.n	403c02 <__udivmoddi4+0x15a>
  403bfc:	45a4      	cmp	ip, r4
  403bfe:	f200 80b8 	bhi.w	403d72 <__udivmoddi4+0x2ca>
  403c02:	4618      	mov	r0, r3
  403c04:	eba4 040c 	sub.w	r4, r4, ip
  403c08:	ea40 4008 	orr.w	r0, r0, r8, lsl #16
  403c0c:	e79d      	b.n	403b4a <__udivmoddi4+0xa2>
  403c0e:	4631      	mov	r1, r6
  403c10:	4630      	mov	r0, r6
  403c12:	e8bd 87f0 	ldmia.w	sp!, {r4, r5, r6, r7, r8, r9, sl, pc}
  403c16:	f1ce 0420 	rsb	r4, lr, #32
  403c1a:	fa05 f30e 	lsl.w	r3, r5, lr
  403c1e:	fa07 f70e 	lsl.w	r7, r7, lr
  403c22:	fa20 f804 	lsr.w	r8, r0, r4
  403c26:	0c3a      	lsrs	r2, r7, #16
  403c28:	fa25 f404 	lsr.w	r4, r5, r4
  403c2c:	ea48 0803 	orr.w	r8, r8, r3
  403c30:	fbb4 f1f2 	udiv	r1, r4, r2
  403c34:	ea4f 4518 	mov.w	r5, r8, lsr #16
  403c38:	fb02 4411 	mls	r4, r2, r1, r4
  403c3c:	fa1f fc87 	uxth.w	ip, r7
  403c40:	ea45 4504 	orr.w	r5, r5, r4, lsl #16
  403c44:	fb01 f30c 	mul.w	r3, r1, ip
  403c48:	42ab      	cmp	r3, r5
  403c4a:	fa00 f40e 	lsl.w	r4, r0, lr
  403c4e:	d909      	bls.n	403c64 <__udivmoddi4+0x1bc>
  403c50:	19ed      	adds	r5, r5, r7
  403c52:	f101 30ff 	add.w	r0, r1, #4294967295
  403c56:	f080 808a 	bcs.w	403d6e <__udivmoddi4+0x2c6>
  403c5a:	42ab      	cmp	r3, r5
  403c5c:	f240 8087 	bls.w	403d6e <__udivmoddi4+0x2c6>
  403c60:	3902      	subs	r1, #2
  403c62:	443d      	add	r5, r7
  403c64:	1aeb      	subs	r3, r5, r3
  403c66:	fa1f f588 	uxth.w	r5, r8
  403c6a:	fbb3 f0f2 	udiv	r0, r3, r2
  403c6e:	fb02 3310 	mls	r3, r2, r0, r3
  403c72:	ea45 4503 	orr.w	r5, r5, r3, lsl #16
  403c76:	fb00 f30c 	mul.w	r3, r0, ip
  403c7a:	42ab      	cmp	r3, r5
  403c7c:	d907      	bls.n	403c8e <__udivmoddi4+0x1e6>
  403c7e:	19ed      	adds	r5, r5, r7
  403c80:	f100 38ff 	add.w	r8, r0, #4294967295
  403c84:	d26f      	bcs.n	403d66 <__udivmoddi4+0x2be>
  403c86:	42ab      	cmp	r3, r5
  403c88:	d96d      	bls.n	403d66 <__udivmoddi4+0x2be>
  403c8a:	3802      	subs	r0, #2
  403c8c:	443d      	add	r5, r7
  403c8e:	1aeb      	subs	r3, r5, r3
  403c90:	ea40 4101 	orr.w	r1, r0, r1, lsl #16
  403c94:	e78f      	b.n	403bb6 <__udivmoddi4+0x10e>
  403c96:	f1c1 0720 	rsb	r7, r1, #32
  403c9a:	fa22 f807 	lsr.w	r8, r2, r7
  403c9e:	408b      	lsls	r3, r1
  403ca0:	fa05 f401 	lsl.w	r4, r5, r1
  403ca4:	ea48 0303 	orr.w	r3, r8, r3
  403ca8:	fa20 fe07 	lsr.w	lr, r0, r7
  403cac:	ea4f 4c13 	mov.w	ip, r3, lsr #16
  403cb0:	40fd      	lsrs	r5, r7
  403cb2:	ea4e 0e04 	orr.w	lr, lr, r4
  403cb6:	fbb5 f9fc 	udiv	r9, r5, ip
  403cba:	ea4f 441e 	mov.w	r4, lr, lsr #16
  403cbe:	fb0c 5519 	mls	r5, ip, r9, r5
  403cc2:	fa1f f883 	uxth.w	r8, r3
  403cc6:	ea44 4505 	orr.w	r5, r4, r5, lsl #16
  403cca:	fb09 f408 	mul.w	r4, r9, r8
  403cce:	42ac      	cmp	r4, r5
  403cd0:	fa02 f201 	lsl.w	r2, r2, r1
  403cd4:	fa00 fa01 	lsl.w	sl, r0, r1
  403cd8:	d908      	bls.n	403cec <__udivmoddi4+0x244>
  403cda:	18ed      	adds	r5, r5, r3
  403cdc:	f109 30ff 	add.w	r0, r9, #4294967295
  403ce0:	d243      	bcs.n	403d6a <__udivmoddi4+0x2c2>
  403ce2:	42ac      	cmp	r4, r5
  403ce4:	d941      	bls.n	403d6a <__udivmoddi4+0x2c2>
  403ce6:	f1a9 0902 	sub.w	r9, r9, #2
  403cea:	441d      	add	r5, r3
  403cec:	1b2d      	subs	r5, r5, r4
  403cee:	fa1f fe8e 	uxth.w	lr, lr
  403cf2:	fbb5 f0fc 	udiv	r0, r5, ip
  403cf6:	fb0c 5510 	mls	r5, ip, r0, r5
  403cfa:	ea4e 4405 	orr.w	r4, lr, r5, lsl #16
  403cfe:	fb00 f808 	mul.w	r8, r0, r8
  403d02:	45a0      	cmp	r8, r4
  403d04:	d907      	bls.n	403d16 <__udivmoddi4+0x26e>
  403d06:	18e4      	adds	r4, r4, r3
  403d08:	f100 35ff 	add.w	r5, r0, #4294967295
  403d0c:	d229      	bcs.n	403d62 <__udivmoddi4+0x2ba>
  403d0e:	45a0      	cmp	r8, r4
  403d10:	d927      	bls.n	403d62 <__udivmoddi4+0x2ba>
  403d12:	3802      	subs	r0, #2
  403d14:	441c      	add	r4, r3
  403d16:	ea40 4009 	orr.w	r0, r0, r9, lsl #16
  403d1a:	eba4 0408 	sub.w	r4, r4, r8
  403d1e:	fba0 8902 	umull	r8, r9, r0, r2
  403d22:	454c      	cmp	r4, r9
  403d24:	46c6      	mov	lr, r8
  403d26:	464d      	mov	r5, r9
  403d28:	d315      	bcc.n	403d56 <__udivmoddi4+0x2ae>
  403d2a:	d012      	beq.n	403d52 <__udivmoddi4+0x2aa>
  403d2c:	b156      	cbz	r6, 403d44 <__udivmoddi4+0x29c>
  403d2e:	ebba 030e 	subs.w	r3, sl, lr
  403d32:	eb64 0405 	sbc.w	r4, r4, r5
  403d36:	fa04 f707 	lsl.w	r7, r4, r7
  403d3a:	40cb      	lsrs	r3, r1
  403d3c:	431f      	orrs	r7, r3
  403d3e:	40cc      	lsrs	r4, r1
  403d40:	6037      	str	r7, [r6, #0]
  403d42:	6074      	str	r4, [r6, #4]
  403d44:	2100      	movs	r1, #0
  403d46:	e8bd 87f0 	ldmia.w	sp!, {r4, r5, r6, r7, r8, r9, sl, pc}
  403d4a:	4618      	mov	r0, r3
  403d4c:	e6f8      	b.n	403b40 <__udivmoddi4+0x98>
  403d4e:	4690      	mov	r8, r2
  403d50:	e6e0      	b.n	403b14 <__udivmoddi4+0x6c>
  403d52:	45c2      	cmp	sl, r8
  403d54:	d2ea      	bcs.n	403d2c <__udivmoddi4+0x284>
  403d56:	ebb8 0e02 	subs.w	lr, r8, r2
  403d5a:	eb69 0503 	sbc.w	r5, r9, r3
  403d5e:	3801      	subs	r0, #1
  403d60:	e7e4      	b.n	403d2c <__udivmoddi4+0x284>
  403d62:	4628      	mov	r0, r5
  403d64:	e7d7      	b.n	403d16 <__udivmoddi4+0x26e>
  403d66:	4640      	mov	r0, r8
  403d68:	e791      	b.n	403c8e <__udivmoddi4+0x1e6>
  403d6a:	4681      	mov	r9, r0
  403d6c:	e7be      	b.n	403cec <__udivmoddi4+0x244>
  403d6e:	4601      	mov	r1, r0
  403d70:	e778      	b.n	403c64 <__udivmoddi4+0x1bc>
  403d72:	3802      	subs	r0, #2
  403d74:	443c      	add	r4, r7
  403d76:	e745      	b.n	403c04 <__udivmoddi4+0x15c>
  403d78:	4608      	mov	r0, r1
  403d7a:	e708      	b.n	403b8e <__udivmoddi4+0xe6>
  403d7c:	f1a8 0802 	sub.w	r8, r8, #2
  403d80:	443d      	add	r5, r7
  403d82:	e72b      	b.n	403bdc <__udivmoddi4+0x134>

00403d84 <__aeabi_idiv0>:
  403d84:	4770      	bx	lr
  403d86:	bf00      	nop

00403d88 <__libc_init_array>:
  403d88:	b570      	push	{r4, r5, r6, lr}
  403d8a:	4e0f      	ldr	r6, [pc, #60]	; (403dc8 <__libc_init_array+0x40>)
  403d8c:	4d0f      	ldr	r5, [pc, #60]	; (403dcc <__libc_init_array+0x44>)
  403d8e:	1b76      	subs	r6, r6, r5
  403d90:	10b6      	asrs	r6, r6, #2
  403d92:	bf18      	it	ne
  403d94:	2400      	movne	r4, #0
  403d96:	d005      	beq.n	403da4 <__libc_init_array+0x1c>
  403d98:	3401      	adds	r4, #1
  403d9a:	f855 3b04 	ldr.w	r3, [r5], #4
  403d9e:	4798      	blx	r3
  403da0:	42a6      	cmp	r6, r4
  403da2:	d1f9      	bne.n	403d98 <__libc_init_array+0x10>
  403da4:	4e0a      	ldr	r6, [pc, #40]	; (403dd0 <__libc_init_array+0x48>)
  403da6:	4d0b      	ldr	r5, [pc, #44]	; (403dd4 <__libc_init_array+0x4c>)
  403da8:	1b76      	subs	r6, r6, r5
  403daa:	f004 f8c9 	bl	407f40 <_init>
  403dae:	10b6      	asrs	r6, r6, #2
  403db0:	bf18      	it	ne
  403db2:	2400      	movne	r4, #0
  403db4:	d006      	beq.n	403dc4 <__libc_init_array+0x3c>
  403db6:	3401      	adds	r4, #1
  403db8:	f855 3b04 	ldr.w	r3, [r5], #4
  403dbc:	4798      	blx	r3
  403dbe:	42a6      	cmp	r6, r4
  403dc0:	d1f9      	bne.n	403db6 <__libc_init_array+0x2e>
  403dc2:	bd70      	pop	{r4, r5, r6, pc}
  403dc4:	bd70      	pop	{r4, r5, r6, pc}
  403dc6:	bf00      	nop
  403dc8:	00407f4c 	.word	0x00407f4c
  403dcc:	00407f4c 	.word	0x00407f4c
  403dd0:	00407f54 	.word	0x00407f54
  403dd4:	00407f4c 	.word	0x00407f4c

00403dd8 <malloc>:
  403dd8:	4b02      	ldr	r3, [pc, #8]	; (403de4 <malloc+0xc>)
  403dda:	4601      	mov	r1, r0
  403ddc:	6818      	ldr	r0, [r3, #0]
  403dde:	f000 b80b 	b.w	403df8 <_malloc_r>
  403de2:	bf00      	nop
  403de4:	20000458 	.word	0x20000458

00403de8 <free>:
  403de8:	4b02      	ldr	r3, [pc, #8]	; (403df4 <free+0xc>)
  403dea:	4601      	mov	r1, r0
  403dec:	6818      	ldr	r0, [r3, #0]
  403dee:	f002 be1b 	b.w	406a28 <_free_r>
  403df2:	bf00      	nop
  403df4:	20000458 	.word	0x20000458

00403df8 <_malloc_r>:
  403df8:	e92d 4ff0 	stmdb	sp!, {r4, r5, r6, r7, r8, r9, sl, fp, lr}
  403dfc:	f101 060b 	add.w	r6, r1, #11
  403e00:	2e16      	cmp	r6, #22
  403e02:	b083      	sub	sp, #12
  403e04:	4605      	mov	r5, r0
  403e06:	f240 809e 	bls.w	403f46 <_malloc_r+0x14e>
  403e0a:	f036 0607 	bics.w	r6, r6, #7
  403e0e:	f100 80bd 	bmi.w	403f8c <_malloc_r+0x194>
  403e12:	42b1      	cmp	r1, r6
  403e14:	f200 80ba 	bhi.w	403f8c <_malloc_r+0x194>
  403e18:	f000 faec 	bl	4043f4 <__malloc_lock>
  403e1c:	f5b6 7ffc 	cmp.w	r6, #504	; 0x1f8
  403e20:	f0c0 8293 	bcc.w	40434a <_malloc_r+0x552>
  403e24:	0a73      	lsrs	r3, r6, #9
  403e26:	f000 80b8 	beq.w	403f9a <_malloc_r+0x1a2>
  403e2a:	2b04      	cmp	r3, #4
  403e2c:	f200 8179 	bhi.w	404122 <_malloc_r+0x32a>
  403e30:	09b3      	lsrs	r3, r6, #6
  403e32:	f103 0039 	add.w	r0, r3, #57	; 0x39
  403e36:	f103 0e38 	add.w	lr, r3, #56	; 0x38
  403e3a:	00c3      	lsls	r3, r0, #3
  403e3c:	4fbf      	ldr	r7, [pc, #764]	; (40413c <_malloc_r+0x344>)
  403e3e:	443b      	add	r3, r7
  403e40:	f1a3 0108 	sub.w	r1, r3, #8
  403e44:	685c      	ldr	r4, [r3, #4]
  403e46:	42a1      	cmp	r1, r4
  403e48:	d106      	bne.n	403e58 <_malloc_r+0x60>
  403e4a:	e00c      	b.n	403e66 <_malloc_r+0x6e>
  403e4c:	2a00      	cmp	r2, #0
  403e4e:	f280 80aa 	bge.w	403fa6 <_malloc_r+0x1ae>
  403e52:	68e4      	ldr	r4, [r4, #12]
  403e54:	42a1      	cmp	r1, r4
  403e56:	d006      	beq.n	403e66 <_malloc_r+0x6e>
  403e58:	6863      	ldr	r3, [r4, #4]
  403e5a:	f023 0303 	bic.w	r3, r3, #3
  403e5e:	1b9a      	subs	r2, r3, r6
  403e60:	2a0f      	cmp	r2, #15
  403e62:	ddf3      	ble.n	403e4c <_malloc_r+0x54>
  403e64:	4670      	mov	r0, lr
  403e66:	693c      	ldr	r4, [r7, #16]
  403e68:	f8df e2e4 	ldr.w	lr, [pc, #740]	; 404150 <_malloc_r+0x358>
  403e6c:	4574      	cmp	r4, lr
  403e6e:	f000 81ab 	beq.w	4041c8 <_malloc_r+0x3d0>
  403e72:	6863      	ldr	r3, [r4, #4]
  403e74:	f023 0303 	bic.w	r3, r3, #3
  403e78:	1b9a      	subs	r2, r3, r6
  403e7a:	2a0f      	cmp	r2, #15
  403e7c:	f300 8190 	bgt.w	4041a0 <_malloc_r+0x3a8>
  403e80:	2a00      	cmp	r2, #0
  403e82:	f8c7 e014 	str.w	lr, [r7, #20]
  403e86:	f8c7 e010 	str.w	lr, [r7, #16]
  403e8a:	f280 809d 	bge.w	403fc8 <_malloc_r+0x1d0>
  403e8e:	f5b3 7f00 	cmp.w	r3, #512	; 0x200
  403e92:	f080 8161 	bcs.w	404158 <_malloc_r+0x360>
  403e96:	08db      	lsrs	r3, r3, #3
  403e98:	f103 0c01 	add.w	ip, r3, #1
  403e9c:	1099      	asrs	r1, r3, #2
  403e9e:	687a      	ldr	r2, [r7, #4]
  403ea0:	f857 803c 	ldr.w	r8, [r7, ip, lsl #3]
  403ea4:	f8c4 8008 	str.w	r8, [r4, #8]
  403ea8:	2301      	movs	r3, #1
  403eaa:	408b      	lsls	r3, r1
  403eac:	eb07 01cc 	add.w	r1, r7, ip, lsl #3
  403eb0:	4313      	orrs	r3, r2
  403eb2:	3908      	subs	r1, #8
  403eb4:	60e1      	str	r1, [r4, #12]
  403eb6:	607b      	str	r3, [r7, #4]
  403eb8:	f847 403c 	str.w	r4, [r7, ip, lsl #3]
  403ebc:	f8c8 400c 	str.w	r4, [r8, #12]
  403ec0:	1082      	asrs	r2, r0, #2
  403ec2:	2401      	movs	r4, #1
  403ec4:	4094      	lsls	r4, r2
  403ec6:	429c      	cmp	r4, r3
  403ec8:	f200 808b 	bhi.w	403fe2 <_malloc_r+0x1ea>
  403ecc:	421c      	tst	r4, r3
  403ece:	d106      	bne.n	403ede <_malloc_r+0xe6>
  403ed0:	f020 0003 	bic.w	r0, r0, #3
  403ed4:	0064      	lsls	r4, r4, #1
  403ed6:	421c      	tst	r4, r3
  403ed8:	f100 0004 	add.w	r0, r0, #4
  403edc:	d0fa      	beq.n	403ed4 <_malloc_r+0xdc>
  403ede:	eb07 09c0 	add.w	r9, r7, r0, lsl #3
  403ee2:	46cc      	mov	ip, r9
  403ee4:	4680      	mov	r8, r0
  403ee6:	f8dc 300c 	ldr.w	r3, [ip, #12]
  403eea:	459c      	cmp	ip, r3
  403eec:	d107      	bne.n	403efe <_malloc_r+0x106>
  403eee:	e16d      	b.n	4041cc <_malloc_r+0x3d4>
  403ef0:	2a00      	cmp	r2, #0
  403ef2:	f280 817b 	bge.w	4041ec <_malloc_r+0x3f4>
  403ef6:	68db      	ldr	r3, [r3, #12]
  403ef8:	459c      	cmp	ip, r3
  403efa:	f000 8167 	beq.w	4041cc <_malloc_r+0x3d4>
  403efe:	6859      	ldr	r1, [r3, #4]
  403f00:	f021 0103 	bic.w	r1, r1, #3
  403f04:	1b8a      	subs	r2, r1, r6
  403f06:	2a0f      	cmp	r2, #15
  403f08:	ddf2      	ble.n	403ef0 <_malloc_r+0xf8>
  403f0a:	f8d3 c00c 	ldr.w	ip, [r3, #12]
  403f0e:	f8d3 8008 	ldr.w	r8, [r3, #8]
  403f12:	9300      	str	r3, [sp, #0]
  403f14:	199c      	adds	r4, r3, r6
  403f16:	4628      	mov	r0, r5
  403f18:	f046 0601 	orr.w	r6, r6, #1
  403f1c:	f042 0501 	orr.w	r5, r2, #1
  403f20:	605e      	str	r6, [r3, #4]
  403f22:	f8c8 c00c 	str.w	ip, [r8, #12]
  403f26:	f8cc 8008 	str.w	r8, [ip, #8]
  403f2a:	617c      	str	r4, [r7, #20]
  403f2c:	613c      	str	r4, [r7, #16]
  403f2e:	f8c4 e00c 	str.w	lr, [r4, #12]
  403f32:	f8c4 e008 	str.w	lr, [r4, #8]
  403f36:	6065      	str	r5, [r4, #4]
  403f38:	505a      	str	r2, [r3, r1]
  403f3a:	f000 fa61 	bl	404400 <__malloc_unlock>
  403f3e:	9b00      	ldr	r3, [sp, #0]
  403f40:	f103 0408 	add.w	r4, r3, #8
  403f44:	e01e      	b.n	403f84 <_malloc_r+0x18c>
  403f46:	2910      	cmp	r1, #16
  403f48:	d820      	bhi.n	403f8c <_malloc_r+0x194>
  403f4a:	f000 fa53 	bl	4043f4 <__malloc_lock>
  403f4e:	2610      	movs	r6, #16
  403f50:	2318      	movs	r3, #24
  403f52:	2002      	movs	r0, #2
  403f54:	4f79      	ldr	r7, [pc, #484]	; (40413c <_malloc_r+0x344>)
  403f56:	443b      	add	r3, r7
  403f58:	f1a3 0208 	sub.w	r2, r3, #8
  403f5c:	685c      	ldr	r4, [r3, #4]
  403f5e:	4294      	cmp	r4, r2
  403f60:	f000 813d 	beq.w	4041de <_malloc_r+0x3e6>
  403f64:	6863      	ldr	r3, [r4, #4]
  403f66:	68e1      	ldr	r1, [r4, #12]
  403f68:	68a6      	ldr	r6, [r4, #8]
  403f6a:	f023 0303 	bic.w	r3, r3, #3
  403f6e:	4423      	add	r3, r4
  403f70:	4628      	mov	r0, r5
  403f72:	685a      	ldr	r2, [r3, #4]
  403f74:	60f1      	str	r1, [r6, #12]
  403f76:	f042 0201 	orr.w	r2, r2, #1
  403f7a:	608e      	str	r6, [r1, #8]
  403f7c:	605a      	str	r2, [r3, #4]
  403f7e:	f000 fa3f 	bl	404400 <__malloc_unlock>
  403f82:	3408      	adds	r4, #8
  403f84:	4620      	mov	r0, r4
  403f86:	b003      	add	sp, #12
  403f88:	e8bd 8ff0 	ldmia.w	sp!, {r4, r5, r6, r7, r8, r9, sl, fp, pc}
  403f8c:	2400      	movs	r4, #0
  403f8e:	230c      	movs	r3, #12
  403f90:	4620      	mov	r0, r4
  403f92:	602b      	str	r3, [r5, #0]
  403f94:	b003      	add	sp, #12
  403f96:	e8bd 8ff0 	ldmia.w	sp!, {r4, r5, r6, r7, r8, r9, sl, fp, pc}
  403f9a:	2040      	movs	r0, #64	; 0x40
  403f9c:	f44f 7300 	mov.w	r3, #512	; 0x200
  403fa0:	f04f 0e3f 	mov.w	lr, #63	; 0x3f
  403fa4:	e74a      	b.n	403e3c <_malloc_r+0x44>
  403fa6:	4423      	add	r3, r4
  403fa8:	68e1      	ldr	r1, [r4, #12]
  403faa:	685a      	ldr	r2, [r3, #4]
  403fac:	68a6      	ldr	r6, [r4, #8]
  403fae:	f042 0201 	orr.w	r2, r2, #1
  403fb2:	60f1      	str	r1, [r6, #12]
  403fb4:	4628      	mov	r0, r5
  403fb6:	608e      	str	r6, [r1, #8]
  403fb8:	605a      	str	r2, [r3, #4]
  403fba:	f000 fa21 	bl	404400 <__malloc_unlock>
  403fbe:	3408      	adds	r4, #8
  403fc0:	4620      	mov	r0, r4
  403fc2:	b003      	add	sp, #12
  403fc4:	e8bd 8ff0 	ldmia.w	sp!, {r4, r5, r6, r7, r8, r9, sl, fp, pc}
  403fc8:	4423      	add	r3, r4
  403fca:	4628      	mov	r0, r5
  403fcc:	685a      	ldr	r2, [r3, #4]
  403fce:	f042 0201 	orr.w	r2, r2, #1
  403fd2:	605a      	str	r2, [r3, #4]
  403fd4:	f000 fa14 	bl	404400 <__malloc_unlock>
  403fd8:	3408      	adds	r4, #8
  403fda:	4620      	mov	r0, r4
  403fdc:	b003      	add	sp, #12
  403fde:	e8bd 8ff0 	ldmia.w	sp!, {r4, r5, r6, r7, r8, r9, sl, fp, pc}
  403fe2:	68bc      	ldr	r4, [r7, #8]
  403fe4:	6863      	ldr	r3, [r4, #4]
  403fe6:	f023 0803 	bic.w	r8, r3, #3
  403fea:	45b0      	cmp	r8, r6
  403fec:	d304      	bcc.n	403ff8 <_malloc_r+0x200>
  403fee:	eba8 0306 	sub.w	r3, r8, r6
  403ff2:	2b0f      	cmp	r3, #15
  403ff4:	f300 8085 	bgt.w	404102 <_malloc_r+0x30a>
  403ff8:	f8df 9158 	ldr.w	r9, [pc, #344]	; 404154 <_malloc_r+0x35c>
  403ffc:	4b50      	ldr	r3, [pc, #320]	; (404140 <_malloc_r+0x348>)
  403ffe:	f8d9 2000 	ldr.w	r2, [r9]
  404002:	681b      	ldr	r3, [r3, #0]
  404004:	3201      	adds	r2, #1
  404006:	4433      	add	r3, r6
  404008:	eb04 0a08 	add.w	sl, r4, r8
  40400c:	f000 8155 	beq.w	4042ba <_malloc_r+0x4c2>
  404010:	f503 5380 	add.w	r3, r3, #4096	; 0x1000
  404014:	330f      	adds	r3, #15
  404016:	f423 6b7f 	bic.w	fp, r3, #4080	; 0xff0
  40401a:	f02b 0b0f 	bic.w	fp, fp, #15
  40401e:	4659      	mov	r1, fp
  404020:	4628      	mov	r0, r5
  404022:	f000 f9f3 	bl	40440c <_sbrk_r>
  404026:	1c41      	adds	r1, r0, #1
  404028:	4602      	mov	r2, r0
  40402a:	f000 80fc 	beq.w	404226 <_malloc_r+0x42e>
  40402e:	4582      	cmp	sl, r0
  404030:	f200 80f7 	bhi.w	404222 <_malloc_r+0x42a>
  404034:	4b43      	ldr	r3, [pc, #268]	; (404144 <_malloc_r+0x34c>)
  404036:	6819      	ldr	r1, [r3, #0]
  404038:	4459      	add	r1, fp
  40403a:	6019      	str	r1, [r3, #0]
  40403c:	f000 814d 	beq.w	4042da <_malloc_r+0x4e2>
  404040:	f8d9 0000 	ldr.w	r0, [r9]
  404044:	3001      	adds	r0, #1
  404046:	bf1b      	ittet	ne
  404048:	eba2 0a0a 	subne.w	sl, r2, sl
  40404c:	4451      	addne	r1, sl
  40404e:	f8c9 2000 	streq.w	r2, [r9]
  404052:	6019      	strne	r1, [r3, #0]
  404054:	f012 0107 	ands.w	r1, r2, #7
  404058:	f000 8115 	beq.w	404286 <_malloc_r+0x48e>
  40405c:	f1c1 0008 	rsb	r0, r1, #8
  404060:	f5c1 5180 	rsb	r1, r1, #4096	; 0x1000
  404064:	4402      	add	r2, r0
  404066:	3108      	adds	r1, #8
  404068:	eb02 090b 	add.w	r9, r2, fp
  40406c:	f3c9 090b 	ubfx	r9, r9, #0, #12
  404070:	eba1 0909 	sub.w	r9, r1, r9
  404074:	4649      	mov	r1, r9
  404076:	4628      	mov	r0, r5
  404078:	9301      	str	r3, [sp, #4]
  40407a:	9200      	str	r2, [sp, #0]
  40407c:	f000 f9c6 	bl	40440c <_sbrk_r>
  404080:	1c43      	adds	r3, r0, #1
  404082:	e89d 000c 	ldmia.w	sp, {r2, r3}
  404086:	f000 8143 	beq.w	404310 <_malloc_r+0x518>
  40408a:	1a80      	subs	r0, r0, r2
  40408c:	4448      	add	r0, r9
  40408e:	f040 0001 	orr.w	r0, r0, #1
  404092:	6819      	ldr	r1, [r3, #0]
  404094:	60ba      	str	r2, [r7, #8]
  404096:	4449      	add	r1, r9
  404098:	42bc      	cmp	r4, r7
  40409a:	6050      	str	r0, [r2, #4]
  40409c:	6019      	str	r1, [r3, #0]
  40409e:	d017      	beq.n	4040d0 <_malloc_r+0x2d8>
  4040a0:	f1b8 0f0f 	cmp.w	r8, #15
  4040a4:	f240 80fb 	bls.w	40429e <_malloc_r+0x4a6>
  4040a8:	6860      	ldr	r0, [r4, #4]
  4040aa:	f1a8 020c 	sub.w	r2, r8, #12
  4040ae:	f022 0207 	bic.w	r2, r2, #7
  4040b2:	eb04 0e02 	add.w	lr, r4, r2
  4040b6:	f000 0001 	and.w	r0, r0, #1
  4040ba:	f04f 0c05 	mov.w	ip, #5
  4040be:	4310      	orrs	r0, r2
  4040c0:	2a0f      	cmp	r2, #15
  4040c2:	6060      	str	r0, [r4, #4]
  4040c4:	f8ce c004 	str.w	ip, [lr, #4]
  4040c8:	f8ce c008 	str.w	ip, [lr, #8]
  4040cc:	f200 8117 	bhi.w	4042fe <_malloc_r+0x506>
  4040d0:	4b1d      	ldr	r3, [pc, #116]	; (404148 <_malloc_r+0x350>)
  4040d2:	68bc      	ldr	r4, [r7, #8]
  4040d4:	681a      	ldr	r2, [r3, #0]
  4040d6:	4291      	cmp	r1, r2
  4040d8:	bf88      	it	hi
  4040da:	6019      	strhi	r1, [r3, #0]
  4040dc:	4b1b      	ldr	r3, [pc, #108]	; (40414c <_malloc_r+0x354>)
  4040de:	681a      	ldr	r2, [r3, #0]
  4040e0:	4291      	cmp	r1, r2
  4040e2:	6862      	ldr	r2, [r4, #4]
  4040e4:	bf88      	it	hi
  4040e6:	6019      	strhi	r1, [r3, #0]
  4040e8:	f022 0203 	bic.w	r2, r2, #3
  4040ec:	4296      	cmp	r6, r2
  4040ee:	eba2 0306 	sub.w	r3, r2, r6
  4040f2:	d801      	bhi.n	4040f8 <_malloc_r+0x300>
  4040f4:	2b0f      	cmp	r3, #15
  4040f6:	dc04      	bgt.n	404102 <_malloc_r+0x30a>
  4040f8:	4628      	mov	r0, r5
  4040fa:	f000 f981 	bl	404400 <__malloc_unlock>
  4040fe:	2400      	movs	r4, #0
  404100:	e740      	b.n	403f84 <_malloc_r+0x18c>
  404102:	19a2      	adds	r2, r4, r6
  404104:	f043 0301 	orr.w	r3, r3, #1
  404108:	f046 0601 	orr.w	r6, r6, #1
  40410c:	6066      	str	r6, [r4, #4]
  40410e:	4628      	mov	r0, r5
  404110:	60ba      	str	r2, [r7, #8]
  404112:	6053      	str	r3, [r2, #4]
  404114:	f000 f974 	bl	404400 <__malloc_unlock>
  404118:	3408      	adds	r4, #8
  40411a:	4620      	mov	r0, r4
  40411c:	b003      	add	sp, #12
  40411e:	e8bd 8ff0 	ldmia.w	sp!, {r4, r5, r6, r7, r8, r9, sl, fp, pc}
  404122:	2b14      	cmp	r3, #20
  404124:	d971      	bls.n	40420a <_malloc_r+0x412>
  404126:	2b54      	cmp	r3, #84	; 0x54
  404128:	f200 80a3 	bhi.w	404272 <_malloc_r+0x47a>
  40412c:	0b33      	lsrs	r3, r6, #12
  40412e:	f103 006f 	add.w	r0, r3, #111	; 0x6f
  404132:	f103 0e6e 	add.w	lr, r3, #110	; 0x6e
  404136:	00c3      	lsls	r3, r0, #3
  404138:	e680      	b.n	403e3c <_malloc_r+0x44>
  40413a:	bf00      	nop
  40413c:	20000888 	.word	0x20000888
  404140:	20001158 	.word	0x20001158
  404144:	20001128 	.word	0x20001128
  404148:	20001150 	.word	0x20001150
  40414c:	20001154 	.word	0x20001154
  404150:	20000890 	.word	0x20000890
  404154:	20000c90 	.word	0x20000c90
  404158:	0a5a      	lsrs	r2, r3, #9
  40415a:	2a04      	cmp	r2, #4
  40415c:	d95b      	bls.n	404216 <_malloc_r+0x41e>
  40415e:	2a14      	cmp	r2, #20
  404160:	f200 80ae 	bhi.w	4042c0 <_malloc_r+0x4c8>
  404164:	f102 015c 	add.w	r1, r2, #92	; 0x5c
  404168:	00c9      	lsls	r1, r1, #3
  40416a:	325b      	adds	r2, #91	; 0x5b
  40416c:	eb07 0c01 	add.w	ip, r7, r1
  404170:	5879      	ldr	r1, [r7, r1]
  404172:	f1ac 0c08 	sub.w	ip, ip, #8
  404176:	458c      	cmp	ip, r1
  404178:	f000 8088 	beq.w	40428c <_malloc_r+0x494>
  40417c:	684a      	ldr	r2, [r1, #4]
  40417e:	f022 0203 	bic.w	r2, r2, #3
  404182:	4293      	cmp	r3, r2
  404184:	d273      	bcs.n	40426e <_malloc_r+0x476>
  404186:	6889      	ldr	r1, [r1, #8]
  404188:	458c      	cmp	ip, r1
  40418a:	d1f7      	bne.n	40417c <_malloc_r+0x384>
  40418c:	f8dc 200c 	ldr.w	r2, [ip, #12]
  404190:	687b      	ldr	r3, [r7, #4]
  404192:	60e2      	str	r2, [r4, #12]
  404194:	f8c4 c008 	str.w	ip, [r4, #8]
  404198:	6094      	str	r4, [r2, #8]
  40419a:	f8cc 400c 	str.w	r4, [ip, #12]
  40419e:	e68f      	b.n	403ec0 <_malloc_r+0xc8>
  4041a0:	19a1      	adds	r1, r4, r6
  4041a2:	f046 0c01 	orr.w	ip, r6, #1
  4041a6:	f042 0601 	orr.w	r6, r2, #1
  4041aa:	f8c4 c004 	str.w	ip, [r4, #4]
  4041ae:	4628      	mov	r0, r5
  4041b0:	6179      	str	r1, [r7, #20]
  4041b2:	6139      	str	r1, [r7, #16]
  4041b4:	f8c1 e00c 	str.w	lr, [r1, #12]
  4041b8:	f8c1 e008 	str.w	lr, [r1, #8]
  4041bc:	604e      	str	r6, [r1, #4]
  4041be:	50e2      	str	r2, [r4, r3]
  4041c0:	f000 f91e 	bl	404400 <__malloc_unlock>
  4041c4:	3408      	adds	r4, #8
  4041c6:	e6dd      	b.n	403f84 <_malloc_r+0x18c>
  4041c8:	687b      	ldr	r3, [r7, #4]
  4041ca:	e679      	b.n	403ec0 <_malloc_r+0xc8>
  4041cc:	f108 0801 	add.w	r8, r8, #1
  4041d0:	f018 0f03 	tst.w	r8, #3
  4041d4:	f10c 0c08 	add.w	ip, ip, #8
  4041d8:	f47f ae85 	bne.w	403ee6 <_malloc_r+0xee>
  4041dc:	e02d      	b.n	40423a <_malloc_r+0x442>
  4041de:	68dc      	ldr	r4, [r3, #12]
  4041e0:	42a3      	cmp	r3, r4
  4041e2:	bf08      	it	eq
  4041e4:	3002      	addeq	r0, #2
  4041e6:	f43f ae3e 	beq.w	403e66 <_malloc_r+0x6e>
  4041ea:	e6bb      	b.n	403f64 <_malloc_r+0x16c>
  4041ec:	4419      	add	r1, r3
  4041ee:	461c      	mov	r4, r3
  4041f0:	684a      	ldr	r2, [r1, #4]
  4041f2:	68db      	ldr	r3, [r3, #12]
  4041f4:	f854 6f08 	ldr.w	r6, [r4, #8]!
  4041f8:	f042 0201 	orr.w	r2, r2, #1
  4041fc:	604a      	str	r2, [r1, #4]
  4041fe:	4628      	mov	r0, r5
  404200:	60f3      	str	r3, [r6, #12]
  404202:	609e      	str	r6, [r3, #8]
  404204:	f000 f8fc 	bl	404400 <__malloc_unlock>
  404208:	e6bc      	b.n	403f84 <_malloc_r+0x18c>
  40420a:	f103 005c 	add.w	r0, r3, #92	; 0x5c
  40420e:	f103 0e5b 	add.w	lr, r3, #91	; 0x5b
  404212:	00c3      	lsls	r3, r0, #3
  404214:	e612      	b.n	403e3c <_malloc_r+0x44>
  404216:	099a      	lsrs	r2, r3, #6
  404218:	f102 0139 	add.w	r1, r2, #57	; 0x39
  40421c:	00c9      	lsls	r1, r1, #3
  40421e:	3238      	adds	r2, #56	; 0x38
  404220:	e7a4      	b.n	40416c <_malloc_r+0x374>
  404222:	42bc      	cmp	r4, r7
  404224:	d054      	beq.n	4042d0 <_malloc_r+0x4d8>
  404226:	68bc      	ldr	r4, [r7, #8]
  404228:	6862      	ldr	r2, [r4, #4]
  40422a:	f022 0203 	bic.w	r2, r2, #3
  40422e:	e75d      	b.n	4040ec <_malloc_r+0x2f4>
  404230:	f859 3908 	ldr.w	r3, [r9], #-8
  404234:	4599      	cmp	r9, r3
  404236:	f040 8086 	bne.w	404346 <_malloc_r+0x54e>
  40423a:	f010 0f03 	tst.w	r0, #3
  40423e:	f100 30ff 	add.w	r0, r0, #4294967295
  404242:	d1f5      	bne.n	404230 <_malloc_r+0x438>
  404244:	687b      	ldr	r3, [r7, #4]
  404246:	ea23 0304 	bic.w	r3, r3, r4
  40424a:	607b      	str	r3, [r7, #4]
  40424c:	0064      	lsls	r4, r4, #1
  40424e:	429c      	cmp	r4, r3
  404250:	f63f aec7 	bhi.w	403fe2 <_malloc_r+0x1ea>
  404254:	2c00      	cmp	r4, #0
  404256:	f43f aec4 	beq.w	403fe2 <_malloc_r+0x1ea>
  40425a:	421c      	tst	r4, r3
  40425c:	4640      	mov	r0, r8
  40425e:	f47f ae3e 	bne.w	403ede <_malloc_r+0xe6>
  404262:	0064      	lsls	r4, r4, #1
  404264:	421c      	tst	r4, r3
  404266:	f100 0004 	add.w	r0, r0, #4
  40426a:	d0fa      	beq.n	404262 <_malloc_r+0x46a>
  40426c:	e637      	b.n	403ede <_malloc_r+0xe6>
  40426e:	468c      	mov	ip, r1
  404270:	e78c      	b.n	40418c <_malloc_r+0x394>
  404272:	f5b3 7faa 	cmp.w	r3, #340	; 0x154
  404276:	d815      	bhi.n	4042a4 <_malloc_r+0x4ac>
  404278:	0bf3      	lsrs	r3, r6, #15
  40427a:	f103 0078 	add.w	r0, r3, #120	; 0x78
  40427e:	f103 0e77 	add.w	lr, r3, #119	; 0x77
  404282:	00c3      	lsls	r3, r0, #3
  404284:	e5da      	b.n	403e3c <_malloc_r+0x44>
  404286:	f44f 5180 	mov.w	r1, #4096	; 0x1000
  40428a:	e6ed      	b.n	404068 <_malloc_r+0x270>
  40428c:	687b      	ldr	r3, [r7, #4]
  40428e:	1092      	asrs	r2, r2, #2
  404290:	2101      	movs	r1, #1
  404292:	fa01 f202 	lsl.w	r2, r1, r2
  404296:	4313      	orrs	r3, r2
  404298:	607b      	str	r3, [r7, #4]
  40429a:	4662      	mov	r2, ip
  40429c:	e779      	b.n	404192 <_malloc_r+0x39a>
  40429e:	2301      	movs	r3, #1
  4042a0:	6053      	str	r3, [r2, #4]
  4042a2:	e729      	b.n	4040f8 <_malloc_r+0x300>
  4042a4:	f240 5254 	movw	r2, #1364	; 0x554
  4042a8:	4293      	cmp	r3, r2
  4042aa:	d822      	bhi.n	4042f2 <_malloc_r+0x4fa>
  4042ac:	0cb3      	lsrs	r3, r6, #18
  4042ae:	f103 007d 	add.w	r0, r3, #125	; 0x7d
  4042b2:	f103 0e7c 	add.w	lr, r3, #124	; 0x7c
  4042b6:	00c3      	lsls	r3, r0, #3
  4042b8:	e5c0      	b.n	403e3c <_malloc_r+0x44>
  4042ba:	f103 0b10 	add.w	fp, r3, #16
  4042be:	e6ae      	b.n	40401e <_malloc_r+0x226>
  4042c0:	2a54      	cmp	r2, #84	; 0x54
  4042c2:	d829      	bhi.n	404318 <_malloc_r+0x520>
  4042c4:	0b1a      	lsrs	r2, r3, #12
  4042c6:	f102 016f 	add.w	r1, r2, #111	; 0x6f
  4042ca:	00c9      	lsls	r1, r1, #3
  4042cc:	326e      	adds	r2, #110	; 0x6e
  4042ce:	e74d      	b.n	40416c <_malloc_r+0x374>
  4042d0:	4b20      	ldr	r3, [pc, #128]	; (404354 <_malloc_r+0x55c>)
  4042d2:	6819      	ldr	r1, [r3, #0]
  4042d4:	4459      	add	r1, fp
  4042d6:	6019      	str	r1, [r3, #0]
  4042d8:	e6b2      	b.n	404040 <_malloc_r+0x248>
  4042da:	f3ca 000b 	ubfx	r0, sl, #0, #12
  4042de:	2800      	cmp	r0, #0
  4042e0:	f47f aeae 	bne.w	404040 <_malloc_r+0x248>
  4042e4:	eb08 030b 	add.w	r3, r8, fp
  4042e8:	68ba      	ldr	r2, [r7, #8]
  4042ea:	f043 0301 	orr.w	r3, r3, #1
  4042ee:	6053      	str	r3, [r2, #4]
  4042f0:	e6ee      	b.n	4040d0 <_malloc_r+0x2d8>
  4042f2:	207f      	movs	r0, #127	; 0x7f
  4042f4:	f44f 737e 	mov.w	r3, #1016	; 0x3f8
  4042f8:	f04f 0e7e 	mov.w	lr, #126	; 0x7e
  4042fc:	e59e      	b.n	403e3c <_malloc_r+0x44>
  4042fe:	f104 0108 	add.w	r1, r4, #8
  404302:	4628      	mov	r0, r5
  404304:	9300      	str	r3, [sp, #0]
  404306:	f002 fb8f 	bl	406a28 <_free_r>
  40430a:	9b00      	ldr	r3, [sp, #0]
  40430c:	6819      	ldr	r1, [r3, #0]
  40430e:	e6df      	b.n	4040d0 <_malloc_r+0x2d8>
  404310:	2001      	movs	r0, #1
  404312:	f04f 0900 	mov.w	r9, #0
  404316:	e6bc      	b.n	404092 <_malloc_r+0x29a>
  404318:	f5b2 7faa 	cmp.w	r2, #340	; 0x154
  40431c:	d805      	bhi.n	40432a <_malloc_r+0x532>
  40431e:	0bda      	lsrs	r2, r3, #15
  404320:	f102 0178 	add.w	r1, r2, #120	; 0x78
  404324:	00c9      	lsls	r1, r1, #3
  404326:	3277      	adds	r2, #119	; 0x77
  404328:	e720      	b.n	40416c <_malloc_r+0x374>
  40432a:	f240 5154 	movw	r1, #1364	; 0x554
  40432e:	428a      	cmp	r2, r1
  404330:	d805      	bhi.n	40433e <_malloc_r+0x546>
  404332:	0c9a      	lsrs	r2, r3, #18
  404334:	f102 017d 	add.w	r1, r2, #125	; 0x7d
  404338:	00c9      	lsls	r1, r1, #3
  40433a:	327c      	adds	r2, #124	; 0x7c
  40433c:	e716      	b.n	40416c <_malloc_r+0x374>
  40433e:	f44f 717e 	mov.w	r1, #1016	; 0x3f8
  404342:	227e      	movs	r2, #126	; 0x7e
  404344:	e712      	b.n	40416c <_malloc_r+0x374>
  404346:	687b      	ldr	r3, [r7, #4]
  404348:	e780      	b.n	40424c <_malloc_r+0x454>
  40434a:	08f0      	lsrs	r0, r6, #3
  40434c:	f106 0308 	add.w	r3, r6, #8
  404350:	e600      	b.n	403f54 <_malloc_r+0x15c>
  404352:	bf00      	nop
  404354:	20001128 	.word	0x20001128

00404358 <memset>:
  404358:	b470      	push	{r4, r5, r6}
  40435a:	0786      	lsls	r6, r0, #30
  40435c:	d046      	beq.n	4043ec <memset+0x94>
  40435e:	1e54      	subs	r4, r2, #1
  404360:	2a00      	cmp	r2, #0
  404362:	d041      	beq.n	4043e8 <memset+0x90>
  404364:	b2ca      	uxtb	r2, r1
  404366:	4603      	mov	r3, r0
  404368:	e002      	b.n	404370 <memset+0x18>
  40436a:	f114 34ff 	adds.w	r4, r4, #4294967295
  40436e:	d33b      	bcc.n	4043e8 <memset+0x90>
  404370:	f803 2b01 	strb.w	r2, [r3], #1
  404374:	079d      	lsls	r5, r3, #30
  404376:	d1f8      	bne.n	40436a <memset+0x12>
  404378:	2c03      	cmp	r4, #3
  40437a:	d92e      	bls.n	4043da <memset+0x82>
  40437c:	b2cd      	uxtb	r5, r1
  40437e:	ea45 2505 	orr.w	r5, r5, r5, lsl #8
  404382:	2c0f      	cmp	r4, #15
  404384:	ea45 4505 	orr.w	r5, r5, r5, lsl #16
  404388:	d919      	bls.n	4043be <memset+0x66>
  40438a:	f103 0210 	add.w	r2, r3, #16
  40438e:	4626      	mov	r6, r4
  404390:	3e10      	subs	r6, #16
  404392:	2e0f      	cmp	r6, #15
  404394:	f842 5c10 	str.w	r5, [r2, #-16]
  404398:	f842 5c0c 	str.w	r5, [r2, #-12]
  40439c:	f842 5c08 	str.w	r5, [r2, #-8]
  4043a0:	f842 5c04 	str.w	r5, [r2, #-4]
  4043a4:	f102 0210 	add.w	r2, r2, #16
  4043a8:	d8f2      	bhi.n	404390 <memset+0x38>
  4043aa:	f1a4 0210 	sub.w	r2, r4, #16
  4043ae:	f022 020f 	bic.w	r2, r2, #15
  4043b2:	f004 040f 	and.w	r4, r4, #15
  4043b6:	3210      	adds	r2, #16
  4043b8:	2c03      	cmp	r4, #3
  4043ba:	4413      	add	r3, r2
  4043bc:	d90d      	bls.n	4043da <memset+0x82>
  4043be:	461e      	mov	r6, r3
  4043c0:	4622      	mov	r2, r4
  4043c2:	3a04      	subs	r2, #4
  4043c4:	2a03      	cmp	r2, #3
  4043c6:	f846 5b04 	str.w	r5, [r6], #4
  4043ca:	d8fa      	bhi.n	4043c2 <memset+0x6a>
  4043cc:	1f22      	subs	r2, r4, #4
  4043ce:	f022 0203 	bic.w	r2, r2, #3
  4043d2:	3204      	adds	r2, #4
  4043d4:	4413      	add	r3, r2
  4043d6:	f004 0403 	and.w	r4, r4, #3
  4043da:	b12c      	cbz	r4, 4043e8 <memset+0x90>
  4043dc:	b2c9      	uxtb	r1, r1
  4043de:	441c      	add	r4, r3
  4043e0:	f803 1b01 	strb.w	r1, [r3], #1
  4043e4:	429c      	cmp	r4, r3
  4043e6:	d1fb      	bne.n	4043e0 <memset+0x88>
  4043e8:	bc70      	pop	{r4, r5, r6}
  4043ea:	4770      	bx	lr
  4043ec:	4614      	mov	r4, r2
  4043ee:	4603      	mov	r3, r0
  4043f0:	e7c2      	b.n	404378 <memset+0x20>
  4043f2:	bf00      	nop

004043f4 <__malloc_lock>:
  4043f4:	4801      	ldr	r0, [pc, #4]	; (4043fc <__malloc_lock+0x8>)
  4043f6:	f002 bc0b 	b.w	406c10 <__retarget_lock_acquire_recursive>
  4043fa:	bf00      	nop
  4043fc:	200011c0 	.word	0x200011c0

00404400 <__malloc_unlock>:
  404400:	4801      	ldr	r0, [pc, #4]	; (404408 <__malloc_unlock+0x8>)
  404402:	f002 bc07 	b.w	406c14 <__retarget_lock_release_recursive>
  404406:	bf00      	nop
  404408:	200011c0 	.word	0x200011c0

0040440c <_sbrk_r>:
  40440c:	b538      	push	{r3, r4, r5, lr}
  40440e:	4c07      	ldr	r4, [pc, #28]	; (40442c <_sbrk_r+0x20>)
  404410:	2300      	movs	r3, #0
  404412:	4605      	mov	r5, r0
  404414:	4608      	mov	r0, r1
  404416:	6023      	str	r3, [r4, #0]
  404418:	f7fe fd56 	bl	402ec8 <_sbrk>
  40441c:	1c43      	adds	r3, r0, #1
  40441e:	d000      	beq.n	404422 <_sbrk_r+0x16>
  404420:	bd38      	pop	{r3, r4, r5, pc}
  404422:	6823      	ldr	r3, [r4, #0]
  404424:	2b00      	cmp	r3, #0
  404426:	d0fb      	beq.n	404420 <_sbrk_r+0x14>
  404428:	602b      	str	r3, [r5, #0]
  40442a:	bd38      	pop	{r3, r4, r5, pc}
  40442c:	200011d4 	.word	0x200011d4

00404430 <sprintf>:
  404430:	b40e      	push	{r1, r2, r3}
  404432:	b5f0      	push	{r4, r5, r6, r7, lr}
  404434:	b09c      	sub	sp, #112	; 0x70
  404436:	ab21      	add	r3, sp, #132	; 0x84
  404438:	490f      	ldr	r1, [pc, #60]	; (404478 <sprintf+0x48>)
  40443a:	f853 2b04 	ldr.w	r2, [r3], #4
  40443e:	9301      	str	r3, [sp, #4]
  404440:	4605      	mov	r5, r0
  404442:	f06f 4400 	mvn.w	r4, #2147483648	; 0x80000000
  404446:	6808      	ldr	r0, [r1, #0]
  404448:	9502      	str	r5, [sp, #8]
  40444a:	f44f 7702 	mov.w	r7, #520	; 0x208
  40444e:	f64f 76ff 	movw	r6, #65535	; 0xffff
  404452:	a902      	add	r1, sp, #8
  404454:	9506      	str	r5, [sp, #24]
  404456:	f8ad 7014 	strh.w	r7, [sp, #20]
  40445a:	9404      	str	r4, [sp, #16]
  40445c:	9407      	str	r4, [sp, #28]
  40445e:	f8ad 6016 	strh.w	r6, [sp, #22]
  404462:	f000 f87b 	bl	40455c <_svfprintf_r>
  404466:	9b02      	ldr	r3, [sp, #8]
  404468:	2200      	movs	r2, #0
  40446a:	701a      	strb	r2, [r3, #0]
  40446c:	b01c      	add	sp, #112	; 0x70
  40446e:	e8bd 40f0 	ldmia.w	sp!, {r4, r5, r6, r7, lr}
  404472:	b003      	add	sp, #12
  404474:	4770      	bx	lr
  404476:	bf00      	nop
  404478:	20000458 	.word	0x20000458
  40447c:	00000000 	.word	0x00000000

00404480 <strlen>:
  404480:	f890 f000 	pld	[r0]
  404484:	e96d 4502 	strd	r4, r5, [sp, #-8]!
  404488:	f020 0107 	bic.w	r1, r0, #7
  40448c:	f06f 0c00 	mvn.w	ip, #0
  404490:	f010 0407 	ands.w	r4, r0, #7
  404494:	f891 f020 	pld	[r1, #32]
  404498:	f040 8049 	bne.w	40452e <strlen+0xae>
  40449c:	f04f 0400 	mov.w	r4, #0
  4044a0:	f06f 0007 	mvn.w	r0, #7
  4044a4:	e9d1 2300 	ldrd	r2, r3, [r1]
  4044a8:	f891 f040 	pld	[r1, #64]	; 0x40
  4044ac:	f100 0008 	add.w	r0, r0, #8
  4044b0:	fa82 f24c 	uadd8	r2, r2, ip
  4044b4:	faa4 f28c 	sel	r2, r4, ip
  4044b8:	fa83 f34c 	uadd8	r3, r3, ip
  4044bc:	faa2 f38c 	sel	r3, r2, ip
  4044c0:	bb4b      	cbnz	r3, 404516 <strlen+0x96>
  4044c2:	e9d1 2302 	ldrd	r2, r3, [r1, #8]
  4044c6:	fa82 f24c 	uadd8	r2, r2, ip
  4044ca:	f100 0008 	add.w	r0, r0, #8
  4044ce:	faa4 f28c 	sel	r2, r4, ip
  4044d2:	fa83 f34c 	uadd8	r3, r3, ip
  4044d6:	faa2 f38c 	sel	r3, r2, ip
  4044da:	b9e3      	cbnz	r3, 404516 <strlen+0x96>
  4044dc:	e9d1 2304 	ldrd	r2, r3, [r1, #16]
  4044e0:	fa82 f24c 	uadd8	r2, r2, ip
  4044e4:	f100 0008 	add.w	r0, r0, #8
  4044e8:	faa4 f28c 	sel	r2, r4, ip
  4044ec:	fa83 f34c 	uadd8	r3, r3, ip
  4044f0:	faa2 f38c 	sel	r3, r2, ip
  4044f4:	b97b      	cbnz	r3, 404516 <strlen+0x96>
  4044f6:	e9d1 2306 	ldrd	r2, r3, [r1, #24]
  4044fa:	f101 0120 	add.w	r1, r1, #32
  4044fe:	fa82 f24c 	uadd8	r2, r2, ip
  404502:	f100 0008 	add.w	r0, r0, #8
  404506:	faa4 f28c 	sel	r2, r4, ip
  40450a:	fa83 f34c 	uadd8	r3, r3, ip
  40450e:	faa2 f38c 	sel	r3, r2, ip
  404512:	2b00      	cmp	r3, #0
  404514:	d0c6      	beq.n	4044a4 <strlen+0x24>
  404516:	2a00      	cmp	r2, #0
  404518:	bf04      	itt	eq
  40451a:	3004      	addeq	r0, #4
  40451c:	461a      	moveq	r2, r3
  40451e:	ba12      	rev	r2, r2
  404520:	fab2 f282 	clz	r2, r2
  404524:	e8fd 4502 	ldrd	r4, r5, [sp], #8
  404528:	eb00 00d2 	add.w	r0, r0, r2, lsr #3
  40452c:	4770      	bx	lr
  40452e:	e9d1 2300 	ldrd	r2, r3, [r1]
  404532:	f004 0503 	and.w	r5, r4, #3
  404536:	f1c4 0000 	rsb	r0, r4, #0
  40453a:	ea4f 05c5 	mov.w	r5, r5, lsl #3
  40453e:	f014 0f04 	tst.w	r4, #4
  404542:	f891 f040 	pld	[r1, #64]	; 0x40
  404546:	fa0c f505 	lsl.w	r5, ip, r5
  40454a:	ea62 0205 	orn	r2, r2, r5
  40454e:	bf1c      	itt	ne
  404550:	ea63 0305 	ornne	r3, r3, r5
  404554:	4662      	movne	r2, ip
  404556:	f04f 0400 	mov.w	r4, #0
  40455a:	e7a9      	b.n	4044b0 <strlen+0x30>

0040455c <_svfprintf_r>:
  40455c:	e92d 4ff0 	stmdb	sp!, {r4, r5, r6, r7, r8, r9, sl, fp, lr}
  404560:	b0c3      	sub	sp, #268	; 0x10c
  404562:	460c      	mov	r4, r1
  404564:	910b      	str	r1, [sp, #44]	; 0x2c
  404566:	4692      	mov	sl, r2
  404568:	930f      	str	r3, [sp, #60]	; 0x3c
  40456a:	900c      	str	r0, [sp, #48]	; 0x30
  40456c:	f002 fb42 	bl	406bf4 <_localeconv_r>
  404570:	6803      	ldr	r3, [r0, #0]
  404572:	931a      	str	r3, [sp, #104]	; 0x68
  404574:	4618      	mov	r0, r3
  404576:	f7ff ff83 	bl	404480 <strlen>
  40457a:	89a3      	ldrh	r3, [r4, #12]
  40457c:	9019      	str	r0, [sp, #100]	; 0x64
  40457e:	0619      	lsls	r1, r3, #24
  404580:	d503      	bpl.n	40458a <_svfprintf_r+0x2e>
  404582:	6923      	ldr	r3, [r4, #16]
  404584:	2b00      	cmp	r3, #0
  404586:	f001 8003 	beq.w	405590 <_svfprintf_r+0x1034>
  40458a:	2300      	movs	r3, #0
  40458c:	f10d 09c8 	add.w	r9, sp, #200	; 0xc8
  404590:	9313      	str	r3, [sp, #76]	; 0x4c
  404592:	9315      	str	r3, [sp, #84]	; 0x54
  404594:	9314      	str	r3, [sp, #80]	; 0x50
  404596:	9327      	str	r3, [sp, #156]	; 0x9c
  404598:	9326      	str	r3, [sp, #152]	; 0x98
  40459a:	9318      	str	r3, [sp, #96]	; 0x60
  40459c:	931b      	str	r3, [sp, #108]	; 0x6c
  40459e:	9309      	str	r3, [sp, #36]	; 0x24
  4045a0:	f8cd 9094 	str.w	r9, [sp, #148]	; 0x94
  4045a4:	46c8      	mov	r8, r9
  4045a6:	9316      	str	r3, [sp, #88]	; 0x58
  4045a8:	9317      	str	r3, [sp, #92]	; 0x5c
  4045aa:	f89a 3000 	ldrb.w	r3, [sl]
  4045ae:	4654      	mov	r4, sl
  4045b0:	b1e3      	cbz	r3, 4045ec <_svfprintf_r+0x90>
  4045b2:	2b25      	cmp	r3, #37	; 0x25
  4045b4:	d102      	bne.n	4045bc <_svfprintf_r+0x60>
  4045b6:	e019      	b.n	4045ec <_svfprintf_r+0x90>
  4045b8:	2b25      	cmp	r3, #37	; 0x25
  4045ba:	d003      	beq.n	4045c4 <_svfprintf_r+0x68>
  4045bc:	f814 3f01 	ldrb.w	r3, [r4, #1]!
  4045c0:	2b00      	cmp	r3, #0
  4045c2:	d1f9      	bne.n	4045b8 <_svfprintf_r+0x5c>
  4045c4:	eba4 050a 	sub.w	r5, r4, sl
  4045c8:	b185      	cbz	r5, 4045ec <_svfprintf_r+0x90>
  4045ca:	9b26      	ldr	r3, [sp, #152]	; 0x98
  4045cc:	9a27      	ldr	r2, [sp, #156]	; 0x9c
  4045ce:	f8c8 a000 	str.w	sl, [r8]
  4045d2:	3301      	adds	r3, #1
  4045d4:	442a      	add	r2, r5
  4045d6:	2b07      	cmp	r3, #7
  4045d8:	f8c8 5004 	str.w	r5, [r8, #4]
  4045dc:	9227      	str	r2, [sp, #156]	; 0x9c
  4045de:	9326      	str	r3, [sp, #152]	; 0x98
  4045e0:	dc7f      	bgt.n	4046e2 <_svfprintf_r+0x186>
  4045e2:	f108 0808 	add.w	r8, r8, #8
  4045e6:	9b09      	ldr	r3, [sp, #36]	; 0x24
  4045e8:	442b      	add	r3, r5
  4045ea:	9309      	str	r3, [sp, #36]	; 0x24
  4045ec:	7823      	ldrb	r3, [r4, #0]
  4045ee:	2b00      	cmp	r3, #0
  4045f0:	d07f      	beq.n	4046f2 <_svfprintf_r+0x196>
  4045f2:	2300      	movs	r3, #0
  4045f4:	461a      	mov	r2, r3
  4045f6:	f88d 3077 	strb.w	r3, [sp, #119]	; 0x77
  4045fa:	4619      	mov	r1, r3
  4045fc:	930d      	str	r3, [sp, #52]	; 0x34
  4045fe:	469b      	mov	fp, r3
  404600:	f04f 30ff 	mov.w	r0, #4294967295
  404604:	7863      	ldrb	r3, [r4, #1]
  404606:	900a      	str	r0, [sp, #40]	; 0x28
  404608:	f104 0a01 	add.w	sl, r4, #1
  40460c:	f10a 0a01 	add.w	sl, sl, #1
  404610:	f1a3 0020 	sub.w	r0, r3, #32
  404614:	2858      	cmp	r0, #88	; 0x58
  404616:	f200 83c1 	bhi.w	404d9c <_svfprintf_r+0x840>
  40461a:	e8df f010 	tbh	[pc, r0, lsl #1]
  40461e:	0238      	.short	0x0238
  404620:	03bf03bf 	.word	0x03bf03bf
  404624:	03bf0240 	.word	0x03bf0240
  404628:	03bf03bf 	.word	0x03bf03bf
  40462c:	03bf03bf 	.word	0x03bf03bf
  404630:	024503bf 	.word	0x024503bf
  404634:	03bf0203 	.word	0x03bf0203
  404638:	026b005d 	.word	0x026b005d
  40463c:	028603bf 	.word	0x028603bf
  404640:	039d039d 	.word	0x039d039d
  404644:	039d039d 	.word	0x039d039d
  404648:	039d039d 	.word	0x039d039d
  40464c:	039d039d 	.word	0x039d039d
  404650:	03bf039d 	.word	0x03bf039d
  404654:	03bf03bf 	.word	0x03bf03bf
  404658:	03bf03bf 	.word	0x03bf03bf
  40465c:	03bf03bf 	.word	0x03bf03bf
  404660:	03bf03bf 	.word	0x03bf03bf
  404664:	033703bf 	.word	0x033703bf
  404668:	03bf0357 	.word	0x03bf0357
  40466c:	03bf0357 	.word	0x03bf0357
  404670:	03bf03bf 	.word	0x03bf03bf
  404674:	039803bf 	.word	0x039803bf
  404678:	03bf03bf 	.word	0x03bf03bf
  40467c:	03bf03ad 	.word	0x03bf03ad
  404680:	03bf03bf 	.word	0x03bf03bf
  404684:	03bf03bf 	.word	0x03bf03bf
  404688:	03bf0259 	.word	0x03bf0259
  40468c:	031e03bf 	.word	0x031e03bf
  404690:	03bf03bf 	.word	0x03bf03bf
  404694:	03bf03bf 	.word	0x03bf03bf
  404698:	03bf03bf 	.word	0x03bf03bf
  40469c:	03bf03bf 	.word	0x03bf03bf
  4046a0:	03bf03bf 	.word	0x03bf03bf
  4046a4:	02db02c6 	.word	0x02db02c6
  4046a8:	03570357 	.word	0x03570357
  4046ac:	028b0357 	.word	0x028b0357
  4046b0:	03bf02db 	.word	0x03bf02db
  4046b4:	029003bf 	.word	0x029003bf
  4046b8:	029d03bf 	.word	0x029d03bf
  4046bc:	02b401cc 	.word	0x02b401cc
  4046c0:	03bf0208 	.word	0x03bf0208
  4046c4:	03bf01e1 	.word	0x03bf01e1
  4046c8:	03bf007e 	.word	0x03bf007e
  4046cc:	020d03bf 	.word	0x020d03bf
  4046d0:	980d      	ldr	r0, [sp, #52]	; 0x34
  4046d2:	930f      	str	r3, [sp, #60]	; 0x3c
  4046d4:	4240      	negs	r0, r0
  4046d6:	900d      	str	r0, [sp, #52]	; 0x34
  4046d8:	f04b 0b04 	orr.w	fp, fp, #4
  4046dc:	f89a 3000 	ldrb.w	r3, [sl]
  4046e0:	e794      	b.n	40460c <_svfprintf_r+0xb0>
  4046e2:	aa25      	add	r2, sp, #148	; 0x94
  4046e4:	990b      	ldr	r1, [sp, #44]	; 0x2c
  4046e6:	980c      	ldr	r0, [sp, #48]	; 0x30
  4046e8:	f003 f8a0 	bl	40782c <__ssprint_r>
  4046ec:	b940      	cbnz	r0, 404700 <_svfprintf_r+0x1a4>
  4046ee:	46c8      	mov	r8, r9
  4046f0:	e779      	b.n	4045e6 <_svfprintf_r+0x8a>
  4046f2:	9b27      	ldr	r3, [sp, #156]	; 0x9c
  4046f4:	b123      	cbz	r3, 404700 <_svfprintf_r+0x1a4>
  4046f6:	980c      	ldr	r0, [sp, #48]	; 0x30
  4046f8:	990b      	ldr	r1, [sp, #44]	; 0x2c
  4046fa:	aa25      	add	r2, sp, #148	; 0x94
  4046fc:	f003 f896 	bl	40782c <__ssprint_r>
  404700:	9b0b      	ldr	r3, [sp, #44]	; 0x2c
  404702:	899b      	ldrh	r3, [r3, #12]
  404704:	f013 0f40 	tst.w	r3, #64	; 0x40
  404708:	9b09      	ldr	r3, [sp, #36]	; 0x24
  40470a:	bf18      	it	ne
  40470c:	f04f 33ff 	movne.w	r3, #4294967295
  404710:	9309      	str	r3, [sp, #36]	; 0x24
  404712:	9809      	ldr	r0, [sp, #36]	; 0x24
  404714:	b043      	add	sp, #268	; 0x10c
  404716:	e8bd 8ff0 	ldmia.w	sp!, {r4, r5, r6, r7, r8, r9, sl, fp, pc}
  40471a:	f01b 0f20 	tst.w	fp, #32
  40471e:	9311      	str	r3, [sp, #68]	; 0x44
  404720:	f040 81dd 	bne.w	404ade <_svfprintf_r+0x582>
  404724:	9a0f      	ldr	r2, [sp, #60]	; 0x3c
  404726:	f01b 0f10 	tst.w	fp, #16
  40472a:	4613      	mov	r3, r2
  40472c:	f040 856e 	bne.w	40520c <_svfprintf_r+0xcb0>
  404730:	f01b 0f40 	tst.w	fp, #64	; 0x40
  404734:	f000 856a 	beq.w	40520c <_svfprintf_r+0xcb0>
  404738:	8814      	ldrh	r4, [r2, #0]
  40473a:	3204      	adds	r2, #4
  40473c:	2500      	movs	r5, #0
  40473e:	2301      	movs	r3, #1
  404740:	920f      	str	r2, [sp, #60]	; 0x3c
  404742:	2700      	movs	r7, #0
  404744:	f88d 7077 	strb.w	r7, [sp, #119]	; 0x77
  404748:	990a      	ldr	r1, [sp, #40]	; 0x28
  40474a:	1c4a      	adds	r2, r1, #1
  40474c:	f000 8265 	beq.w	404c1a <_svfprintf_r+0x6be>
  404750:	f02b 0280 	bic.w	r2, fp, #128	; 0x80
  404754:	9207      	str	r2, [sp, #28]
  404756:	ea54 0205 	orrs.w	r2, r4, r5
  40475a:	f040 8264 	bne.w	404c26 <_svfprintf_r+0x6ca>
  40475e:	2900      	cmp	r1, #0
  404760:	f040 843c 	bne.w	404fdc <_svfprintf_r+0xa80>
  404764:	2b00      	cmp	r3, #0
  404766:	f040 84d7 	bne.w	405118 <_svfprintf_r+0xbbc>
  40476a:	f01b 0301 	ands.w	r3, fp, #1
  40476e:	930e      	str	r3, [sp, #56]	; 0x38
  404770:	f000 8604 	beq.w	40537c <_svfprintf_r+0xe20>
  404774:	ae42      	add	r6, sp, #264	; 0x108
  404776:	2330      	movs	r3, #48	; 0x30
  404778:	f806 3d41 	strb.w	r3, [r6, #-65]!
  40477c:	9b0a      	ldr	r3, [sp, #40]	; 0x28
  40477e:	9a0e      	ldr	r2, [sp, #56]	; 0x38
  404780:	4293      	cmp	r3, r2
  404782:	bfb8      	it	lt
  404784:	4613      	movlt	r3, r2
  404786:	9308      	str	r3, [sp, #32]
  404788:	2300      	movs	r3, #0
  40478a:	9312      	str	r3, [sp, #72]	; 0x48
  40478c:	b117      	cbz	r7, 404794 <_svfprintf_r+0x238>
  40478e:	9b08      	ldr	r3, [sp, #32]
  404790:	3301      	adds	r3, #1
  404792:	9308      	str	r3, [sp, #32]
  404794:	9b07      	ldr	r3, [sp, #28]
  404796:	f013 0302 	ands.w	r3, r3, #2
  40479a:	9310      	str	r3, [sp, #64]	; 0x40
  40479c:	d002      	beq.n	4047a4 <_svfprintf_r+0x248>
  40479e:	9b08      	ldr	r3, [sp, #32]
  4047a0:	3302      	adds	r3, #2
  4047a2:	9308      	str	r3, [sp, #32]
  4047a4:	9b07      	ldr	r3, [sp, #28]
  4047a6:	f013 0584 	ands.w	r5, r3, #132	; 0x84
  4047aa:	f040 830e 	bne.w	404dca <_svfprintf_r+0x86e>
  4047ae:	9b0d      	ldr	r3, [sp, #52]	; 0x34
  4047b0:	9a08      	ldr	r2, [sp, #32]
  4047b2:	eba3 0b02 	sub.w	fp, r3, r2
  4047b6:	f1bb 0f00 	cmp.w	fp, #0
  4047ba:	f340 8306 	ble.w	404dca <_svfprintf_r+0x86e>
  4047be:	f1bb 0f10 	cmp.w	fp, #16
  4047c2:	9c27      	ldr	r4, [sp, #156]	; 0x9c
  4047c4:	9a26      	ldr	r2, [sp, #152]	; 0x98
  4047c6:	dd29      	ble.n	40481c <_svfprintf_r+0x2c0>
  4047c8:	4643      	mov	r3, r8
  4047ca:	4621      	mov	r1, r4
  4047cc:	46a8      	mov	r8, r5
  4047ce:	2710      	movs	r7, #16
  4047d0:	9c0c      	ldr	r4, [sp, #48]	; 0x30
  4047d2:	9d0b      	ldr	r5, [sp, #44]	; 0x2c
  4047d4:	e006      	b.n	4047e4 <_svfprintf_r+0x288>
  4047d6:	f1ab 0b10 	sub.w	fp, fp, #16
  4047da:	f1bb 0f10 	cmp.w	fp, #16
  4047de:	f103 0308 	add.w	r3, r3, #8
  4047e2:	dd18      	ble.n	404816 <_svfprintf_r+0x2ba>
  4047e4:	3201      	adds	r2, #1
  4047e6:	48b7      	ldr	r0, [pc, #732]	; (404ac4 <_svfprintf_r+0x568>)
  4047e8:	9226      	str	r2, [sp, #152]	; 0x98
  4047ea:	3110      	adds	r1, #16
  4047ec:	2a07      	cmp	r2, #7
  4047ee:	9127      	str	r1, [sp, #156]	; 0x9c
  4047f0:	e883 0081 	stmia.w	r3, {r0, r7}
  4047f4:	ddef      	ble.n	4047d6 <_svfprintf_r+0x27a>
  4047f6:	aa25      	add	r2, sp, #148	; 0x94
  4047f8:	4629      	mov	r1, r5
  4047fa:	4620      	mov	r0, r4
  4047fc:	f003 f816 	bl	40782c <__ssprint_r>
  404800:	2800      	cmp	r0, #0
  404802:	f47f af7d 	bne.w	404700 <_svfprintf_r+0x1a4>
  404806:	f1ab 0b10 	sub.w	fp, fp, #16
  40480a:	f1bb 0f10 	cmp.w	fp, #16
  40480e:	9927      	ldr	r1, [sp, #156]	; 0x9c
  404810:	9a26      	ldr	r2, [sp, #152]	; 0x98
  404812:	464b      	mov	r3, r9
  404814:	dce6      	bgt.n	4047e4 <_svfprintf_r+0x288>
  404816:	4645      	mov	r5, r8
  404818:	460c      	mov	r4, r1
  40481a:	4698      	mov	r8, r3
  40481c:	3201      	adds	r2, #1
  40481e:	4ba9      	ldr	r3, [pc, #676]	; (404ac4 <_svfprintf_r+0x568>)
  404820:	9226      	str	r2, [sp, #152]	; 0x98
  404822:	445c      	add	r4, fp
  404824:	2a07      	cmp	r2, #7
  404826:	9427      	str	r4, [sp, #156]	; 0x9c
  404828:	e888 0808 	stmia.w	r8, {r3, fp}
  40482c:	f300 8498 	bgt.w	405160 <_svfprintf_r+0xc04>
  404830:	f89d 7077 	ldrb.w	r7, [sp, #119]	; 0x77
  404834:	f108 0808 	add.w	r8, r8, #8
  404838:	b177      	cbz	r7, 404858 <_svfprintf_r+0x2fc>
  40483a:	9b26      	ldr	r3, [sp, #152]	; 0x98
  40483c:	3301      	adds	r3, #1
  40483e:	3401      	adds	r4, #1
  404840:	f10d 0177 	add.w	r1, sp, #119	; 0x77
  404844:	2201      	movs	r2, #1
  404846:	2b07      	cmp	r3, #7
  404848:	9427      	str	r4, [sp, #156]	; 0x9c
  40484a:	9326      	str	r3, [sp, #152]	; 0x98
  40484c:	e888 0006 	stmia.w	r8, {r1, r2}
  404850:	f300 83db 	bgt.w	40500a <_svfprintf_r+0xaae>
  404854:	f108 0808 	add.w	r8, r8, #8
  404858:	9b10      	ldr	r3, [sp, #64]	; 0x40
  40485a:	b16b      	cbz	r3, 404878 <_svfprintf_r+0x31c>
  40485c:	9b26      	ldr	r3, [sp, #152]	; 0x98
  40485e:	3301      	adds	r3, #1
  404860:	3402      	adds	r4, #2
  404862:	a91e      	add	r1, sp, #120	; 0x78
  404864:	2202      	movs	r2, #2
  404866:	2b07      	cmp	r3, #7
  404868:	9427      	str	r4, [sp, #156]	; 0x9c
  40486a:	9326      	str	r3, [sp, #152]	; 0x98
  40486c:	e888 0006 	stmia.w	r8, {r1, r2}
  404870:	f300 83d6 	bgt.w	405020 <_svfprintf_r+0xac4>
  404874:	f108 0808 	add.w	r8, r8, #8
  404878:	2d80      	cmp	r5, #128	; 0x80
  40487a:	f000 8315 	beq.w	404ea8 <_svfprintf_r+0x94c>
  40487e:	9b0a      	ldr	r3, [sp, #40]	; 0x28
  404880:	9a0e      	ldr	r2, [sp, #56]	; 0x38
  404882:	1a9f      	subs	r7, r3, r2
  404884:	2f00      	cmp	r7, #0
  404886:	dd36      	ble.n	4048f6 <_svfprintf_r+0x39a>
  404888:	2f10      	cmp	r7, #16
  40488a:	9b26      	ldr	r3, [sp, #152]	; 0x98
  40488c:	4d8e      	ldr	r5, [pc, #568]	; (404ac8 <_svfprintf_r+0x56c>)
  40488e:	dd27      	ble.n	4048e0 <_svfprintf_r+0x384>
  404890:	4642      	mov	r2, r8
  404892:	4621      	mov	r1, r4
  404894:	46b0      	mov	r8, r6
  404896:	f04f 0b10 	mov.w	fp, #16
  40489a:	462e      	mov	r6, r5
  40489c:	9c0c      	ldr	r4, [sp, #48]	; 0x30
  40489e:	9d0b      	ldr	r5, [sp, #44]	; 0x2c
  4048a0:	e004      	b.n	4048ac <_svfprintf_r+0x350>
  4048a2:	3f10      	subs	r7, #16
  4048a4:	2f10      	cmp	r7, #16
  4048a6:	f102 0208 	add.w	r2, r2, #8
  4048aa:	dd15      	ble.n	4048d8 <_svfprintf_r+0x37c>
  4048ac:	3301      	adds	r3, #1
  4048ae:	3110      	adds	r1, #16
  4048b0:	2b07      	cmp	r3, #7
  4048b2:	9127      	str	r1, [sp, #156]	; 0x9c
  4048b4:	9326      	str	r3, [sp, #152]	; 0x98
  4048b6:	e882 0840 	stmia.w	r2, {r6, fp}
  4048ba:	ddf2      	ble.n	4048a2 <_svfprintf_r+0x346>
  4048bc:	aa25      	add	r2, sp, #148	; 0x94
  4048be:	4629      	mov	r1, r5
  4048c0:	4620      	mov	r0, r4
  4048c2:	f002 ffb3 	bl	40782c <__ssprint_r>
  4048c6:	2800      	cmp	r0, #0
  4048c8:	f47f af1a 	bne.w	404700 <_svfprintf_r+0x1a4>
  4048cc:	3f10      	subs	r7, #16
  4048ce:	2f10      	cmp	r7, #16
  4048d0:	9927      	ldr	r1, [sp, #156]	; 0x9c
  4048d2:	9b26      	ldr	r3, [sp, #152]	; 0x98
  4048d4:	464a      	mov	r2, r9
  4048d6:	dce9      	bgt.n	4048ac <_svfprintf_r+0x350>
  4048d8:	4635      	mov	r5, r6
  4048da:	460c      	mov	r4, r1
  4048dc:	4646      	mov	r6, r8
  4048de:	4690      	mov	r8, r2
  4048e0:	3301      	adds	r3, #1
  4048e2:	443c      	add	r4, r7
  4048e4:	2b07      	cmp	r3, #7
  4048e6:	9427      	str	r4, [sp, #156]	; 0x9c
  4048e8:	9326      	str	r3, [sp, #152]	; 0x98
  4048ea:	e888 00a0 	stmia.w	r8, {r5, r7}
  4048ee:	f300 8381 	bgt.w	404ff4 <_svfprintf_r+0xa98>
  4048f2:	f108 0808 	add.w	r8, r8, #8
  4048f6:	9b07      	ldr	r3, [sp, #28]
  4048f8:	05df      	lsls	r7, r3, #23
  4048fa:	f100 8268 	bmi.w	404dce <_svfprintf_r+0x872>
  4048fe:	9b26      	ldr	r3, [sp, #152]	; 0x98
  404900:	990e      	ldr	r1, [sp, #56]	; 0x38
  404902:	f8c8 6000 	str.w	r6, [r8]
  404906:	3301      	adds	r3, #1
  404908:	440c      	add	r4, r1
  40490a:	2b07      	cmp	r3, #7
  40490c:	9427      	str	r4, [sp, #156]	; 0x9c
  40490e:	f8c8 1004 	str.w	r1, [r8, #4]
  404912:	9326      	str	r3, [sp, #152]	; 0x98
  404914:	f300 834d 	bgt.w	404fb2 <_svfprintf_r+0xa56>
  404918:	f108 0808 	add.w	r8, r8, #8
  40491c:	9b07      	ldr	r3, [sp, #28]
  40491e:	075b      	lsls	r3, r3, #29
  404920:	d53a      	bpl.n	404998 <_svfprintf_r+0x43c>
  404922:	9b0d      	ldr	r3, [sp, #52]	; 0x34
  404924:	9a08      	ldr	r2, [sp, #32]
  404926:	1a9d      	subs	r5, r3, r2
  404928:	2d00      	cmp	r5, #0
  40492a:	dd35      	ble.n	404998 <_svfprintf_r+0x43c>
  40492c:	2d10      	cmp	r5, #16
  40492e:	9b26      	ldr	r3, [sp, #152]	; 0x98
  404930:	dd20      	ble.n	404974 <_svfprintf_r+0x418>
  404932:	2610      	movs	r6, #16
  404934:	9f0c      	ldr	r7, [sp, #48]	; 0x30
  404936:	f8dd b02c 	ldr.w	fp, [sp, #44]	; 0x2c
  40493a:	e004      	b.n	404946 <_svfprintf_r+0x3ea>
  40493c:	3d10      	subs	r5, #16
  40493e:	2d10      	cmp	r5, #16
  404940:	f108 0808 	add.w	r8, r8, #8
  404944:	dd16      	ble.n	404974 <_svfprintf_r+0x418>
  404946:	3301      	adds	r3, #1
  404948:	4a5e      	ldr	r2, [pc, #376]	; (404ac4 <_svfprintf_r+0x568>)
  40494a:	9326      	str	r3, [sp, #152]	; 0x98
  40494c:	3410      	adds	r4, #16
  40494e:	2b07      	cmp	r3, #7
  404950:	9427      	str	r4, [sp, #156]	; 0x9c
  404952:	e888 0044 	stmia.w	r8, {r2, r6}
  404956:	ddf1      	ble.n	40493c <_svfprintf_r+0x3e0>
  404958:	aa25      	add	r2, sp, #148	; 0x94
  40495a:	4659      	mov	r1, fp
  40495c:	4638      	mov	r0, r7
  40495e:	f002 ff65 	bl	40782c <__ssprint_r>
  404962:	2800      	cmp	r0, #0
  404964:	f47f aecc 	bne.w	404700 <_svfprintf_r+0x1a4>
  404968:	3d10      	subs	r5, #16
  40496a:	2d10      	cmp	r5, #16
  40496c:	9c27      	ldr	r4, [sp, #156]	; 0x9c
  40496e:	9b26      	ldr	r3, [sp, #152]	; 0x98
  404970:	46c8      	mov	r8, r9
  404972:	dce8      	bgt.n	404946 <_svfprintf_r+0x3ea>
  404974:	3301      	adds	r3, #1
  404976:	4a53      	ldr	r2, [pc, #332]	; (404ac4 <_svfprintf_r+0x568>)
  404978:	9326      	str	r3, [sp, #152]	; 0x98
  40497a:	442c      	add	r4, r5
  40497c:	2b07      	cmp	r3, #7
  40497e:	9427      	str	r4, [sp, #156]	; 0x9c
  404980:	e888 0024 	stmia.w	r8, {r2, r5}
  404984:	dd08      	ble.n	404998 <_svfprintf_r+0x43c>
  404986:	aa25      	add	r2, sp, #148	; 0x94
  404988:	990b      	ldr	r1, [sp, #44]	; 0x2c
  40498a:	980c      	ldr	r0, [sp, #48]	; 0x30
  40498c:	f002 ff4e 	bl	40782c <__ssprint_r>
  404990:	2800      	cmp	r0, #0
  404992:	f47f aeb5 	bne.w	404700 <_svfprintf_r+0x1a4>
  404996:	9c27      	ldr	r4, [sp, #156]	; 0x9c
  404998:	9b09      	ldr	r3, [sp, #36]	; 0x24
  40499a:	9a0d      	ldr	r2, [sp, #52]	; 0x34
  40499c:	9908      	ldr	r1, [sp, #32]
  40499e:	428a      	cmp	r2, r1
  4049a0:	bfac      	ite	ge
  4049a2:	189b      	addge	r3, r3, r2
  4049a4:	185b      	addlt	r3, r3, r1
  4049a6:	9309      	str	r3, [sp, #36]	; 0x24
  4049a8:	2c00      	cmp	r4, #0
  4049aa:	f040 830d 	bne.w	404fc8 <_svfprintf_r+0xa6c>
  4049ae:	2300      	movs	r3, #0
  4049b0:	9326      	str	r3, [sp, #152]	; 0x98
  4049b2:	46c8      	mov	r8, r9
  4049b4:	e5f9      	b.n	4045aa <_svfprintf_r+0x4e>
  4049b6:	9311      	str	r3, [sp, #68]	; 0x44
  4049b8:	f01b 0320 	ands.w	r3, fp, #32
  4049bc:	f040 81e3 	bne.w	404d86 <_svfprintf_r+0x82a>
  4049c0:	f01b 0210 	ands.w	r2, fp, #16
  4049c4:	f040 842e 	bne.w	405224 <_svfprintf_r+0xcc8>
  4049c8:	f01b 0340 	ands.w	r3, fp, #64	; 0x40
  4049cc:	f000 842a 	beq.w	405224 <_svfprintf_r+0xcc8>
  4049d0:	990f      	ldr	r1, [sp, #60]	; 0x3c
  4049d2:	4613      	mov	r3, r2
  4049d4:	460a      	mov	r2, r1
  4049d6:	3204      	adds	r2, #4
  4049d8:	880c      	ldrh	r4, [r1, #0]
  4049da:	920f      	str	r2, [sp, #60]	; 0x3c
  4049dc:	2500      	movs	r5, #0
  4049de:	e6b0      	b.n	404742 <_svfprintf_r+0x1e6>
  4049e0:	9a0f      	ldr	r2, [sp, #60]	; 0x3c
  4049e2:	9311      	str	r3, [sp, #68]	; 0x44
  4049e4:	6816      	ldr	r6, [r2, #0]
  4049e6:	2400      	movs	r4, #0
  4049e8:	f88d 4077 	strb.w	r4, [sp, #119]	; 0x77
  4049ec:	1d15      	adds	r5, r2, #4
  4049ee:	2e00      	cmp	r6, #0
  4049f0:	f000 86a7 	beq.w	405742 <_svfprintf_r+0x11e6>
  4049f4:	9a0a      	ldr	r2, [sp, #40]	; 0x28
  4049f6:	1c53      	adds	r3, r2, #1
  4049f8:	f000 8609 	beq.w	40560e <_svfprintf_r+0x10b2>
  4049fc:	4621      	mov	r1, r4
  4049fe:	4630      	mov	r0, r6
  404a00:	f002 f926 	bl	406c50 <memchr>
  404a04:	2800      	cmp	r0, #0
  404a06:	f000 86e1 	beq.w	4057cc <_svfprintf_r+0x1270>
  404a0a:	1b83      	subs	r3, r0, r6
  404a0c:	930e      	str	r3, [sp, #56]	; 0x38
  404a0e:	940a      	str	r4, [sp, #40]	; 0x28
  404a10:	950f      	str	r5, [sp, #60]	; 0x3c
  404a12:	f8cd b01c 	str.w	fp, [sp, #28]
  404a16:	ea23 73e3 	bic.w	r3, r3, r3, asr #31
  404a1a:	9308      	str	r3, [sp, #32]
  404a1c:	9412      	str	r4, [sp, #72]	; 0x48
  404a1e:	f89d 7077 	ldrb.w	r7, [sp, #119]	; 0x77
  404a22:	e6b3      	b.n	40478c <_svfprintf_r+0x230>
  404a24:	f89a 3000 	ldrb.w	r3, [sl]
  404a28:	2201      	movs	r2, #1
  404a2a:	212b      	movs	r1, #43	; 0x2b
  404a2c:	e5ee      	b.n	40460c <_svfprintf_r+0xb0>
  404a2e:	f04b 0b20 	orr.w	fp, fp, #32
  404a32:	f89a 3000 	ldrb.w	r3, [sl]
  404a36:	e5e9      	b.n	40460c <_svfprintf_r+0xb0>
  404a38:	9311      	str	r3, [sp, #68]	; 0x44
  404a3a:	2a00      	cmp	r2, #0
  404a3c:	f040 8795 	bne.w	40596a <_svfprintf_r+0x140e>
  404a40:	4b22      	ldr	r3, [pc, #136]	; (404acc <_svfprintf_r+0x570>)
  404a42:	9318      	str	r3, [sp, #96]	; 0x60
  404a44:	f01b 0f20 	tst.w	fp, #32
  404a48:	f040 8111 	bne.w	404c6e <_svfprintf_r+0x712>
  404a4c:	9a0f      	ldr	r2, [sp, #60]	; 0x3c
  404a4e:	f01b 0f10 	tst.w	fp, #16
  404a52:	4613      	mov	r3, r2
  404a54:	f040 83e1 	bne.w	40521a <_svfprintf_r+0xcbe>
  404a58:	f01b 0f40 	tst.w	fp, #64	; 0x40
  404a5c:	f000 83dd 	beq.w	40521a <_svfprintf_r+0xcbe>
  404a60:	3304      	adds	r3, #4
  404a62:	8814      	ldrh	r4, [r2, #0]
  404a64:	930f      	str	r3, [sp, #60]	; 0x3c
  404a66:	2500      	movs	r5, #0
  404a68:	f01b 0f01 	tst.w	fp, #1
  404a6c:	f000 810c 	beq.w	404c88 <_svfprintf_r+0x72c>
  404a70:	ea54 0305 	orrs.w	r3, r4, r5
  404a74:	f000 8108 	beq.w	404c88 <_svfprintf_r+0x72c>
  404a78:	2330      	movs	r3, #48	; 0x30
  404a7a:	f89d 2044 	ldrb.w	r2, [sp, #68]	; 0x44
  404a7e:	f88d 3078 	strb.w	r3, [sp, #120]	; 0x78
  404a82:	f88d 2079 	strb.w	r2, [sp, #121]	; 0x79
  404a86:	f04b 0b02 	orr.w	fp, fp, #2
  404a8a:	2302      	movs	r3, #2
  404a8c:	e659      	b.n	404742 <_svfprintf_r+0x1e6>
  404a8e:	f89a 3000 	ldrb.w	r3, [sl]
  404a92:	2900      	cmp	r1, #0
  404a94:	f47f adba 	bne.w	40460c <_svfprintf_r+0xb0>
  404a98:	2201      	movs	r2, #1
  404a9a:	2120      	movs	r1, #32
  404a9c:	e5b6      	b.n	40460c <_svfprintf_r+0xb0>
  404a9e:	f04b 0b01 	orr.w	fp, fp, #1
  404aa2:	f89a 3000 	ldrb.w	r3, [sl]
  404aa6:	e5b1      	b.n	40460c <_svfprintf_r+0xb0>
  404aa8:	9c0f      	ldr	r4, [sp, #60]	; 0x3c
  404aaa:	6823      	ldr	r3, [r4, #0]
  404aac:	930d      	str	r3, [sp, #52]	; 0x34
  404aae:	4618      	mov	r0, r3
  404ab0:	2800      	cmp	r0, #0
  404ab2:	4623      	mov	r3, r4
  404ab4:	f103 0304 	add.w	r3, r3, #4
  404ab8:	f6ff ae0a 	blt.w	4046d0 <_svfprintf_r+0x174>
  404abc:	930f      	str	r3, [sp, #60]	; 0x3c
  404abe:	f89a 3000 	ldrb.w	r3, [sl]
  404ac2:	e5a3      	b.n	40460c <_svfprintf_r+0xb0>
  404ac4:	00407cfc 	.word	0x00407cfc
  404ac8:	00407d0c 	.word	0x00407d0c
  404acc:	00407cdc 	.word	0x00407cdc
  404ad0:	f04b 0b10 	orr.w	fp, fp, #16
  404ad4:	f01b 0f20 	tst.w	fp, #32
  404ad8:	9311      	str	r3, [sp, #68]	; 0x44
  404ada:	f43f ae23 	beq.w	404724 <_svfprintf_r+0x1c8>
  404ade:	9d0f      	ldr	r5, [sp, #60]	; 0x3c
  404ae0:	3507      	adds	r5, #7
  404ae2:	f025 0307 	bic.w	r3, r5, #7
  404ae6:	f103 0208 	add.w	r2, r3, #8
  404aea:	e9d3 4500 	ldrd	r4, r5, [r3]
  404aee:	920f      	str	r2, [sp, #60]	; 0x3c
  404af0:	2301      	movs	r3, #1
  404af2:	e626      	b.n	404742 <_svfprintf_r+0x1e6>
  404af4:	f89a 3000 	ldrb.w	r3, [sl]
  404af8:	2b2a      	cmp	r3, #42	; 0x2a
  404afa:	f10a 0401 	add.w	r4, sl, #1
  404afe:	f000 8727 	beq.w	405950 <_svfprintf_r+0x13f4>
  404b02:	f1a3 0030 	sub.w	r0, r3, #48	; 0x30
  404b06:	2809      	cmp	r0, #9
  404b08:	46a2      	mov	sl, r4
  404b0a:	f200 86ad 	bhi.w	405868 <_svfprintf_r+0x130c>
  404b0e:	2300      	movs	r3, #0
  404b10:	461c      	mov	r4, r3
  404b12:	f81a 3b01 	ldrb.w	r3, [sl], #1
  404b16:	eb04 0484 	add.w	r4, r4, r4, lsl #2
  404b1a:	eb00 0444 	add.w	r4, r0, r4, lsl #1
  404b1e:	f1a3 0030 	sub.w	r0, r3, #48	; 0x30
  404b22:	2809      	cmp	r0, #9
  404b24:	d9f5      	bls.n	404b12 <_svfprintf_r+0x5b6>
  404b26:	940a      	str	r4, [sp, #40]	; 0x28
  404b28:	e572      	b.n	404610 <_svfprintf_r+0xb4>
  404b2a:	f04b 0b80 	orr.w	fp, fp, #128	; 0x80
  404b2e:	f89a 3000 	ldrb.w	r3, [sl]
  404b32:	e56b      	b.n	40460c <_svfprintf_r+0xb0>
  404b34:	f04b 0b40 	orr.w	fp, fp, #64	; 0x40
  404b38:	f89a 3000 	ldrb.w	r3, [sl]
  404b3c:	e566      	b.n	40460c <_svfprintf_r+0xb0>
  404b3e:	f89a 3000 	ldrb.w	r3, [sl]
  404b42:	2b6c      	cmp	r3, #108	; 0x6c
  404b44:	bf03      	ittte	eq
  404b46:	f89a 3001 	ldrbeq.w	r3, [sl, #1]
  404b4a:	f04b 0b20 	orreq.w	fp, fp, #32
  404b4e:	f10a 0a01 	addeq.w	sl, sl, #1
  404b52:	f04b 0b10 	orrne.w	fp, fp, #16
  404b56:	e559      	b.n	40460c <_svfprintf_r+0xb0>
  404b58:	2a00      	cmp	r2, #0
  404b5a:	f040 8711 	bne.w	405980 <_svfprintf_r+0x1424>
  404b5e:	f01b 0f20 	tst.w	fp, #32
  404b62:	f040 84f9 	bne.w	405558 <_svfprintf_r+0xffc>
  404b66:	f01b 0f10 	tst.w	fp, #16
  404b6a:	f040 84ac 	bne.w	4054c6 <_svfprintf_r+0xf6a>
  404b6e:	f01b 0f40 	tst.w	fp, #64	; 0x40
  404b72:	f000 84a8 	beq.w	4054c6 <_svfprintf_r+0xf6a>
  404b76:	9a0f      	ldr	r2, [sp, #60]	; 0x3c
  404b78:	6813      	ldr	r3, [r2, #0]
  404b7a:	3204      	adds	r2, #4
  404b7c:	920f      	str	r2, [sp, #60]	; 0x3c
  404b7e:	f8bd 2024 	ldrh.w	r2, [sp, #36]	; 0x24
  404b82:	801a      	strh	r2, [r3, #0]
  404b84:	e511      	b.n	4045aa <_svfprintf_r+0x4e>
  404b86:	990f      	ldr	r1, [sp, #60]	; 0x3c
  404b88:	4bb3      	ldr	r3, [pc, #716]	; (404e58 <_svfprintf_r+0x8fc>)
  404b8a:	680c      	ldr	r4, [r1, #0]
  404b8c:	9318      	str	r3, [sp, #96]	; 0x60
  404b8e:	2230      	movs	r2, #48	; 0x30
  404b90:	2378      	movs	r3, #120	; 0x78
  404b92:	3104      	adds	r1, #4
  404b94:	f88d 3079 	strb.w	r3, [sp, #121]	; 0x79
  404b98:	9311      	str	r3, [sp, #68]	; 0x44
  404b9a:	f04b 0b02 	orr.w	fp, fp, #2
  404b9e:	910f      	str	r1, [sp, #60]	; 0x3c
  404ba0:	2500      	movs	r5, #0
  404ba2:	f88d 2078 	strb.w	r2, [sp, #120]	; 0x78
  404ba6:	2302      	movs	r3, #2
  404ba8:	e5cb      	b.n	404742 <_svfprintf_r+0x1e6>
  404baa:	990f      	ldr	r1, [sp, #60]	; 0x3c
  404bac:	9311      	str	r3, [sp, #68]	; 0x44
  404bae:	680a      	ldr	r2, [r1, #0]
  404bb0:	f88d 20a0 	strb.w	r2, [sp, #160]	; 0xa0
  404bb4:	2300      	movs	r3, #0
  404bb6:	460a      	mov	r2, r1
  404bb8:	461f      	mov	r7, r3
  404bba:	f88d 3077 	strb.w	r3, [sp, #119]	; 0x77
  404bbe:	3204      	adds	r2, #4
  404bc0:	2301      	movs	r3, #1
  404bc2:	9308      	str	r3, [sp, #32]
  404bc4:	f8cd b01c 	str.w	fp, [sp, #28]
  404bc8:	970a      	str	r7, [sp, #40]	; 0x28
  404bca:	9712      	str	r7, [sp, #72]	; 0x48
  404bcc:	920f      	str	r2, [sp, #60]	; 0x3c
  404bce:	930e      	str	r3, [sp, #56]	; 0x38
  404bd0:	ae28      	add	r6, sp, #160	; 0xa0
  404bd2:	e5df      	b.n	404794 <_svfprintf_r+0x238>
  404bd4:	9311      	str	r3, [sp, #68]	; 0x44
  404bd6:	2a00      	cmp	r2, #0
  404bd8:	f040 86ea 	bne.w	4059b0 <_svfprintf_r+0x1454>
  404bdc:	f01b 0f20 	tst.w	fp, #32
  404be0:	d15d      	bne.n	404c9e <_svfprintf_r+0x742>
  404be2:	f01b 0f10 	tst.w	fp, #16
  404be6:	f040 8308 	bne.w	4051fa <_svfprintf_r+0xc9e>
  404bea:	f01b 0f40 	tst.w	fp, #64	; 0x40
  404bee:	f000 8304 	beq.w	4051fa <_svfprintf_r+0xc9e>
  404bf2:	990f      	ldr	r1, [sp, #60]	; 0x3c
  404bf4:	f9b1 4000 	ldrsh.w	r4, [r1]
  404bf8:	3104      	adds	r1, #4
  404bfa:	17e5      	asrs	r5, r4, #31
  404bfc:	4622      	mov	r2, r4
  404bfe:	462b      	mov	r3, r5
  404c00:	910f      	str	r1, [sp, #60]	; 0x3c
  404c02:	2a00      	cmp	r2, #0
  404c04:	f173 0300 	sbcs.w	r3, r3, #0
  404c08:	db58      	blt.n	404cbc <_svfprintf_r+0x760>
  404c0a:	990a      	ldr	r1, [sp, #40]	; 0x28
  404c0c:	f89d 7077 	ldrb.w	r7, [sp, #119]	; 0x77
  404c10:	1c4a      	adds	r2, r1, #1
  404c12:	f04f 0301 	mov.w	r3, #1
  404c16:	f47f ad9b 	bne.w	404750 <_svfprintf_r+0x1f4>
  404c1a:	ea54 0205 	orrs.w	r2, r4, r5
  404c1e:	f000 81df 	beq.w	404fe0 <_svfprintf_r+0xa84>
  404c22:	f8cd b01c 	str.w	fp, [sp, #28]
  404c26:	2b01      	cmp	r3, #1
  404c28:	f000 827b 	beq.w	405122 <_svfprintf_r+0xbc6>
  404c2c:	2b02      	cmp	r3, #2
  404c2e:	f040 8206 	bne.w	40503e <_svfprintf_r+0xae2>
  404c32:	9818      	ldr	r0, [sp, #96]	; 0x60
  404c34:	464e      	mov	r6, r9
  404c36:	0923      	lsrs	r3, r4, #4
  404c38:	f004 010f 	and.w	r1, r4, #15
  404c3c:	ea43 7305 	orr.w	r3, r3, r5, lsl #28
  404c40:	092a      	lsrs	r2, r5, #4
  404c42:	461c      	mov	r4, r3
  404c44:	4615      	mov	r5, r2
  404c46:	5c43      	ldrb	r3, [r0, r1]
  404c48:	f806 3d01 	strb.w	r3, [r6, #-1]!
  404c4c:	ea54 0305 	orrs.w	r3, r4, r5
  404c50:	d1f1      	bne.n	404c36 <_svfprintf_r+0x6da>
  404c52:	eba9 0306 	sub.w	r3, r9, r6
  404c56:	930e      	str	r3, [sp, #56]	; 0x38
  404c58:	e590      	b.n	40477c <_svfprintf_r+0x220>
  404c5a:	9311      	str	r3, [sp, #68]	; 0x44
  404c5c:	2a00      	cmp	r2, #0
  404c5e:	f040 86a3 	bne.w	4059a8 <_svfprintf_r+0x144c>
  404c62:	4b7e      	ldr	r3, [pc, #504]	; (404e5c <_svfprintf_r+0x900>)
  404c64:	9318      	str	r3, [sp, #96]	; 0x60
  404c66:	f01b 0f20 	tst.w	fp, #32
  404c6a:	f43f aeef 	beq.w	404a4c <_svfprintf_r+0x4f0>
  404c6e:	9d0f      	ldr	r5, [sp, #60]	; 0x3c
  404c70:	3507      	adds	r5, #7
  404c72:	f025 0307 	bic.w	r3, r5, #7
  404c76:	f103 0208 	add.w	r2, r3, #8
  404c7a:	f01b 0f01 	tst.w	fp, #1
  404c7e:	920f      	str	r2, [sp, #60]	; 0x3c
  404c80:	e9d3 4500 	ldrd	r4, r5, [r3]
  404c84:	f47f aef4 	bne.w	404a70 <_svfprintf_r+0x514>
  404c88:	2302      	movs	r3, #2
  404c8a:	e55a      	b.n	404742 <_svfprintf_r+0x1e6>
  404c8c:	9311      	str	r3, [sp, #68]	; 0x44
  404c8e:	2a00      	cmp	r2, #0
  404c90:	f040 8686 	bne.w	4059a0 <_svfprintf_r+0x1444>
  404c94:	f04b 0b10 	orr.w	fp, fp, #16
  404c98:	f01b 0f20 	tst.w	fp, #32
  404c9c:	d0a1      	beq.n	404be2 <_svfprintf_r+0x686>
  404c9e:	9d0f      	ldr	r5, [sp, #60]	; 0x3c
  404ca0:	3507      	adds	r5, #7
  404ca2:	f025 0507 	bic.w	r5, r5, #7
  404ca6:	e9d5 2300 	ldrd	r2, r3, [r5]
  404caa:	2a00      	cmp	r2, #0
  404cac:	f105 0108 	add.w	r1, r5, #8
  404cb0:	461d      	mov	r5, r3
  404cb2:	f173 0300 	sbcs.w	r3, r3, #0
  404cb6:	910f      	str	r1, [sp, #60]	; 0x3c
  404cb8:	4614      	mov	r4, r2
  404cba:	daa6      	bge.n	404c0a <_svfprintf_r+0x6ae>
  404cbc:	272d      	movs	r7, #45	; 0x2d
  404cbe:	4264      	negs	r4, r4
  404cc0:	eb65 0545 	sbc.w	r5, r5, r5, lsl #1
  404cc4:	f88d 7077 	strb.w	r7, [sp, #119]	; 0x77
  404cc8:	2301      	movs	r3, #1
  404cca:	e53d      	b.n	404748 <_svfprintf_r+0x1ec>
  404ccc:	9311      	str	r3, [sp, #68]	; 0x44
  404cce:	2a00      	cmp	r2, #0
  404cd0:	f040 8662 	bne.w	405998 <_svfprintf_r+0x143c>
  404cd4:	9d0f      	ldr	r5, [sp, #60]	; 0x3c
  404cd6:	3507      	adds	r5, #7
  404cd8:	f025 0307 	bic.w	r3, r5, #7
  404cdc:	f103 0208 	add.w	r2, r3, #8
  404ce0:	920f      	str	r2, [sp, #60]	; 0x3c
  404ce2:	681a      	ldr	r2, [r3, #0]
  404ce4:	9215      	str	r2, [sp, #84]	; 0x54
  404ce6:	685b      	ldr	r3, [r3, #4]
  404ce8:	9314      	str	r3, [sp, #80]	; 0x50
  404cea:	9b14      	ldr	r3, [sp, #80]	; 0x50
  404cec:	9d15      	ldr	r5, [sp, #84]	; 0x54
  404cee:	f023 4400 	bic.w	r4, r3, #2147483648	; 0x80000000
  404cf2:	4628      	mov	r0, r5
  404cf4:	4621      	mov	r1, r4
  404cf6:	f04f 32ff 	mov.w	r2, #4294967295
  404cfa:	4b59      	ldr	r3, [pc, #356]	; (404e60 <_svfprintf_r+0x904>)
  404cfc:	f002 ff3c 	bl	407b78 <__aeabi_dcmpun>
  404d00:	2800      	cmp	r0, #0
  404d02:	f040 834a 	bne.w	40539a <_svfprintf_r+0xe3e>
  404d06:	4628      	mov	r0, r5
  404d08:	4621      	mov	r1, r4
  404d0a:	f04f 32ff 	mov.w	r2, #4294967295
  404d0e:	4b54      	ldr	r3, [pc, #336]	; (404e60 <_svfprintf_r+0x904>)
  404d10:	f002 ff14 	bl	407b3c <__aeabi_dcmple>
  404d14:	2800      	cmp	r0, #0
  404d16:	f040 8340 	bne.w	40539a <_svfprintf_r+0xe3e>
  404d1a:	a815      	add	r0, sp, #84	; 0x54
  404d1c:	c80d      	ldmia	r0, {r0, r2, r3}
  404d1e:	9914      	ldr	r1, [sp, #80]	; 0x50
  404d20:	f002 ff02 	bl	407b28 <__aeabi_dcmplt>
  404d24:	2800      	cmp	r0, #0
  404d26:	f040 8530 	bne.w	40578a <_svfprintf_r+0x122e>
  404d2a:	f89d 7077 	ldrb.w	r7, [sp, #119]	; 0x77
  404d2e:	4e4d      	ldr	r6, [pc, #308]	; (404e64 <_svfprintf_r+0x908>)
  404d30:	4b4d      	ldr	r3, [pc, #308]	; (404e68 <_svfprintf_r+0x90c>)
  404d32:	f02b 0080 	bic.w	r0, fp, #128	; 0x80
  404d36:	9007      	str	r0, [sp, #28]
  404d38:	9811      	ldr	r0, [sp, #68]	; 0x44
  404d3a:	2203      	movs	r2, #3
  404d3c:	2100      	movs	r1, #0
  404d3e:	9208      	str	r2, [sp, #32]
  404d40:	910a      	str	r1, [sp, #40]	; 0x28
  404d42:	2847      	cmp	r0, #71	; 0x47
  404d44:	bfd8      	it	le
  404d46:	461e      	movle	r6, r3
  404d48:	920e      	str	r2, [sp, #56]	; 0x38
  404d4a:	9112      	str	r1, [sp, #72]	; 0x48
  404d4c:	e51e      	b.n	40478c <_svfprintf_r+0x230>
  404d4e:	f04b 0b08 	orr.w	fp, fp, #8
  404d52:	f89a 3000 	ldrb.w	r3, [sl]
  404d56:	e459      	b.n	40460c <_svfprintf_r+0xb0>
  404d58:	f1a3 0030 	sub.w	r0, r3, #48	; 0x30
  404d5c:	2300      	movs	r3, #0
  404d5e:	461c      	mov	r4, r3
  404d60:	f81a 3b01 	ldrb.w	r3, [sl], #1
  404d64:	eb04 0484 	add.w	r4, r4, r4, lsl #2
  404d68:	eb00 0444 	add.w	r4, r0, r4, lsl #1
  404d6c:	f1a3 0030 	sub.w	r0, r3, #48	; 0x30
  404d70:	2809      	cmp	r0, #9
  404d72:	d9f5      	bls.n	404d60 <_svfprintf_r+0x804>
  404d74:	940d      	str	r4, [sp, #52]	; 0x34
  404d76:	e44b      	b.n	404610 <_svfprintf_r+0xb4>
  404d78:	f04b 0b10 	orr.w	fp, fp, #16
  404d7c:	9311      	str	r3, [sp, #68]	; 0x44
  404d7e:	f01b 0320 	ands.w	r3, fp, #32
  404d82:	f43f ae1d 	beq.w	4049c0 <_svfprintf_r+0x464>
  404d86:	9d0f      	ldr	r5, [sp, #60]	; 0x3c
  404d88:	3507      	adds	r5, #7
  404d8a:	f025 0307 	bic.w	r3, r5, #7
  404d8e:	f103 0208 	add.w	r2, r3, #8
  404d92:	e9d3 4500 	ldrd	r4, r5, [r3]
  404d96:	920f      	str	r2, [sp, #60]	; 0x3c
  404d98:	2300      	movs	r3, #0
  404d9a:	e4d2      	b.n	404742 <_svfprintf_r+0x1e6>
  404d9c:	9311      	str	r3, [sp, #68]	; 0x44
  404d9e:	2a00      	cmp	r2, #0
  404da0:	f040 85e7 	bne.w	405972 <_svfprintf_r+0x1416>
  404da4:	9a11      	ldr	r2, [sp, #68]	; 0x44
  404da6:	2a00      	cmp	r2, #0
  404da8:	f43f aca3 	beq.w	4046f2 <_svfprintf_r+0x196>
  404dac:	2300      	movs	r3, #0
  404dae:	2101      	movs	r1, #1
  404db0:	461f      	mov	r7, r3
  404db2:	9108      	str	r1, [sp, #32]
  404db4:	f88d 20a0 	strb.w	r2, [sp, #160]	; 0xa0
  404db8:	f8cd b01c 	str.w	fp, [sp, #28]
  404dbc:	f88d 3077 	strb.w	r3, [sp, #119]	; 0x77
  404dc0:	930a      	str	r3, [sp, #40]	; 0x28
  404dc2:	9312      	str	r3, [sp, #72]	; 0x48
  404dc4:	910e      	str	r1, [sp, #56]	; 0x38
  404dc6:	ae28      	add	r6, sp, #160	; 0xa0
  404dc8:	e4e4      	b.n	404794 <_svfprintf_r+0x238>
  404dca:	9c27      	ldr	r4, [sp, #156]	; 0x9c
  404dcc:	e534      	b.n	404838 <_svfprintf_r+0x2dc>
  404dce:	9b11      	ldr	r3, [sp, #68]	; 0x44
  404dd0:	2b65      	cmp	r3, #101	; 0x65
  404dd2:	f340 80a7 	ble.w	404f24 <_svfprintf_r+0x9c8>
  404dd6:	a815      	add	r0, sp, #84	; 0x54
  404dd8:	c80d      	ldmia	r0, {r0, r2, r3}
  404dda:	9914      	ldr	r1, [sp, #80]	; 0x50
  404ddc:	f002 fe9a 	bl	407b14 <__aeabi_dcmpeq>
  404de0:	2800      	cmp	r0, #0
  404de2:	f000 8150 	beq.w	405086 <_svfprintf_r+0xb2a>
  404de6:	9b26      	ldr	r3, [sp, #152]	; 0x98
  404de8:	4a20      	ldr	r2, [pc, #128]	; (404e6c <_svfprintf_r+0x910>)
  404dea:	f8c8 2000 	str.w	r2, [r8]
  404dee:	3301      	adds	r3, #1
  404df0:	3401      	adds	r4, #1
  404df2:	2201      	movs	r2, #1
  404df4:	2b07      	cmp	r3, #7
  404df6:	9427      	str	r4, [sp, #156]	; 0x9c
  404df8:	9326      	str	r3, [sp, #152]	; 0x98
  404dfa:	f8c8 2004 	str.w	r2, [r8, #4]
  404dfe:	f300 836a 	bgt.w	4054d6 <_svfprintf_r+0xf7a>
  404e02:	f108 0808 	add.w	r8, r8, #8
  404e06:	9b1f      	ldr	r3, [sp, #124]	; 0x7c
  404e08:	9a13      	ldr	r2, [sp, #76]	; 0x4c
  404e0a:	9c27      	ldr	r4, [sp, #156]	; 0x9c
  404e0c:	4293      	cmp	r3, r2
  404e0e:	db03      	blt.n	404e18 <_svfprintf_r+0x8bc>
  404e10:	9b07      	ldr	r3, [sp, #28]
  404e12:	07dd      	lsls	r5, r3, #31
  404e14:	f57f ad82 	bpl.w	40491c <_svfprintf_r+0x3c0>
  404e18:	9b26      	ldr	r3, [sp, #152]	; 0x98
  404e1a:	9919      	ldr	r1, [sp, #100]	; 0x64
  404e1c:	9a1a      	ldr	r2, [sp, #104]	; 0x68
  404e1e:	f8c8 2000 	str.w	r2, [r8]
  404e22:	3301      	adds	r3, #1
  404e24:	440c      	add	r4, r1
  404e26:	2b07      	cmp	r3, #7
  404e28:	f8c8 1004 	str.w	r1, [r8, #4]
  404e2c:	9427      	str	r4, [sp, #156]	; 0x9c
  404e2e:	9326      	str	r3, [sp, #152]	; 0x98
  404e30:	f300 839e 	bgt.w	405570 <_svfprintf_r+0x1014>
  404e34:	f108 0808 	add.w	r8, r8, #8
  404e38:	9b13      	ldr	r3, [sp, #76]	; 0x4c
  404e3a:	1e5e      	subs	r6, r3, #1
  404e3c:	2e00      	cmp	r6, #0
  404e3e:	f77f ad6d 	ble.w	40491c <_svfprintf_r+0x3c0>
  404e42:	2e10      	cmp	r6, #16
  404e44:	9b26      	ldr	r3, [sp, #152]	; 0x98
  404e46:	4d0a      	ldr	r5, [pc, #40]	; (404e70 <_svfprintf_r+0x914>)
  404e48:	f340 81f5 	ble.w	405236 <_svfprintf_r+0xcda>
  404e4c:	4622      	mov	r2, r4
  404e4e:	2710      	movs	r7, #16
  404e50:	f8dd b030 	ldr.w	fp, [sp, #48]	; 0x30
  404e54:	9c0b      	ldr	r4, [sp, #44]	; 0x2c
  404e56:	e013      	b.n	404e80 <_svfprintf_r+0x924>
  404e58:	00407cdc 	.word	0x00407cdc
  404e5c:	00407cc8 	.word	0x00407cc8
  404e60:	7fefffff 	.word	0x7fefffff
  404e64:	00407cbc 	.word	0x00407cbc
  404e68:	00407cb8 	.word	0x00407cb8
  404e6c:	00407cf8 	.word	0x00407cf8
  404e70:	00407d0c 	.word	0x00407d0c
  404e74:	f108 0808 	add.w	r8, r8, #8
  404e78:	3e10      	subs	r6, #16
  404e7a:	2e10      	cmp	r6, #16
  404e7c:	f340 81da 	ble.w	405234 <_svfprintf_r+0xcd8>
  404e80:	3301      	adds	r3, #1
  404e82:	3210      	adds	r2, #16
  404e84:	2b07      	cmp	r3, #7
  404e86:	9227      	str	r2, [sp, #156]	; 0x9c
  404e88:	9326      	str	r3, [sp, #152]	; 0x98
  404e8a:	e888 00a0 	stmia.w	r8, {r5, r7}
  404e8e:	ddf1      	ble.n	404e74 <_svfprintf_r+0x918>
  404e90:	aa25      	add	r2, sp, #148	; 0x94
  404e92:	4621      	mov	r1, r4
  404e94:	4658      	mov	r0, fp
  404e96:	f002 fcc9 	bl	40782c <__ssprint_r>
  404e9a:	2800      	cmp	r0, #0
  404e9c:	f47f ac30 	bne.w	404700 <_svfprintf_r+0x1a4>
  404ea0:	9a27      	ldr	r2, [sp, #156]	; 0x9c
  404ea2:	9b26      	ldr	r3, [sp, #152]	; 0x98
  404ea4:	46c8      	mov	r8, r9
  404ea6:	e7e7      	b.n	404e78 <_svfprintf_r+0x91c>
  404ea8:	9b0d      	ldr	r3, [sp, #52]	; 0x34
  404eaa:	9a08      	ldr	r2, [sp, #32]
  404eac:	1a9f      	subs	r7, r3, r2
  404eae:	2f00      	cmp	r7, #0
  404eb0:	f77f ace5 	ble.w	40487e <_svfprintf_r+0x322>
  404eb4:	2f10      	cmp	r7, #16
  404eb6:	9b26      	ldr	r3, [sp, #152]	; 0x98
  404eb8:	4db6      	ldr	r5, [pc, #728]	; (405194 <_svfprintf_r+0xc38>)
  404eba:	dd27      	ble.n	404f0c <_svfprintf_r+0x9b0>
  404ebc:	4642      	mov	r2, r8
  404ebe:	4621      	mov	r1, r4
  404ec0:	46b0      	mov	r8, r6
  404ec2:	f04f 0b10 	mov.w	fp, #16
  404ec6:	462e      	mov	r6, r5
  404ec8:	9c0c      	ldr	r4, [sp, #48]	; 0x30
  404eca:	9d0b      	ldr	r5, [sp, #44]	; 0x2c
  404ecc:	e004      	b.n	404ed8 <_svfprintf_r+0x97c>
  404ece:	3f10      	subs	r7, #16
  404ed0:	2f10      	cmp	r7, #16
  404ed2:	f102 0208 	add.w	r2, r2, #8
  404ed6:	dd15      	ble.n	404f04 <_svfprintf_r+0x9a8>
  404ed8:	3301      	adds	r3, #1
  404eda:	3110      	adds	r1, #16
  404edc:	2b07      	cmp	r3, #7
  404ede:	9127      	str	r1, [sp, #156]	; 0x9c
  404ee0:	9326      	str	r3, [sp, #152]	; 0x98
  404ee2:	e882 0840 	stmia.w	r2, {r6, fp}
  404ee6:	ddf2      	ble.n	404ece <_svfprintf_r+0x972>
  404ee8:	aa25      	add	r2, sp, #148	; 0x94
  404eea:	4629      	mov	r1, r5
  404eec:	4620      	mov	r0, r4
  404eee:	f002 fc9d 	bl	40782c <__ssprint_r>
  404ef2:	2800      	cmp	r0, #0
  404ef4:	f47f ac04 	bne.w	404700 <_svfprintf_r+0x1a4>
  404ef8:	3f10      	subs	r7, #16
  404efa:	2f10      	cmp	r7, #16
  404efc:	9927      	ldr	r1, [sp, #156]	; 0x9c
  404efe:	9b26      	ldr	r3, [sp, #152]	; 0x98
  404f00:	464a      	mov	r2, r9
  404f02:	dce9      	bgt.n	404ed8 <_svfprintf_r+0x97c>
  404f04:	4635      	mov	r5, r6
  404f06:	460c      	mov	r4, r1
  404f08:	4646      	mov	r6, r8
  404f0a:	4690      	mov	r8, r2
  404f0c:	3301      	adds	r3, #1
  404f0e:	443c      	add	r4, r7
  404f10:	2b07      	cmp	r3, #7
  404f12:	9427      	str	r4, [sp, #156]	; 0x9c
  404f14:	9326      	str	r3, [sp, #152]	; 0x98
  404f16:	e888 00a0 	stmia.w	r8, {r5, r7}
  404f1a:	f300 8232 	bgt.w	405382 <_svfprintf_r+0xe26>
  404f1e:	f108 0808 	add.w	r8, r8, #8
  404f22:	e4ac      	b.n	40487e <_svfprintf_r+0x322>
  404f24:	9b13      	ldr	r3, [sp, #76]	; 0x4c
  404f26:	9f26      	ldr	r7, [sp, #152]	; 0x98
  404f28:	2b01      	cmp	r3, #1
  404f2a:	f340 81fe 	ble.w	40532a <_svfprintf_r+0xdce>
  404f2e:	3701      	adds	r7, #1
  404f30:	3401      	adds	r4, #1
  404f32:	2301      	movs	r3, #1
  404f34:	2f07      	cmp	r7, #7
  404f36:	9427      	str	r4, [sp, #156]	; 0x9c
  404f38:	9726      	str	r7, [sp, #152]	; 0x98
  404f3a:	f8c8 6000 	str.w	r6, [r8]
  404f3e:	f8c8 3004 	str.w	r3, [r8, #4]
  404f42:	f300 8203 	bgt.w	40534c <_svfprintf_r+0xdf0>
  404f46:	f108 0808 	add.w	r8, r8, #8
  404f4a:	9a19      	ldr	r2, [sp, #100]	; 0x64
  404f4c:	9b1a      	ldr	r3, [sp, #104]	; 0x68
  404f4e:	f8c8 3000 	str.w	r3, [r8]
  404f52:	3701      	adds	r7, #1
  404f54:	4414      	add	r4, r2
  404f56:	2f07      	cmp	r7, #7
  404f58:	9427      	str	r4, [sp, #156]	; 0x9c
  404f5a:	9726      	str	r7, [sp, #152]	; 0x98
  404f5c:	f8c8 2004 	str.w	r2, [r8, #4]
  404f60:	f300 8200 	bgt.w	405364 <_svfprintf_r+0xe08>
  404f64:	f108 0808 	add.w	r8, r8, #8
  404f68:	a815      	add	r0, sp, #84	; 0x54
  404f6a:	c80d      	ldmia	r0, {r0, r2, r3}
  404f6c:	9914      	ldr	r1, [sp, #80]	; 0x50
  404f6e:	f002 fdd1 	bl	407b14 <__aeabi_dcmpeq>
  404f72:	9b13      	ldr	r3, [sp, #76]	; 0x4c
  404f74:	2800      	cmp	r0, #0
  404f76:	f040 8101 	bne.w	40517c <_svfprintf_r+0xc20>
  404f7a:	3b01      	subs	r3, #1
  404f7c:	3701      	adds	r7, #1
  404f7e:	3601      	adds	r6, #1
  404f80:	441c      	add	r4, r3
  404f82:	2f07      	cmp	r7, #7
  404f84:	9726      	str	r7, [sp, #152]	; 0x98
  404f86:	9427      	str	r4, [sp, #156]	; 0x9c
  404f88:	f8c8 6000 	str.w	r6, [r8]
  404f8c:	f8c8 3004 	str.w	r3, [r8, #4]
  404f90:	f300 8127 	bgt.w	4051e2 <_svfprintf_r+0xc86>
  404f94:	f108 0808 	add.w	r8, r8, #8
  404f98:	9a1b      	ldr	r2, [sp, #108]	; 0x6c
  404f9a:	f8c8 2004 	str.w	r2, [r8, #4]
  404f9e:	3701      	adds	r7, #1
  404fa0:	4414      	add	r4, r2
  404fa2:	ab21      	add	r3, sp, #132	; 0x84
  404fa4:	2f07      	cmp	r7, #7
  404fa6:	9427      	str	r4, [sp, #156]	; 0x9c
  404fa8:	9726      	str	r7, [sp, #152]	; 0x98
  404faa:	f8c8 3000 	str.w	r3, [r8]
  404fae:	f77f acb3 	ble.w	404918 <_svfprintf_r+0x3bc>
  404fb2:	aa25      	add	r2, sp, #148	; 0x94
  404fb4:	990b      	ldr	r1, [sp, #44]	; 0x2c
  404fb6:	980c      	ldr	r0, [sp, #48]	; 0x30
  404fb8:	f002 fc38 	bl	40782c <__ssprint_r>
  404fbc:	2800      	cmp	r0, #0
  404fbe:	f47f ab9f 	bne.w	404700 <_svfprintf_r+0x1a4>
  404fc2:	9c27      	ldr	r4, [sp, #156]	; 0x9c
  404fc4:	46c8      	mov	r8, r9
  404fc6:	e4a9      	b.n	40491c <_svfprintf_r+0x3c0>
  404fc8:	aa25      	add	r2, sp, #148	; 0x94
  404fca:	990b      	ldr	r1, [sp, #44]	; 0x2c
  404fcc:	980c      	ldr	r0, [sp, #48]	; 0x30
  404fce:	f002 fc2d 	bl	40782c <__ssprint_r>
  404fd2:	2800      	cmp	r0, #0
  404fd4:	f43f aceb 	beq.w	4049ae <_svfprintf_r+0x452>
  404fd8:	f7ff bb92 	b.w	404700 <_svfprintf_r+0x1a4>
  404fdc:	f8dd b01c 	ldr.w	fp, [sp, #28]
  404fe0:	2b01      	cmp	r3, #1
  404fe2:	f000 8134 	beq.w	40524e <_svfprintf_r+0xcf2>
  404fe6:	2b02      	cmp	r3, #2
  404fe8:	d125      	bne.n	405036 <_svfprintf_r+0xada>
  404fea:	f8cd b01c 	str.w	fp, [sp, #28]
  404fee:	2400      	movs	r4, #0
  404ff0:	2500      	movs	r5, #0
  404ff2:	e61e      	b.n	404c32 <_svfprintf_r+0x6d6>
  404ff4:	aa25      	add	r2, sp, #148	; 0x94
  404ff6:	990b      	ldr	r1, [sp, #44]	; 0x2c
  404ff8:	980c      	ldr	r0, [sp, #48]	; 0x30
  404ffa:	f002 fc17 	bl	40782c <__ssprint_r>
  404ffe:	2800      	cmp	r0, #0
  405000:	f47f ab7e 	bne.w	404700 <_svfprintf_r+0x1a4>
  405004:	9c27      	ldr	r4, [sp, #156]	; 0x9c
  405006:	46c8      	mov	r8, r9
  405008:	e475      	b.n	4048f6 <_svfprintf_r+0x39a>
  40500a:	aa25      	add	r2, sp, #148	; 0x94
  40500c:	990b      	ldr	r1, [sp, #44]	; 0x2c
  40500e:	980c      	ldr	r0, [sp, #48]	; 0x30
  405010:	f002 fc0c 	bl	40782c <__ssprint_r>
  405014:	2800      	cmp	r0, #0
  405016:	f47f ab73 	bne.w	404700 <_svfprintf_r+0x1a4>
  40501a:	9c27      	ldr	r4, [sp, #156]	; 0x9c
  40501c:	46c8      	mov	r8, r9
  40501e:	e41b      	b.n	404858 <_svfprintf_r+0x2fc>
  405020:	aa25      	add	r2, sp, #148	; 0x94
  405022:	990b      	ldr	r1, [sp, #44]	; 0x2c
  405024:	980c      	ldr	r0, [sp, #48]	; 0x30
  405026:	f002 fc01 	bl	40782c <__ssprint_r>
  40502a:	2800      	cmp	r0, #0
  40502c:	f47f ab68 	bne.w	404700 <_svfprintf_r+0x1a4>
  405030:	9c27      	ldr	r4, [sp, #156]	; 0x9c
  405032:	46c8      	mov	r8, r9
  405034:	e420      	b.n	404878 <_svfprintf_r+0x31c>
  405036:	f8cd b01c 	str.w	fp, [sp, #28]
  40503a:	2400      	movs	r4, #0
  40503c:	2500      	movs	r5, #0
  40503e:	4649      	mov	r1, r9
  405040:	e000      	b.n	405044 <_svfprintf_r+0xae8>
  405042:	4631      	mov	r1, r6
  405044:	08e2      	lsrs	r2, r4, #3
  405046:	ea42 7245 	orr.w	r2, r2, r5, lsl #29
  40504a:	08e8      	lsrs	r0, r5, #3
  40504c:	f004 0307 	and.w	r3, r4, #7
  405050:	4605      	mov	r5, r0
  405052:	4614      	mov	r4, r2
  405054:	3330      	adds	r3, #48	; 0x30
  405056:	ea54 0205 	orrs.w	r2, r4, r5
  40505a:	f801 3c01 	strb.w	r3, [r1, #-1]
  40505e:	f101 36ff 	add.w	r6, r1, #4294967295
  405062:	d1ee      	bne.n	405042 <_svfprintf_r+0xae6>
  405064:	9a07      	ldr	r2, [sp, #28]
  405066:	07d2      	lsls	r2, r2, #31
  405068:	f57f adf3 	bpl.w	404c52 <_svfprintf_r+0x6f6>
  40506c:	2b30      	cmp	r3, #48	; 0x30
  40506e:	f43f adf0 	beq.w	404c52 <_svfprintf_r+0x6f6>
  405072:	3902      	subs	r1, #2
  405074:	2330      	movs	r3, #48	; 0x30
  405076:	f806 3c01 	strb.w	r3, [r6, #-1]
  40507a:	eba9 0301 	sub.w	r3, r9, r1
  40507e:	930e      	str	r3, [sp, #56]	; 0x38
  405080:	460e      	mov	r6, r1
  405082:	f7ff bb7b 	b.w	40477c <_svfprintf_r+0x220>
  405086:	991f      	ldr	r1, [sp, #124]	; 0x7c
  405088:	2900      	cmp	r1, #0
  40508a:	f340 822e 	ble.w	4054ea <_svfprintf_r+0xf8e>
  40508e:	9b12      	ldr	r3, [sp, #72]	; 0x48
  405090:	9a13      	ldr	r2, [sp, #76]	; 0x4c
  405092:	4293      	cmp	r3, r2
  405094:	bfa8      	it	ge
  405096:	4613      	movge	r3, r2
  405098:	2b00      	cmp	r3, #0
  40509a:	461f      	mov	r7, r3
  40509c:	dd0d      	ble.n	4050ba <_svfprintf_r+0xb5e>
  40509e:	9b26      	ldr	r3, [sp, #152]	; 0x98
  4050a0:	f8c8 6000 	str.w	r6, [r8]
  4050a4:	3301      	adds	r3, #1
  4050a6:	443c      	add	r4, r7
  4050a8:	2b07      	cmp	r3, #7
  4050aa:	9427      	str	r4, [sp, #156]	; 0x9c
  4050ac:	f8c8 7004 	str.w	r7, [r8, #4]
  4050b0:	9326      	str	r3, [sp, #152]	; 0x98
  4050b2:	f300 831f 	bgt.w	4056f4 <_svfprintf_r+0x1198>
  4050b6:	f108 0808 	add.w	r8, r8, #8
  4050ba:	9b12      	ldr	r3, [sp, #72]	; 0x48
  4050bc:	2f00      	cmp	r7, #0
  4050be:	bfa8      	it	ge
  4050c0:	1bdb      	subge	r3, r3, r7
  4050c2:	2b00      	cmp	r3, #0
  4050c4:	461f      	mov	r7, r3
  4050c6:	f340 80d6 	ble.w	405276 <_svfprintf_r+0xd1a>
  4050ca:	2f10      	cmp	r7, #16
  4050cc:	9b26      	ldr	r3, [sp, #152]	; 0x98
  4050ce:	4d31      	ldr	r5, [pc, #196]	; (405194 <_svfprintf_r+0xc38>)
  4050d0:	f340 81ed 	ble.w	4054ae <_svfprintf_r+0xf52>
  4050d4:	4642      	mov	r2, r8
  4050d6:	4621      	mov	r1, r4
  4050d8:	46b0      	mov	r8, r6
  4050da:	f04f 0b10 	mov.w	fp, #16
  4050de:	462e      	mov	r6, r5
  4050e0:	9c0c      	ldr	r4, [sp, #48]	; 0x30
  4050e2:	9d0b      	ldr	r5, [sp, #44]	; 0x2c
  4050e4:	e004      	b.n	4050f0 <_svfprintf_r+0xb94>
  4050e6:	3208      	adds	r2, #8
  4050e8:	3f10      	subs	r7, #16
  4050ea:	2f10      	cmp	r7, #16
  4050ec:	f340 81db 	ble.w	4054a6 <_svfprintf_r+0xf4a>
  4050f0:	3301      	adds	r3, #1
  4050f2:	3110      	adds	r1, #16
  4050f4:	2b07      	cmp	r3, #7
  4050f6:	9127      	str	r1, [sp, #156]	; 0x9c
  4050f8:	9326      	str	r3, [sp, #152]	; 0x98
  4050fa:	e882 0840 	stmia.w	r2, {r6, fp}
  4050fe:	ddf2      	ble.n	4050e6 <_svfprintf_r+0xb8a>
  405100:	aa25      	add	r2, sp, #148	; 0x94
  405102:	4629      	mov	r1, r5
  405104:	4620      	mov	r0, r4
  405106:	f002 fb91 	bl	40782c <__ssprint_r>
  40510a:	2800      	cmp	r0, #0
  40510c:	f47f aaf8 	bne.w	404700 <_svfprintf_r+0x1a4>
  405110:	9927      	ldr	r1, [sp, #156]	; 0x9c
  405112:	9b26      	ldr	r3, [sp, #152]	; 0x98
  405114:	464a      	mov	r2, r9
  405116:	e7e7      	b.n	4050e8 <_svfprintf_r+0xb8c>
  405118:	9b0a      	ldr	r3, [sp, #40]	; 0x28
  40511a:	930e      	str	r3, [sp, #56]	; 0x38
  40511c:	464e      	mov	r6, r9
  40511e:	f7ff bb2d 	b.w	40477c <_svfprintf_r+0x220>
  405122:	2d00      	cmp	r5, #0
  405124:	bf08      	it	eq
  405126:	2c0a      	cmpeq	r4, #10
  405128:	f0c0 808f 	bcc.w	40524a <_svfprintf_r+0xcee>
  40512c:	464e      	mov	r6, r9
  40512e:	4620      	mov	r0, r4
  405130:	4629      	mov	r1, r5
  405132:	220a      	movs	r2, #10
  405134:	2300      	movs	r3, #0
  405136:	f7fe fc9f 	bl	403a78 <__aeabi_uldivmod>
  40513a:	3230      	adds	r2, #48	; 0x30
  40513c:	f806 2d01 	strb.w	r2, [r6, #-1]!
  405140:	4620      	mov	r0, r4
  405142:	4629      	mov	r1, r5
  405144:	2300      	movs	r3, #0
  405146:	220a      	movs	r2, #10
  405148:	f7fe fc96 	bl	403a78 <__aeabi_uldivmod>
  40514c:	4604      	mov	r4, r0
  40514e:	460d      	mov	r5, r1
  405150:	ea54 0305 	orrs.w	r3, r4, r5
  405154:	d1eb      	bne.n	40512e <_svfprintf_r+0xbd2>
  405156:	eba9 0306 	sub.w	r3, r9, r6
  40515a:	930e      	str	r3, [sp, #56]	; 0x38
  40515c:	f7ff bb0e 	b.w	40477c <_svfprintf_r+0x220>
  405160:	aa25      	add	r2, sp, #148	; 0x94
  405162:	990b      	ldr	r1, [sp, #44]	; 0x2c
  405164:	980c      	ldr	r0, [sp, #48]	; 0x30
  405166:	f002 fb61 	bl	40782c <__ssprint_r>
  40516a:	2800      	cmp	r0, #0
  40516c:	f47f aac8 	bne.w	404700 <_svfprintf_r+0x1a4>
  405170:	f89d 7077 	ldrb.w	r7, [sp, #119]	; 0x77
  405174:	9c27      	ldr	r4, [sp, #156]	; 0x9c
  405176:	46c8      	mov	r8, r9
  405178:	f7ff bb5e 	b.w	404838 <_svfprintf_r+0x2dc>
  40517c:	1e5e      	subs	r6, r3, #1
  40517e:	2e00      	cmp	r6, #0
  405180:	f77f af0a 	ble.w	404f98 <_svfprintf_r+0xa3c>
  405184:	2e10      	cmp	r6, #16
  405186:	4d03      	ldr	r5, [pc, #12]	; (405194 <_svfprintf_r+0xc38>)
  405188:	dd22      	ble.n	4051d0 <_svfprintf_r+0xc74>
  40518a:	4622      	mov	r2, r4
  40518c:	f04f 0b10 	mov.w	fp, #16
  405190:	9c0c      	ldr	r4, [sp, #48]	; 0x30
  405192:	e006      	b.n	4051a2 <_svfprintf_r+0xc46>
  405194:	00407d0c 	.word	0x00407d0c
  405198:	3e10      	subs	r6, #16
  40519a:	2e10      	cmp	r6, #16
  40519c:	f108 0808 	add.w	r8, r8, #8
  4051a0:	dd15      	ble.n	4051ce <_svfprintf_r+0xc72>
  4051a2:	3701      	adds	r7, #1
  4051a4:	3210      	adds	r2, #16
  4051a6:	2f07      	cmp	r7, #7
  4051a8:	9227      	str	r2, [sp, #156]	; 0x9c
  4051aa:	9726      	str	r7, [sp, #152]	; 0x98
  4051ac:	e888 0820 	stmia.w	r8, {r5, fp}
  4051b0:	ddf2      	ble.n	405198 <_svfprintf_r+0xc3c>
  4051b2:	aa25      	add	r2, sp, #148	; 0x94
  4051b4:	990b      	ldr	r1, [sp, #44]	; 0x2c
  4051b6:	4620      	mov	r0, r4
  4051b8:	f002 fb38 	bl	40782c <__ssprint_r>
  4051bc:	2800      	cmp	r0, #0
  4051be:	f47f aa9f 	bne.w	404700 <_svfprintf_r+0x1a4>
  4051c2:	3e10      	subs	r6, #16
  4051c4:	2e10      	cmp	r6, #16
  4051c6:	9a27      	ldr	r2, [sp, #156]	; 0x9c
  4051c8:	9f26      	ldr	r7, [sp, #152]	; 0x98
  4051ca:	46c8      	mov	r8, r9
  4051cc:	dce9      	bgt.n	4051a2 <_svfprintf_r+0xc46>
  4051ce:	4614      	mov	r4, r2
  4051d0:	3701      	adds	r7, #1
  4051d2:	4434      	add	r4, r6
  4051d4:	2f07      	cmp	r7, #7
  4051d6:	9427      	str	r4, [sp, #156]	; 0x9c
  4051d8:	9726      	str	r7, [sp, #152]	; 0x98
  4051da:	e888 0060 	stmia.w	r8, {r5, r6}
  4051de:	f77f aed9 	ble.w	404f94 <_svfprintf_r+0xa38>
  4051e2:	aa25      	add	r2, sp, #148	; 0x94
  4051e4:	990b      	ldr	r1, [sp, #44]	; 0x2c
  4051e6:	980c      	ldr	r0, [sp, #48]	; 0x30
  4051e8:	f002 fb20 	bl	40782c <__ssprint_r>
  4051ec:	2800      	cmp	r0, #0
  4051ee:	f47f aa87 	bne.w	404700 <_svfprintf_r+0x1a4>
  4051f2:	9c27      	ldr	r4, [sp, #156]	; 0x9c
  4051f4:	9f26      	ldr	r7, [sp, #152]	; 0x98
  4051f6:	46c8      	mov	r8, r9
  4051f8:	e6ce      	b.n	404f98 <_svfprintf_r+0xa3c>
  4051fa:	9a0f      	ldr	r2, [sp, #60]	; 0x3c
  4051fc:	6814      	ldr	r4, [r2, #0]
  4051fe:	4613      	mov	r3, r2
  405200:	3304      	adds	r3, #4
  405202:	17e5      	asrs	r5, r4, #31
  405204:	930f      	str	r3, [sp, #60]	; 0x3c
  405206:	4622      	mov	r2, r4
  405208:	462b      	mov	r3, r5
  40520a:	e4fa      	b.n	404c02 <_svfprintf_r+0x6a6>
  40520c:	3204      	adds	r2, #4
  40520e:	681c      	ldr	r4, [r3, #0]
  405210:	920f      	str	r2, [sp, #60]	; 0x3c
  405212:	2301      	movs	r3, #1
  405214:	2500      	movs	r5, #0
  405216:	f7ff ba94 	b.w	404742 <_svfprintf_r+0x1e6>
  40521a:	681c      	ldr	r4, [r3, #0]
  40521c:	3304      	adds	r3, #4
  40521e:	930f      	str	r3, [sp, #60]	; 0x3c
  405220:	2500      	movs	r5, #0
  405222:	e421      	b.n	404a68 <_svfprintf_r+0x50c>
  405224:	990f      	ldr	r1, [sp, #60]	; 0x3c
  405226:	460a      	mov	r2, r1
  405228:	3204      	adds	r2, #4
  40522a:	680c      	ldr	r4, [r1, #0]
  40522c:	920f      	str	r2, [sp, #60]	; 0x3c
  40522e:	2500      	movs	r5, #0
  405230:	f7ff ba87 	b.w	404742 <_svfprintf_r+0x1e6>
  405234:	4614      	mov	r4, r2
  405236:	3301      	adds	r3, #1
  405238:	4434      	add	r4, r6
  40523a:	2b07      	cmp	r3, #7
  40523c:	9427      	str	r4, [sp, #156]	; 0x9c
  40523e:	9326      	str	r3, [sp, #152]	; 0x98
  405240:	e888 0060 	stmia.w	r8, {r5, r6}
  405244:	f77f ab68 	ble.w	404918 <_svfprintf_r+0x3bc>
  405248:	e6b3      	b.n	404fb2 <_svfprintf_r+0xa56>
  40524a:	f8dd b01c 	ldr.w	fp, [sp, #28]
  40524e:	f8cd b01c 	str.w	fp, [sp, #28]
  405252:	ae42      	add	r6, sp, #264	; 0x108
  405254:	3430      	adds	r4, #48	; 0x30
  405256:	2301      	movs	r3, #1
  405258:	f806 4d41 	strb.w	r4, [r6, #-65]!
  40525c:	930e      	str	r3, [sp, #56]	; 0x38
  40525e:	f7ff ba8d 	b.w	40477c <_svfprintf_r+0x220>
  405262:	aa25      	add	r2, sp, #148	; 0x94
  405264:	990b      	ldr	r1, [sp, #44]	; 0x2c
  405266:	980c      	ldr	r0, [sp, #48]	; 0x30
  405268:	f002 fae0 	bl	40782c <__ssprint_r>
  40526c:	2800      	cmp	r0, #0
  40526e:	f47f aa47 	bne.w	404700 <_svfprintf_r+0x1a4>
  405272:	9c27      	ldr	r4, [sp, #156]	; 0x9c
  405274:	46c8      	mov	r8, r9
  405276:	9a1f      	ldr	r2, [sp, #124]	; 0x7c
  405278:	9b13      	ldr	r3, [sp, #76]	; 0x4c
  40527a:	429a      	cmp	r2, r3
  40527c:	db44      	blt.n	405308 <_svfprintf_r+0xdac>
  40527e:	9b07      	ldr	r3, [sp, #28]
  405280:	07d9      	lsls	r1, r3, #31
  405282:	d441      	bmi.n	405308 <_svfprintf_r+0xdac>
  405284:	9b13      	ldr	r3, [sp, #76]	; 0x4c
  405286:	9812      	ldr	r0, [sp, #72]	; 0x48
  405288:	1a9a      	subs	r2, r3, r2
  40528a:	1a1d      	subs	r5, r3, r0
  40528c:	4295      	cmp	r5, r2
  40528e:	bfa8      	it	ge
  405290:	4615      	movge	r5, r2
  405292:	2d00      	cmp	r5, #0
  405294:	dd0e      	ble.n	4052b4 <_svfprintf_r+0xd58>
  405296:	9926      	ldr	r1, [sp, #152]	; 0x98
  405298:	f8c8 5004 	str.w	r5, [r8, #4]
  40529c:	3101      	adds	r1, #1
  40529e:	4406      	add	r6, r0
  4052a0:	442c      	add	r4, r5
  4052a2:	2907      	cmp	r1, #7
  4052a4:	f8c8 6000 	str.w	r6, [r8]
  4052a8:	9427      	str	r4, [sp, #156]	; 0x9c
  4052aa:	9126      	str	r1, [sp, #152]	; 0x98
  4052ac:	f300 823b 	bgt.w	405726 <_svfprintf_r+0x11ca>
  4052b0:	f108 0808 	add.w	r8, r8, #8
  4052b4:	2d00      	cmp	r5, #0
  4052b6:	bfac      	ite	ge
  4052b8:	1b56      	subge	r6, r2, r5
  4052ba:	4616      	movlt	r6, r2
  4052bc:	2e00      	cmp	r6, #0
  4052be:	f77f ab2d 	ble.w	40491c <_svfprintf_r+0x3c0>
  4052c2:	2e10      	cmp	r6, #16
  4052c4:	9b26      	ldr	r3, [sp, #152]	; 0x98
  4052c6:	4db0      	ldr	r5, [pc, #704]	; (405588 <_svfprintf_r+0x102c>)
  4052c8:	ddb5      	ble.n	405236 <_svfprintf_r+0xcda>
  4052ca:	4622      	mov	r2, r4
  4052cc:	2710      	movs	r7, #16
  4052ce:	f8dd b030 	ldr.w	fp, [sp, #48]	; 0x30
  4052d2:	9c0b      	ldr	r4, [sp, #44]	; 0x2c
  4052d4:	e004      	b.n	4052e0 <_svfprintf_r+0xd84>
  4052d6:	f108 0808 	add.w	r8, r8, #8
  4052da:	3e10      	subs	r6, #16
  4052dc:	2e10      	cmp	r6, #16
  4052de:	dda9      	ble.n	405234 <_svfprintf_r+0xcd8>
  4052e0:	3301      	adds	r3, #1
  4052e2:	3210      	adds	r2, #16
  4052e4:	2b07      	cmp	r3, #7
  4052e6:	9227      	str	r2, [sp, #156]	; 0x9c
  4052e8:	9326      	str	r3, [sp, #152]	; 0x98
  4052ea:	e888 00a0 	stmia.w	r8, {r5, r7}
  4052ee:	ddf2      	ble.n	4052d6 <_svfprintf_r+0xd7a>
  4052f0:	aa25      	add	r2, sp, #148	; 0x94
  4052f2:	4621      	mov	r1, r4
  4052f4:	4658      	mov	r0, fp
  4052f6:	f002 fa99 	bl	40782c <__ssprint_r>
  4052fa:	2800      	cmp	r0, #0
  4052fc:	f47f aa00 	bne.w	404700 <_svfprintf_r+0x1a4>
  405300:	9a27      	ldr	r2, [sp, #156]	; 0x9c
  405302:	9b26      	ldr	r3, [sp, #152]	; 0x98
  405304:	46c8      	mov	r8, r9
  405306:	e7e8      	b.n	4052da <_svfprintf_r+0xd7e>
  405308:	9b26      	ldr	r3, [sp, #152]	; 0x98
  40530a:	9819      	ldr	r0, [sp, #100]	; 0x64
  40530c:	991a      	ldr	r1, [sp, #104]	; 0x68
  40530e:	f8c8 1000 	str.w	r1, [r8]
  405312:	3301      	adds	r3, #1
  405314:	4404      	add	r4, r0
  405316:	2b07      	cmp	r3, #7
  405318:	9427      	str	r4, [sp, #156]	; 0x9c
  40531a:	f8c8 0004 	str.w	r0, [r8, #4]
  40531e:	9326      	str	r3, [sp, #152]	; 0x98
  405320:	f300 81f5 	bgt.w	40570e <_svfprintf_r+0x11b2>
  405324:	f108 0808 	add.w	r8, r8, #8
  405328:	e7ac      	b.n	405284 <_svfprintf_r+0xd28>
  40532a:	9b07      	ldr	r3, [sp, #28]
  40532c:	07da      	lsls	r2, r3, #31
  40532e:	f53f adfe 	bmi.w	404f2e <_svfprintf_r+0x9d2>
  405332:	3701      	adds	r7, #1
  405334:	3401      	adds	r4, #1
  405336:	2301      	movs	r3, #1
  405338:	2f07      	cmp	r7, #7
  40533a:	9427      	str	r4, [sp, #156]	; 0x9c
  40533c:	9726      	str	r7, [sp, #152]	; 0x98
  40533e:	f8c8 6000 	str.w	r6, [r8]
  405342:	f8c8 3004 	str.w	r3, [r8, #4]
  405346:	f77f ae25 	ble.w	404f94 <_svfprintf_r+0xa38>
  40534a:	e74a      	b.n	4051e2 <_svfprintf_r+0xc86>
  40534c:	aa25      	add	r2, sp, #148	; 0x94
  40534e:	990b      	ldr	r1, [sp, #44]	; 0x2c
  405350:	980c      	ldr	r0, [sp, #48]	; 0x30
  405352:	f002 fa6b 	bl	40782c <__ssprint_r>
  405356:	2800      	cmp	r0, #0
  405358:	f47f a9d2 	bne.w	404700 <_svfprintf_r+0x1a4>
  40535c:	9c27      	ldr	r4, [sp, #156]	; 0x9c
  40535e:	9f26      	ldr	r7, [sp, #152]	; 0x98
  405360:	46c8      	mov	r8, r9
  405362:	e5f2      	b.n	404f4a <_svfprintf_r+0x9ee>
  405364:	aa25      	add	r2, sp, #148	; 0x94
  405366:	990b      	ldr	r1, [sp, #44]	; 0x2c
  405368:	980c      	ldr	r0, [sp, #48]	; 0x30
  40536a:	f002 fa5f 	bl	40782c <__ssprint_r>
  40536e:	2800      	cmp	r0, #0
  405370:	f47f a9c6 	bne.w	404700 <_svfprintf_r+0x1a4>
  405374:	9c27      	ldr	r4, [sp, #156]	; 0x9c
  405376:	9f26      	ldr	r7, [sp, #152]	; 0x98
  405378:	46c8      	mov	r8, r9
  40537a:	e5f5      	b.n	404f68 <_svfprintf_r+0xa0c>
  40537c:	464e      	mov	r6, r9
  40537e:	f7ff b9fd 	b.w	40477c <_svfprintf_r+0x220>
  405382:	aa25      	add	r2, sp, #148	; 0x94
  405384:	990b      	ldr	r1, [sp, #44]	; 0x2c
  405386:	980c      	ldr	r0, [sp, #48]	; 0x30
  405388:	f002 fa50 	bl	40782c <__ssprint_r>
  40538c:	2800      	cmp	r0, #0
  40538e:	f47f a9b7 	bne.w	404700 <_svfprintf_r+0x1a4>
  405392:	9c27      	ldr	r4, [sp, #156]	; 0x9c
  405394:	46c8      	mov	r8, r9
  405396:	f7ff ba72 	b.w	40487e <_svfprintf_r+0x322>
  40539a:	9c15      	ldr	r4, [sp, #84]	; 0x54
  40539c:	4622      	mov	r2, r4
  40539e:	4620      	mov	r0, r4
  4053a0:	9c14      	ldr	r4, [sp, #80]	; 0x50
  4053a2:	4623      	mov	r3, r4
  4053a4:	4621      	mov	r1, r4
  4053a6:	f002 fbe7 	bl	407b78 <__aeabi_dcmpun>
  4053aa:	2800      	cmp	r0, #0
  4053ac:	f040 8286 	bne.w	4058bc <_svfprintf_r+0x1360>
  4053b0:	9b0a      	ldr	r3, [sp, #40]	; 0x28
  4053b2:	3301      	adds	r3, #1
  4053b4:	9b11      	ldr	r3, [sp, #68]	; 0x44
  4053b6:	f023 0320 	bic.w	r3, r3, #32
  4053ba:	930e      	str	r3, [sp, #56]	; 0x38
  4053bc:	f000 81e2 	beq.w	405784 <_svfprintf_r+0x1228>
  4053c0:	2b47      	cmp	r3, #71	; 0x47
  4053c2:	f000 811e 	beq.w	405602 <_svfprintf_r+0x10a6>
  4053c6:	f44b 7380 	orr.w	r3, fp, #256	; 0x100
  4053ca:	9307      	str	r3, [sp, #28]
  4053cc:	9b14      	ldr	r3, [sp, #80]	; 0x50
  4053ce:	1e1f      	subs	r7, r3, #0
  4053d0:	9b15      	ldr	r3, [sp, #84]	; 0x54
  4053d2:	9308      	str	r3, [sp, #32]
  4053d4:	bfbb      	ittet	lt
  4053d6:	463b      	movlt	r3, r7
  4053d8:	f103 4700 	addlt.w	r7, r3, #2147483648	; 0x80000000
  4053dc:	2300      	movge	r3, #0
  4053de:	232d      	movlt	r3, #45	; 0x2d
  4053e0:	9310      	str	r3, [sp, #64]	; 0x40
  4053e2:	9b11      	ldr	r3, [sp, #68]	; 0x44
  4053e4:	2b66      	cmp	r3, #102	; 0x66
  4053e6:	f000 81bb 	beq.w	405760 <_svfprintf_r+0x1204>
  4053ea:	2b46      	cmp	r3, #70	; 0x46
  4053ec:	f000 80df 	beq.w	4055ae <_svfprintf_r+0x1052>
  4053f0:	9b0e      	ldr	r3, [sp, #56]	; 0x38
  4053f2:	9a08      	ldr	r2, [sp, #32]
  4053f4:	2b45      	cmp	r3, #69	; 0x45
  4053f6:	bf0c      	ite	eq
  4053f8:	9b0a      	ldreq	r3, [sp, #40]	; 0x28
  4053fa:	9d0a      	ldrne	r5, [sp, #40]	; 0x28
  4053fc:	a823      	add	r0, sp, #140	; 0x8c
  4053fe:	a920      	add	r1, sp, #128	; 0x80
  405400:	bf08      	it	eq
  405402:	1c5d      	addeq	r5, r3, #1
  405404:	9004      	str	r0, [sp, #16]
  405406:	9103      	str	r1, [sp, #12]
  405408:	a81f      	add	r0, sp, #124	; 0x7c
  40540a:	2102      	movs	r1, #2
  40540c:	463b      	mov	r3, r7
  40540e:	9002      	str	r0, [sp, #8]
  405410:	9501      	str	r5, [sp, #4]
  405412:	9100      	str	r1, [sp, #0]
  405414:	980c      	ldr	r0, [sp, #48]	; 0x30
  405416:	f000 fb73 	bl	405b00 <_dtoa_r>
  40541a:	9b11      	ldr	r3, [sp, #68]	; 0x44
  40541c:	2b67      	cmp	r3, #103	; 0x67
  40541e:	4606      	mov	r6, r0
  405420:	f040 81e0 	bne.w	4057e4 <_svfprintf_r+0x1288>
  405424:	f01b 0f01 	tst.w	fp, #1
  405428:	f000 8246 	beq.w	4058b8 <_svfprintf_r+0x135c>
  40542c:	1974      	adds	r4, r6, r5
  40542e:	9a16      	ldr	r2, [sp, #88]	; 0x58
  405430:	9808      	ldr	r0, [sp, #32]
  405432:	9b17      	ldr	r3, [sp, #92]	; 0x5c
  405434:	4639      	mov	r1, r7
  405436:	f002 fb6d 	bl	407b14 <__aeabi_dcmpeq>
  40543a:	2800      	cmp	r0, #0
  40543c:	f040 8165 	bne.w	40570a <_svfprintf_r+0x11ae>
  405440:	9b23      	ldr	r3, [sp, #140]	; 0x8c
  405442:	42a3      	cmp	r3, r4
  405444:	d206      	bcs.n	405454 <_svfprintf_r+0xef8>
  405446:	2130      	movs	r1, #48	; 0x30
  405448:	1c5a      	adds	r2, r3, #1
  40544a:	9223      	str	r2, [sp, #140]	; 0x8c
  40544c:	7019      	strb	r1, [r3, #0]
  40544e:	9b23      	ldr	r3, [sp, #140]	; 0x8c
  405450:	429c      	cmp	r4, r3
  405452:	d8f9      	bhi.n	405448 <_svfprintf_r+0xeec>
  405454:	1b9b      	subs	r3, r3, r6
  405456:	9313      	str	r3, [sp, #76]	; 0x4c
  405458:	9b0e      	ldr	r3, [sp, #56]	; 0x38
  40545a:	2b47      	cmp	r3, #71	; 0x47
  40545c:	f000 80e9 	beq.w	405632 <_svfprintf_r+0x10d6>
  405460:	9b11      	ldr	r3, [sp, #68]	; 0x44
  405462:	2b65      	cmp	r3, #101	; 0x65
  405464:	f340 81cd 	ble.w	405802 <_svfprintf_r+0x12a6>
  405468:	9b11      	ldr	r3, [sp, #68]	; 0x44
  40546a:	2b66      	cmp	r3, #102	; 0x66
  40546c:	9b1f      	ldr	r3, [sp, #124]	; 0x7c
  40546e:	9312      	str	r3, [sp, #72]	; 0x48
  405470:	f000 819e 	beq.w	4057b0 <_svfprintf_r+0x1254>
  405474:	9b13      	ldr	r3, [sp, #76]	; 0x4c
  405476:	9a12      	ldr	r2, [sp, #72]	; 0x48
  405478:	4619      	mov	r1, r3
  40547a:	4291      	cmp	r1, r2
  40547c:	f300 818a 	bgt.w	405794 <_svfprintf_r+0x1238>
  405480:	f01b 0f01 	tst.w	fp, #1
  405484:	f040 8213 	bne.w	4058ae <_svfprintf_r+0x1352>
  405488:	ea22 73e2 	bic.w	r3, r2, r2, asr #31
  40548c:	9308      	str	r3, [sp, #32]
  40548e:	2367      	movs	r3, #103	; 0x67
  405490:	920e      	str	r2, [sp, #56]	; 0x38
  405492:	9311      	str	r3, [sp, #68]	; 0x44
  405494:	9b10      	ldr	r3, [sp, #64]	; 0x40
  405496:	2b00      	cmp	r3, #0
  405498:	f040 80c4 	bne.w	405624 <_svfprintf_r+0x10c8>
  40549c:	930a      	str	r3, [sp, #40]	; 0x28
  40549e:	f89d 7077 	ldrb.w	r7, [sp, #119]	; 0x77
  4054a2:	f7ff b973 	b.w	40478c <_svfprintf_r+0x230>
  4054a6:	4635      	mov	r5, r6
  4054a8:	460c      	mov	r4, r1
  4054aa:	4646      	mov	r6, r8
  4054ac:	4690      	mov	r8, r2
  4054ae:	3301      	adds	r3, #1
  4054b0:	443c      	add	r4, r7
  4054b2:	2b07      	cmp	r3, #7
  4054b4:	9427      	str	r4, [sp, #156]	; 0x9c
  4054b6:	9326      	str	r3, [sp, #152]	; 0x98
  4054b8:	e888 00a0 	stmia.w	r8, {r5, r7}
  4054bc:	f73f aed1 	bgt.w	405262 <_svfprintf_r+0xd06>
  4054c0:	f108 0808 	add.w	r8, r8, #8
  4054c4:	e6d7      	b.n	405276 <_svfprintf_r+0xd1a>
  4054c6:	9a0f      	ldr	r2, [sp, #60]	; 0x3c
  4054c8:	6813      	ldr	r3, [r2, #0]
  4054ca:	3204      	adds	r2, #4
  4054cc:	920f      	str	r2, [sp, #60]	; 0x3c
  4054ce:	9a09      	ldr	r2, [sp, #36]	; 0x24
  4054d0:	601a      	str	r2, [r3, #0]
  4054d2:	f7ff b86a 	b.w	4045aa <_svfprintf_r+0x4e>
  4054d6:	aa25      	add	r2, sp, #148	; 0x94
  4054d8:	990b      	ldr	r1, [sp, #44]	; 0x2c
  4054da:	980c      	ldr	r0, [sp, #48]	; 0x30
  4054dc:	f002 f9a6 	bl	40782c <__ssprint_r>
  4054e0:	2800      	cmp	r0, #0
  4054e2:	f47f a90d 	bne.w	404700 <_svfprintf_r+0x1a4>
  4054e6:	46c8      	mov	r8, r9
  4054e8:	e48d      	b.n	404e06 <_svfprintf_r+0x8aa>
  4054ea:	9b26      	ldr	r3, [sp, #152]	; 0x98
  4054ec:	4a27      	ldr	r2, [pc, #156]	; (40558c <_svfprintf_r+0x1030>)
  4054ee:	f8c8 2000 	str.w	r2, [r8]
  4054f2:	3301      	adds	r3, #1
  4054f4:	3401      	adds	r4, #1
  4054f6:	2201      	movs	r2, #1
  4054f8:	2b07      	cmp	r3, #7
  4054fa:	9427      	str	r4, [sp, #156]	; 0x9c
  4054fc:	9326      	str	r3, [sp, #152]	; 0x98
  4054fe:	f8c8 2004 	str.w	r2, [r8, #4]
  405502:	dc72      	bgt.n	4055ea <_svfprintf_r+0x108e>
  405504:	f108 0808 	add.w	r8, r8, #8
  405508:	b929      	cbnz	r1, 405516 <_svfprintf_r+0xfba>
  40550a:	9b13      	ldr	r3, [sp, #76]	; 0x4c
  40550c:	b91b      	cbnz	r3, 405516 <_svfprintf_r+0xfba>
  40550e:	9b07      	ldr	r3, [sp, #28]
  405510:	07d8      	lsls	r0, r3, #31
  405512:	f57f aa03 	bpl.w	40491c <_svfprintf_r+0x3c0>
  405516:	9b26      	ldr	r3, [sp, #152]	; 0x98
  405518:	9819      	ldr	r0, [sp, #100]	; 0x64
  40551a:	9a1a      	ldr	r2, [sp, #104]	; 0x68
  40551c:	f8c8 2000 	str.w	r2, [r8]
  405520:	3301      	adds	r3, #1
  405522:	4602      	mov	r2, r0
  405524:	4422      	add	r2, r4
  405526:	2b07      	cmp	r3, #7
  405528:	9227      	str	r2, [sp, #156]	; 0x9c
  40552a:	f8c8 0004 	str.w	r0, [r8, #4]
  40552e:	9326      	str	r3, [sp, #152]	; 0x98
  405530:	f300 818d 	bgt.w	40584e <_svfprintf_r+0x12f2>
  405534:	f108 0808 	add.w	r8, r8, #8
  405538:	2900      	cmp	r1, #0
  40553a:	f2c0 8165 	blt.w	405808 <_svfprintf_r+0x12ac>
  40553e:	9913      	ldr	r1, [sp, #76]	; 0x4c
  405540:	f8c8 6000 	str.w	r6, [r8]
  405544:	3301      	adds	r3, #1
  405546:	188c      	adds	r4, r1, r2
  405548:	2b07      	cmp	r3, #7
  40554a:	9427      	str	r4, [sp, #156]	; 0x9c
  40554c:	9326      	str	r3, [sp, #152]	; 0x98
  40554e:	f8c8 1004 	str.w	r1, [r8, #4]
  405552:	f77f a9e1 	ble.w	404918 <_svfprintf_r+0x3bc>
  405556:	e52c      	b.n	404fb2 <_svfprintf_r+0xa56>
  405558:	9a0f      	ldr	r2, [sp, #60]	; 0x3c
  40555a:	9909      	ldr	r1, [sp, #36]	; 0x24
  40555c:	6813      	ldr	r3, [r2, #0]
  40555e:	17cd      	asrs	r5, r1, #31
  405560:	4608      	mov	r0, r1
  405562:	3204      	adds	r2, #4
  405564:	4629      	mov	r1, r5
  405566:	920f      	str	r2, [sp, #60]	; 0x3c
  405568:	e9c3 0100 	strd	r0, r1, [r3]
  40556c:	f7ff b81d 	b.w	4045aa <_svfprintf_r+0x4e>
  405570:	aa25      	add	r2, sp, #148	; 0x94
  405572:	990b      	ldr	r1, [sp, #44]	; 0x2c
  405574:	980c      	ldr	r0, [sp, #48]	; 0x30
  405576:	f002 f959 	bl	40782c <__ssprint_r>
  40557a:	2800      	cmp	r0, #0
  40557c:	f47f a8c0 	bne.w	404700 <_svfprintf_r+0x1a4>
  405580:	9c27      	ldr	r4, [sp, #156]	; 0x9c
  405582:	46c8      	mov	r8, r9
  405584:	e458      	b.n	404e38 <_svfprintf_r+0x8dc>
  405586:	bf00      	nop
  405588:	00407d0c 	.word	0x00407d0c
  40558c:	00407cf8 	.word	0x00407cf8
  405590:	2140      	movs	r1, #64	; 0x40
  405592:	980c      	ldr	r0, [sp, #48]	; 0x30
  405594:	f7fe fc30 	bl	403df8 <_malloc_r>
  405598:	9a0b      	ldr	r2, [sp, #44]	; 0x2c
  40559a:	6010      	str	r0, [r2, #0]
  40559c:	6110      	str	r0, [r2, #16]
  40559e:	2800      	cmp	r0, #0
  4055a0:	f000 81f2 	beq.w	405988 <_svfprintf_r+0x142c>
  4055a4:	9a0b      	ldr	r2, [sp, #44]	; 0x2c
  4055a6:	2340      	movs	r3, #64	; 0x40
  4055a8:	6153      	str	r3, [r2, #20]
  4055aa:	f7fe bfee 	b.w	40458a <_svfprintf_r+0x2e>
  4055ae:	a823      	add	r0, sp, #140	; 0x8c
  4055b0:	a920      	add	r1, sp, #128	; 0x80
  4055b2:	9c0a      	ldr	r4, [sp, #40]	; 0x28
  4055b4:	9004      	str	r0, [sp, #16]
  4055b6:	9103      	str	r1, [sp, #12]
  4055b8:	a81f      	add	r0, sp, #124	; 0x7c
  4055ba:	2103      	movs	r1, #3
  4055bc:	9002      	str	r0, [sp, #8]
  4055be:	9a08      	ldr	r2, [sp, #32]
  4055c0:	9401      	str	r4, [sp, #4]
  4055c2:	463b      	mov	r3, r7
  4055c4:	9100      	str	r1, [sp, #0]
  4055c6:	980c      	ldr	r0, [sp, #48]	; 0x30
  4055c8:	f000 fa9a 	bl	405b00 <_dtoa_r>
  4055cc:	4625      	mov	r5, r4
  4055ce:	4606      	mov	r6, r0
  4055d0:	9b11      	ldr	r3, [sp, #68]	; 0x44
  4055d2:	2b46      	cmp	r3, #70	; 0x46
  4055d4:	eb06 0405 	add.w	r4, r6, r5
  4055d8:	f47f af29 	bne.w	40542e <_svfprintf_r+0xed2>
  4055dc:	7833      	ldrb	r3, [r6, #0]
  4055de:	2b30      	cmp	r3, #48	; 0x30
  4055e0:	f000 8178 	beq.w	4058d4 <_svfprintf_r+0x1378>
  4055e4:	9d1f      	ldr	r5, [sp, #124]	; 0x7c
  4055e6:	442c      	add	r4, r5
  4055e8:	e721      	b.n	40542e <_svfprintf_r+0xed2>
  4055ea:	aa25      	add	r2, sp, #148	; 0x94
  4055ec:	990b      	ldr	r1, [sp, #44]	; 0x2c
  4055ee:	980c      	ldr	r0, [sp, #48]	; 0x30
  4055f0:	f002 f91c 	bl	40782c <__ssprint_r>
  4055f4:	2800      	cmp	r0, #0
  4055f6:	f47f a883 	bne.w	404700 <_svfprintf_r+0x1a4>
  4055fa:	991f      	ldr	r1, [sp, #124]	; 0x7c
  4055fc:	9c27      	ldr	r4, [sp, #156]	; 0x9c
  4055fe:	46c8      	mov	r8, r9
  405600:	e782      	b.n	405508 <_svfprintf_r+0xfac>
  405602:	9b0a      	ldr	r3, [sp, #40]	; 0x28
  405604:	2b00      	cmp	r3, #0
  405606:	bf08      	it	eq
  405608:	2301      	moveq	r3, #1
  40560a:	930a      	str	r3, [sp, #40]	; 0x28
  40560c:	e6db      	b.n	4053c6 <_svfprintf_r+0xe6a>
  40560e:	4630      	mov	r0, r6
  405610:	940a      	str	r4, [sp, #40]	; 0x28
  405612:	f7fe ff35 	bl	404480 <strlen>
  405616:	950f      	str	r5, [sp, #60]	; 0x3c
  405618:	900e      	str	r0, [sp, #56]	; 0x38
  40561a:	f8cd b01c 	str.w	fp, [sp, #28]
  40561e:	4603      	mov	r3, r0
  405620:	f7ff b9f9 	b.w	404a16 <_svfprintf_r+0x4ba>
  405624:	272d      	movs	r7, #45	; 0x2d
  405626:	2300      	movs	r3, #0
  405628:	f88d 7077 	strb.w	r7, [sp, #119]	; 0x77
  40562c:	930a      	str	r3, [sp, #40]	; 0x28
  40562e:	f7ff b8ae 	b.w	40478e <_svfprintf_r+0x232>
  405632:	9b1f      	ldr	r3, [sp, #124]	; 0x7c
  405634:	9312      	str	r3, [sp, #72]	; 0x48
  405636:	461a      	mov	r2, r3
  405638:	3303      	adds	r3, #3
  40563a:	db04      	blt.n	405646 <_svfprintf_r+0x10ea>
  40563c:	9b0a      	ldr	r3, [sp, #40]	; 0x28
  40563e:	4619      	mov	r1, r3
  405640:	4291      	cmp	r1, r2
  405642:	f6bf af17 	bge.w	405474 <_svfprintf_r+0xf18>
  405646:	9b11      	ldr	r3, [sp, #68]	; 0x44
  405648:	3b02      	subs	r3, #2
  40564a:	9311      	str	r3, [sp, #68]	; 0x44
  40564c:	f89d 3044 	ldrb.w	r3, [sp, #68]	; 0x44
  405650:	f88d 3084 	strb.w	r3, [sp, #132]	; 0x84
  405654:	9b12      	ldr	r3, [sp, #72]	; 0x48
  405656:	3b01      	subs	r3, #1
  405658:	2b00      	cmp	r3, #0
  40565a:	931f      	str	r3, [sp, #124]	; 0x7c
  40565c:	bfbd      	ittte	lt
  40565e:	9b12      	ldrlt	r3, [sp, #72]	; 0x48
  405660:	f1c3 0301 	rsblt	r3, r3, #1
  405664:	222d      	movlt	r2, #45	; 0x2d
  405666:	222b      	movge	r2, #43	; 0x2b
  405668:	2b09      	cmp	r3, #9
  40566a:	f88d 2085 	strb.w	r2, [sp, #133]	; 0x85
  40566e:	f340 8116 	ble.w	40589e <_svfprintf_r+0x1342>
  405672:	f10d 0493 	add.w	r4, sp, #147	; 0x93
  405676:	4620      	mov	r0, r4
  405678:	4dab      	ldr	r5, [pc, #684]	; (405928 <_svfprintf_r+0x13cc>)
  40567a:	e000      	b.n	40567e <_svfprintf_r+0x1122>
  40567c:	4610      	mov	r0, r2
  40567e:	fb85 1203 	smull	r1, r2, r5, r3
  405682:	17d9      	asrs	r1, r3, #31
  405684:	ebc1 01a2 	rsb	r1, r1, r2, asr #2
  405688:	eb01 0281 	add.w	r2, r1, r1, lsl #2
  40568c:	eba3 0242 	sub.w	r2, r3, r2, lsl #1
  405690:	3230      	adds	r2, #48	; 0x30
  405692:	2909      	cmp	r1, #9
  405694:	f800 2c01 	strb.w	r2, [r0, #-1]
  405698:	460b      	mov	r3, r1
  40569a:	f100 32ff 	add.w	r2, r0, #4294967295
  40569e:	dced      	bgt.n	40567c <_svfprintf_r+0x1120>
  4056a0:	3330      	adds	r3, #48	; 0x30
  4056a2:	3802      	subs	r0, #2
  4056a4:	b2d9      	uxtb	r1, r3
  4056a6:	4284      	cmp	r4, r0
  4056a8:	f802 1c01 	strb.w	r1, [r2, #-1]
  4056ac:	f240 8165 	bls.w	40597a <_svfprintf_r+0x141e>
  4056b0:	f10d 0086 	add.w	r0, sp, #134	; 0x86
  4056b4:	4613      	mov	r3, r2
  4056b6:	e001      	b.n	4056bc <_svfprintf_r+0x1160>
  4056b8:	f813 1b01 	ldrb.w	r1, [r3], #1
  4056bc:	f800 1b01 	strb.w	r1, [r0], #1
  4056c0:	42a3      	cmp	r3, r4
  4056c2:	d1f9      	bne.n	4056b8 <_svfprintf_r+0x115c>
  4056c4:	3301      	adds	r3, #1
  4056c6:	1a9b      	subs	r3, r3, r2
  4056c8:	f10d 0286 	add.w	r2, sp, #134	; 0x86
  4056cc:	4413      	add	r3, r2
  4056ce:	aa21      	add	r2, sp, #132	; 0x84
  4056d0:	1a9b      	subs	r3, r3, r2
  4056d2:	9a13      	ldr	r2, [sp, #76]	; 0x4c
  4056d4:	931b      	str	r3, [sp, #108]	; 0x6c
  4056d6:	2a01      	cmp	r2, #1
  4056d8:	4413      	add	r3, r2
  4056da:	930e      	str	r3, [sp, #56]	; 0x38
  4056dc:	f340 8119 	ble.w	405912 <_svfprintf_r+0x13b6>
  4056e0:	9b0e      	ldr	r3, [sp, #56]	; 0x38
  4056e2:	9a19      	ldr	r2, [sp, #100]	; 0x64
  4056e4:	4413      	add	r3, r2
  4056e6:	930e      	str	r3, [sp, #56]	; 0x38
  4056e8:	ea23 73e3 	bic.w	r3, r3, r3, asr #31
  4056ec:	9308      	str	r3, [sp, #32]
  4056ee:	2300      	movs	r3, #0
  4056f0:	9312      	str	r3, [sp, #72]	; 0x48
  4056f2:	e6cf      	b.n	405494 <_svfprintf_r+0xf38>
  4056f4:	aa25      	add	r2, sp, #148	; 0x94
  4056f6:	990b      	ldr	r1, [sp, #44]	; 0x2c
  4056f8:	980c      	ldr	r0, [sp, #48]	; 0x30
  4056fa:	f002 f897 	bl	40782c <__ssprint_r>
  4056fe:	2800      	cmp	r0, #0
  405700:	f47e affe 	bne.w	404700 <_svfprintf_r+0x1a4>
  405704:	9c27      	ldr	r4, [sp, #156]	; 0x9c
  405706:	46c8      	mov	r8, r9
  405708:	e4d7      	b.n	4050ba <_svfprintf_r+0xb5e>
  40570a:	4623      	mov	r3, r4
  40570c:	e6a2      	b.n	405454 <_svfprintf_r+0xef8>
  40570e:	aa25      	add	r2, sp, #148	; 0x94
  405710:	990b      	ldr	r1, [sp, #44]	; 0x2c
  405712:	980c      	ldr	r0, [sp, #48]	; 0x30
  405714:	f002 f88a 	bl	40782c <__ssprint_r>
  405718:	2800      	cmp	r0, #0
  40571a:	f47e aff1 	bne.w	404700 <_svfprintf_r+0x1a4>
  40571e:	9a1f      	ldr	r2, [sp, #124]	; 0x7c
  405720:	9c27      	ldr	r4, [sp, #156]	; 0x9c
  405722:	46c8      	mov	r8, r9
  405724:	e5ae      	b.n	405284 <_svfprintf_r+0xd28>
  405726:	aa25      	add	r2, sp, #148	; 0x94
  405728:	990b      	ldr	r1, [sp, #44]	; 0x2c
  40572a:	980c      	ldr	r0, [sp, #48]	; 0x30
  40572c:	f002 f87e 	bl	40782c <__ssprint_r>
  405730:	2800      	cmp	r0, #0
  405732:	f47e afe5 	bne.w	404700 <_svfprintf_r+0x1a4>
  405736:	9a1f      	ldr	r2, [sp, #124]	; 0x7c
  405738:	9b13      	ldr	r3, [sp, #76]	; 0x4c
  40573a:	9c27      	ldr	r4, [sp, #156]	; 0x9c
  40573c:	1a9a      	subs	r2, r3, r2
  40573e:	46c8      	mov	r8, r9
  405740:	e5b8      	b.n	4052b4 <_svfprintf_r+0xd58>
  405742:	9b0a      	ldr	r3, [sp, #40]	; 0x28
  405744:	9612      	str	r6, [sp, #72]	; 0x48
  405746:	2b06      	cmp	r3, #6
  405748:	bf28      	it	cs
  40574a:	2306      	movcs	r3, #6
  40574c:	960a      	str	r6, [sp, #40]	; 0x28
  40574e:	4637      	mov	r7, r6
  405750:	9308      	str	r3, [sp, #32]
  405752:	950f      	str	r5, [sp, #60]	; 0x3c
  405754:	f8cd b01c 	str.w	fp, [sp, #28]
  405758:	930e      	str	r3, [sp, #56]	; 0x38
  40575a:	4e74      	ldr	r6, [pc, #464]	; (40592c <_svfprintf_r+0x13d0>)
  40575c:	f7ff b816 	b.w	40478c <_svfprintf_r+0x230>
  405760:	a823      	add	r0, sp, #140	; 0x8c
  405762:	a920      	add	r1, sp, #128	; 0x80
  405764:	9d0a      	ldr	r5, [sp, #40]	; 0x28
  405766:	9004      	str	r0, [sp, #16]
  405768:	9103      	str	r1, [sp, #12]
  40576a:	a81f      	add	r0, sp, #124	; 0x7c
  40576c:	2103      	movs	r1, #3
  40576e:	9002      	str	r0, [sp, #8]
  405770:	9a08      	ldr	r2, [sp, #32]
  405772:	9501      	str	r5, [sp, #4]
  405774:	463b      	mov	r3, r7
  405776:	9100      	str	r1, [sp, #0]
  405778:	980c      	ldr	r0, [sp, #48]	; 0x30
  40577a:	f000 f9c1 	bl	405b00 <_dtoa_r>
  40577e:	4606      	mov	r6, r0
  405780:	1944      	adds	r4, r0, r5
  405782:	e72b      	b.n	4055dc <_svfprintf_r+0x1080>
  405784:	2306      	movs	r3, #6
  405786:	930a      	str	r3, [sp, #40]	; 0x28
  405788:	e61d      	b.n	4053c6 <_svfprintf_r+0xe6a>
  40578a:	272d      	movs	r7, #45	; 0x2d
  40578c:	f88d 7077 	strb.w	r7, [sp, #119]	; 0x77
  405790:	f7ff bacd 	b.w	404d2e <_svfprintf_r+0x7d2>
  405794:	9a19      	ldr	r2, [sp, #100]	; 0x64
  405796:	9b13      	ldr	r3, [sp, #76]	; 0x4c
  405798:	4413      	add	r3, r2
  40579a:	9a12      	ldr	r2, [sp, #72]	; 0x48
  40579c:	930e      	str	r3, [sp, #56]	; 0x38
  40579e:	2a00      	cmp	r2, #0
  4057a0:	f340 80b0 	ble.w	405904 <_svfprintf_r+0x13a8>
  4057a4:	ea23 73e3 	bic.w	r3, r3, r3, asr #31
  4057a8:	9308      	str	r3, [sp, #32]
  4057aa:	2367      	movs	r3, #103	; 0x67
  4057ac:	9311      	str	r3, [sp, #68]	; 0x44
  4057ae:	e671      	b.n	405494 <_svfprintf_r+0xf38>
  4057b0:	2b00      	cmp	r3, #0
  4057b2:	f340 80c3 	ble.w	40593c <_svfprintf_r+0x13e0>
  4057b6:	9a0a      	ldr	r2, [sp, #40]	; 0x28
  4057b8:	2a00      	cmp	r2, #0
  4057ba:	f040 8099 	bne.w	4058f0 <_svfprintf_r+0x1394>
  4057be:	f01b 0f01 	tst.w	fp, #1
  4057c2:	f040 8095 	bne.w	4058f0 <_svfprintf_r+0x1394>
  4057c6:	9308      	str	r3, [sp, #32]
  4057c8:	930e      	str	r3, [sp, #56]	; 0x38
  4057ca:	e663      	b.n	405494 <_svfprintf_r+0xf38>
  4057cc:	9b0a      	ldr	r3, [sp, #40]	; 0x28
  4057ce:	9308      	str	r3, [sp, #32]
  4057d0:	930e      	str	r3, [sp, #56]	; 0x38
  4057d2:	900a      	str	r0, [sp, #40]	; 0x28
  4057d4:	950f      	str	r5, [sp, #60]	; 0x3c
  4057d6:	f8cd b01c 	str.w	fp, [sp, #28]
  4057da:	9012      	str	r0, [sp, #72]	; 0x48
  4057dc:	f89d 7077 	ldrb.w	r7, [sp, #119]	; 0x77
  4057e0:	f7fe bfd4 	b.w	40478c <_svfprintf_r+0x230>
  4057e4:	9b11      	ldr	r3, [sp, #68]	; 0x44
  4057e6:	2b47      	cmp	r3, #71	; 0x47
  4057e8:	f47f ae20 	bne.w	40542c <_svfprintf_r+0xed0>
  4057ec:	f01b 0f01 	tst.w	fp, #1
  4057f0:	f47f aeee 	bne.w	4055d0 <_svfprintf_r+0x1074>
  4057f4:	9b23      	ldr	r3, [sp, #140]	; 0x8c
  4057f6:	1b9b      	subs	r3, r3, r6
  4057f8:	9313      	str	r3, [sp, #76]	; 0x4c
  4057fa:	9b0e      	ldr	r3, [sp, #56]	; 0x38
  4057fc:	2b47      	cmp	r3, #71	; 0x47
  4057fe:	f43f af18 	beq.w	405632 <_svfprintf_r+0x10d6>
  405802:	9b1f      	ldr	r3, [sp, #124]	; 0x7c
  405804:	9312      	str	r3, [sp, #72]	; 0x48
  405806:	e721      	b.n	40564c <_svfprintf_r+0x10f0>
  405808:	424f      	negs	r7, r1
  40580a:	3110      	adds	r1, #16
  40580c:	4d48      	ldr	r5, [pc, #288]	; (405930 <_svfprintf_r+0x13d4>)
  40580e:	da2f      	bge.n	405870 <_svfprintf_r+0x1314>
  405810:	2410      	movs	r4, #16
  405812:	f8dd b030 	ldr.w	fp, [sp, #48]	; 0x30
  405816:	e004      	b.n	405822 <_svfprintf_r+0x12c6>
  405818:	f108 0808 	add.w	r8, r8, #8
  40581c:	3f10      	subs	r7, #16
  40581e:	2f10      	cmp	r7, #16
  405820:	dd26      	ble.n	405870 <_svfprintf_r+0x1314>
  405822:	3301      	adds	r3, #1
  405824:	3210      	adds	r2, #16
  405826:	2b07      	cmp	r3, #7
  405828:	9227      	str	r2, [sp, #156]	; 0x9c
  40582a:	9326      	str	r3, [sp, #152]	; 0x98
  40582c:	f8c8 5000 	str.w	r5, [r8]
  405830:	f8c8 4004 	str.w	r4, [r8, #4]
  405834:	ddf0      	ble.n	405818 <_svfprintf_r+0x12bc>
  405836:	aa25      	add	r2, sp, #148	; 0x94
  405838:	990b      	ldr	r1, [sp, #44]	; 0x2c
  40583a:	4658      	mov	r0, fp
  40583c:	f001 fff6 	bl	40782c <__ssprint_r>
  405840:	2800      	cmp	r0, #0
  405842:	f47e af5d 	bne.w	404700 <_svfprintf_r+0x1a4>
  405846:	9a27      	ldr	r2, [sp, #156]	; 0x9c
  405848:	9b26      	ldr	r3, [sp, #152]	; 0x98
  40584a:	46c8      	mov	r8, r9
  40584c:	e7e6      	b.n	40581c <_svfprintf_r+0x12c0>
  40584e:	aa25      	add	r2, sp, #148	; 0x94
  405850:	990b      	ldr	r1, [sp, #44]	; 0x2c
  405852:	980c      	ldr	r0, [sp, #48]	; 0x30
  405854:	f001 ffea 	bl	40782c <__ssprint_r>
  405858:	2800      	cmp	r0, #0
  40585a:	f47e af51 	bne.w	404700 <_svfprintf_r+0x1a4>
  40585e:	991f      	ldr	r1, [sp, #124]	; 0x7c
  405860:	9a27      	ldr	r2, [sp, #156]	; 0x9c
  405862:	9b26      	ldr	r3, [sp, #152]	; 0x98
  405864:	46c8      	mov	r8, r9
  405866:	e667      	b.n	405538 <_svfprintf_r+0xfdc>
  405868:	2000      	movs	r0, #0
  40586a:	900a      	str	r0, [sp, #40]	; 0x28
  40586c:	f7fe bed0 	b.w	404610 <_svfprintf_r+0xb4>
  405870:	3301      	adds	r3, #1
  405872:	443a      	add	r2, r7
  405874:	2b07      	cmp	r3, #7
  405876:	e888 00a0 	stmia.w	r8, {r5, r7}
  40587a:	9227      	str	r2, [sp, #156]	; 0x9c
  40587c:	9326      	str	r3, [sp, #152]	; 0x98
  40587e:	f108 0808 	add.w	r8, r8, #8
  405882:	f77f ae5c 	ble.w	40553e <_svfprintf_r+0xfe2>
  405886:	aa25      	add	r2, sp, #148	; 0x94
  405888:	990b      	ldr	r1, [sp, #44]	; 0x2c
  40588a:	980c      	ldr	r0, [sp, #48]	; 0x30
  40588c:	f001 ffce 	bl	40782c <__ssprint_r>
  405890:	2800      	cmp	r0, #0
  405892:	f47e af35 	bne.w	404700 <_svfprintf_r+0x1a4>
  405896:	9a27      	ldr	r2, [sp, #156]	; 0x9c
  405898:	9b26      	ldr	r3, [sp, #152]	; 0x98
  40589a:	46c8      	mov	r8, r9
  40589c:	e64f      	b.n	40553e <_svfprintf_r+0xfe2>
  40589e:	3330      	adds	r3, #48	; 0x30
  4058a0:	2230      	movs	r2, #48	; 0x30
  4058a2:	f88d 3087 	strb.w	r3, [sp, #135]	; 0x87
  4058a6:	f88d 2086 	strb.w	r2, [sp, #134]	; 0x86
  4058aa:	ab22      	add	r3, sp, #136	; 0x88
  4058ac:	e70f      	b.n	4056ce <_svfprintf_r+0x1172>
  4058ae:	9b12      	ldr	r3, [sp, #72]	; 0x48
  4058b0:	9a19      	ldr	r2, [sp, #100]	; 0x64
  4058b2:	4413      	add	r3, r2
  4058b4:	930e      	str	r3, [sp, #56]	; 0x38
  4058b6:	e775      	b.n	4057a4 <_svfprintf_r+0x1248>
  4058b8:	9b23      	ldr	r3, [sp, #140]	; 0x8c
  4058ba:	e5cb      	b.n	405454 <_svfprintf_r+0xef8>
  4058bc:	9b14      	ldr	r3, [sp, #80]	; 0x50
  4058be:	4e1d      	ldr	r6, [pc, #116]	; (405934 <_svfprintf_r+0x13d8>)
  4058c0:	2b00      	cmp	r3, #0
  4058c2:	bfb6      	itet	lt
  4058c4:	272d      	movlt	r7, #45	; 0x2d
  4058c6:	f89d 7077 	ldrbge.w	r7, [sp, #119]	; 0x77
  4058ca:	f88d 7077 	strblt.w	r7, [sp, #119]	; 0x77
  4058ce:	4b1a      	ldr	r3, [pc, #104]	; (405938 <_svfprintf_r+0x13dc>)
  4058d0:	f7ff ba2f 	b.w	404d32 <_svfprintf_r+0x7d6>
  4058d4:	9a16      	ldr	r2, [sp, #88]	; 0x58
  4058d6:	9808      	ldr	r0, [sp, #32]
  4058d8:	9b17      	ldr	r3, [sp, #92]	; 0x5c
  4058da:	4639      	mov	r1, r7
  4058dc:	f002 f91a 	bl	407b14 <__aeabi_dcmpeq>
  4058e0:	2800      	cmp	r0, #0
  4058e2:	f47f ae7f 	bne.w	4055e4 <_svfprintf_r+0x1088>
  4058e6:	f1c5 0501 	rsb	r5, r5, #1
  4058ea:	951f      	str	r5, [sp, #124]	; 0x7c
  4058ec:	442c      	add	r4, r5
  4058ee:	e59e      	b.n	40542e <_svfprintf_r+0xed2>
  4058f0:	9b12      	ldr	r3, [sp, #72]	; 0x48
  4058f2:	9a19      	ldr	r2, [sp, #100]	; 0x64
  4058f4:	4413      	add	r3, r2
  4058f6:	9a0a      	ldr	r2, [sp, #40]	; 0x28
  4058f8:	441a      	add	r2, r3
  4058fa:	ea22 73e2 	bic.w	r3, r2, r2, asr #31
  4058fe:	920e      	str	r2, [sp, #56]	; 0x38
  405900:	9308      	str	r3, [sp, #32]
  405902:	e5c7      	b.n	405494 <_svfprintf_r+0xf38>
  405904:	9b12      	ldr	r3, [sp, #72]	; 0x48
  405906:	9a0e      	ldr	r2, [sp, #56]	; 0x38
  405908:	f1c3 0301 	rsb	r3, r3, #1
  40590c:	441a      	add	r2, r3
  40590e:	4613      	mov	r3, r2
  405910:	e7d0      	b.n	4058b4 <_svfprintf_r+0x1358>
  405912:	f01b 0301 	ands.w	r3, fp, #1
  405916:	9312      	str	r3, [sp, #72]	; 0x48
  405918:	f47f aee2 	bne.w	4056e0 <_svfprintf_r+0x1184>
  40591c:	9b0e      	ldr	r3, [sp, #56]	; 0x38
  40591e:	ea23 73e3 	bic.w	r3, r3, r3, asr #31
  405922:	9308      	str	r3, [sp, #32]
  405924:	e5b6      	b.n	405494 <_svfprintf_r+0xf38>
  405926:	bf00      	nop
  405928:	66666667 	.word	0x66666667
  40592c:	00407cf0 	.word	0x00407cf0
  405930:	00407d0c 	.word	0x00407d0c
  405934:	00407cc4 	.word	0x00407cc4
  405938:	00407cc0 	.word	0x00407cc0
  40593c:	9b0a      	ldr	r3, [sp, #40]	; 0x28
  40593e:	b913      	cbnz	r3, 405946 <_svfprintf_r+0x13ea>
  405940:	f01b 0f01 	tst.w	fp, #1
  405944:	d002      	beq.n	40594c <_svfprintf_r+0x13f0>
  405946:	9b19      	ldr	r3, [sp, #100]	; 0x64
  405948:	3301      	adds	r3, #1
  40594a:	e7d4      	b.n	4058f6 <_svfprintf_r+0x139a>
  40594c:	2301      	movs	r3, #1
  40594e:	e73a      	b.n	4057c6 <_svfprintf_r+0x126a>
  405950:	9d0f      	ldr	r5, [sp, #60]	; 0x3c
  405952:	f89a 3001 	ldrb.w	r3, [sl, #1]
  405956:	6828      	ldr	r0, [r5, #0]
  405958:	ea40 70e0 	orr.w	r0, r0, r0, asr #31
  40595c:	900a      	str	r0, [sp, #40]	; 0x28
  40595e:	4628      	mov	r0, r5
  405960:	3004      	adds	r0, #4
  405962:	46a2      	mov	sl, r4
  405964:	900f      	str	r0, [sp, #60]	; 0x3c
  405966:	f7fe be51 	b.w	40460c <_svfprintf_r+0xb0>
  40596a:	f88d 1077 	strb.w	r1, [sp, #119]	; 0x77
  40596e:	f7ff b867 	b.w	404a40 <_svfprintf_r+0x4e4>
  405972:	f88d 1077 	strb.w	r1, [sp, #119]	; 0x77
  405976:	f7ff ba15 	b.w	404da4 <_svfprintf_r+0x848>
  40597a:	f10d 0386 	add.w	r3, sp, #134	; 0x86
  40597e:	e6a6      	b.n	4056ce <_svfprintf_r+0x1172>
  405980:	f88d 1077 	strb.w	r1, [sp, #119]	; 0x77
  405984:	f7ff b8eb 	b.w	404b5e <_svfprintf_r+0x602>
  405988:	9a0c      	ldr	r2, [sp, #48]	; 0x30
  40598a:	230c      	movs	r3, #12
  40598c:	6013      	str	r3, [r2, #0]
  40598e:	f04f 33ff 	mov.w	r3, #4294967295
  405992:	9309      	str	r3, [sp, #36]	; 0x24
  405994:	f7fe bebd 	b.w	404712 <_svfprintf_r+0x1b6>
  405998:	f88d 1077 	strb.w	r1, [sp, #119]	; 0x77
  40599c:	f7ff b99a 	b.w	404cd4 <_svfprintf_r+0x778>
  4059a0:	f88d 1077 	strb.w	r1, [sp, #119]	; 0x77
  4059a4:	f7ff b976 	b.w	404c94 <_svfprintf_r+0x738>
  4059a8:	f88d 1077 	strb.w	r1, [sp, #119]	; 0x77
  4059ac:	f7ff b959 	b.w	404c62 <_svfprintf_r+0x706>
  4059b0:	f88d 1077 	strb.w	r1, [sp, #119]	; 0x77
  4059b4:	f7ff b912 	b.w	404bdc <_svfprintf_r+0x680>

004059b8 <register_fini>:
  4059b8:	4b02      	ldr	r3, [pc, #8]	; (4059c4 <register_fini+0xc>)
  4059ba:	b113      	cbz	r3, 4059c2 <register_fini+0xa>
  4059bc:	4802      	ldr	r0, [pc, #8]	; (4059c8 <register_fini+0x10>)
  4059be:	f000 b805 	b.w	4059cc <atexit>
  4059c2:	4770      	bx	lr
  4059c4:	00000000 	.word	0x00000000
  4059c8:	00406955 	.word	0x00406955

004059cc <atexit>:
  4059cc:	2300      	movs	r3, #0
  4059ce:	4601      	mov	r1, r0
  4059d0:	461a      	mov	r2, r3
  4059d2:	4618      	mov	r0, r3
  4059d4:	f001 bfb6 	b.w	407944 <__register_exitproc>

004059d8 <quorem>:
  4059d8:	6902      	ldr	r2, [r0, #16]
  4059da:	690b      	ldr	r3, [r1, #16]
  4059dc:	4293      	cmp	r3, r2
  4059de:	f300 808d 	bgt.w	405afc <quorem+0x124>
  4059e2:	e92d 4ff0 	stmdb	sp!, {r4, r5, r6, r7, r8, r9, sl, fp, lr}
  4059e6:	f103 38ff 	add.w	r8, r3, #4294967295
  4059ea:	f101 0714 	add.w	r7, r1, #20
  4059ee:	f100 0b14 	add.w	fp, r0, #20
  4059f2:	f857 2028 	ldr.w	r2, [r7, r8, lsl #2]
  4059f6:	f85b 3028 	ldr.w	r3, [fp, r8, lsl #2]
  4059fa:	ea4f 0488 	mov.w	r4, r8, lsl #2
  4059fe:	b083      	sub	sp, #12
  405a00:	3201      	adds	r2, #1
  405a02:	fbb3 f9f2 	udiv	r9, r3, r2
  405a06:	eb0b 0304 	add.w	r3, fp, r4
  405a0a:	9400      	str	r4, [sp, #0]
  405a0c:	eb07 0a04 	add.w	sl, r7, r4
  405a10:	9301      	str	r3, [sp, #4]
  405a12:	f1b9 0f00 	cmp.w	r9, #0
  405a16:	d039      	beq.n	405a8c <quorem+0xb4>
  405a18:	2500      	movs	r5, #0
  405a1a:	462e      	mov	r6, r5
  405a1c:	46bc      	mov	ip, r7
  405a1e:	46de      	mov	lr, fp
  405a20:	f85c 4b04 	ldr.w	r4, [ip], #4
  405a24:	f8de 3000 	ldr.w	r3, [lr]
  405a28:	b2a2      	uxth	r2, r4
  405a2a:	fb09 5502 	mla	r5, r9, r2, r5
  405a2e:	0c22      	lsrs	r2, r4, #16
  405a30:	0c2c      	lsrs	r4, r5, #16
  405a32:	fb09 4202 	mla	r2, r9, r2, r4
  405a36:	b2ad      	uxth	r5, r5
  405a38:	1b75      	subs	r5, r6, r5
  405a3a:	b296      	uxth	r6, r2
  405a3c:	ebc6 4613 	rsb	r6, r6, r3, lsr #16
  405a40:	fa15 f383 	uxtah	r3, r5, r3
  405a44:	eb06 4623 	add.w	r6, r6, r3, asr #16
  405a48:	b29b      	uxth	r3, r3
  405a4a:	ea43 4306 	orr.w	r3, r3, r6, lsl #16
  405a4e:	45e2      	cmp	sl, ip
  405a50:	ea4f 4512 	mov.w	r5, r2, lsr #16
  405a54:	f84e 3b04 	str.w	r3, [lr], #4
  405a58:	ea4f 4626 	mov.w	r6, r6, asr #16
  405a5c:	d2e0      	bcs.n	405a20 <quorem+0x48>
  405a5e:	9b00      	ldr	r3, [sp, #0]
  405a60:	f85b 3003 	ldr.w	r3, [fp, r3]
  405a64:	b993      	cbnz	r3, 405a8c <quorem+0xb4>
  405a66:	9c01      	ldr	r4, [sp, #4]
  405a68:	1f23      	subs	r3, r4, #4
  405a6a:	459b      	cmp	fp, r3
  405a6c:	d20c      	bcs.n	405a88 <quorem+0xb0>
  405a6e:	f854 3c04 	ldr.w	r3, [r4, #-4]
  405a72:	b94b      	cbnz	r3, 405a88 <quorem+0xb0>
  405a74:	f1a4 0308 	sub.w	r3, r4, #8
  405a78:	e002      	b.n	405a80 <quorem+0xa8>
  405a7a:	681a      	ldr	r2, [r3, #0]
  405a7c:	3b04      	subs	r3, #4
  405a7e:	b91a      	cbnz	r2, 405a88 <quorem+0xb0>
  405a80:	459b      	cmp	fp, r3
  405a82:	f108 38ff 	add.w	r8, r8, #4294967295
  405a86:	d3f8      	bcc.n	405a7a <quorem+0xa2>
  405a88:	f8c0 8010 	str.w	r8, [r0, #16]
  405a8c:	4604      	mov	r4, r0
  405a8e:	f001 fc2b 	bl	4072e8 <__mcmp>
  405a92:	2800      	cmp	r0, #0
  405a94:	db2e      	blt.n	405af4 <quorem+0x11c>
  405a96:	f109 0901 	add.w	r9, r9, #1
  405a9a:	465d      	mov	r5, fp
  405a9c:	2300      	movs	r3, #0
  405a9e:	f857 1b04 	ldr.w	r1, [r7], #4
  405aa2:	6828      	ldr	r0, [r5, #0]
  405aa4:	b28a      	uxth	r2, r1
  405aa6:	1a9a      	subs	r2, r3, r2
  405aa8:	0c0b      	lsrs	r3, r1, #16
  405aaa:	fa12 f280 	uxtah	r2, r2, r0
  405aae:	ebc3 4310 	rsb	r3, r3, r0, lsr #16
  405ab2:	eb03 4322 	add.w	r3, r3, r2, asr #16
  405ab6:	b292      	uxth	r2, r2
  405ab8:	ea42 4203 	orr.w	r2, r2, r3, lsl #16
  405abc:	45ba      	cmp	sl, r7
  405abe:	f845 2b04 	str.w	r2, [r5], #4
  405ac2:	ea4f 4323 	mov.w	r3, r3, asr #16
  405ac6:	d2ea      	bcs.n	405a9e <quorem+0xc6>
  405ac8:	f85b 2028 	ldr.w	r2, [fp, r8, lsl #2]
  405acc:	eb0b 0388 	add.w	r3, fp, r8, lsl #2
  405ad0:	b982      	cbnz	r2, 405af4 <quorem+0x11c>
  405ad2:	1f1a      	subs	r2, r3, #4
  405ad4:	4593      	cmp	fp, r2
  405ad6:	d20b      	bcs.n	405af0 <quorem+0x118>
  405ad8:	f853 2c04 	ldr.w	r2, [r3, #-4]
  405adc:	b942      	cbnz	r2, 405af0 <quorem+0x118>
  405ade:	3b08      	subs	r3, #8
  405ae0:	e002      	b.n	405ae8 <quorem+0x110>
  405ae2:	681a      	ldr	r2, [r3, #0]
  405ae4:	3b04      	subs	r3, #4
  405ae6:	b91a      	cbnz	r2, 405af0 <quorem+0x118>
  405ae8:	459b      	cmp	fp, r3
  405aea:	f108 38ff 	add.w	r8, r8, #4294967295
  405aee:	d3f8      	bcc.n	405ae2 <quorem+0x10a>
  405af0:	f8c4 8010 	str.w	r8, [r4, #16]
  405af4:	4648      	mov	r0, r9
  405af6:	b003      	add	sp, #12
  405af8:	e8bd 8ff0 	ldmia.w	sp!, {r4, r5, r6, r7, r8, r9, sl, fp, pc}
  405afc:	2000      	movs	r0, #0
  405afe:	4770      	bx	lr

00405b00 <_dtoa_r>:
  405b00:	e92d 4ff0 	stmdb	sp!, {r4, r5, r6, r7, r8, r9, sl, fp, lr}
  405b04:	6c01      	ldr	r1, [r0, #64]	; 0x40
  405b06:	b09b      	sub	sp, #108	; 0x6c
  405b08:	4604      	mov	r4, r0
  405b0a:	9e27      	ldr	r6, [sp, #156]	; 0x9c
  405b0c:	4692      	mov	sl, r2
  405b0e:	469b      	mov	fp, r3
  405b10:	b141      	cbz	r1, 405b24 <_dtoa_r+0x24>
  405b12:	6c42      	ldr	r2, [r0, #68]	; 0x44
  405b14:	604a      	str	r2, [r1, #4]
  405b16:	2301      	movs	r3, #1
  405b18:	4093      	lsls	r3, r2
  405b1a:	608b      	str	r3, [r1, #8]
  405b1c:	f001 fa0c 	bl	406f38 <_Bfree>
  405b20:	2300      	movs	r3, #0
  405b22:	6423      	str	r3, [r4, #64]	; 0x40
  405b24:	f1bb 0f00 	cmp.w	fp, #0
  405b28:	465d      	mov	r5, fp
  405b2a:	db35      	blt.n	405b98 <_dtoa_r+0x98>
  405b2c:	2300      	movs	r3, #0
  405b2e:	6033      	str	r3, [r6, #0]
  405b30:	4b9d      	ldr	r3, [pc, #628]	; (405da8 <_dtoa_r+0x2a8>)
  405b32:	43ab      	bics	r3, r5
  405b34:	d015      	beq.n	405b62 <_dtoa_r+0x62>
  405b36:	4650      	mov	r0, sl
  405b38:	4659      	mov	r1, fp
  405b3a:	2200      	movs	r2, #0
  405b3c:	2300      	movs	r3, #0
  405b3e:	f001 ffe9 	bl	407b14 <__aeabi_dcmpeq>
  405b42:	4680      	mov	r8, r0
  405b44:	2800      	cmp	r0, #0
  405b46:	d02d      	beq.n	405ba4 <_dtoa_r+0xa4>
  405b48:	9a26      	ldr	r2, [sp, #152]	; 0x98
  405b4a:	2301      	movs	r3, #1
  405b4c:	6013      	str	r3, [r2, #0]
  405b4e:	9b28      	ldr	r3, [sp, #160]	; 0xa0
  405b50:	2b00      	cmp	r3, #0
  405b52:	f000 80bd 	beq.w	405cd0 <_dtoa_r+0x1d0>
  405b56:	4895      	ldr	r0, [pc, #596]	; (405dac <_dtoa_r+0x2ac>)
  405b58:	6018      	str	r0, [r3, #0]
  405b5a:	3801      	subs	r0, #1
  405b5c:	b01b      	add	sp, #108	; 0x6c
  405b5e:	e8bd 8ff0 	ldmia.w	sp!, {r4, r5, r6, r7, r8, r9, sl, fp, pc}
  405b62:	9a26      	ldr	r2, [sp, #152]	; 0x98
  405b64:	f242 730f 	movw	r3, #9999	; 0x270f
  405b68:	6013      	str	r3, [r2, #0]
  405b6a:	f1ba 0f00 	cmp.w	sl, #0
  405b6e:	d10d      	bne.n	405b8c <_dtoa_r+0x8c>
  405b70:	f3c5 0513 	ubfx	r5, r5, #0, #20
  405b74:	b955      	cbnz	r5, 405b8c <_dtoa_r+0x8c>
  405b76:	9b28      	ldr	r3, [sp, #160]	; 0xa0
  405b78:	488d      	ldr	r0, [pc, #564]	; (405db0 <_dtoa_r+0x2b0>)
  405b7a:	2b00      	cmp	r3, #0
  405b7c:	d0ee      	beq.n	405b5c <_dtoa_r+0x5c>
  405b7e:	f100 0308 	add.w	r3, r0, #8
  405b82:	9a28      	ldr	r2, [sp, #160]	; 0xa0
  405b84:	6013      	str	r3, [r2, #0]
  405b86:	b01b      	add	sp, #108	; 0x6c
  405b88:	e8bd 8ff0 	ldmia.w	sp!, {r4, r5, r6, r7, r8, r9, sl, fp, pc}
  405b8c:	9b28      	ldr	r3, [sp, #160]	; 0xa0
  405b8e:	4889      	ldr	r0, [pc, #548]	; (405db4 <_dtoa_r+0x2b4>)
  405b90:	2b00      	cmp	r3, #0
  405b92:	d0e3      	beq.n	405b5c <_dtoa_r+0x5c>
  405b94:	1cc3      	adds	r3, r0, #3
  405b96:	e7f4      	b.n	405b82 <_dtoa_r+0x82>
  405b98:	2301      	movs	r3, #1
  405b9a:	f02b 4500 	bic.w	r5, fp, #2147483648	; 0x80000000
  405b9e:	6033      	str	r3, [r6, #0]
  405ba0:	46ab      	mov	fp, r5
  405ba2:	e7c5      	b.n	405b30 <_dtoa_r+0x30>
  405ba4:	aa18      	add	r2, sp, #96	; 0x60
  405ba6:	ab19      	add	r3, sp, #100	; 0x64
  405ba8:	9201      	str	r2, [sp, #4]
  405baa:	9300      	str	r3, [sp, #0]
  405bac:	4652      	mov	r2, sl
  405bae:	465b      	mov	r3, fp
  405bb0:	4620      	mov	r0, r4
  405bb2:	f001 fc39 	bl	407428 <__d2b>
  405bb6:	0d2b      	lsrs	r3, r5, #20
  405bb8:	4681      	mov	r9, r0
  405bba:	d071      	beq.n	405ca0 <_dtoa_r+0x1a0>
  405bbc:	f3cb 0213 	ubfx	r2, fp, #0, #20
  405bc0:	f042 517f 	orr.w	r1, r2, #1069547520	; 0x3fc00000
  405bc4:	9f18      	ldr	r7, [sp, #96]	; 0x60
  405bc6:	f8cd 8050 	str.w	r8, [sp, #80]	; 0x50
  405bca:	4650      	mov	r0, sl
  405bcc:	f2a3 36ff 	subw	r6, r3, #1023	; 0x3ff
  405bd0:	f441 1140 	orr.w	r1, r1, #3145728	; 0x300000
  405bd4:	2200      	movs	r2, #0
  405bd6:	4b78      	ldr	r3, [pc, #480]	; (405db8 <_dtoa_r+0x2b8>)
  405bd8:	f7fd fb68 	bl	4032ac <__aeabi_dsub>
  405bdc:	a36c      	add	r3, pc, #432	; (adr r3, 405d90 <_dtoa_r+0x290>)
  405bde:	e9d3 2300 	ldrd	r2, r3, [r3]
  405be2:	f7fd fd17 	bl	403614 <__aeabi_dmul>
  405be6:	a36c      	add	r3, pc, #432	; (adr r3, 405d98 <_dtoa_r+0x298>)
  405be8:	e9d3 2300 	ldrd	r2, r3, [r3]
  405bec:	f7fd fb60 	bl	4032b0 <__adddf3>
  405bf0:	e9cd 0102 	strd	r0, r1, [sp, #8]
  405bf4:	4630      	mov	r0, r6
  405bf6:	f7fd fca7 	bl	403548 <__aeabi_i2d>
  405bfa:	a369      	add	r3, pc, #420	; (adr r3, 405da0 <_dtoa_r+0x2a0>)
  405bfc:	e9d3 2300 	ldrd	r2, r3, [r3]
  405c00:	f7fd fd08 	bl	403614 <__aeabi_dmul>
  405c04:	4602      	mov	r2, r0
  405c06:	460b      	mov	r3, r1
  405c08:	e9dd 0102 	ldrd	r0, r1, [sp, #8]
  405c0c:	f7fd fb50 	bl	4032b0 <__adddf3>
  405c10:	e9cd 0104 	strd	r0, r1, [sp, #16]
  405c14:	f001 ffc6 	bl	407ba4 <__aeabi_d2iz>
  405c18:	2200      	movs	r2, #0
  405c1a:	9002      	str	r0, [sp, #8]
  405c1c:	2300      	movs	r3, #0
  405c1e:	e9dd 0104 	ldrd	r0, r1, [sp, #16]
  405c22:	f001 ff81 	bl	407b28 <__aeabi_dcmplt>
  405c26:	2800      	cmp	r0, #0
  405c28:	f040 8173 	bne.w	405f12 <_dtoa_r+0x412>
  405c2c:	9d02      	ldr	r5, [sp, #8]
  405c2e:	2d16      	cmp	r5, #22
  405c30:	f200 815d 	bhi.w	405eee <_dtoa_r+0x3ee>
  405c34:	4b61      	ldr	r3, [pc, #388]	; (405dbc <_dtoa_r+0x2bc>)
  405c36:	eb03 03c5 	add.w	r3, r3, r5, lsl #3
  405c3a:	e9d3 0100 	ldrd	r0, r1, [r3]
  405c3e:	4652      	mov	r2, sl
  405c40:	465b      	mov	r3, fp
  405c42:	f001 ff8f 	bl	407b64 <__aeabi_dcmpgt>
  405c46:	2800      	cmp	r0, #0
  405c48:	f000 81c5 	beq.w	405fd6 <_dtoa_r+0x4d6>
  405c4c:	1e6b      	subs	r3, r5, #1
  405c4e:	9302      	str	r3, [sp, #8]
  405c50:	2300      	movs	r3, #0
  405c52:	930e      	str	r3, [sp, #56]	; 0x38
  405c54:	1bbf      	subs	r7, r7, r6
  405c56:	1e7b      	subs	r3, r7, #1
  405c58:	9306      	str	r3, [sp, #24]
  405c5a:	f100 8154 	bmi.w	405f06 <_dtoa_r+0x406>
  405c5e:	2300      	movs	r3, #0
  405c60:	9308      	str	r3, [sp, #32]
  405c62:	9b02      	ldr	r3, [sp, #8]
  405c64:	2b00      	cmp	r3, #0
  405c66:	f2c0 8145 	blt.w	405ef4 <_dtoa_r+0x3f4>
  405c6a:	9a06      	ldr	r2, [sp, #24]
  405c6c:	930d      	str	r3, [sp, #52]	; 0x34
  405c6e:	4611      	mov	r1, r2
  405c70:	4419      	add	r1, r3
  405c72:	2300      	movs	r3, #0
  405c74:	9106      	str	r1, [sp, #24]
  405c76:	930c      	str	r3, [sp, #48]	; 0x30
  405c78:	9b24      	ldr	r3, [sp, #144]	; 0x90
  405c7a:	2b09      	cmp	r3, #9
  405c7c:	d82a      	bhi.n	405cd4 <_dtoa_r+0x1d4>
  405c7e:	2b05      	cmp	r3, #5
  405c80:	f340 865b 	ble.w	40693a <_dtoa_r+0xe3a>
  405c84:	3b04      	subs	r3, #4
  405c86:	9324      	str	r3, [sp, #144]	; 0x90
  405c88:	2500      	movs	r5, #0
  405c8a:	9b24      	ldr	r3, [sp, #144]	; 0x90
  405c8c:	3b02      	subs	r3, #2
  405c8e:	2b03      	cmp	r3, #3
  405c90:	f200 8642 	bhi.w	406918 <_dtoa_r+0xe18>
  405c94:	e8df f013 	tbh	[pc, r3, lsl #1]
  405c98:	02c903d4 	.word	0x02c903d4
  405c9c:	046103df 	.word	0x046103df
  405ca0:	9f18      	ldr	r7, [sp, #96]	; 0x60
  405ca2:	9e19      	ldr	r6, [sp, #100]	; 0x64
  405ca4:	443e      	add	r6, r7
  405ca6:	f206 4332 	addw	r3, r6, #1074	; 0x432
  405caa:	2b20      	cmp	r3, #32
  405cac:	f340 818e 	ble.w	405fcc <_dtoa_r+0x4cc>
  405cb0:	f1c3 0340 	rsb	r3, r3, #64	; 0x40
  405cb4:	f206 4012 	addw	r0, r6, #1042	; 0x412
  405cb8:	409d      	lsls	r5, r3
  405cba:	fa2a f000 	lsr.w	r0, sl, r0
  405cbe:	4328      	orrs	r0, r5
  405cc0:	f7fd fc32 	bl	403528 <__aeabi_ui2d>
  405cc4:	2301      	movs	r3, #1
  405cc6:	3e01      	subs	r6, #1
  405cc8:	f1a1 71f8 	sub.w	r1, r1, #32505856	; 0x1f00000
  405ccc:	9314      	str	r3, [sp, #80]	; 0x50
  405cce:	e781      	b.n	405bd4 <_dtoa_r+0xd4>
  405cd0:	483b      	ldr	r0, [pc, #236]	; (405dc0 <_dtoa_r+0x2c0>)
  405cd2:	e743      	b.n	405b5c <_dtoa_r+0x5c>
  405cd4:	2100      	movs	r1, #0
  405cd6:	6461      	str	r1, [r4, #68]	; 0x44
  405cd8:	4620      	mov	r0, r4
  405cda:	9125      	str	r1, [sp, #148]	; 0x94
  405cdc:	f001 f906 	bl	406eec <_Balloc>
  405ce0:	f04f 33ff 	mov.w	r3, #4294967295
  405ce4:	930a      	str	r3, [sp, #40]	; 0x28
  405ce6:	9a25      	ldr	r2, [sp, #148]	; 0x94
  405ce8:	930f      	str	r3, [sp, #60]	; 0x3c
  405cea:	2301      	movs	r3, #1
  405cec:	9004      	str	r0, [sp, #16]
  405cee:	6420      	str	r0, [r4, #64]	; 0x40
  405cf0:	9224      	str	r2, [sp, #144]	; 0x90
  405cf2:	930b      	str	r3, [sp, #44]	; 0x2c
  405cf4:	9b19      	ldr	r3, [sp, #100]	; 0x64
  405cf6:	2b00      	cmp	r3, #0
  405cf8:	f2c0 80d9 	blt.w	405eae <_dtoa_r+0x3ae>
  405cfc:	9a02      	ldr	r2, [sp, #8]
  405cfe:	2a0e      	cmp	r2, #14
  405d00:	f300 80d5 	bgt.w	405eae <_dtoa_r+0x3ae>
  405d04:	4b2d      	ldr	r3, [pc, #180]	; (405dbc <_dtoa_r+0x2bc>)
  405d06:	eb03 03c2 	add.w	r3, r3, r2, lsl #3
  405d0a:	e9d3 2300 	ldrd	r2, r3, [r3]
  405d0e:	e9cd 2308 	strd	r2, r3, [sp, #32]
  405d12:	9b25      	ldr	r3, [sp, #148]	; 0x94
  405d14:	2b00      	cmp	r3, #0
  405d16:	f2c0 83ba 	blt.w	40648e <_dtoa_r+0x98e>
  405d1a:	e9dd 5608 	ldrd	r5, r6, [sp, #32]
  405d1e:	4650      	mov	r0, sl
  405d20:	462a      	mov	r2, r5
  405d22:	4633      	mov	r3, r6
  405d24:	4659      	mov	r1, fp
  405d26:	f7fd fd9f 	bl	403868 <__aeabi_ddiv>
  405d2a:	f001 ff3b 	bl	407ba4 <__aeabi_d2iz>
  405d2e:	4680      	mov	r8, r0
  405d30:	f7fd fc0a 	bl	403548 <__aeabi_i2d>
  405d34:	462a      	mov	r2, r5
  405d36:	4633      	mov	r3, r6
  405d38:	f7fd fc6c 	bl	403614 <__aeabi_dmul>
  405d3c:	460b      	mov	r3, r1
  405d3e:	4602      	mov	r2, r0
  405d40:	4659      	mov	r1, fp
  405d42:	4650      	mov	r0, sl
  405d44:	f7fd fab2 	bl	4032ac <__aeabi_dsub>
  405d48:	9d04      	ldr	r5, [sp, #16]
  405d4a:	f108 0330 	add.w	r3, r8, #48	; 0x30
  405d4e:	702b      	strb	r3, [r5, #0]
  405d50:	9b0a      	ldr	r3, [sp, #40]	; 0x28
  405d52:	2b01      	cmp	r3, #1
  405d54:	4606      	mov	r6, r0
  405d56:	460f      	mov	r7, r1
  405d58:	f105 0501 	add.w	r5, r5, #1
  405d5c:	d068      	beq.n	405e30 <_dtoa_r+0x330>
  405d5e:	2200      	movs	r2, #0
  405d60:	4b18      	ldr	r3, [pc, #96]	; (405dc4 <_dtoa_r+0x2c4>)
  405d62:	f7fd fc57 	bl	403614 <__aeabi_dmul>
  405d66:	2200      	movs	r2, #0
  405d68:	2300      	movs	r3, #0
  405d6a:	4606      	mov	r6, r0
  405d6c:	460f      	mov	r7, r1
  405d6e:	f001 fed1 	bl	407b14 <__aeabi_dcmpeq>
  405d72:	2800      	cmp	r0, #0
  405d74:	f040 8088 	bne.w	405e88 <_dtoa_r+0x388>
  405d78:	f8cd 902c 	str.w	r9, [sp, #44]	; 0x2c
  405d7c:	f04f 0a00 	mov.w	sl, #0
  405d80:	f8df b040 	ldr.w	fp, [pc, #64]	; 405dc4 <_dtoa_r+0x2c4>
  405d84:	940c      	str	r4, [sp, #48]	; 0x30
  405d86:	e9dd 8908 	ldrd	r8, r9, [sp, #32]
  405d8a:	e028      	b.n	405dde <_dtoa_r+0x2de>
  405d8c:	f3af 8000 	nop.w
  405d90:	636f4361 	.word	0x636f4361
  405d94:	3fd287a7 	.word	0x3fd287a7
  405d98:	8b60c8b3 	.word	0x8b60c8b3
  405d9c:	3fc68a28 	.word	0x3fc68a28
  405da0:	509f79fb 	.word	0x509f79fb
  405da4:	3fd34413 	.word	0x3fd34413
  405da8:	7ff00000 	.word	0x7ff00000
  405dac:	00407cf9 	.word	0x00407cf9
  405db0:	00407d1c 	.word	0x00407d1c
  405db4:	00407d28 	.word	0x00407d28
  405db8:	3ff80000 	.word	0x3ff80000
  405dbc:	00407d68 	.word	0x00407d68
  405dc0:	00407cf8 	.word	0x00407cf8
  405dc4:	40240000 	.word	0x40240000
  405dc8:	f7fd fc24 	bl	403614 <__aeabi_dmul>
  405dcc:	2200      	movs	r2, #0
  405dce:	2300      	movs	r3, #0
  405dd0:	4606      	mov	r6, r0
  405dd2:	460f      	mov	r7, r1
  405dd4:	f001 fe9e 	bl	407b14 <__aeabi_dcmpeq>
  405dd8:	2800      	cmp	r0, #0
  405dda:	f040 83c1 	bne.w	406560 <_dtoa_r+0xa60>
  405dde:	4642      	mov	r2, r8
  405de0:	464b      	mov	r3, r9
  405de2:	4630      	mov	r0, r6
  405de4:	4639      	mov	r1, r7
  405de6:	f7fd fd3f 	bl	403868 <__aeabi_ddiv>
  405dea:	f001 fedb 	bl	407ba4 <__aeabi_d2iz>
  405dee:	4604      	mov	r4, r0
  405df0:	f7fd fbaa 	bl	403548 <__aeabi_i2d>
  405df4:	4642      	mov	r2, r8
  405df6:	464b      	mov	r3, r9
  405df8:	f7fd fc0c 	bl	403614 <__aeabi_dmul>
  405dfc:	4602      	mov	r2, r0
  405dfe:	460b      	mov	r3, r1
  405e00:	4630      	mov	r0, r6
  405e02:	4639      	mov	r1, r7
  405e04:	f7fd fa52 	bl	4032ac <__aeabi_dsub>
  405e08:	f104 0e30 	add.w	lr, r4, #48	; 0x30
  405e0c:	9e04      	ldr	r6, [sp, #16]
  405e0e:	f805 eb01 	strb.w	lr, [r5], #1
  405e12:	eba5 0e06 	sub.w	lr, r5, r6
  405e16:	9e0a      	ldr	r6, [sp, #40]	; 0x28
  405e18:	45b6      	cmp	lr, r6
  405e1a:	e9cd 0106 	strd	r0, r1, [sp, #24]
  405e1e:	4652      	mov	r2, sl
  405e20:	465b      	mov	r3, fp
  405e22:	d1d1      	bne.n	405dc8 <_dtoa_r+0x2c8>
  405e24:	46a0      	mov	r8, r4
  405e26:	f8dd 902c 	ldr.w	r9, [sp, #44]	; 0x2c
  405e2a:	9c0c      	ldr	r4, [sp, #48]	; 0x30
  405e2c:	4606      	mov	r6, r0
  405e2e:	460f      	mov	r7, r1
  405e30:	4632      	mov	r2, r6
  405e32:	463b      	mov	r3, r7
  405e34:	4630      	mov	r0, r6
  405e36:	4639      	mov	r1, r7
  405e38:	f7fd fa3a 	bl	4032b0 <__adddf3>
  405e3c:	4606      	mov	r6, r0
  405e3e:	460f      	mov	r7, r1
  405e40:	4602      	mov	r2, r0
  405e42:	460b      	mov	r3, r1
  405e44:	e9dd 0108 	ldrd	r0, r1, [sp, #32]
  405e48:	f001 fe6e 	bl	407b28 <__aeabi_dcmplt>
  405e4c:	b948      	cbnz	r0, 405e62 <_dtoa_r+0x362>
  405e4e:	4632      	mov	r2, r6
  405e50:	463b      	mov	r3, r7
  405e52:	e9dd 0108 	ldrd	r0, r1, [sp, #32]
  405e56:	f001 fe5d 	bl	407b14 <__aeabi_dcmpeq>
  405e5a:	b1a8      	cbz	r0, 405e88 <_dtoa_r+0x388>
  405e5c:	f018 0f01 	tst.w	r8, #1
  405e60:	d012      	beq.n	405e88 <_dtoa_r+0x388>
  405e62:	f815 8c01 	ldrb.w	r8, [r5, #-1]
  405e66:	9a04      	ldr	r2, [sp, #16]
  405e68:	1e6b      	subs	r3, r5, #1
  405e6a:	e004      	b.n	405e76 <_dtoa_r+0x376>
  405e6c:	429a      	cmp	r2, r3
  405e6e:	f000 8401 	beq.w	406674 <_dtoa_r+0xb74>
  405e72:	f813 8d01 	ldrb.w	r8, [r3, #-1]!
  405e76:	f1b8 0f39 	cmp.w	r8, #57	; 0x39
  405e7a:	f103 0501 	add.w	r5, r3, #1
  405e7e:	d0f5      	beq.n	405e6c <_dtoa_r+0x36c>
  405e80:	f108 0801 	add.w	r8, r8, #1
  405e84:	f883 8000 	strb.w	r8, [r3]
  405e88:	4649      	mov	r1, r9
  405e8a:	4620      	mov	r0, r4
  405e8c:	f001 f854 	bl	406f38 <_Bfree>
  405e90:	2200      	movs	r2, #0
  405e92:	9b02      	ldr	r3, [sp, #8]
  405e94:	702a      	strb	r2, [r5, #0]
  405e96:	9a26      	ldr	r2, [sp, #152]	; 0x98
  405e98:	3301      	adds	r3, #1
  405e9a:	6013      	str	r3, [r2, #0]
  405e9c:	9b28      	ldr	r3, [sp, #160]	; 0xa0
  405e9e:	2b00      	cmp	r3, #0
  405ea0:	f000 839e 	beq.w	4065e0 <_dtoa_r+0xae0>
  405ea4:	9804      	ldr	r0, [sp, #16]
  405ea6:	601d      	str	r5, [r3, #0]
  405ea8:	b01b      	add	sp, #108	; 0x6c
  405eaa:	e8bd 8ff0 	ldmia.w	sp!, {r4, r5, r6, r7, r8, r9, sl, fp, pc}
  405eae:	9a0b      	ldr	r2, [sp, #44]	; 0x2c
  405eb0:	2a00      	cmp	r2, #0
  405eb2:	d03e      	beq.n	405f32 <_dtoa_r+0x432>
  405eb4:	9a24      	ldr	r2, [sp, #144]	; 0x90
  405eb6:	2a01      	cmp	r2, #1
  405eb8:	f340 8311 	ble.w	4064de <_dtoa_r+0x9de>
  405ebc:	9b0a      	ldr	r3, [sp, #40]	; 0x28
  405ebe:	9a0c      	ldr	r2, [sp, #48]	; 0x30
  405ec0:	1e5f      	subs	r7, r3, #1
  405ec2:	42ba      	cmp	r2, r7
  405ec4:	f2c0 838f 	blt.w	4065e6 <_dtoa_r+0xae6>
  405ec8:	1bd7      	subs	r7, r2, r7
  405eca:	9b0a      	ldr	r3, [sp, #40]	; 0x28
  405ecc:	2b00      	cmp	r3, #0
  405ece:	f2c0 848b 	blt.w	4067e8 <_dtoa_r+0xce8>
  405ed2:	9d08      	ldr	r5, [sp, #32]
  405ed4:	9b0a      	ldr	r3, [sp, #40]	; 0x28
  405ed6:	9a08      	ldr	r2, [sp, #32]
  405ed8:	441a      	add	r2, r3
  405eda:	9208      	str	r2, [sp, #32]
  405edc:	9a06      	ldr	r2, [sp, #24]
  405ede:	2101      	movs	r1, #1
  405ee0:	441a      	add	r2, r3
  405ee2:	4620      	mov	r0, r4
  405ee4:	9206      	str	r2, [sp, #24]
  405ee6:	f001 f8c1 	bl	40706c <__i2b>
  405eea:	4606      	mov	r6, r0
  405eec:	e024      	b.n	405f38 <_dtoa_r+0x438>
  405eee:	2301      	movs	r3, #1
  405ef0:	930e      	str	r3, [sp, #56]	; 0x38
  405ef2:	e6af      	b.n	405c54 <_dtoa_r+0x154>
  405ef4:	9a08      	ldr	r2, [sp, #32]
  405ef6:	9b02      	ldr	r3, [sp, #8]
  405ef8:	1ad2      	subs	r2, r2, r3
  405efa:	425b      	negs	r3, r3
  405efc:	930c      	str	r3, [sp, #48]	; 0x30
  405efe:	2300      	movs	r3, #0
  405f00:	9208      	str	r2, [sp, #32]
  405f02:	930d      	str	r3, [sp, #52]	; 0x34
  405f04:	e6b8      	b.n	405c78 <_dtoa_r+0x178>
  405f06:	f1c7 0301 	rsb	r3, r7, #1
  405f0a:	9308      	str	r3, [sp, #32]
  405f0c:	2300      	movs	r3, #0
  405f0e:	9306      	str	r3, [sp, #24]
  405f10:	e6a7      	b.n	405c62 <_dtoa_r+0x162>
  405f12:	9d02      	ldr	r5, [sp, #8]
  405f14:	4628      	mov	r0, r5
  405f16:	f7fd fb17 	bl	403548 <__aeabi_i2d>
  405f1a:	4602      	mov	r2, r0
  405f1c:	460b      	mov	r3, r1
  405f1e:	e9dd 0104 	ldrd	r0, r1, [sp, #16]
  405f22:	f001 fdf7 	bl	407b14 <__aeabi_dcmpeq>
  405f26:	2800      	cmp	r0, #0
  405f28:	f47f ae80 	bne.w	405c2c <_dtoa_r+0x12c>
  405f2c:	1e6b      	subs	r3, r5, #1
  405f2e:	9302      	str	r3, [sp, #8]
  405f30:	e67c      	b.n	405c2c <_dtoa_r+0x12c>
  405f32:	9f0c      	ldr	r7, [sp, #48]	; 0x30
  405f34:	9d08      	ldr	r5, [sp, #32]
  405f36:	9e0b      	ldr	r6, [sp, #44]	; 0x2c
  405f38:	2d00      	cmp	r5, #0
  405f3a:	dd0c      	ble.n	405f56 <_dtoa_r+0x456>
  405f3c:	9906      	ldr	r1, [sp, #24]
  405f3e:	2900      	cmp	r1, #0
  405f40:	460b      	mov	r3, r1
  405f42:	dd08      	ble.n	405f56 <_dtoa_r+0x456>
  405f44:	42a9      	cmp	r1, r5
  405f46:	9a08      	ldr	r2, [sp, #32]
  405f48:	bfa8      	it	ge
  405f4a:	462b      	movge	r3, r5
  405f4c:	1ad2      	subs	r2, r2, r3
  405f4e:	1aed      	subs	r5, r5, r3
  405f50:	1acb      	subs	r3, r1, r3
  405f52:	9208      	str	r2, [sp, #32]
  405f54:	9306      	str	r3, [sp, #24]
  405f56:	9b0c      	ldr	r3, [sp, #48]	; 0x30
  405f58:	b1d3      	cbz	r3, 405f90 <_dtoa_r+0x490>
  405f5a:	9b0b      	ldr	r3, [sp, #44]	; 0x2c
  405f5c:	2b00      	cmp	r3, #0
  405f5e:	f000 82b7 	beq.w	4064d0 <_dtoa_r+0x9d0>
  405f62:	2f00      	cmp	r7, #0
  405f64:	dd10      	ble.n	405f88 <_dtoa_r+0x488>
  405f66:	4631      	mov	r1, r6
  405f68:	463a      	mov	r2, r7
  405f6a:	4620      	mov	r0, r4
  405f6c:	f001 f91a 	bl	4071a4 <__pow5mult>
  405f70:	464a      	mov	r2, r9
  405f72:	4601      	mov	r1, r0
  405f74:	4606      	mov	r6, r0
  405f76:	4620      	mov	r0, r4
  405f78:	f001 f882 	bl	407080 <__multiply>
  405f7c:	4649      	mov	r1, r9
  405f7e:	4680      	mov	r8, r0
  405f80:	4620      	mov	r0, r4
  405f82:	f000 ffd9 	bl	406f38 <_Bfree>
  405f86:	46c1      	mov	r9, r8
  405f88:	9b0c      	ldr	r3, [sp, #48]	; 0x30
  405f8a:	1bda      	subs	r2, r3, r7
  405f8c:	f040 82a1 	bne.w	4064d2 <_dtoa_r+0x9d2>
  405f90:	2101      	movs	r1, #1
  405f92:	4620      	mov	r0, r4
  405f94:	f001 f86a 	bl	40706c <__i2b>
  405f98:	9b0d      	ldr	r3, [sp, #52]	; 0x34
  405f9a:	2b00      	cmp	r3, #0
  405f9c:	4680      	mov	r8, r0
  405f9e:	dd1c      	ble.n	405fda <_dtoa_r+0x4da>
  405fa0:	4601      	mov	r1, r0
  405fa2:	461a      	mov	r2, r3
  405fa4:	4620      	mov	r0, r4
  405fa6:	f001 f8fd 	bl	4071a4 <__pow5mult>
  405faa:	9b24      	ldr	r3, [sp, #144]	; 0x90
  405fac:	2b01      	cmp	r3, #1
  405fae:	4680      	mov	r8, r0
  405fb0:	f340 8254 	ble.w	40645c <_dtoa_r+0x95c>
  405fb4:	2300      	movs	r3, #0
  405fb6:	930c      	str	r3, [sp, #48]	; 0x30
  405fb8:	f8d8 3010 	ldr.w	r3, [r8, #16]
  405fbc:	eb08 0383 	add.w	r3, r8, r3, lsl #2
  405fc0:	6918      	ldr	r0, [r3, #16]
  405fc2:	f001 f803 	bl	406fcc <__hi0bits>
  405fc6:	f1c0 0020 	rsb	r0, r0, #32
  405fca:	e010      	b.n	405fee <_dtoa_r+0x4ee>
  405fcc:	f1c3 0520 	rsb	r5, r3, #32
  405fd0:	fa0a f005 	lsl.w	r0, sl, r5
  405fd4:	e674      	b.n	405cc0 <_dtoa_r+0x1c0>
  405fd6:	900e      	str	r0, [sp, #56]	; 0x38
  405fd8:	e63c      	b.n	405c54 <_dtoa_r+0x154>
  405fda:	9b24      	ldr	r3, [sp, #144]	; 0x90
  405fdc:	2b01      	cmp	r3, #1
  405fde:	f340 8287 	ble.w	4064f0 <_dtoa_r+0x9f0>
  405fe2:	2300      	movs	r3, #0
  405fe4:	930c      	str	r3, [sp, #48]	; 0x30
  405fe6:	9b0d      	ldr	r3, [sp, #52]	; 0x34
  405fe8:	2001      	movs	r0, #1
  405fea:	2b00      	cmp	r3, #0
  405fec:	d1e4      	bne.n	405fb8 <_dtoa_r+0x4b8>
  405fee:	9a06      	ldr	r2, [sp, #24]
  405ff0:	4410      	add	r0, r2
  405ff2:	f010 001f 	ands.w	r0, r0, #31
  405ff6:	f000 80a1 	beq.w	40613c <_dtoa_r+0x63c>
  405ffa:	f1c0 0320 	rsb	r3, r0, #32
  405ffe:	2b04      	cmp	r3, #4
  406000:	f340 849e 	ble.w	406940 <_dtoa_r+0xe40>
  406004:	9b08      	ldr	r3, [sp, #32]
  406006:	f1c0 001c 	rsb	r0, r0, #28
  40600a:	4403      	add	r3, r0
  40600c:	9308      	str	r3, [sp, #32]
  40600e:	4613      	mov	r3, r2
  406010:	4403      	add	r3, r0
  406012:	4405      	add	r5, r0
  406014:	9306      	str	r3, [sp, #24]
  406016:	9b08      	ldr	r3, [sp, #32]
  406018:	2b00      	cmp	r3, #0
  40601a:	dd05      	ble.n	406028 <_dtoa_r+0x528>
  40601c:	4649      	mov	r1, r9
  40601e:	461a      	mov	r2, r3
  406020:	4620      	mov	r0, r4
  406022:	f001 f90f 	bl	407244 <__lshift>
  406026:	4681      	mov	r9, r0
  406028:	9b06      	ldr	r3, [sp, #24]
  40602a:	2b00      	cmp	r3, #0
  40602c:	dd05      	ble.n	40603a <_dtoa_r+0x53a>
  40602e:	4641      	mov	r1, r8
  406030:	461a      	mov	r2, r3
  406032:	4620      	mov	r0, r4
  406034:	f001 f906 	bl	407244 <__lshift>
  406038:	4680      	mov	r8, r0
  40603a:	9b0e      	ldr	r3, [sp, #56]	; 0x38
  40603c:	2b00      	cmp	r3, #0
  40603e:	f040 8086 	bne.w	40614e <_dtoa_r+0x64e>
  406042:	9b0a      	ldr	r3, [sp, #40]	; 0x28
  406044:	2b00      	cmp	r3, #0
  406046:	f340 8266 	ble.w	406516 <_dtoa_r+0xa16>
  40604a:	9b0b      	ldr	r3, [sp, #44]	; 0x2c
  40604c:	2b00      	cmp	r3, #0
  40604e:	f000 8098 	beq.w	406182 <_dtoa_r+0x682>
  406052:	2d00      	cmp	r5, #0
  406054:	dd05      	ble.n	406062 <_dtoa_r+0x562>
  406056:	4631      	mov	r1, r6
  406058:	462a      	mov	r2, r5
  40605a:	4620      	mov	r0, r4
  40605c:	f001 f8f2 	bl	407244 <__lshift>
  406060:	4606      	mov	r6, r0
  406062:	9b0c      	ldr	r3, [sp, #48]	; 0x30
  406064:	2b00      	cmp	r3, #0
  406066:	f040 8337 	bne.w	4066d8 <_dtoa_r+0xbd8>
  40606a:	9606      	str	r6, [sp, #24]
  40606c:	9b0a      	ldr	r3, [sp, #40]	; 0x28
  40606e:	9a04      	ldr	r2, [sp, #16]
  406070:	f8dd b018 	ldr.w	fp, [sp, #24]
  406074:	3b01      	subs	r3, #1
  406076:	18d3      	adds	r3, r2, r3
  406078:	930b      	str	r3, [sp, #44]	; 0x2c
  40607a:	f00a 0301 	and.w	r3, sl, #1
  40607e:	930c      	str	r3, [sp, #48]	; 0x30
  406080:	4617      	mov	r7, r2
  406082:	46c2      	mov	sl, r8
  406084:	4651      	mov	r1, sl
  406086:	4648      	mov	r0, r9
  406088:	f7ff fca6 	bl	4059d8 <quorem>
  40608c:	4631      	mov	r1, r6
  40608e:	4605      	mov	r5, r0
  406090:	4648      	mov	r0, r9
  406092:	f001 f929 	bl	4072e8 <__mcmp>
  406096:	465a      	mov	r2, fp
  406098:	900a      	str	r0, [sp, #40]	; 0x28
  40609a:	4651      	mov	r1, sl
  40609c:	4620      	mov	r0, r4
  40609e:	f001 f93f 	bl	407320 <__mdiff>
  4060a2:	68c2      	ldr	r2, [r0, #12]
  4060a4:	4680      	mov	r8, r0
  4060a6:	f105 0330 	add.w	r3, r5, #48	; 0x30
  4060aa:	2a00      	cmp	r2, #0
  4060ac:	f040 822b 	bne.w	406506 <_dtoa_r+0xa06>
  4060b0:	4601      	mov	r1, r0
  4060b2:	4648      	mov	r0, r9
  4060b4:	9308      	str	r3, [sp, #32]
  4060b6:	f001 f917 	bl	4072e8 <__mcmp>
  4060ba:	4641      	mov	r1, r8
  4060bc:	9006      	str	r0, [sp, #24]
  4060be:	4620      	mov	r0, r4
  4060c0:	f000 ff3a 	bl	406f38 <_Bfree>
  4060c4:	9a06      	ldr	r2, [sp, #24]
  4060c6:	9b08      	ldr	r3, [sp, #32]
  4060c8:	b932      	cbnz	r2, 4060d8 <_dtoa_r+0x5d8>
  4060ca:	9924      	ldr	r1, [sp, #144]	; 0x90
  4060cc:	b921      	cbnz	r1, 4060d8 <_dtoa_r+0x5d8>
  4060ce:	9a0c      	ldr	r2, [sp, #48]	; 0x30
  4060d0:	2a00      	cmp	r2, #0
  4060d2:	f000 83ef 	beq.w	4068b4 <_dtoa_r+0xdb4>
  4060d6:	9a24      	ldr	r2, [sp, #144]	; 0x90
  4060d8:	990a      	ldr	r1, [sp, #40]	; 0x28
  4060da:	2900      	cmp	r1, #0
  4060dc:	f2c0 829f 	blt.w	40661e <_dtoa_r+0xb1e>
  4060e0:	d105      	bne.n	4060ee <_dtoa_r+0x5ee>
  4060e2:	9924      	ldr	r1, [sp, #144]	; 0x90
  4060e4:	b919      	cbnz	r1, 4060ee <_dtoa_r+0x5ee>
  4060e6:	990c      	ldr	r1, [sp, #48]	; 0x30
  4060e8:	2900      	cmp	r1, #0
  4060ea:	f000 8298 	beq.w	40661e <_dtoa_r+0xb1e>
  4060ee:	2a00      	cmp	r2, #0
  4060f0:	f300 8306 	bgt.w	406700 <_dtoa_r+0xc00>
  4060f4:	9a0b      	ldr	r2, [sp, #44]	; 0x2c
  4060f6:	703b      	strb	r3, [r7, #0]
  4060f8:	f107 0801 	add.w	r8, r7, #1
  4060fc:	4297      	cmp	r7, r2
  4060fe:	4645      	mov	r5, r8
  406100:	f000 830c 	beq.w	40671c <_dtoa_r+0xc1c>
  406104:	4649      	mov	r1, r9
  406106:	2300      	movs	r3, #0
  406108:	220a      	movs	r2, #10
  40610a:	4620      	mov	r0, r4
  40610c:	f000 ff1e 	bl	406f4c <__multadd>
  406110:	455e      	cmp	r6, fp
  406112:	4681      	mov	r9, r0
  406114:	4631      	mov	r1, r6
  406116:	f04f 0300 	mov.w	r3, #0
  40611a:	f04f 020a 	mov.w	r2, #10
  40611e:	4620      	mov	r0, r4
  406120:	f000 81eb 	beq.w	4064fa <_dtoa_r+0x9fa>
  406124:	f000 ff12 	bl	406f4c <__multadd>
  406128:	4659      	mov	r1, fp
  40612a:	4606      	mov	r6, r0
  40612c:	2300      	movs	r3, #0
  40612e:	220a      	movs	r2, #10
  406130:	4620      	mov	r0, r4
  406132:	f000 ff0b 	bl	406f4c <__multadd>
  406136:	4647      	mov	r7, r8
  406138:	4683      	mov	fp, r0
  40613a:	e7a3      	b.n	406084 <_dtoa_r+0x584>
  40613c:	201c      	movs	r0, #28
  40613e:	9b08      	ldr	r3, [sp, #32]
  406140:	4403      	add	r3, r0
  406142:	9308      	str	r3, [sp, #32]
  406144:	9b06      	ldr	r3, [sp, #24]
  406146:	4403      	add	r3, r0
  406148:	4405      	add	r5, r0
  40614a:	9306      	str	r3, [sp, #24]
  40614c:	e763      	b.n	406016 <_dtoa_r+0x516>
  40614e:	4641      	mov	r1, r8
  406150:	4648      	mov	r0, r9
  406152:	f001 f8c9 	bl	4072e8 <__mcmp>
  406156:	2800      	cmp	r0, #0
  406158:	f6bf af73 	bge.w	406042 <_dtoa_r+0x542>
  40615c:	9f02      	ldr	r7, [sp, #8]
  40615e:	4649      	mov	r1, r9
  406160:	2300      	movs	r3, #0
  406162:	220a      	movs	r2, #10
  406164:	4620      	mov	r0, r4
  406166:	3f01      	subs	r7, #1
  406168:	9702      	str	r7, [sp, #8]
  40616a:	f000 feef 	bl	406f4c <__multadd>
  40616e:	9b0b      	ldr	r3, [sp, #44]	; 0x2c
  406170:	4681      	mov	r9, r0
  406172:	2b00      	cmp	r3, #0
  406174:	f040 83b6 	bne.w	4068e4 <_dtoa_r+0xde4>
  406178:	9b0f      	ldr	r3, [sp, #60]	; 0x3c
  40617a:	2b00      	cmp	r3, #0
  40617c:	f340 83bf 	ble.w	4068fe <_dtoa_r+0xdfe>
  406180:	930a      	str	r3, [sp, #40]	; 0x28
  406182:	f8dd b010 	ldr.w	fp, [sp, #16]
  406186:	9f0a      	ldr	r7, [sp, #40]	; 0x28
  406188:	465d      	mov	r5, fp
  40618a:	e002      	b.n	406192 <_dtoa_r+0x692>
  40618c:	f000 fede 	bl	406f4c <__multadd>
  406190:	4681      	mov	r9, r0
  406192:	4641      	mov	r1, r8
  406194:	4648      	mov	r0, r9
  406196:	f7ff fc1f 	bl	4059d8 <quorem>
  40619a:	f100 0a30 	add.w	sl, r0, #48	; 0x30
  40619e:	f805 ab01 	strb.w	sl, [r5], #1
  4061a2:	eba5 030b 	sub.w	r3, r5, fp
  4061a6:	42bb      	cmp	r3, r7
  4061a8:	f04f 020a 	mov.w	r2, #10
  4061ac:	f04f 0300 	mov.w	r3, #0
  4061b0:	4649      	mov	r1, r9
  4061b2:	4620      	mov	r0, r4
  4061b4:	dbea      	blt.n	40618c <_dtoa_r+0x68c>
  4061b6:	9b04      	ldr	r3, [sp, #16]
  4061b8:	9a0a      	ldr	r2, [sp, #40]	; 0x28
  4061ba:	2a01      	cmp	r2, #1
  4061bc:	bfac      	ite	ge
  4061be:	189b      	addge	r3, r3, r2
  4061c0:	3301      	addlt	r3, #1
  4061c2:	461d      	mov	r5, r3
  4061c4:	f04f 0b00 	mov.w	fp, #0
  4061c8:	4649      	mov	r1, r9
  4061ca:	2201      	movs	r2, #1
  4061cc:	4620      	mov	r0, r4
  4061ce:	f001 f839 	bl	407244 <__lshift>
  4061d2:	4641      	mov	r1, r8
  4061d4:	4681      	mov	r9, r0
  4061d6:	f001 f887 	bl	4072e8 <__mcmp>
  4061da:	2800      	cmp	r0, #0
  4061dc:	f340 823d 	ble.w	40665a <_dtoa_r+0xb5a>
  4061e0:	f815 2c01 	ldrb.w	r2, [r5, #-1]
  4061e4:	9904      	ldr	r1, [sp, #16]
  4061e6:	1e6b      	subs	r3, r5, #1
  4061e8:	e004      	b.n	4061f4 <_dtoa_r+0x6f4>
  4061ea:	428b      	cmp	r3, r1
  4061ec:	f000 81ae 	beq.w	40654c <_dtoa_r+0xa4c>
  4061f0:	f813 2d01 	ldrb.w	r2, [r3, #-1]!
  4061f4:	2a39      	cmp	r2, #57	; 0x39
  4061f6:	f103 0501 	add.w	r5, r3, #1
  4061fa:	d0f6      	beq.n	4061ea <_dtoa_r+0x6ea>
  4061fc:	3201      	adds	r2, #1
  4061fe:	701a      	strb	r2, [r3, #0]
  406200:	4641      	mov	r1, r8
  406202:	4620      	mov	r0, r4
  406204:	f000 fe98 	bl	406f38 <_Bfree>
  406208:	2e00      	cmp	r6, #0
  40620a:	f43f ae3d 	beq.w	405e88 <_dtoa_r+0x388>
  40620e:	f1bb 0f00 	cmp.w	fp, #0
  406212:	d005      	beq.n	406220 <_dtoa_r+0x720>
  406214:	45b3      	cmp	fp, r6
  406216:	d003      	beq.n	406220 <_dtoa_r+0x720>
  406218:	4659      	mov	r1, fp
  40621a:	4620      	mov	r0, r4
  40621c:	f000 fe8c 	bl	406f38 <_Bfree>
  406220:	4631      	mov	r1, r6
  406222:	4620      	mov	r0, r4
  406224:	f000 fe88 	bl	406f38 <_Bfree>
  406228:	e62e      	b.n	405e88 <_dtoa_r+0x388>
  40622a:	2300      	movs	r3, #0
  40622c:	930b      	str	r3, [sp, #44]	; 0x2c
  40622e:	9b02      	ldr	r3, [sp, #8]
  406230:	9a25      	ldr	r2, [sp, #148]	; 0x94
  406232:	4413      	add	r3, r2
  406234:	930f      	str	r3, [sp, #60]	; 0x3c
  406236:	3301      	adds	r3, #1
  406238:	2b01      	cmp	r3, #1
  40623a:	461f      	mov	r7, r3
  40623c:	461e      	mov	r6, r3
  40623e:	930a      	str	r3, [sp, #40]	; 0x28
  406240:	bfb8      	it	lt
  406242:	2701      	movlt	r7, #1
  406244:	2100      	movs	r1, #0
  406246:	2f17      	cmp	r7, #23
  406248:	6461      	str	r1, [r4, #68]	; 0x44
  40624a:	d90a      	bls.n	406262 <_dtoa_r+0x762>
  40624c:	2201      	movs	r2, #1
  40624e:	2304      	movs	r3, #4
  406250:	005b      	lsls	r3, r3, #1
  406252:	f103 0014 	add.w	r0, r3, #20
  406256:	4287      	cmp	r7, r0
  406258:	4611      	mov	r1, r2
  40625a:	f102 0201 	add.w	r2, r2, #1
  40625e:	d2f7      	bcs.n	406250 <_dtoa_r+0x750>
  406260:	6461      	str	r1, [r4, #68]	; 0x44
  406262:	4620      	mov	r0, r4
  406264:	f000 fe42 	bl	406eec <_Balloc>
  406268:	2e0e      	cmp	r6, #14
  40626a:	9004      	str	r0, [sp, #16]
  40626c:	6420      	str	r0, [r4, #64]	; 0x40
  40626e:	f63f ad41 	bhi.w	405cf4 <_dtoa_r+0x1f4>
  406272:	2d00      	cmp	r5, #0
  406274:	f43f ad3e 	beq.w	405cf4 <_dtoa_r+0x1f4>
  406278:	9902      	ldr	r1, [sp, #8]
  40627a:	2900      	cmp	r1, #0
  40627c:	e9cd ab10 	strd	sl, fp, [sp, #64]	; 0x40
  406280:	f340 8202 	ble.w	406688 <_dtoa_r+0xb88>
  406284:	4bb8      	ldr	r3, [pc, #736]	; (406568 <_dtoa_r+0xa68>)
  406286:	f001 020f 	and.w	r2, r1, #15
  40628a:	110d      	asrs	r5, r1, #4
  40628c:	eb03 03c2 	add.w	r3, r3, r2, lsl #3
  406290:	06e9      	lsls	r1, r5, #27
  406292:	e9d3 6700 	ldrd	r6, r7, [r3]
  406296:	f140 81ae 	bpl.w	4065f6 <_dtoa_r+0xaf6>
  40629a:	4bb4      	ldr	r3, [pc, #720]	; (40656c <_dtoa_r+0xa6c>)
  40629c:	4650      	mov	r0, sl
  40629e:	4659      	mov	r1, fp
  4062a0:	e9d3 2308 	ldrd	r2, r3, [r3, #32]
  4062a4:	f7fd fae0 	bl	403868 <__aeabi_ddiv>
  4062a8:	e9cd 0112 	strd	r0, r1, [sp, #72]	; 0x48
  4062ac:	f005 050f 	and.w	r5, r5, #15
  4062b0:	f04f 0a03 	mov.w	sl, #3
  4062b4:	b18d      	cbz	r5, 4062da <_dtoa_r+0x7da>
  4062b6:	f8df 82b4 	ldr.w	r8, [pc, #692]	; 40656c <_dtoa_r+0xa6c>
  4062ba:	07ea      	lsls	r2, r5, #31
  4062bc:	d509      	bpl.n	4062d2 <_dtoa_r+0x7d2>
  4062be:	4630      	mov	r0, r6
  4062c0:	4639      	mov	r1, r7
  4062c2:	e9d8 2300 	ldrd	r2, r3, [r8]
  4062c6:	f7fd f9a5 	bl	403614 <__aeabi_dmul>
  4062ca:	f10a 0a01 	add.w	sl, sl, #1
  4062ce:	4606      	mov	r6, r0
  4062d0:	460f      	mov	r7, r1
  4062d2:	106d      	asrs	r5, r5, #1
  4062d4:	f108 0808 	add.w	r8, r8, #8
  4062d8:	d1ef      	bne.n	4062ba <_dtoa_r+0x7ba>
  4062da:	463b      	mov	r3, r7
  4062dc:	4632      	mov	r2, r6
  4062de:	e9dd 0112 	ldrd	r0, r1, [sp, #72]	; 0x48
  4062e2:	f7fd fac1 	bl	403868 <__aeabi_ddiv>
  4062e6:	4607      	mov	r7, r0
  4062e8:	4688      	mov	r8, r1
  4062ea:	9b0e      	ldr	r3, [sp, #56]	; 0x38
  4062ec:	b143      	cbz	r3, 406300 <_dtoa_r+0x800>
  4062ee:	2200      	movs	r2, #0
  4062f0:	4b9f      	ldr	r3, [pc, #636]	; (406570 <_dtoa_r+0xa70>)
  4062f2:	4638      	mov	r0, r7
  4062f4:	4641      	mov	r1, r8
  4062f6:	f001 fc17 	bl	407b28 <__aeabi_dcmplt>
  4062fa:	2800      	cmp	r0, #0
  4062fc:	f040 8286 	bne.w	40680c <_dtoa_r+0xd0c>
  406300:	4650      	mov	r0, sl
  406302:	f7fd f921 	bl	403548 <__aeabi_i2d>
  406306:	463a      	mov	r2, r7
  406308:	4643      	mov	r3, r8
  40630a:	f7fd f983 	bl	403614 <__aeabi_dmul>
  40630e:	4b99      	ldr	r3, [pc, #612]	; (406574 <_dtoa_r+0xa74>)
  406310:	2200      	movs	r2, #0
  406312:	f7fc ffcd 	bl	4032b0 <__adddf3>
  406316:	9b0a      	ldr	r3, [sp, #40]	; 0x28
  406318:	4605      	mov	r5, r0
  40631a:	f1a1 7650 	sub.w	r6, r1, #54525952	; 0x3400000
  40631e:	2b00      	cmp	r3, #0
  406320:	f000 813e 	beq.w	4065a0 <_dtoa_r+0xaa0>
  406324:	9b02      	ldr	r3, [sp, #8]
  406326:	9315      	str	r3, [sp, #84]	; 0x54
  406328:	9b0a      	ldr	r3, [sp, #40]	; 0x28
  40632a:	9312      	str	r3, [sp, #72]	; 0x48
  40632c:	9b0b      	ldr	r3, [sp, #44]	; 0x2c
  40632e:	2b00      	cmp	r3, #0
  406330:	f000 81fa 	beq.w	406728 <_dtoa_r+0xc28>
  406334:	9a12      	ldr	r2, [sp, #72]	; 0x48
  406336:	4b8c      	ldr	r3, [pc, #560]	; (406568 <_dtoa_r+0xa68>)
  406338:	498f      	ldr	r1, [pc, #572]	; (406578 <_dtoa_r+0xa78>)
  40633a:	eb03 03c2 	add.w	r3, r3, r2, lsl #3
  40633e:	e953 2302 	ldrd	r2, r3, [r3, #-8]
  406342:	2000      	movs	r0, #0
  406344:	f7fd fa90 	bl	403868 <__aeabi_ddiv>
  406348:	462a      	mov	r2, r5
  40634a:	4633      	mov	r3, r6
  40634c:	f7fc ffae 	bl	4032ac <__aeabi_dsub>
  406350:	4682      	mov	sl, r0
  406352:	468b      	mov	fp, r1
  406354:	4638      	mov	r0, r7
  406356:	4641      	mov	r1, r8
  406358:	f001 fc24 	bl	407ba4 <__aeabi_d2iz>
  40635c:	4605      	mov	r5, r0
  40635e:	f7fd f8f3 	bl	403548 <__aeabi_i2d>
  406362:	4602      	mov	r2, r0
  406364:	460b      	mov	r3, r1
  406366:	4638      	mov	r0, r7
  406368:	4641      	mov	r1, r8
  40636a:	f7fc ff9f 	bl	4032ac <__aeabi_dsub>
  40636e:	3530      	adds	r5, #48	; 0x30
  406370:	fa5f f885 	uxtb.w	r8, r5
  406374:	9d04      	ldr	r5, [sp, #16]
  406376:	4606      	mov	r6, r0
  406378:	460f      	mov	r7, r1
  40637a:	f885 8000 	strb.w	r8, [r5]
  40637e:	4602      	mov	r2, r0
  406380:	460b      	mov	r3, r1
  406382:	4650      	mov	r0, sl
  406384:	4659      	mov	r1, fp
  406386:	3501      	adds	r5, #1
  406388:	f001 fbec 	bl	407b64 <__aeabi_dcmpgt>
  40638c:	2800      	cmp	r0, #0
  40638e:	d154      	bne.n	40643a <_dtoa_r+0x93a>
  406390:	4632      	mov	r2, r6
  406392:	463b      	mov	r3, r7
  406394:	2000      	movs	r0, #0
  406396:	4976      	ldr	r1, [pc, #472]	; (406570 <_dtoa_r+0xa70>)
  406398:	f7fc ff88 	bl	4032ac <__aeabi_dsub>
  40639c:	4602      	mov	r2, r0
  40639e:	460b      	mov	r3, r1
  4063a0:	4650      	mov	r0, sl
  4063a2:	4659      	mov	r1, fp
  4063a4:	f001 fbde 	bl	407b64 <__aeabi_dcmpgt>
  4063a8:	2800      	cmp	r0, #0
  4063aa:	f040 8270 	bne.w	40688e <_dtoa_r+0xd8e>
  4063ae:	9a12      	ldr	r2, [sp, #72]	; 0x48
  4063b0:	2a01      	cmp	r2, #1
  4063b2:	f000 8111 	beq.w	4065d8 <_dtoa_r+0xad8>
  4063b6:	9b12      	ldr	r3, [sp, #72]	; 0x48
  4063b8:	9a04      	ldr	r2, [sp, #16]
  4063ba:	f8cd 9048 	str.w	r9, [sp, #72]	; 0x48
  4063be:	4413      	add	r3, r2
  4063c0:	4699      	mov	r9, r3
  4063c2:	e00d      	b.n	4063e0 <_dtoa_r+0x8e0>
  4063c4:	2000      	movs	r0, #0
  4063c6:	496a      	ldr	r1, [pc, #424]	; (406570 <_dtoa_r+0xa70>)
  4063c8:	f7fc ff70 	bl	4032ac <__aeabi_dsub>
  4063cc:	4652      	mov	r2, sl
  4063ce:	465b      	mov	r3, fp
  4063d0:	f001 fbaa 	bl	407b28 <__aeabi_dcmplt>
  4063d4:	2800      	cmp	r0, #0
  4063d6:	f040 8258 	bne.w	40688a <_dtoa_r+0xd8a>
  4063da:	454d      	cmp	r5, r9
  4063dc:	f000 80fa 	beq.w	4065d4 <_dtoa_r+0xad4>
  4063e0:	4650      	mov	r0, sl
  4063e2:	4659      	mov	r1, fp
  4063e4:	2200      	movs	r2, #0
  4063e6:	4b65      	ldr	r3, [pc, #404]	; (40657c <_dtoa_r+0xa7c>)
  4063e8:	f7fd f914 	bl	403614 <__aeabi_dmul>
  4063ec:	2200      	movs	r2, #0
  4063ee:	4b63      	ldr	r3, [pc, #396]	; (40657c <_dtoa_r+0xa7c>)
  4063f0:	4682      	mov	sl, r0
  4063f2:	468b      	mov	fp, r1
  4063f4:	4630      	mov	r0, r6
  4063f6:	4639      	mov	r1, r7
  4063f8:	f7fd f90c 	bl	403614 <__aeabi_dmul>
  4063fc:	460f      	mov	r7, r1
  4063fe:	4606      	mov	r6, r0
  406400:	f001 fbd0 	bl	407ba4 <__aeabi_d2iz>
  406404:	4680      	mov	r8, r0
  406406:	f7fd f89f 	bl	403548 <__aeabi_i2d>
  40640a:	4602      	mov	r2, r0
  40640c:	460b      	mov	r3, r1
  40640e:	4630      	mov	r0, r6
  406410:	4639      	mov	r1, r7
  406412:	f7fc ff4b 	bl	4032ac <__aeabi_dsub>
  406416:	f108 0830 	add.w	r8, r8, #48	; 0x30
  40641a:	fa5f f888 	uxtb.w	r8, r8
  40641e:	4652      	mov	r2, sl
  406420:	465b      	mov	r3, fp
  406422:	f805 8b01 	strb.w	r8, [r5], #1
  406426:	4606      	mov	r6, r0
  406428:	460f      	mov	r7, r1
  40642a:	f001 fb7d 	bl	407b28 <__aeabi_dcmplt>
  40642e:	4632      	mov	r2, r6
  406430:	463b      	mov	r3, r7
  406432:	2800      	cmp	r0, #0
  406434:	d0c6      	beq.n	4063c4 <_dtoa_r+0x8c4>
  406436:	f8dd 9048 	ldr.w	r9, [sp, #72]	; 0x48
  40643a:	9b15      	ldr	r3, [sp, #84]	; 0x54
  40643c:	9302      	str	r3, [sp, #8]
  40643e:	e523      	b.n	405e88 <_dtoa_r+0x388>
  406440:	2300      	movs	r3, #0
  406442:	930b      	str	r3, [sp, #44]	; 0x2c
  406444:	9b25      	ldr	r3, [sp, #148]	; 0x94
  406446:	2b00      	cmp	r3, #0
  406448:	f340 80dc 	ble.w	406604 <_dtoa_r+0xb04>
  40644c:	461f      	mov	r7, r3
  40644e:	461e      	mov	r6, r3
  406450:	930f      	str	r3, [sp, #60]	; 0x3c
  406452:	930a      	str	r3, [sp, #40]	; 0x28
  406454:	e6f6      	b.n	406244 <_dtoa_r+0x744>
  406456:	2301      	movs	r3, #1
  406458:	930b      	str	r3, [sp, #44]	; 0x2c
  40645a:	e7f3      	b.n	406444 <_dtoa_r+0x944>
  40645c:	f1ba 0f00 	cmp.w	sl, #0
  406460:	f47f ada8 	bne.w	405fb4 <_dtoa_r+0x4b4>
  406464:	f3cb 0313 	ubfx	r3, fp, #0, #20
  406468:	2b00      	cmp	r3, #0
  40646a:	f47f adba 	bne.w	405fe2 <_dtoa_r+0x4e2>
  40646e:	f02b 4700 	bic.w	r7, fp, #2147483648	; 0x80000000
  406472:	0d3f      	lsrs	r7, r7, #20
  406474:	053f      	lsls	r7, r7, #20
  406476:	2f00      	cmp	r7, #0
  406478:	f000 820d 	beq.w	406896 <_dtoa_r+0xd96>
  40647c:	9b08      	ldr	r3, [sp, #32]
  40647e:	3301      	adds	r3, #1
  406480:	9308      	str	r3, [sp, #32]
  406482:	9b06      	ldr	r3, [sp, #24]
  406484:	3301      	adds	r3, #1
  406486:	9306      	str	r3, [sp, #24]
  406488:	2301      	movs	r3, #1
  40648a:	930c      	str	r3, [sp, #48]	; 0x30
  40648c:	e5ab      	b.n	405fe6 <_dtoa_r+0x4e6>
  40648e:	9b0a      	ldr	r3, [sp, #40]	; 0x28
  406490:	2b00      	cmp	r3, #0
  406492:	f73f ac42 	bgt.w	405d1a <_dtoa_r+0x21a>
  406496:	f040 8221 	bne.w	4068dc <_dtoa_r+0xddc>
  40649a:	2200      	movs	r2, #0
  40649c:	4b38      	ldr	r3, [pc, #224]	; (406580 <_dtoa_r+0xa80>)
  40649e:	e9dd 0108 	ldrd	r0, r1, [sp, #32]
  4064a2:	f7fd f8b7 	bl	403614 <__aeabi_dmul>
  4064a6:	4652      	mov	r2, sl
  4064a8:	465b      	mov	r3, fp
  4064aa:	f001 fb51 	bl	407b50 <__aeabi_dcmpge>
  4064ae:	f8dd 8028 	ldr.w	r8, [sp, #40]	; 0x28
  4064b2:	4646      	mov	r6, r8
  4064b4:	2800      	cmp	r0, #0
  4064b6:	d041      	beq.n	40653c <_dtoa_r+0xa3c>
  4064b8:	9b25      	ldr	r3, [sp, #148]	; 0x94
  4064ba:	9d04      	ldr	r5, [sp, #16]
  4064bc:	43db      	mvns	r3, r3
  4064be:	9302      	str	r3, [sp, #8]
  4064c0:	4641      	mov	r1, r8
  4064c2:	4620      	mov	r0, r4
  4064c4:	f000 fd38 	bl	406f38 <_Bfree>
  4064c8:	2e00      	cmp	r6, #0
  4064ca:	f43f acdd 	beq.w	405e88 <_dtoa_r+0x388>
  4064ce:	e6a7      	b.n	406220 <_dtoa_r+0x720>
  4064d0:	9a0c      	ldr	r2, [sp, #48]	; 0x30
  4064d2:	4649      	mov	r1, r9
  4064d4:	4620      	mov	r0, r4
  4064d6:	f000 fe65 	bl	4071a4 <__pow5mult>
  4064da:	4681      	mov	r9, r0
  4064dc:	e558      	b.n	405f90 <_dtoa_r+0x490>
  4064de:	9a14      	ldr	r2, [sp, #80]	; 0x50
  4064e0:	2a00      	cmp	r2, #0
  4064e2:	f000 8187 	beq.w	4067f4 <_dtoa_r+0xcf4>
  4064e6:	f203 4333 	addw	r3, r3, #1075	; 0x433
  4064ea:	9f0c      	ldr	r7, [sp, #48]	; 0x30
  4064ec:	9d08      	ldr	r5, [sp, #32]
  4064ee:	e4f2      	b.n	405ed6 <_dtoa_r+0x3d6>
  4064f0:	f1ba 0f00 	cmp.w	sl, #0
  4064f4:	f47f ad75 	bne.w	405fe2 <_dtoa_r+0x4e2>
  4064f8:	e7b4      	b.n	406464 <_dtoa_r+0x964>
  4064fa:	f000 fd27 	bl	406f4c <__multadd>
  4064fe:	4647      	mov	r7, r8
  406500:	4606      	mov	r6, r0
  406502:	4683      	mov	fp, r0
  406504:	e5be      	b.n	406084 <_dtoa_r+0x584>
  406506:	4601      	mov	r1, r0
  406508:	4620      	mov	r0, r4
  40650a:	9306      	str	r3, [sp, #24]
  40650c:	f000 fd14 	bl	406f38 <_Bfree>
  406510:	2201      	movs	r2, #1
  406512:	9b06      	ldr	r3, [sp, #24]
  406514:	e5e0      	b.n	4060d8 <_dtoa_r+0x5d8>
  406516:	9b24      	ldr	r3, [sp, #144]	; 0x90
  406518:	2b02      	cmp	r3, #2
  40651a:	f77f ad96 	ble.w	40604a <_dtoa_r+0x54a>
  40651e:	9b0a      	ldr	r3, [sp, #40]	; 0x28
  406520:	2b00      	cmp	r3, #0
  406522:	d1c9      	bne.n	4064b8 <_dtoa_r+0x9b8>
  406524:	4641      	mov	r1, r8
  406526:	2205      	movs	r2, #5
  406528:	4620      	mov	r0, r4
  40652a:	f000 fd0f 	bl	406f4c <__multadd>
  40652e:	4601      	mov	r1, r0
  406530:	4680      	mov	r8, r0
  406532:	4648      	mov	r0, r9
  406534:	f000 fed8 	bl	4072e8 <__mcmp>
  406538:	2800      	cmp	r0, #0
  40653a:	ddbd      	ble.n	4064b8 <_dtoa_r+0x9b8>
  40653c:	9a02      	ldr	r2, [sp, #8]
  40653e:	9904      	ldr	r1, [sp, #16]
  406540:	2331      	movs	r3, #49	; 0x31
  406542:	3201      	adds	r2, #1
  406544:	9202      	str	r2, [sp, #8]
  406546:	700b      	strb	r3, [r1, #0]
  406548:	1c4d      	adds	r5, r1, #1
  40654a:	e7b9      	b.n	4064c0 <_dtoa_r+0x9c0>
  40654c:	9a02      	ldr	r2, [sp, #8]
  40654e:	3201      	adds	r2, #1
  406550:	9202      	str	r2, [sp, #8]
  406552:	9a04      	ldr	r2, [sp, #16]
  406554:	2331      	movs	r3, #49	; 0x31
  406556:	7013      	strb	r3, [r2, #0]
  406558:	e652      	b.n	406200 <_dtoa_r+0x700>
  40655a:	2301      	movs	r3, #1
  40655c:	930b      	str	r3, [sp, #44]	; 0x2c
  40655e:	e666      	b.n	40622e <_dtoa_r+0x72e>
  406560:	f8dd 902c 	ldr.w	r9, [sp, #44]	; 0x2c
  406564:	9c0c      	ldr	r4, [sp, #48]	; 0x30
  406566:	e48f      	b.n	405e88 <_dtoa_r+0x388>
  406568:	00407d68 	.word	0x00407d68
  40656c:	00407d40 	.word	0x00407d40
  406570:	3ff00000 	.word	0x3ff00000
  406574:	401c0000 	.word	0x401c0000
  406578:	3fe00000 	.word	0x3fe00000
  40657c:	40240000 	.word	0x40240000
  406580:	40140000 	.word	0x40140000
  406584:	4650      	mov	r0, sl
  406586:	f7fc ffdf 	bl	403548 <__aeabi_i2d>
  40658a:	463a      	mov	r2, r7
  40658c:	4643      	mov	r3, r8
  40658e:	f7fd f841 	bl	403614 <__aeabi_dmul>
  406592:	2200      	movs	r2, #0
  406594:	4bc1      	ldr	r3, [pc, #772]	; (40689c <_dtoa_r+0xd9c>)
  406596:	f7fc fe8b 	bl	4032b0 <__adddf3>
  40659a:	4605      	mov	r5, r0
  40659c:	f1a1 7650 	sub.w	r6, r1, #54525952	; 0x3400000
  4065a0:	4641      	mov	r1, r8
  4065a2:	2200      	movs	r2, #0
  4065a4:	4bbe      	ldr	r3, [pc, #760]	; (4068a0 <_dtoa_r+0xda0>)
  4065a6:	4638      	mov	r0, r7
  4065a8:	f7fc fe80 	bl	4032ac <__aeabi_dsub>
  4065ac:	462a      	mov	r2, r5
  4065ae:	4633      	mov	r3, r6
  4065b0:	4682      	mov	sl, r0
  4065b2:	468b      	mov	fp, r1
  4065b4:	f001 fad6 	bl	407b64 <__aeabi_dcmpgt>
  4065b8:	4680      	mov	r8, r0
  4065ba:	2800      	cmp	r0, #0
  4065bc:	f040 8110 	bne.w	4067e0 <_dtoa_r+0xce0>
  4065c0:	462a      	mov	r2, r5
  4065c2:	f106 4300 	add.w	r3, r6, #2147483648	; 0x80000000
  4065c6:	4650      	mov	r0, sl
  4065c8:	4659      	mov	r1, fp
  4065ca:	f001 faad 	bl	407b28 <__aeabi_dcmplt>
  4065ce:	b118      	cbz	r0, 4065d8 <_dtoa_r+0xad8>
  4065d0:	4646      	mov	r6, r8
  4065d2:	e771      	b.n	4064b8 <_dtoa_r+0x9b8>
  4065d4:	f8dd 9048 	ldr.w	r9, [sp, #72]	; 0x48
  4065d8:	e9dd ab10 	ldrd	sl, fp, [sp, #64]	; 0x40
  4065dc:	f7ff bb8a 	b.w	405cf4 <_dtoa_r+0x1f4>
  4065e0:	9804      	ldr	r0, [sp, #16]
  4065e2:	f7ff babb 	b.w	405b5c <_dtoa_r+0x5c>
  4065e6:	9b0c      	ldr	r3, [sp, #48]	; 0x30
  4065e8:	9a0d      	ldr	r2, [sp, #52]	; 0x34
  4065ea:	970c      	str	r7, [sp, #48]	; 0x30
  4065ec:	1afb      	subs	r3, r7, r3
  4065ee:	441a      	add	r2, r3
  4065f0:	920d      	str	r2, [sp, #52]	; 0x34
  4065f2:	2700      	movs	r7, #0
  4065f4:	e469      	b.n	405eca <_dtoa_r+0x3ca>
  4065f6:	e9dd 2310 	ldrd	r2, r3, [sp, #64]	; 0x40
  4065fa:	f04f 0a02 	mov.w	sl, #2
  4065fe:	e9cd 2312 	strd	r2, r3, [sp, #72]	; 0x48
  406602:	e657      	b.n	4062b4 <_dtoa_r+0x7b4>
  406604:	2100      	movs	r1, #0
  406606:	2301      	movs	r3, #1
  406608:	6461      	str	r1, [r4, #68]	; 0x44
  40660a:	4620      	mov	r0, r4
  40660c:	9325      	str	r3, [sp, #148]	; 0x94
  40660e:	f000 fc6d 	bl	406eec <_Balloc>
  406612:	9b25      	ldr	r3, [sp, #148]	; 0x94
  406614:	9004      	str	r0, [sp, #16]
  406616:	6420      	str	r0, [r4, #64]	; 0x40
  406618:	930a      	str	r3, [sp, #40]	; 0x28
  40661a:	930f      	str	r3, [sp, #60]	; 0x3c
  40661c:	e629      	b.n	406272 <_dtoa_r+0x772>
  40661e:	2a00      	cmp	r2, #0
  406620:	46d0      	mov	r8, sl
  406622:	f8cd b018 	str.w	fp, [sp, #24]
  406626:	469a      	mov	sl, r3
  406628:	dd11      	ble.n	40664e <_dtoa_r+0xb4e>
  40662a:	4649      	mov	r1, r9
  40662c:	2201      	movs	r2, #1
  40662e:	4620      	mov	r0, r4
  406630:	f000 fe08 	bl	407244 <__lshift>
  406634:	4641      	mov	r1, r8
  406636:	4681      	mov	r9, r0
  406638:	f000 fe56 	bl	4072e8 <__mcmp>
  40663c:	2800      	cmp	r0, #0
  40663e:	f340 8146 	ble.w	4068ce <_dtoa_r+0xdce>
  406642:	f1ba 0f39 	cmp.w	sl, #57	; 0x39
  406646:	f000 8106 	beq.w	406856 <_dtoa_r+0xd56>
  40664a:	f105 0a31 	add.w	sl, r5, #49	; 0x31
  40664e:	46b3      	mov	fp, r6
  406650:	f887 a000 	strb.w	sl, [r7]
  406654:	1c7d      	adds	r5, r7, #1
  406656:	9e06      	ldr	r6, [sp, #24]
  406658:	e5d2      	b.n	406200 <_dtoa_r+0x700>
  40665a:	d104      	bne.n	406666 <_dtoa_r+0xb66>
  40665c:	f01a 0f01 	tst.w	sl, #1
  406660:	d001      	beq.n	406666 <_dtoa_r+0xb66>
  406662:	e5bd      	b.n	4061e0 <_dtoa_r+0x6e0>
  406664:	4615      	mov	r5, r2
  406666:	f815 3c01 	ldrb.w	r3, [r5, #-1]
  40666a:	2b30      	cmp	r3, #48	; 0x30
  40666c:	f105 32ff 	add.w	r2, r5, #4294967295
  406670:	d0f8      	beq.n	406664 <_dtoa_r+0xb64>
  406672:	e5c5      	b.n	406200 <_dtoa_r+0x700>
  406674:	9904      	ldr	r1, [sp, #16]
  406676:	2230      	movs	r2, #48	; 0x30
  406678:	700a      	strb	r2, [r1, #0]
  40667a:	9a02      	ldr	r2, [sp, #8]
  40667c:	f815 8c01 	ldrb.w	r8, [r5, #-1]
  406680:	3201      	adds	r2, #1
  406682:	9202      	str	r2, [sp, #8]
  406684:	f7ff bbfc 	b.w	405e80 <_dtoa_r+0x380>
  406688:	f000 80bb 	beq.w	406802 <_dtoa_r+0xd02>
  40668c:	9b02      	ldr	r3, [sp, #8]
  40668e:	425d      	negs	r5, r3
  406690:	4b84      	ldr	r3, [pc, #528]	; (4068a4 <_dtoa_r+0xda4>)
  406692:	f005 020f 	and.w	r2, r5, #15
  406696:	eb03 03c2 	add.w	r3, r3, r2, lsl #3
  40669a:	e9d3 2300 	ldrd	r2, r3, [r3]
  40669e:	e9dd 0110 	ldrd	r0, r1, [sp, #64]	; 0x40
  4066a2:	f7fc ffb7 	bl	403614 <__aeabi_dmul>
  4066a6:	112d      	asrs	r5, r5, #4
  4066a8:	4607      	mov	r7, r0
  4066aa:	4688      	mov	r8, r1
  4066ac:	f000 812c 	beq.w	406908 <_dtoa_r+0xe08>
  4066b0:	4e7d      	ldr	r6, [pc, #500]	; (4068a8 <_dtoa_r+0xda8>)
  4066b2:	f04f 0a02 	mov.w	sl, #2
  4066b6:	07eb      	lsls	r3, r5, #31
  4066b8:	d509      	bpl.n	4066ce <_dtoa_r+0xbce>
  4066ba:	4638      	mov	r0, r7
  4066bc:	4641      	mov	r1, r8
  4066be:	e9d6 2300 	ldrd	r2, r3, [r6]
  4066c2:	f7fc ffa7 	bl	403614 <__aeabi_dmul>
  4066c6:	f10a 0a01 	add.w	sl, sl, #1
  4066ca:	4607      	mov	r7, r0
  4066cc:	4688      	mov	r8, r1
  4066ce:	106d      	asrs	r5, r5, #1
  4066d0:	f106 0608 	add.w	r6, r6, #8
  4066d4:	d1ef      	bne.n	4066b6 <_dtoa_r+0xbb6>
  4066d6:	e608      	b.n	4062ea <_dtoa_r+0x7ea>
  4066d8:	6871      	ldr	r1, [r6, #4]
  4066da:	4620      	mov	r0, r4
  4066dc:	f000 fc06 	bl	406eec <_Balloc>
  4066e0:	6933      	ldr	r3, [r6, #16]
  4066e2:	3302      	adds	r3, #2
  4066e4:	009a      	lsls	r2, r3, #2
  4066e6:	4605      	mov	r5, r0
  4066e8:	f106 010c 	add.w	r1, r6, #12
  4066ec:	300c      	adds	r0, #12
  4066ee:	f000 faff 	bl	406cf0 <memcpy>
  4066f2:	4629      	mov	r1, r5
  4066f4:	2201      	movs	r2, #1
  4066f6:	4620      	mov	r0, r4
  4066f8:	f000 fda4 	bl	407244 <__lshift>
  4066fc:	9006      	str	r0, [sp, #24]
  4066fe:	e4b5      	b.n	40606c <_dtoa_r+0x56c>
  406700:	2b39      	cmp	r3, #57	; 0x39
  406702:	f8cd b018 	str.w	fp, [sp, #24]
  406706:	46d0      	mov	r8, sl
  406708:	f000 80a5 	beq.w	406856 <_dtoa_r+0xd56>
  40670c:	f103 0a01 	add.w	sl, r3, #1
  406710:	46b3      	mov	fp, r6
  406712:	f887 a000 	strb.w	sl, [r7]
  406716:	1c7d      	adds	r5, r7, #1
  406718:	9e06      	ldr	r6, [sp, #24]
  40671a:	e571      	b.n	406200 <_dtoa_r+0x700>
  40671c:	465a      	mov	r2, fp
  40671e:	46d0      	mov	r8, sl
  406720:	46b3      	mov	fp, r6
  406722:	469a      	mov	sl, r3
  406724:	4616      	mov	r6, r2
  406726:	e54f      	b.n	4061c8 <_dtoa_r+0x6c8>
  406728:	9b12      	ldr	r3, [sp, #72]	; 0x48
  40672a:	495e      	ldr	r1, [pc, #376]	; (4068a4 <_dtoa_r+0xda4>)
  40672c:	eb01 01c3 	add.w	r1, r1, r3, lsl #3
  406730:	462a      	mov	r2, r5
  406732:	4633      	mov	r3, r6
  406734:	e951 0102 	ldrd	r0, r1, [r1, #-8]
  406738:	f7fc ff6c 	bl	403614 <__aeabi_dmul>
  40673c:	e9cd 0116 	strd	r0, r1, [sp, #88]	; 0x58
  406740:	4638      	mov	r0, r7
  406742:	4641      	mov	r1, r8
  406744:	f001 fa2e 	bl	407ba4 <__aeabi_d2iz>
  406748:	4605      	mov	r5, r0
  40674a:	f7fc fefd 	bl	403548 <__aeabi_i2d>
  40674e:	460b      	mov	r3, r1
  406750:	4602      	mov	r2, r0
  406752:	4641      	mov	r1, r8
  406754:	4638      	mov	r0, r7
  406756:	f7fc fda9 	bl	4032ac <__aeabi_dsub>
  40675a:	9b12      	ldr	r3, [sp, #72]	; 0x48
  40675c:	460f      	mov	r7, r1
  40675e:	9904      	ldr	r1, [sp, #16]
  406760:	3530      	adds	r5, #48	; 0x30
  406762:	2b01      	cmp	r3, #1
  406764:	700d      	strb	r5, [r1, #0]
  406766:	4606      	mov	r6, r0
  406768:	f101 0501 	add.w	r5, r1, #1
  40676c:	d026      	beq.n	4067bc <_dtoa_r+0xcbc>
  40676e:	9b12      	ldr	r3, [sp, #72]	; 0x48
  406770:	9a04      	ldr	r2, [sp, #16]
  406772:	f8df b13c 	ldr.w	fp, [pc, #316]	; 4068b0 <_dtoa_r+0xdb0>
  406776:	f8cd 9048 	str.w	r9, [sp, #72]	; 0x48
  40677a:	4413      	add	r3, r2
  40677c:	f04f 0a00 	mov.w	sl, #0
  406780:	4699      	mov	r9, r3
  406782:	4652      	mov	r2, sl
  406784:	465b      	mov	r3, fp
  406786:	4630      	mov	r0, r6
  406788:	4639      	mov	r1, r7
  40678a:	f7fc ff43 	bl	403614 <__aeabi_dmul>
  40678e:	460f      	mov	r7, r1
  406790:	4606      	mov	r6, r0
  406792:	f001 fa07 	bl	407ba4 <__aeabi_d2iz>
  406796:	4680      	mov	r8, r0
  406798:	f7fc fed6 	bl	403548 <__aeabi_i2d>
  40679c:	f108 0830 	add.w	r8, r8, #48	; 0x30
  4067a0:	4602      	mov	r2, r0
  4067a2:	460b      	mov	r3, r1
  4067a4:	4630      	mov	r0, r6
  4067a6:	4639      	mov	r1, r7
  4067a8:	f7fc fd80 	bl	4032ac <__aeabi_dsub>
  4067ac:	f805 8b01 	strb.w	r8, [r5], #1
  4067b0:	454d      	cmp	r5, r9
  4067b2:	4606      	mov	r6, r0
  4067b4:	460f      	mov	r7, r1
  4067b6:	d1e4      	bne.n	406782 <_dtoa_r+0xc82>
  4067b8:	f8dd 9048 	ldr.w	r9, [sp, #72]	; 0x48
  4067bc:	4b3b      	ldr	r3, [pc, #236]	; (4068ac <_dtoa_r+0xdac>)
  4067be:	2200      	movs	r2, #0
  4067c0:	e9dd 0116 	ldrd	r0, r1, [sp, #88]	; 0x58
  4067c4:	f7fc fd74 	bl	4032b0 <__adddf3>
  4067c8:	4632      	mov	r2, r6
  4067ca:	463b      	mov	r3, r7
  4067cc:	f001 f9ac 	bl	407b28 <__aeabi_dcmplt>
  4067d0:	2800      	cmp	r0, #0
  4067d2:	d046      	beq.n	406862 <_dtoa_r+0xd62>
  4067d4:	9b15      	ldr	r3, [sp, #84]	; 0x54
  4067d6:	9302      	str	r3, [sp, #8]
  4067d8:	f815 8c01 	ldrb.w	r8, [r5, #-1]
  4067dc:	f7ff bb43 	b.w	405e66 <_dtoa_r+0x366>
  4067e0:	f04f 0800 	mov.w	r8, #0
  4067e4:	4646      	mov	r6, r8
  4067e6:	e6a9      	b.n	40653c <_dtoa_r+0xa3c>
  4067e8:	9b08      	ldr	r3, [sp, #32]
  4067ea:	9a0a      	ldr	r2, [sp, #40]	; 0x28
  4067ec:	1a9d      	subs	r5, r3, r2
  4067ee:	2300      	movs	r3, #0
  4067f0:	f7ff bb71 	b.w	405ed6 <_dtoa_r+0x3d6>
  4067f4:	9b18      	ldr	r3, [sp, #96]	; 0x60
  4067f6:	9f0c      	ldr	r7, [sp, #48]	; 0x30
  4067f8:	9d08      	ldr	r5, [sp, #32]
  4067fa:	f1c3 0336 	rsb	r3, r3, #54	; 0x36
  4067fe:	f7ff bb6a 	b.w	405ed6 <_dtoa_r+0x3d6>
  406802:	e9dd 7810 	ldrd	r7, r8, [sp, #64]	; 0x40
  406806:	f04f 0a02 	mov.w	sl, #2
  40680a:	e56e      	b.n	4062ea <_dtoa_r+0x7ea>
  40680c:	9b0a      	ldr	r3, [sp, #40]	; 0x28
  40680e:	2b00      	cmp	r3, #0
  406810:	f43f aeb8 	beq.w	406584 <_dtoa_r+0xa84>
  406814:	9b0f      	ldr	r3, [sp, #60]	; 0x3c
  406816:	2b00      	cmp	r3, #0
  406818:	f77f aede 	ble.w	4065d8 <_dtoa_r+0xad8>
  40681c:	2200      	movs	r2, #0
  40681e:	4b24      	ldr	r3, [pc, #144]	; (4068b0 <_dtoa_r+0xdb0>)
  406820:	4638      	mov	r0, r7
  406822:	4641      	mov	r1, r8
  406824:	f7fc fef6 	bl	403614 <__aeabi_dmul>
  406828:	4607      	mov	r7, r0
  40682a:	4688      	mov	r8, r1
  40682c:	f10a 0001 	add.w	r0, sl, #1
  406830:	f7fc fe8a 	bl	403548 <__aeabi_i2d>
  406834:	463a      	mov	r2, r7
  406836:	4643      	mov	r3, r8
  406838:	f7fc feec 	bl	403614 <__aeabi_dmul>
  40683c:	2200      	movs	r2, #0
  40683e:	4b17      	ldr	r3, [pc, #92]	; (40689c <_dtoa_r+0xd9c>)
  406840:	f7fc fd36 	bl	4032b0 <__adddf3>
  406844:	9a02      	ldr	r2, [sp, #8]
  406846:	9b0f      	ldr	r3, [sp, #60]	; 0x3c
  406848:	9312      	str	r3, [sp, #72]	; 0x48
  40684a:	3a01      	subs	r2, #1
  40684c:	4605      	mov	r5, r0
  40684e:	f1a1 7650 	sub.w	r6, r1, #54525952	; 0x3400000
  406852:	9215      	str	r2, [sp, #84]	; 0x54
  406854:	e56a      	b.n	40632c <_dtoa_r+0x82c>
  406856:	2239      	movs	r2, #57	; 0x39
  406858:	46b3      	mov	fp, r6
  40685a:	703a      	strb	r2, [r7, #0]
  40685c:	9e06      	ldr	r6, [sp, #24]
  40685e:	1c7d      	adds	r5, r7, #1
  406860:	e4c0      	b.n	4061e4 <_dtoa_r+0x6e4>
  406862:	e9dd 2316 	ldrd	r2, r3, [sp, #88]	; 0x58
  406866:	2000      	movs	r0, #0
  406868:	4910      	ldr	r1, [pc, #64]	; (4068ac <_dtoa_r+0xdac>)
  40686a:	f7fc fd1f 	bl	4032ac <__aeabi_dsub>
  40686e:	4632      	mov	r2, r6
  406870:	463b      	mov	r3, r7
  406872:	f001 f977 	bl	407b64 <__aeabi_dcmpgt>
  406876:	b908      	cbnz	r0, 40687c <_dtoa_r+0xd7c>
  406878:	e6ae      	b.n	4065d8 <_dtoa_r+0xad8>
  40687a:	4615      	mov	r5, r2
  40687c:	f815 3c01 	ldrb.w	r3, [r5, #-1]
  406880:	2b30      	cmp	r3, #48	; 0x30
  406882:	f105 32ff 	add.w	r2, r5, #4294967295
  406886:	d0f8      	beq.n	40687a <_dtoa_r+0xd7a>
  406888:	e5d7      	b.n	40643a <_dtoa_r+0x93a>
  40688a:	f8dd 9048 	ldr.w	r9, [sp, #72]	; 0x48
  40688e:	9b15      	ldr	r3, [sp, #84]	; 0x54
  406890:	9302      	str	r3, [sp, #8]
  406892:	f7ff bae8 	b.w	405e66 <_dtoa_r+0x366>
  406896:	970c      	str	r7, [sp, #48]	; 0x30
  406898:	f7ff bba5 	b.w	405fe6 <_dtoa_r+0x4e6>
  40689c:	401c0000 	.word	0x401c0000
  4068a0:	40140000 	.word	0x40140000
  4068a4:	00407d68 	.word	0x00407d68
  4068a8:	00407d40 	.word	0x00407d40
  4068ac:	3fe00000 	.word	0x3fe00000
  4068b0:	40240000 	.word	0x40240000
  4068b4:	2b39      	cmp	r3, #57	; 0x39
  4068b6:	f8cd b018 	str.w	fp, [sp, #24]
  4068ba:	46d0      	mov	r8, sl
  4068bc:	f8dd b028 	ldr.w	fp, [sp, #40]	; 0x28
  4068c0:	469a      	mov	sl, r3
  4068c2:	d0c8      	beq.n	406856 <_dtoa_r+0xd56>
  4068c4:	f1bb 0f00 	cmp.w	fp, #0
  4068c8:	f73f aebf 	bgt.w	40664a <_dtoa_r+0xb4a>
  4068cc:	e6bf      	b.n	40664e <_dtoa_r+0xb4e>
  4068ce:	f47f aebe 	bne.w	40664e <_dtoa_r+0xb4e>
  4068d2:	f01a 0f01 	tst.w	sl, #1
  4068d6:	f43f aeba 	beq.w	40664e <_dtoa_r+0xb4e>
  4068da:	e6b2      	b.n	406642 <_dtoa_r+0xb42>
  4068dc:	f04f 0800 	mov.w	r8, #0
  4068e0:	4646      	mov	r6, r8
  4068e2:	e5e9      	b.n	4064b8 <_dtoa_r+0x9b8>
  4068e4:	4631      	mov	r1, r6
  4068e6:	2300      	movs	r3, #0
  4068e8:	220a      	movs	r2, #10
  4068ea:	4620      	mov	r0, r4
  4068ec:	f000 fb2e 	bl	406f4c <__multadd>
  4068f0:	9b0f      	ldr	r3, [sp, #60]	; 0x3c
  4068f2:	2b00      	cmp	r3, #0
  4068f4:	4606      	mov	r6, r0
  4068f6:	dd0a      	ble.n	40690e <_dtoa_r+0xe0e>
  4068f8:	930a      	str	r3, [sp, #40]	; 0x28
  4068fa:	f7ff bbaa 	b.w	406052 <_dtoa_r+0x552>
  4068fe:	9b24      	ldr	r3, [sp, #144]	; 0x90
  406900:	2b02      	cmp	r3, #2
  406902:	dc23      	bgt.n	40694c <_dtoa_r+0xe4c>
  406904:	9b0f      	ldr	r3, [sp, #60]	; 0x3c
  406906:	e43b      	b.n	406180 <_dtoa_r+0x680>
  406908:	f04f 0a02 	mov.w	sl, #2
  40690c:	e4ed      	b.n	4062ea <_dtoa_r+0x7ea>
  40690e:	9b24      	ldr	r3, [sp, #144]	; 0x90
  406910:	2b02      	cmp	r3, #2
  406912:	dc1b      	bgt.n	40694c <_dtoa_r+0xe4c>
  406914:	9b0f      	ldr	r3, [sp, #60]	; 0x3c
  406916:	e7ef      	b.n	4068f8 <_dtoa_r+0xdf8>
  406918:	2500      	movs	r5, #0
  40691a:	6465      	str	r5, [r4, #68]	; 0x44
  40691c:	4629      	mov	r1, r5
  40691e:	4620      	mov	r0, r4
  406920:	f000 fae4 	bl	406eec <_Balloc>
  406924:	f04f 33ff 	mov.w	r3, #4294967295
  406928:	930a      	str	r3, [sp, #40]	; 0x28
  40692a:	930f      	str	r3, [sp, #60]	; 0x3c
  40692c:	2301      	movs	r3, #1
  40692e:	9004      	str	r0, [sp, #16]
  406930:	9525      	str	r5, [sp, #148]	; 0x94
  406932:	6420      	str	r0, [r4, #64]	; 0x40
  406934:	930b      	str	r3, [sp, #44]	; 0x2c
  406936:	f7ff b9dd 	b.w	405cf4 <_dtoa_r+0x1f4>
  40693a:	2501      	movs	r5, #1
  40693c:	f7ff b9a5 	b.w	405c8a <_dtoa_r+0x18a>
  406940:	f43f ab69 	beq.w	406016 <_dtoa_r+0x516>
  406944:	f1c0 003c 	rsb	r0, r0, #60	; 0x3c
  406948:	f7ff bbf9 	b.w	40613e <_dtoa_r+0x63e>
  40694c:	9b0f      	ldr	r3, [sp, #60]	; 0x3c
  40694e:	930a      	str	r3, [sp, #40]	; 0x28
  406950:	e5e5      	b.n	40651e <_dtoa_r+0xa1e>
  406952:	bf00      	nop

00406954 <__libc_fini_array>:
  406954:	b538      	push	{r3, r4, r5, lr}
  406956:	4c0a      	ldr	r4, [pc, #40]	; (406980 <__libc_fini_array+0x2c>)
  406958:	4d0a      	ldr	r5, [pc, #40]	; (406984 <__libc_fini_array+0x30>)
  40695a:	1b64      	subs	r4, r4, r5
  40695c:	10a4      	asrs	r4, r4, #2
  40695e:	d00a      	beq.n	406976 <__libc_fini_array+0x22>
  406960:	f104 4380 	add.w	r3, r4, #1073741824	; 0x40000000
  406964:	3b01      	subs	r3, #1
  406966:	eb05 0583 	add.w	r5, r5, r3, lsl #2
  40696a:	3c01      	subs	r4, #1
  40696c:	f855 3904 	ldr.w	r3, [r5], #-4
  406970:	4798      	blx	r3
  406972:	2c00      	cmp	r4, #0
  406974:	d1f9      	bne.n	40696a <__libc_fini_array+0x16>
  406976:	e8bd 4038 	ldmia.w	sp!, {r3, r4, r5, lr}
  40697a:	f001 baeb 	b.w	407f54 <_fini>
  40697e:	bf00      	nop
  406980:	00407f64 	.word	0x00407f64
  406984:	00407f60 	.word	0x00407f60

00406988 <_malloc_trim_r>:
  406988:	b5f8      	push	{r3, r4, r5, r6, r7, lr}
  40698a:	4f24      	ldr	r7, [pc, #144]	; (406a1c <_malloc_trim_r+0x94>)
  40698c:	460c      	mov	r4, r1
  40698e:	4606      	mov	r6, r0
  406990:	f7fd fd30 	bl	4043f4 <__malloc_lock>
  406994:	68bb      	ldr	r3, [r7, #8]
  406996:	685d      	ldr	r5, [r3, #4]
  406998:	f5c4 617e 	rsb	r1, r4, #4064	; 0xfe0
  40699c:	310f      	adds	r1, #15
  40699e:	f025 0503 	bic.w	r5, r5, #3
  4069a2:	4429      	add	r1, r5
  4069a4:	f421 617f 	bic.w	r1, r1, #4080	; 0xff0
  4069a8:	f021 010f 	bic.w	r1, r1, #15
  4069ac:	f5a1 5480 	sub.w	r4, r1, #4096	; 0x1000
  4069b0:	f5b4 5f80 	cmp.w	r4, #4096	; 0x1000
  4069b4:	db07      	blt.n	4069c6 <_malloc_trim_r+0x3e>
  4069b6:	2100      	movs	r1, #0
  4069b8:	4630      	mov	r0, r6
  4069ba:	f7fd fd27 	bl	40440c <_sbrk_r>
  4069be:	68bb      	ldr	r3, [r7, #8]
  4069c0:	442b      	add	r3, r5
  4069c2:	4298      	cmp	r0, r3
  4069c4:	d004      	beq.n	4069d0 <_malloc_trim_r+0x48>
  4069c6:	4630      	mov	r0, r6
  4069c8:	f7fd fd1a 	bl	404400 <__malloc_unlock>
  4069cc:	2000      	movs	r0, #0
  4069ce:	bdf8      	pop	{r3, r4, r5, r6, r7, pc}
  4069d0:	4261      	negs	r1, r4
  4069d2:	4630      	mov	r0, r6
  4069d4:	f7fd fd1a 	bl	40440c <_sbrk_r>
  4069d8:	3001      	adds	r0, #1
  4069da:	d00d      	beq.n	4069f8 <_malloc_trim_r+0x70>
  4069dc:	4b10      	ldr	r3, [pc, #64]	; (406a20 <_malloc_trim_r+0x98>)
  4069de:	68ba      	ldr	r2, [r7, #8]
  4069e0:	6819      	ldr	r1, [r3, #0]
  4069e2:	1b2d      	subs	r5, r5, r4
  4069e4:	f045 0501 	orr.w	r5, r5, #1
  4069e8:	4630      	mov	r0, r6
  4069ea:	1b09      	subs	r1, r1, r4
  4069ec:	6055      	str	r5, [r2, #4]
  4069ee:	6019      	str	r1, [r3, #0]
  4069f0:	f7fd fd06 	bl	404400 <__malloc_unlock>
  4069f4:	2001      	movs	r0, #1
  4069f6:	bdf8      	pop	{r3, r4, r5, r6, r7, pc}
  4069f8:	2100      	movs	r1, #0
  4069fa:	4630      	mov	r0, r6
  4069fc:	f7fd fd06 	bl	40440c <_sbrk_r>
  406a00:	68ba      	ldr	r2, [r7, #8]
  406a02:	1a83      	subs	r3, r0, r2
  406a04:	2b0f      	cmp	r3, #15
  406a06:	ddde      	ble.n	4069c6 <_malloc_trim_r+0x3e>
  406a08:	4c06      	ldr	r4, [pc, #24]	; (406a24 <_malloc_trim_r+0x9c>)
  406a0a:	4905      	ldr	r1, [pc, #20]	; (406a20 <_malloc_trim_r+0x98>)
  406a0c:	6824      	ldr	r4, [r4, #0]
  406a0e:	f043 0301 	orr.w	r3, r3, #1
  406a12:	1b00      	subs	r0, r0, r4
  406a14:	6053      	str	r3, [r2, #4]
  406a16:	6008      	str	r0, [r1, #0]
  406a18:	e7d5      	b.n	4069c6 <_malloc_trim_r+0x3e>
  406a1a:	bf00      	nop
  406a1c:	20000888 	.word	0x20000888
  406a20:	20001128 	.word	0x20001128
  406a24:	20000c90 	.word	0x20000c90

00406a28 <_free_r>:
  406a28:	2900      	cmp	r1, #0
  406a2a:	d044      	beq.n	406ab6 <_free_r+0x8e>
  406a2c:	e92d 41f0 	stmdb	sp!, {r4, r5, r6, r7, r8, lr}
  406a30:	460d      	mov	r5, r1
  406a32:	4680      	mov	r8, r0
  406a34:	f7fd fcde 	bl	4043f4 <__malloc_lock>
  406a38:	f855 7c04 	ldr.w	r7, [r5, #-4]
  406a3c:	4969      	ldr	r1, [pc, #420]	; (406be4 <_free_r+0x1bc>)
  406a3e:	f027 0301 	bic.w	r3, r7, #1
  406a42:	f1a5 0408 	sub.w	r4, r5, #8
  406a46:	18e2      	adds	r2, r4, r3
  406a48:	688e      	ldr	r6, [r1, #8]
  406a4a:	6850      	ldr	r0, [r2, #4]
  406a4c:	42b2      	cmp	r2, r6
  406a4e:	f020 0003 	bic.w	r0, r0, #3
  406a52:	d05e      	beq.n	406b12 <_free_r+0xea>
  406a54:	07fe      	lsls	r6, r7, #31
  406a56:	6050      	str	r0, [r2, #4]
  406a58:	d40b      	bmi.n	406a72 <_free_r+0x4a>
  406a5a:	f855 7c08 	ldr.w	r7, [r5, #-8]
  406a5e:	1be4      	subs	r4, r4, r7
  406a60:	f101 0e08 	add.w	lr, r1, #8
  406a64:	68a5      	ldr	r5, [r4, #8]
  406a66:	4575      	cmp	r5, lr
  406a68:	443b      	add	r3, r7
  406a6a:	d06d      	beq.n	406b48 <_free_r+0x120>
  406a6c:	68e7      	ldr	r7, [r4, #12]
  406a6e:	60ef      	str	r7, [r5, #12]
  406a70:	60bd      	str	r5, [r7, #8]
  406a72:	1815      	adds	r5, r2, r0
  406a74:	686d      	ldr	r5, [r5, #4]
  406a76:	07ed      	lsls	r5, r5, #31
  406a78:	d53e      	bpl.n	406af8 <_free_r+0xd0>
  406a7a:	f043 0201 	orr.w	r2, r3, #1
  406a7e:	6062      	str	r2, [r4, #4]
  406a80:	50e3      	str	r3, [r4, r3]
  406a82:	f5b3 7f00 	cmp.w	r3, #512	; 0x200
  406a86:	d217      	bcs.n	406ab8 <_free_r+0x90>
  406a88:	08db      	lsrs	r3, r3, #3
  406a8a:	1c58      	adds	r0, r3, #1
  406a8c:	109a      	asrs	r2, r3, #2
  406a8e:	684d      	ldr	r5, [r1, #4]
  406a90:	f851 7030 	ldr.w	r7, [r1, r0, lsl #3]
  406a94:	60a7      	str	r7, [r4, #8]
  406a96:	2301      	movs	r3, #1
  406a98:	4093      	lsls	r3, r2
  406a9a:	eb01 02c0 	add.w	r2, r1, r0, lsl #3
  406a9e:	432b      	orrs	r3, r5
  406aa0:	3a08      	subs	r2, #8
  406aa2:	60e2      	str	r2, [r4, #12]
  406aa4:	604b      	str	r3, [r1, #4]
  406aa6:	f841 4030 	str.w	r4, [r1, r0, lsl #3]
  406aaa:	60fc      	str	r4, [r7, #12]
  406aac:	4640      	mov	r0, r8
  406aae:	e8bd 41f0 	ldmia.w	sp!, {r4, r5, r6, r7, r8, lr}
  406ab2:	f7fd bca5 	b.w	404400 <__malloc_unlock>
  406ab6:	4770      	bx	lr
  406ab8:	0a5a      	lsrs	r2, r3, #9
  406aba:	2a04      	cmp	r2, #4
  406abc:	d852      	bhi.n	406b64 <_free_r+0x13c>
  406abe:	099a      	lsrs	r2, r3, #6
  406ac0:	f102 0739 	add.w	r7, r2, #57	; 0x39
  406ac4:	00ff      	lsls	r7, r7, #3
  406ac6:	f102 0538 	add.w	r5, r2, #56	; 0x38
  406aca:	19c8      	adds	r0, r1, r7
  406acc:	59ca      	ldr	r2, [r1, r7]
  406ace:	3808      	subs	r0, #8
  406ad0:	4290      	cmp	r0, r2
  406ad2:	d04f      	beq.n	406b74 <_free_r+0x14c>
  406ad4:	6851      	ldr	r1, [r2, #4]
  406ad6:	f021 0103 	bic.w	r1, r1, #3
  406ada:	428b      	cmp	r3, r1
  406adc:	d232      	bcs.n	406b44 <_free_r+0x11c>
  406ade:	6892      	ldr	r2, [r2, #8]
  406ae0:	4290      	cmp	r0, r2
  406ae2:	d1f7      	bne.n	406ad4 <_free_r+0xac>
  406ae4:	68c3      	ldr	r3, [r0, #12]
  406ae6:	60a0      	str	r0, [r4, #8]
  406ae8:	60e3      	str	r3, [r4, #12]
  406aea:	609c      	str	r4, [r3, #8]
  406aec:	60c4      	str	r4, [r0, #12]
  406aee:	4640      	mov	r0, r8
  406af0:	e8bd 41f0 	ldmia.w	sp!, {r4, r5, r6, r7, r8, lr}
  406af4:	f7fd bc84 	b.w	404400 <__malloc_unlock>
  406af8:	6895      	ldr	r5, [r2, #8]
  406afa:	4f3b      	ldr	r7, [pc, #236]	; (406be8 <_free_r+0x1c0>)
  406afc:	42bd      	cmp	r5, r7
  406afe:	4403      	add	r3, r0
  406b00:	d040      	beq.n	406b84 <_free_r+0x15c>
  406b02:	68d0      	ldr	r0, [r2, #12]
  406b04:	60e8      	str	r0, [r5, #12]
  406b06:	f043 0201 	orr.w	r2, r3, #1
  406b0a:	6085      	str	r5, [r0, #8]
  406b0c:	6062      	str	r2, [r4, #4]
  406b0e:	50e3      	str	r3, [r4, r3]
  406b10:	e7b7      	b.n	406a82 <_free_r+0x5a>
  406b12:	07ff      	lsls	r7, r7, #31
  406b14:	4403      	add	r3, r0
  406b16:	d407      	bmi.n	406b28 <_free_r+0x100>
  406b18:	f855 2c08 	ldr.w	r2, [r5, #-8]
  406b1c:	1aa4      	subs	r4, r4, r2
  406b1e:	4413      	add	r3, r2
  406b20:	68a0      	ldr	r0, [r4, #8]
  406b22:	68e2      	ldr	r2, [r4, #12]
  406b24:	60c2      	str	r2, [r0, #12]
  406b26:	6090      	str	r0, [r2, #8]
  406b28:	4a30      	ldr	r2, [pc, #192]	; (406bec <_free_r+0x1c4>)
  406b2a:	6812      	ldr	r2, [r2, #0]
  406b2c:	f043 0001 	orr.w	r0, r3, #1
  406b30:	4293      	cmp	r3, r2
  406b32:	6060      	str	r0, [r4, #4]
  406b34:	608c      	str	r4, [r1, #8]
  406b36:	d3b9      	bcc.n	406aac <_free_r+0x84>
  406b38:	4b2d      	ldr	r3, [pc, #180]	; (406bf0 <_free_r+0x1c8>)
  406b3a:	4640      	mov	r0, r8
  406b3c:	6819      	ldr	r1, [r3, #0]
  406b3e:	f7ff ff23 	bl	406988 <_malloc_trim_r>
  406b42:	e7b3      	b.n	406aac <_free_r+0x84>
  406b44:	4610      	mov	r0, r2
  406b46:	e7cd      	b.n	406ae4 <_free_r+0xbc>
  406b48:	1811      	adds	r1, r2, r0
  406b4a:	6849      	ldr	r1, [r1, #4]
  406b4c:	07c9      	lsls	r1, r1, #31
  406b4e:	d444      	bmi.n	406bda <_free_r+0x1b2>
  406b50:	6891      	ldr	r1, [r2, #8]
  406b52:	68d2      	ldr	r2, [r2, #12]
  406b54:	60ca      	str	r2, [r1, #12]
  406b56:	4403      	add	r3, r0
  406b58:	f043 0001 	orr.w	r0, r3, #1
  406b5c:	6091      	str	r1, [r2, #8]
  406b5e:	6060      	str	r0, [r4, #4]
  406b60:	50e3      	str	r3, [r4, r3]
  406b62:	e7a3      	b.n	406aac <_free_r+0x84>
  406b64:	2a14      	cmp	r2, #20
  406b66:	d816      	bhi.n	406b96 <_free_r+0x16e>
  406b68:	f102 075c 	add.w	r7, r2, #92	; 0x5c
  406b6c:	00ff      	lsls	r7, r7, #3
  406b6e:	f102 055b 	add.w	r5, r2, #91	; 0x5b
  406b72:	e7aa      	b.n	406aca <_free_r+0xa2>
  406b74:	10aa      	asrs	r2, r5, #2
  406b76:	2301      	movs	r3, #1
  406b78:	684d      	ldr	r5, [r1, #4]
  406b7a:	4093      	lsls	r3, r2
  406b7c:	432b      	orrs	r3, r5
  406b7e:	604b      	str	r3, [r1, #4]
  406b80:	4603      	mov	r3, r0
  406b82:	e7b0      	b.n	406ae6 <_free_r+0xbe>
  406b84:	f043 0201 	orr.w	r2, r3, #1
  406b88:	614c      	str	r4, [r1, #20]
  406b8a:	610c      	str	r4, [r1, #16]
  406b8c:	60e5      	str	r5, [r4, #12]
  406b8e:	60a5      	str	r5, [r4, #8]
  406b90:	6062      	str	r2, [r4, #4]
  406b92:	50e3      	str	r3, [r4, r3]
  406b94:	e78a      	b.n	406aac <_free_r+0x84>
  406b96:	2a54      	cmp	r2, #84	; 0x54
  406b98:	d806      	bhi.n	406ba8 <_free_r+0x180>
  406b9a:	0b1a      	lsrs	r2, r3, #12
  406b9c:	f102 076f 	add.w	r7, r2, #111	; 0x6f
  406ba0:	00ff      	lsls	r7, r7, #3
  406ba2:	f102 056e 	add.w	r5, r2, #110	; 0x6e
  406ba6:	e790      	b.n	406aca <_free_r+0xa2>
  406ba8:	f5b2 7faa 	cmp.w	r2, #340	; 0x154
  406bac:	d806      	bhi.n	406bbc <_free_r+0x194>
  406bae:	0bda      	lsrs	r2, r3, #15
  406bb0:	f102 0778 	add.w	r7, r2, #120	; 0x78
  406bb4:	00ff      	lsls	r7, r7, #3
  406bb6:	f102 0577 	add.w	r5, r2, #119	; 0x77
  406bba:	e786      	b.n	406aca <_free_r+0xa2>
  406bbc:	f240 5054 	movw	r0, #1364	; 0x554
  406bc0:	4282      	cmp	r2, r0
  406bc2:	d806      	bhi.n	406bd2 <_free_r+0x1aa>
  406bc4:	0c9a      	lsrs	r2, r3, #18
  406bc6:	f102 077d 	add.w	r7, r2, #125	; 0x7d
  406bca:	00ff      	lsls	r7, r7, #3
  406bcc:	f102 057c 	add.w	r5, r2, #124	; 0x7c
  406bd0:	e77b      	b.n	406aca <_free_r+0xa2>
  406bd2:	f44f 777e 	mov.w	r7, #1016	; 0x3f8
  406bd6:	257e      	movs	r5, #126	; 0x7e
  406bd8:	e777      	b.n	406aca <_free_r+0xa2>
  406bda:	f043 0101 	orr.w	r1, r3, #1
  406bde:	6061      	str	r1, [r4, #4]
  406be0:	6013      	str	r3, [r2, #0]
  406be2:	e763      	b.n	406aac <_free_r+0x84>
  406be4:	20000888 	.word	0x20000888
  406be8:	20000890 	.word	0x20000890
  406bec:	20000c94 	.word	0x20000c94
  406bf0:	20001158 	.word	0x20001158

00406bf4 <_localeconv_r>:
  406bf4:	4a04      	ldr	r2, [pc, #16]	; (406c08 <_localeconv_r+0x14>)
  406bf6:	4b05      	ldr	r3, [pc, #20]	; (406c0c <_localeconv_r+0x18>)
  406bf8:	6812      	ldr	r2, [r2, #0]
  406bfa:	6b50      	ldr	r0, [r2, #52]	; 0x34
  406bfc:	2800      	cmp	r0, #0
  406bfe:	bf08      	it	eq
  406c00:	4618      	moveq	r0, r3
  406c02:	30f0      	adds	r0, #240	; 0xf0
  406c04:	4770      	bx	lr
  406c06:	bf00      	nop
  406c08:	20000458 	.word	0x20000458
  406c0c:	20000c9c 	.word	0x20000c9c

00406c10 <__retarget_lock_acquire_recursive>:
  406c10:	4770      	bx	lr
  406c12:	bf00      	nop

00406c14 <__retarget_lock_release_recursive>:
  406c14:	4770      	bx	lr
  406c16:	bf00      	nop

00406c18 <__ascii_mbtowc>:
  406c18:	b082      	sub	sp, #8
  406c1a:	b149      	cbz	r1, 406c30 <__ascii_mbtowc+0x18>
  406c1c:	b15a      	cbz	r2, 406c36 <__ascii_mbtowc+0x1e>
  406c1e:	b16b      	cbz	r3, 406c3c <__ascii_mbtowc+0x24>
  406c20:	7813      	ldrb	r3, [r2, #0]
  406c22:	600b      	str	r3, [r1, #0]
  406c24:	7812      	ldrb	r2, [r2, #0]
  406c26:	1c10      	adds	r0, r2, #0
  406c28:	bf18      	it	ne
  406c2a:	2001      	movne	r0, #1
  406c2c:	b002      	add	sp, #8
  406c2e:	4770      	bx	lr
  406c30:	a901      	add	r1, sp, #4
  406c32:	2a00      	cmp	r2, #0
  406c34:	d1f3      	bne.n	406c1e <__ascii_mbtowc+0x6>
  406c36:	4610      	mov	r0, r2
  406c38:	b002      	add	sp, #8
  406c3a:	4770      	bx	lr
  406c3c:	f06f 0001 	mvn.w	r0, #1
  406c40:	e7f4      	b.n	406c2c <__ascii_mbtowc+0x14>
  406c42:	bf00      	nop
	...

00406c50 <memchr>:
  406c50:	f001 01ff 	and.w	r1, r1, #255	; 0xff
  406c54:	2a10      	cmp	r2, #16
  406c56:	db2b      	blt.n	406cb0 <memchr+0x60>
  406c58:	f010 0f07 	tst.w	r0, #7
  406c5c:	d008      	beq.n	406c70 <memchr+0x20>
  406c5e:	f810 3b01 	ldrb.w	r3, [r0], #1
  406c62:	3a01      	subs	r2, #1
  406c64:	428b      	cmp	r3, r1
  406c66:	d02d      	beq.n	406cc4 <memchr+0x74>
  406c68:	f010 0f07 	tst.w	r0, #7
  406c6c:	b342      	cbz	r2, 406cc0 <memchr+0x70>
  406c6e:	d1f6      	bne.n	406c5e <memchr+0xe>
  406c70:	b4f0      	push	{r4, r5, r6, r7}
  406c72:	ea41 2101 	orr.w	r1, r1, r1, lsl #8
  406c76:	ea41 4101 	orr.w	r1, r1, r1, lsl #16
  406c7a:	f022 0407 	bic.w	r4, r2, #7
  406c7e:	f07f 0700 	mvns.w	r7, #0
  406c82:	2300      	movs	r3, #0
  406c84:	e8f0 5602 	ldrd	r5, r6, [r0], #8
  406c88:	3c08      	subs	r4, #8
  406c8a:	ea85 0501 	eor.w	r5, r5, r1
  406c8e:	ea86 0601 	eor.w	r6, r6, r1
  406c92:	fa85 f547 	uadd8	r5, r5, r7
  406c96:	faa3 f587 	sel	r5, r3, r7
  406c9a:	fa86 f647 	uadd8	r6, r6, r7
  406c9e:	faa5 f687 	sel	r6, r5, r7
  406ca2:	b98e      	cbnz	r6, 406cc8 <memchr+0x78>
  406ca4:	d1ee      	bne.n	406c84 <memchr+0x34>
  406ca6:	bcf0      	pop	{r4, r5, r6, r7}
  406ca8:	f001 01ff 	and.w	r1, r1, #255	; 0xff
  406cac:	f002 0207 	and.w	r2, r2, #7
  406cb0:	b132      	cbz	r2, 406cc0 <memchr+0x70>
  406cb2:	f810 3b01 	ldrb.w	r3, [r0], #1
  406cb6:	3a01      	subs	r2, #1
  406cb8:	ea83 0301 	eor.w	r3, r3, r1
  406cbc:	b113      	cbz	r3, 406cc4 <memchr+0x74>
  406cbe:	d1f8      	bne.n	406cb2 <memchr+0x62>
  406cc0:	2000      	movs	r0, #0
  406cc2:	4770      	bx	lr
  406cc4:	3801      	subs	r0, #1
  406cc6:	4770      	bx	lr
  406cc8:	2d00      	cmp	r5, #0
  406cca:	bf06      	itte	eq
  406ccc:	4635      	moveq	r5, r6
  406cce:	3803      	subeq	r0, #3
  406cd0:	3807      	subne	r0, #7
  406cd2:	f015 0f01 	tst.w	r5, #1
  406cd6:	d107      	bne.n	406ce8 <memchr+0x98>
  406cd8:	3001      	adds	r0, #1
  406cda:	f415 7f80 	tst.w	r5, #256	; 0x100
  406cde:	bf02      	ittt	eq
  406ce0:	3001      	addeq	r0, #1
  406ce2:	f415 3fc0 	tsteq.w	r5, #98304	; 0x18000
  406ce6:	3001      	addeq	r0, #1
  406ce8:	bcf0      	pop	{r4, r5, r6, r7}
  406cea:	3801      	subs	r0, #1
  406cec:	4770      	bx	lr
  406cee:	bf00      	nop

00406cf0 <memcpy>:
  406cf0:	4684      	mov	ip, r0
  406cf2:	ea41 0300 	orr.w	r3, r1, r0
  406cf6:	f013 0303 	ands.w	r3, r3, #3
  406cfa:	d16d      	bne.n	406dd8 <memcpy+0xe8>
  406cfc:	3a40      	subs	r2, #64	; 0x40
  406cfe:	d341      	bcc.n	406d84 <memcpy+0x94>
  406d00:	f851 3b04 	ldr.w	r3, [r1], #4
  406d04:	f840 3b04 	str.w	r3, [r0], #4
  406d08:	f851 3b04 	ldr.w	r3, [r1], #4
  406d0c:	f840 3b04 	str.w	r3, [r0], #4
  406d10:	f851 3b04 	ldr.w	r3, [r1], #4
  406d14:	f840 3b04 	str.w	r3, [r0], #4
  406d18:	f851 3b04 	ldr.w	r3, [r1], #4
  406d1c:	f840 3b04 	str.w	r3, [r0], #4
  406d20:	f851 3b04 	ldr.w	r3, [r1], #4
  406d24:	f840 3b04 	str.w	r3, [r0], #4
  406d28:	f851 3b04 	ldr.w	r3, [r1], #4
  406d2c:	f840 3b04 	str.w	r3, [r0], #4
  406d30:	f851 3b04 	ldr.w	r3, [r1], #4
  406d34:	f840 3b04 	str.w	r3, [r0], #4
  406d38:	f851 3b04 	ldr.w	r3, [r1], #4
  406d3c:	f840 3b04 	str.w	r3, [r0], #4
  406d40:	f851 3b04 	ldr.w	r3, [r1], #4
  406d44:	f840 3b04 	str.w	r3, [r0], #4
  406d48:	f851 3b04 	ldr.w	r3, [r1], #4
  406d4c:	f840 3b04 	str.w	r3, [r0], #4
  406d50:	f851 3b04 	ldr.w	r3, [r1], #4
  406d54:	f840 3b04 	str.w	r3, [r0], #4
  406d58:	f851 3b04 	ldr.w	r3, [r1], #4
  406d5c:	f840 3b04 	str.w	r3, [r0], #4
  406d60:	f851 3b04 	ldr.w	r3, [r1], #4
  406d64:	f840 3b04 	str.w	r3, [r0], #4
  406d68:	f851 3b04 	ldr.w	r3, [r1], #4
  406d6c:	f840 3b04 	str.w	r3, [r0], #4
  406d70:	f851 3b04 	ldr.w	r3, [r1], #4
  406d74:	f840 3b04 	str.w	r3, [r0], #4
  406d78:	f851 3b04 	ldr.w	r3, [r1], #4
  406d7c:	f840 3b04 	str.w	r3, [r0], #4
  406d80:	3a40      	subs	r2, #64	; 0x40
  406d82:	d2bd      	bcs.n	406d00 <memcpy+0x10>
  406d84:	3230      	adds	r2, #48	; 0x30
  406d86:	d311      	bcc.n	406dac <memcpy+0xbc>
  406d88:	f851 3b04 	ldr.w	r3, [r1], #4
  406d8c:	f840 3b04 	str.w	r3, [r0], #4
  406d90:	f851 3b04 	ldr.w	r3, [r1], #4
  406d94:	f840 3b04 	str.w	r3, [r0], #4
  406d98:	f851 3b04 	ldr.w	r3, [r1], #4
  406d9c:	f840 3b04 	str.w	r3, [r0], #4
  406da0:	f851 3b04 	ldr.w	r3, [r1], #4
  406da4:	f840 3b04 	str.w	r3, [r0], #4
  406da8:	3a10      	subs	r2, #16
  406daa:	d2ed      	bcs.n	406d88 <memcpy+0x98>
  406dac:	320c      	adds	r2, #12
  406dae:	d305      	bcc.n	406dbc <memcpy+0xcc>
  406db0:	f851 3b04 	ldr.w	r3, [r1], #4
  406db4:	f840 3b04 	str.w	r3, [r0], #4
  406db8:	3a04      	subs	r2, #4
  406dba:	d2f9      	bcs.n	406db0 <memcpy+0xc0>
  406dbc:	3204      	adds	r2, #4
  406dbe:	d008      	beq.n	406dd2 <memcpy+0xe2>
  406dc0:	07d2      	lsls	r2, r2, #31
  406dc2:	bf1c      	itt	ne
  406dc4:	f811 3b01 	ldrbne.w	r3, [r1], #1
  406dc8:	f800 3b01 	strbne.w	r3, [r0], #1
  406dcc:	d301      	bcc.n	406dd2 <memcpy+0xe2>
  406dce:	880b      	ldrh	r3, [r1, #0]
  406dd0:	8003      	strh	r3, [r0, #0]
  406dd2:	4660      	mov	r0, ip
  406dd4:	4770      	bx	lr
  406dd6:	bf00      	nop
  406dd8:	2a08      	cmp	r2, #8
  406dda:	d313      	bcc.n	406e04 <memcpy+0x114>
  406ddc:	078b      	lsls	r3, r1, #30
  406dde:	d08d      	beq.n	406cfc <memcpy+0xc>
  406de0:	f010 0303 	ands.w	r3, r0, #3
  406de4:	d08a      	beq.n	406cfc <memcpy+0xc>
  406de6:	f1c3 0304 	rsb	r3, r3, #4
  406dea:	1ad2      	subs	r2, r2, r3
  406dec:	07db      	lsls	r3, r3, #31
  406dee:	bf1c      	itt	ne
  406df0:	f811 3b01 	ldrbne.w	r3, [r1], #1
  406df4:	f800 3b01 	strbne.w	r3, [r0], #1
  406df8:	d380      	bcc.n	406cfc <memcpy+0xc>
  406dfa:	f831 3b02 	ldrh.w	r3, [r1], #2
  406dfe:	f820 3b02 	strh.w	r3, [r0], #2
  406e02:	e77b      	b.n	406cfc <memcpy+0xc>
  406e04:	3a04      	subs	r2, #4
  406e06:	d3d9      	bcc.n	406dbc <memcpy+0xcc>
  406e08:	3a01      	subs	r2, #1
  406e0a:	f811 3b01 	ldrb.w	r3, [r1], #1
  406e0e:	f800 3b01 	strb.w	r3, [r0], #1
  406e12:	d2f9      	bcs.n	406e08 <memcpy+0x118>
  406e14:	780b      	ldrb	r3, [r1, #0]
  406e16:	7003      	strb	r3, [r0, #0]
  406e18:	784b      	ldrb	r3, [r1, #1]
  406e1a:	7043      	strb	r3, [r0, #1]
  406e1c:	788b      	ldrb	r3, [r1, #2]
  406e1e:	7083      	strb	r3, [r0, #2]
  406e20:	4660      	mov	r0, ip
  406e22:	4770      	bx	lr

00406e24 <memmove>:
  406e24:	4288      	cmp	r0, r1
  406e26:	b5f0      	push	{r4, r5, r6, r7, lr}
  406e28:	d90d      	bls.n	406e46 <memmove+0x22>
  406e2a:	188b      	adds	r3, r1, r2
  406e2c:	4298      	cmp	r0, r3
  406e2e:	d20a      	bcs.n	406e46 <memmove+0x22>
  406e30:	1884      	adds	r4, r0, r2
  406e32:	2a00      	cmp	r2, #0
  406e34:	d051      	beq.n	406eda <memmove+0xb6>
  406e36:	4622      	mov	r2, r4
  406e38:	f813 4d01 	ldrb.w	r4, [r3, #-1]!
  406e3c:	f802 4d01 	strb.w	r4, [r2, #-1]!
  406e40:	4299      	cmp	r1, r3
  406e42:	d1f9      	bne.n	406e38 <memmove+0x14>
  406e44:	bdf0      	pop	{r4, r5, r6, r7, pc}
  406e46:	2a0f      	cmp	r2, #15
  406e48:	d948      	bls.n	406edc <memmove+0xb8>
  406e4a:	ea41 0300 	orr.w	r3, r1, r0
  406e4e:	079b      	lsls	r3, r3, #30
  406e50:	d146      	bne.n	406ee0 <memmove+0xbc>
  406e52:	f100 0410 	add.w	r4, r0, #16
  406e56:	f101 0310 	add.w	r3, r1, #16
  406e5a:	4615      	mov	r5, r2
  406e5c:	f853 6c10 	ldr.w	r6, [r3, #-16]
  406e60:	f844 6c10 	str.w	r6, [r4, #-16]
  406e64:	f853 6c0c 	ldr.w	r6, [r3, #-12]
  406e68:	f844 6c0c 	str.w	r6, [r4, #-12]
  406e6c:	f853 6c08 	ldr.w	r6, [r3, #-8]
  406e70:	f844 6c08 	str.w	r6, [r4, #-8]
  406e74:	3d10      	subs	r5, #16
  406e76:	f853 6c04 	ldr.w	r6, [r3, #-4]
  406e7a:	f844 6c04 	str.w	r6, [r4, #-4]
  406e7e:	2d0f      	cmp	r5, #15
  406e80:	f103 0310 	add.w	r3, r3, #16
  406e84:	f104 0410 	add.w	r4, r4, #16
  406e88:	d8e8      	bhi.n	406e5c <memmove+0x38>
  406e8a:	f1a2 0310 	sub.w	r3, r2, #16
  406e8e:	f023 030f 	bic.w	r3, r3, #15
  406e92:	f002 0e0f 	and.w	lr, r2, #15
  406e96:	3310      	adds	r3, #16
  406e98:	f1be 0f03 	cmp.w	lr, #3
  406e9c:	4419      	add	r1, r3
  406e9e:	4403      	add	r3, r0
  406ea0:	d921      	bls.n	406ee6 <memmove+0xc2>
  406ea2:	1f1e      	subs	r6, r3, #4
  406ea4:	460d      	mov	r5, r1
  406ea6:	4674      	mov	r4, lr
  406ea8:	3c04      	subs	r4, #4
  406eaa:	f855 7b04 	ldr.w	r7, [r5], #4
  406eae:	f846 7f04 	str.w	r7, [r6, #4]!
  406eb2:	2c03      	cmp	r4, #3
  406eb4:	d8f8      	bhi.n	406ea8 <memmove+0x84>
  406eb6:	f1ae 0404 	sub.w	r4, lr, #4
  406eba:	f024 0403 	bic.w	r4, r4, #3
  406ebe:	3404      	adds	r4, #4
  406ec0:	4421      	add	r1, r4
  406ec2:	4423      	add	r3, r4
  406ec4:	f002 0203 	and.w	r2, r2, #3
  406ec8:	b162      	cbz	r2, 406ee4 <memmove+0xc0>
  406eca:	3b01      	subs	r3, #1
  406ecc:	440a      	add	r2, r1
  406ece:	f811 4b01 	ldrb.w	r4, [r1], #1
  406ed2:	f803 4f01 	strb.w	r4, [r3, #1]!
  406ed6:	428a      	cmp	r2, r1
  406ed8:	d1f9      	bne.n	406ece <memmove+0xaa>
  406eda:	bdf0      	pop	{r4, r5, r6, r7, pc}
  406edc:	4603      	mov	r3, r0
  406ede:	e7f3      	b.n	406ec8 <memmove+0xa4>
  406ee0:	4603      	mov	r3, r0
  406ee2:	e7f2      	b.n	406eca <memmove+0xa6>
  406ee4:	bdf0      	pop	{r4, r5, r6, r7, pc}
  406ee6:	4672      	mov	r2, lr
  406ee8:	e7ee      	b.n	406ec8 <memmove+0xa4>
  406eea:	bf00      	nop

00406eec <_Balloc>:
  406eec:	6cc3      	ldr	r3, [r0, #76]	; 0x4c
  406eee:	b570      	push	{r4, r5, r6, lr}
  406ef0:	4605      	mov	r5, r0
  406ef2:	460c      	mov	r4, r1
  406ef4:	b14b      	cbz	r3, 406f0a <_Balloc+0x1e>
  406ef6:	f853 0024 	ldr.w	r0, [r3, r4, lsl #2]
  406efa:	b180      	cbz	r0, 406f1e <_Balloc+0x32>
  406efc:	6802      	ldr	r2, [r0, #0]
  406efe:	f843 2024 	str.w	r2, [r3, r4, lsl #2]
  406f02:	2300      	movs	r3, #0
  406f04:	6103      	str	r3, [r0, #16]
  406f06:	60c3      	str	r3, [r0, #12]
  406f08:	bd70      	pop	{r4, r5, r6, pc}
  406f0a:	2221      	movs	r2, #33	; 0x21
  406f0c:	2104      	movs	r1, #4
  406f0e:	f000 fd7b 	bl	407a08 <_calloc_r>
  406f12:	64e8      	str	r0, [r5, #76]	; 0x4c
  406f14:	4603      	mov	r3, r0
  406f16:	2800      	cmp	r0, #0
  406f18:	d1ed      	bne.n	406ef6 <_Balloc+0xa>
  406f1a:	2000      	movs	r0, #0
  406f1c:	bd70      	pop	{r4, r5, r6, pc}
  406f1e:	2101      	movs	r1, #1
  406f20:	fa01 f604 	lsl.w	r6, r1, r4
  406f24:	1d72      	adds	r2, r6, #5
  406f26:	4628      	mov	r0, r5
  406f28:	0092      	lsls	r2, r2, #2
  406f2a:	f000 fd6d 	bl	407a08 <_calloc_r>
  406f2e:	2800      	cmp	r0, #0
  406f30:	d0f3      	beq.n	406f1a <_Balloc+0x2e>
  406f32:	6044      	str	r4, [r0, #4]
  406f34:	6086      	str	r6, [r0, #8]
  406f36:	e7e4      	b.n	406f02 <_Balloc+0x16>

00406f38 <_Bfree>:
  406f38:	b131      	cbz	r1, 406f48 <_Bfree+0x10>
  406f3a:	6cc3      	ldr	r3, [r0, #76]	; 0x4c
  406f3c:	684a      	ldr	r2, [r1, #4]
  406f3e:	f853 0022 	ldr.w	r0, [r3, r2, lsl #2]
  406f42:	6008      	str	r0, [r1, #0]
  406f44:	f843 1022 	str.w	r1, [r3, r2, lsl #2]
  406f48:	4770      	bx	lr
  406f4a:	bf00      	nop

00406f4c <__multadd>:
  406f4c:	b5f0      	push	{r4, r5, r6, r7, lr}
  406f4e:	690c      	ldr	r4, [r1, #16]
  406f50:	b083      	sub	sp, #12
  406f52:	460d      	mov	r5, r1
  406f54:	4606      	mov	r6, r0
  406f56:	f101 0e14 	add.w	lr, r1, #20
  406f5a:	2700      	movs	r7, #0
  406f5c:	f8de 0000 	ldr.w	r0, [lr]
  406f60:	b281      	uxth	r1, r0
  406f62:	fb02 3301 	mla	r3, r2, r1, r3
  406f66:	0c01      	lsrs	r1, r0, #16
  406f68:	0c18      	lsrs	r0, r3, #16
  406f6a:	fb02 0101 	mla	r1, r2, r1, r0
  406f6e:	b29b      	uxth	r3, r3
  406f70:	3701      	adds	r7, #1
  406f72:	eb03 4301 	add.w	r3, r3, r1, lsl #16
  406f76:	42bc      	cmp	r4, r7
  406f78:	f84e 3b04 	str.w	r3, [lr], #4
  406f7c:	ea4f 4311 	mov.w	r3, r1, lsr #16
  406f80:	dcec      	bgt.n	406f5c <__multadd+0x10>
  406f82:	b13b      	cbz	r3, 406f94 <__multadd+0x48>
  406f84:	68aa      	ldr	r2, [r5, #8]
  406f86:	4294      	cmp	r4, r2
  406f88:	da07      	bge.n	406f9a <__multadd+0x4e>
  406f8a:	eb05 0284 	add.w	r2, r5, r4, lsl #2
  406f8e:	3401      	adds	r4, #1
  406f90:	6153      	str	r3, [r2, #20]
  406f92:	612c      	str	r4, [r5, #16]
  406f94:	4628      	mov	r0, r5
  406f96:	b003      	add	sp, #12
  406f98:	bdf0      	pop	{r4, r5, r6, r7, pc}
  406f9a:	6869      	ldr	r1, [r5, #4]
  406f9c:	9301      	str	r3, [sp, #4]
  406f9e:	3101      	adds	r1, #1
  406fa0:	4630      	mov	r0, r6
  406fa2:	f7ff ffa3 	bl	406eec <_Balloc>
  406fa6:	692a      	ldr	r2, [r5, #16]
  406fa8:	3202      	adds	r2, #2
  406faa:	f105 010c 	add.w	r1, r5, #12
  406fae:	4607      	mov	r7, r0
  406fb0:	0092      	lsls	r2, r2, #2
  406fb2:	300c      	adds	r0, #12
  406fb4:	f7ff fe9c 	bl	406cf0 <memcpy>
  406fb8:	6cf2      	ldr	r2, [r6, #76]	; 0x4c
  406fba:	6869      	ldr	r1, [r5, #4]
  406fbc:	9b01      	ldr	r3, [sp, #4]
  406fbe:	f852 0021 	ldr.w	r0, [r2, r1, lsl #2]
  406fc2:	6028      	str	r0, [r5, #0]
  406fc4:	f842 5021 	str.w	r5, [r2, r1, lsl #2]
  406fc8:	463d      	mov	r5, r7
  406fca:	e7de      	b.n	406f8a <__multadd+0x3e>

00406fcc <__hi0bits>:
  406fcc:	0c02      	lsrs	r2, r0, #16
  406fce:	0412      	lsls	r2, r2, #16
  406fd0:	4603      	mov	r3, r0
  406fd2:	b9b2      	cbnz	r2, 407002 <__hi0bits+0x36>
  406fd4:	0403      	lsls	r3, r0, #16
  406fd6:	2010      	movs	r0, #16
  406fd8:	f013 4f7f 	tst.w	r3, #4278190080	; 0xff000000
  406fdc:	bf04      	itt	eq
  406fde:	021b      	lsleq	r3, r3, #8
  406fe0:	3008      	addeq	r0, #8
  406fe2:	f013 4f70 	tst.w	r3, #4026531840	; 0xf0000000
  406fe6:	bf04      	itt	eq
  406fe8:	011b      	lsleq	r3, r3, #4
  406fea:	3004      	addeq	r0, #4
  406fec:	f013 4f40 	tst.w	r3, #3221225472	; 0xc0000000
  406ff0:	bf04      	itt	eq
  406ff2:	009b      	lsleq	r3, r3, #2
  406ff4:	3002      	addeq	r0, #2
  406ff6:	2b00      	cmp	r3, #0
  406ff8:	db02      	blt.n	407000 <__hi0bits+0x34>
  406ffa:	005b      	lsls	r3, r3, #1
  406ffc:	d403      	bmi.n	407006 <__hi0bits+0x3a>
  406ffe:	2020      	movs	r0, #32
  407000:	4770      	bx	lr
  407002:	2000      	movs	r0, #0
  407004:	e7e8      	b.n	406fd8 <__hi0bits+0xc>
  407006:	3001      	adds	r0, #1
  407008:	4770      	bx	lr
  40700a:	bf00      	nop

0040700c <__lo0bits>:
  40700c:	6803      	ldr	r3, [r0, #0]
  40700e:	f013 0207 	ands.w	r2, r3, #7
  407012:	4601      	mov	r1, r0
  407014:	d007      	beq.n	407026 <__lo0bits+0x1a>
  407016:	07da      	lsls	r2, r3, #31
  407018:	d421      	bmi.n	40705e <__lo0bits+0x52>
  40701a:	0798      	lsls	r0, r3, #30
  40701c:	d421      	bmi.n	407062 <__lo0bits+0x56>
  40701e:	089b      	lsrs	r3, r3, #2
  407020:	600b      	str	r3, [r1, #0]
  407022:	2002      	movs	r0, #2
  407024:	4770      	bx	lr
  407026:	b298      	uxth	r0, r3
  407028:	b198      	cbz	r0, 407052 <__lo0bits+0x46>
  40702a:	4610      	mov	r0, r2
  40702c:	f013 0fff 	tst.w	r3, #255	; 0xff
  407030:	bf04      	itt	eq
  407032:	0a1b      	lsreq	r3, r3, #8
  407034:	3008      	addeq	r0, #8
  407036:	071a      	lsls	r2, r3, #28
  407038:	bf04      	itt	eq
  40703a:	091b      	lsreq	r3, r3, #4
  40703c:	3004      	addeq	r0, #4
  40703e:	079a      	lsls	r2, r3, #30
  407040:	bf04      	itt	eq
  407042:	089b      	lsreq	r3, r3, #2
  407044:	3002      	addeq	r0, #2
  407046:	07da      	lsls	r2, r3, #31
  407048:	d407      	bmi.n	40705a <__lo0bits+0x4e>
  40704a:	085b      	lsrs	r3, r3, #1
  40704c:	d104      	bne.n	407058 <__lo0bits+0x4c>
  40704e:	2020      	movs	r0, #32
  407050:	4770      	bx	lr
  407052:	0c1b      	lsrs	r3, r3, #16
  407054:	2010      	movs	r0, #16
  407056:	e7e9      	b.n	40702c <__lo0bits+0x20>
  407058:	3001      	adds	r0, #1
  40705a:	600b      	str	r3, [r1, #0]
  40705c:	4770      	bx	lr
  40705e:	2000      	movs	r0, #0
  407060:	4770      	bx	lr
  407062:	085b      	lsrs	r3, r3, #1
  407064:	600b      	str	r3, [r1, #0]
  407066:	2001      	movs	r0, #1
  407068:	4770      	bx	lr
  40706a:	bf00      	nop

0040706c <__i2b>:
  40706c:	b510      	push	{r4, lr}
  40706e:	460c      	mov	r4, r1
  407070:	2101      	movs	r1, #1
  407072:	f7ff ff3b 	bl	406eec <_Balloc>
  407076:	2201      	movs	r2, #1
  407078:	6144      	str	r4, [r0, #20]
  40707a:	6102      	str	r2, [r0, #16]
  40707c:	bd10      	pop	{r4, pc}
  40707e:	bf00      	nop

00407080 <__multiply>:
  407080:	e92d 4ff0 	stmdb	sp!, {r4, r5, r6, r7, r8, r9, sl, fp, lr}
  407084:	690c      	ldr	r4, [r1, #16]
  407086:	6915      	ldr	r5, [r2, #16]
  407088:	42ac      	cmp	r4, r5
  40708a:	b083      	sub	sp, #12
  40708c:	468b      	mov	fp, r1
  40708e:	4616      	mov	r6, r2
  407090:	da04      	bge.n	40709c <__multiply+0x1c>
  407092:	4622      	mov	r2, r4
  407094:	46b3      	mov	fp, r6
  407096:	462c      	mov	r4, r5
  407098:	460e      	mov	r6, r1
  40709a:	4615      	mov	r5, r2
  40709c:	f8db 3008 	ldr.w	r3, [fp, #8]
  4070a0:	f8db 1004 	ldr.w	r1, [fp, #4]
  4070a4:	eb04 0805 	add.w	r8, r4, r5
  4070a8:	4598      	cmp	r8, r3
  4070aa:	bfc8      	it	gt
  4070ac:	3101      	addgt	r1, #1
  4070ae:	f7ff ff1d 	bl	406eec <_Balloc>
  4070b2:	f100 0914 	add.w	r9, r0, #20
  4070b6:	eb09 0a88 	add.w	sl, r9, r8, lsl #2
  4070ba:	45d1      	cmp	r9, sl
  4070bc:	9000      	str	r0, [sp, #0]
  4070be:	d205      	bcs.n	4070cc <__multiply+0x4c>
  4070c0:	464b      	mov	r3, r9
  4070c2:	2100      	movs	r1, #0
  4070c4:	f843 1b04 	str.w	r1, [r3], #4
  4070c8:	459a      	cmp	sl, r3
  4070ca:	d8fb      	bhi.n	4070c4 <__multiply+0x44>
  4070cc:	f106 0c14 	add.w	ip, r6, #20
  4070d0:	eb0c 0385 	add.w	r3, ip, r5, lsl #2
  4070d4:	f10b 0b14 	add.w	fp, fp, #20
  4070d8:	459c      	cmp	ip, r3
  4070da:	eb0b 0e84 	add.w	lr, fp, r4, lsl #2
  4070de:	d24c      	bcs.n	40717a <__multiply+0xfa>
  4070e0:	f8cd a004 	str.w	sl, [sp, #4]
  4070e4:	469a      	mov	sl, r3
  4070e6:	f8dc 5000 	ldr.w	r5, [ip]
  4070ea:	b2af      	uxth	r7, r5
  4070ec:	b1ef      	cbz	r7, 40712a <__multiply+0xaa>
  4070ee:	2100      	movs	r1, #0
  4070f0:	464d      	mov	r5, r9
  4070f2:	465e      	mov	r6, fp
  4070f4:	460c      	mov	r4, r1
  4070f6:	f856 2b04 	ldr.w	r2, [r6], #4
  4070fa:	6828      	ldr	r0, [r5, #0]
  4070fc:	b293      	uxth	r3, r2
  4070fe:	b281      	uxth	r1, r0
  407100:	fb07 1303 	mla	r3, r7, r3, r1
  407104:	0c12      	lsrs	r2, r2, #16
  407106:	0c01      	lsrs	r1, r0, #16
  407108:	4423      	add	r3, r4
  40710a:	fb07 1102 	mla	r1, r7, r2, r1
  40710e:	eb01 4113 	add.w	r1, r1, r3, lsr #16
  407112:	b29b      	uxth	r3, r3
  407114:	ea43 4301 	orr.w	r3, r3, r1, lsl #16
  407118:	45b6      	cmp	lr, r6
  40711a:	f845 3b04 	str.w	r3, [r5], #4
  40711e:	ea4f 4411 	mov.w	r4, r1, lsr #16
  407122:	d8e8      	bhi.n	4070f6 <__multiply+0x76>
  407124:	602c      	str	r4, [r5, #0]
  407126:	f8dc 5000 	ldr.w	r5, [ip]
  40712a:	0c2d      	lsrs	r5, r5, #16
  40712c:	d01d      	beq.n	40716a <__multiply+0xea>
  40712e:	f8d9 3000 	ldr.w	r3, [r9]
  407132:	4648      	mov	r0, r9
  407134:	461c      	mov	r4, r3
  407136:	4659      	mov	r1, fp
  407138:	2200      	movs	r2, #0
  40713a:	880e      	ldrh	r6, [r1, #0]
  40713c:	0c24      	lsrs	r4, r4, #16
  40713e:	fb05 4406 	mla	r4, r5, r6, r4
  407142:	4422      	add	r2, r4
  407144:	b29b      	uxth	r3, r3
  407146:	ea43 4302 	orr.w	r3, r3, r2, lsl #16
  40714a:	f840 3b04 	str.w	r3, [r0], #4
  40714e:	f851 3b04 	ldr.w	r3, [r1], #4
  407152:	6804      	ldr	r4, [r0, #0]
  407154:	0c1b      	lsrs	r3, r3, #16
  407156:	b2a6      	uxth	r6, r4
  407158:	fb05 6303 	mla	r3, r5, r3, r6
  40715c:	eb03 4312 	add.w	r3, r3, r2, lsr #16
  407160:	458e      	cmp	lr, r1
  407162:	ea4f 4213 	mov.w	r2, r3, lsr #16
  407166:	d8e8      	bhi.n	40713a <__multiply+0xba>
  407168:	6003      	str	r3, [r0, #0]
  40716a:	f10c 0c04 	add.w	ip, ip, #4
  40716e:	45e2      	cmp	sl, ip
  407170:	f109 0904 	add.w	r9, r9, #4
  407174:	d8b7      	bhi.n	4070e6 <__multiply+0x66>
  407176:	f8dd a004 	ldr.w	sl, [sp, #4]
  40717a:	f1b8 0f00 	cmp.w	r8, #0
  40717e:	dd0b      	ble.n	407198 <__multiply+0x118>
  407180:	f85a 3c04 	ldr.w	r3, [sl, #-4]
  407184:	f1aa 0a04 	sub.w	sl, sl, #4
  407188:	b11b      	cbz	r3, 407192 <__multiply+0x112>
  40718a:	e005      	b.n	407198 <__multiply+0x118>
  40718c:	f85a 3d04 	ldr.w	r3, [sl, #-4]!
  407190:	b913      	cbnz	r3, 407198 <__multiply+0x118>
  407192:	f1b8 0801 	subs.w	r8, r8, #1
  407196:	d1f9      	bne.n	40718c <__multiply+0x10c>
  407198:	9800      	ldr	r0, [sp, #0]
  40719a:	f8c0 8010 	str.w	r8, [r0, #16]
  40719e:	b003      	add	sp, #12
  4071a0:	e8bd 8ff0 	ldmia.w	sp!, {r4, r5, r6, r7, r8, r9, sl, fp, pc}

004071a4 <__pow5mult>:
  4071a4:	f012 0303 	ands.w	r3, r2, #3
  4071a8:	e92d 41f0 	stmdb	sp!, {r4, r5, r6, r7, r8, lr}
  4071ac:	4614      	mov	r4, r2
  4071ae:	4607      	mov	r7, r0
  4071b0:	d12e      	bne.n	407210 <__pow5mult+0x6c>
  4071b2:	460d      	mov	r5, r1
  4071b4:	10a4      	asrs	r4, r4, #2
  4071b6:	d01c      	beq.n	4071f2 <__pow5mult+0x4e>
  4071b8:	6cbe      	ldr	r6, [r7, #72]	; 0x48
  4071ba:	b396      	cbz	r6, 407222 <__pow5mult+0x7e>
  4071bc:	07e3      	lsls	r3, r4, #31
  4071be:	f04f 0800 	mov.w	r8, #0
  4071c2:	d406      	bmi.n	4071d2 <__pow5mult+0x2e>
  4071c4:	1064      	asrs	r4, r4, #1
  4071c6:	d014      	beq.n	4071f2 <__pow5mult+0x4e>
  4071c8:	6830      	ldr	r0, [r6, #0]
  4071ca:	b1a8      	cbz	r0, 4071f8 <__pow5mult+0x54>
  4071cc:	4606      	mov	r6, r0
  4071ce:	07e3      	lsls	r3, r4, #31
  4071d0:	d5f8      	bpl.n	4071c4 <__pow5mult+0x20>
  4071d2:	4632      	mov	r2, r6
  4071d4:	4629      	mov	r1, r5
  4071d6:	4638      	mov	r0, r7
  4071d8:	f7ff ff52 	bl	407080 <__multiply>
  4071dc:	b1b5      	cbz	r5, 40720c <__pow5mult+0x68>
  4071de:	686a      	ldr	r2, [r5, #4]
  4071e0:	6cfb      	ldr	r3, [r7, #76]	; 0x4c
  4071e2:	1064      	asrs	r4, r4, #1
  4071e4:	f853 1022 	ldr.w	r1, [r3, r2, lsl #2]
  4071e8:	6029      	str	r1, [r5, #0]
  4071ea:	f843 5022 	str.w	r5, [r3, r2, lsl #2]
  4071ee:	4605      	mov	r5, r0
  4071f0:	d1ea      	bne.n	4071c8 <__pow5mult+0x24>
  4071f2:	4628      	mov	r0, r5
  4071f4:	e8bd 81f0 	ldmia.w	sp!, {r4, r5, r6, r7, r8, pc}
  4071f8:	4632      	mov	r2, r6
  4071fa:	4631      	mov	r1, r6
  4071fc:	4638      	mov	r0, r7
  4071fe:	f7ff ff3f 	bl	407080 <__multiply>
  407202:	6030      	str	r0, [r6, #0]
  407204:	f8c0 8000 	str.w	r8, [r0]
  407208:	4606      	mov	r6, r0
  40720a:	e7e0      	b.n	4071ce <__pow5mult+0x2a>
  40720c:	4605      	mov	r5, r0
  40720e:	e7d9      	b.n	4071c4 <__pow5mult+0x20>
  407210:	1e5a      	subs	r2, r3, #1
  407212:	4d0b      	ldr	r5, [pc, #44]	; (407240 <__pow5mult+0x9c>)
  407214:	2300      	movs	r3, #0
  407216:	f855 2022 	ldr.w	r2, [r5, r2, lsl #2]
  40721a:	f7ff fe97 	bl	406f4c <__multadd>
  40721e:	4605      	mov	r5, r0
  407220:	e7c8      	b.n	4071b4 <__pow5mult+0x10>
  407222:	2101      	movs	r1, #1
  407224:	4638      	mov	r0, r7
  407226:	f7ff fe61 	bl	406eec <_Balloc>
  40722a:	f240 2171 	movw	r1, #625	; 0x271
  40722e:	2201      	movs	r2, #1
  407230:	2300      	movs	r3, #0
  407232:	6141      	str	r1, [r0, #20]
  407234:	6102      	str	r2, [r0, #16]
  407236:	4606      	mov	r6, r0
  407238:	64b8      	str	r0, [r7, #72]	; 0x48
  40723a:	6003      	str	r3, [r0, #0]
  40723c:	e7be      	b.n	4071bc <__pow5mult+0x18>
  40723e:	bf00      	nop
  407240:	00407e30 	.word	0x00407e30

00407244 <__lshift>:
  407244:	e92d 43f8 	stmdb	sp!, {r3, r4, r5, r6, r7, r8, r9, lr}
  407248:	4691      	mov	r9, r2
  40724a:	690a      	ldr	r2, [r1, #16]
  40724c:	688b      	ldr	r3, [r1, #8]
  40724e:	ea4f 1469 	mov.w	r4, r9, asr #5
  407252:	eb04 0802 	add.w	r8, r4, r2
  407256:	f108 0501 	add.w	r5, r8, #1
  40725a:	429d      	cmp	r5, r3
  40725c:	460e      	mov	r6, r1
  40725e:	4607      	mov	r7, r0
  407260:	6849      	ldr	r1, [r1, #4]
  407262:	dd04      	ble.n	40726e <__lshift+0x2a>
  407264:	005b      	lsls	r3, r3, #1
  407266:	429d      	cmp	r5, r3
  407268:	f101 0101 	add.w	r1, r1, #1
  40726c:	dcfa      	bgt.n	407264 <__lshift+0x20>
  40726e:	4638      	mov	r0, r7
  407270:	f7ff fe3c 	bl	406eec <_Balloc>
  407274:	2c00      	cmp	r4, #0
  407276:	f100 0314 	add.w	r3, r0, #20
  40727a:	dd06      	ble.n	40728a <__lshift+0x46>
  40727c:	eb03 0284 	add.w	r2, r3, r4, lsl #2
  407280:	2100      	movs	r1, #0
  407282:	f843 1b04 	str.w	r1, [r3], #4
  407286:	429a      	cmp	r2, r3
  407288:	d1fb      	bne.n	407282 <__lshift+0x3e>
  40728a:	6934      	ldr	r4, [r6, #16]
  40728c:	f106 0114 	add.w	r1, r6, #20
  407290:	f019 091f 	ands.w	r9, r9, #31
  407294:	eb01 0e84 	add.w	lr, r1, r4, lsl #2
  407298:	d01d      	beq.n	4072d6 <__lshift+0x92>
  40729a:	f1c9 0c20 	rsb	ip, r9, #32
  40729e:	2200      	movs	r2, #0
  4072a0:	680c      	ldr	r4, [r1, #0]
  4072a2:	fa04 f409 	lsl.w	r4, r4, r9
  4072a6:	4314      	orrs	r4, r2
  4072a8:	f843 4b04 	str.w	r4, [r3], #4
  4072ac:	f851 2b04 	ldr.w	r2, [r1], #4
  4072b0:	458e      	cmp	lr, r1
  4072b2:	fa22 f20c 	lsr.w	r2, r2, ip
  4072b6:	d8f3      	bhi.n	4072a0 <__lshift+0x5c>
  4072b8:	601a      	str	r2, [r3, #0]
  4072ba:	b10a      	cbz	r2, 4072c0 <__lshift+0x7c>
  4072bc:	f108 0502 	add.w	r5, r8, #2
  4072c0:	6cfb      	ldr	r3, [r7, #76]	; 0x4c
  4072c2:	6872      	ldr	r2, [r6, #4]
  4072c4:	3d01      	subs	r5, #1
  4072c6:	f853 1022 	ldr.w	r1, [r3, r2, lsl #2]
  4072ca:	6105      	str	r5, [r0, #16]
  4072cc:	6031      	str	r1, [r6, #0]
  4072ce:	f843 6022 	str.w	r6, [r3, r2, lsl #2]
  4072d2:	e8bd 83f8 	ldmia.w	sp!, {r3, r4, r5, r6, r7, r8, r9, pc}
  4072d6:	3b04      	subs	r3, #4
  4072d8:	f851 2b04 	ldr.w	r2, [r1], #4
  4072dc:	f843 2f04 	str.w	r2, [r3, #4]!
  4072e0:	458e      	cmp	lr, r1
  4072e2:	d8f9      	bhi.n	4072d8 <__lshift+0x94>
  4072e4:	e7ec      	b.n	4072c0 <__lshift+0x7c>
  4072e6:	bf00      	nop

004072e8 <__mcmp>:
  4072e8:	b430      	push	{r4, r5}
  4072ea:	690b      	ldr	r3, [r1, #16]
  4072ec:	4605      	mov	r5, r0
  4072ee:	6900      	ldr	r0, [r0, #16]
  4072f0:	1ac0      	subs	r0, r0, r3
  4072f2:	d10f      	bne.n	407314 <__mcmp+0x2c>
  4072f4:	009b      	lsls	r3, r3, #2
  4072f6:	3514      	adds	r5, #20
  4072f8:	3114      	adds	r1, #20
  4072fa:	4419      	add	r1, r3
  4072fc:	442b      	add	r3, r5
  4072fe:	e001      	b.n	407304 <__mcmp+0x1c>
  407300:	429d      	cmp	r5, r3
  407302:	d207      	bcs.n	407314 <__mcmp+0x2c>
  407304:	f853 4d04 	ldr.w	r4, [r3, #-4]!
  407308:	f851 2d04 	ldr.w	r2, [r1, #-4]!
  40730c:	4294      	cmp	r4, r2
  40730e:	d0f7      	beq.n	407300 <__mcmp+0x18>
  407310:	d302      	bcc.n	407318 <__mcmp+0x30>
  407312:	2001      	movs	r0, #1
  407314:	bc30      	pop	{r4, r5}
  407316:	4770      	bx	lr
  407318:	f04f 30ff 	mov.w	r0, #4294967295
  40731c:	e7fa      	b.n	407314 <__mcmp+0x2c>
  40731e:	bf00      	nop

00407320 <__mdiff>:
  407320:	e92d 41f0 	stmdb	sp!, {r4, r5, r6, r7, r8, lr}
  407324:	690f      	ldr	r7, [r1, #16]
  407326:	460e      	mov	r6, r1
  407328:	6911      	ldr	r1, [r2, #16]
  40732a:	1a7f      	subs	r7, r7, r1
  40732c:	2f00      	cmp	r7, #0
  40732e:	4690      	mov	r8, r2
  407330:	d117      	bne.n	407362 <__mdiff+0x42>
  407332:	0089      	lsls	r1, r1, #2
  407334:	f106 0514 	add.w	r5, r6, #20
  407338:	f102 0e14 	add.w	lr, r2, #20
  40733c:	186b      	adds	r3, r5, r1
  40733e:	4471      	add	r1, lr
  407340:	e001      	b.n	407346 <__mdiff+0x26>
  407342:	429d      	cmp	r5, r3
  407344:	d25c      	bcs.n	407400 <__mdiff+0xe0>
  407346:	f853 2d04 	ldr.w	r2, [r3, #-4]!
  40734a:	f851 4d04 	ldr.w	r4, [r1, #-4]!
  40734e:	42a2      	cmp	r2, r4
  407350:	d0f7      	beq.n	407342 <__mdiff+0x22>
  407352:	d25e      	bcs.n	407412 <__mdiff+0xf2>
  407354:	4633      	mov	r3, r6
  407356:	462c      	mov	r4, r5
  407358:	4646      	mov	r6, r8
  40735a:	4675      	mov	r5, lr
  40735c:	4698      	mov	r8, r3
  40735e:	2701      	movs	r7, #1
  407360:	e005      	b.n	40736e <__mdiff+0x4e>
  407362:	db58      	blt.n	407416 <__mdiff+0xf6>
  407364:	f106 0514 	add.w	r5, r6, #20
  407368:	f108 0414 	add.w	r4, r8, #20
  40736c:	2700      	movs	r7, #0
  40736e:	6871      	ldr	r1, [r6, #4]
  407370:	f7ff fdbc 	bl	406eec <_Balloc>
  407374:	f8d8 3010 	ldr.w	r3, [r8, #16]
  407378:	6936      	ldr	r6, [r6, #16]
  40737a:	60c7      	str	r7, [r0, #12]
  40737c:	eb04 0c83 	add.w	ip, r4, r3, lsl #2
  407380:	46a6      	mov	lr, r4
  407382:	eb05 0786 	add.w	r7, r5, r6, lsl #2
  407386:	f100 0414 	add.w	r4, r0, #20
  40738a:	2300      	movs	r3, #0
  40738c:	f85e 1b04 	ldr.w	r1, [lr], #4
  407390:	f855 8b04 	ldr.w	r8, [r5], #4
  407394:	b28a      	uxth	r2, r1
  407396:	fa13 f388 	uxtah	r3, r3, r8
  40739a:	0c09      	lsrs	r1, r1, #16
  40739c:	1a9a      	subs	r2, r3, r2
  40739e:	ebc1 4318 	rsb	r3, r1, r8, lsr #16
  4073a2:	eb03 4322 	add.w	r3, r3, r2, asr #16
  4073a6:	b292      	uxth	r2, r2
  4073a8:	ea42 4203 	orr.w	r2, r2, r3, lsl #16
  4073ac:	45f4      	cmp	ip, lr
  4073ae:	f844 2b04 	str.w	r2, [r4], #4
  4073b2:	ea4f 4323 	mov.w	r3, r3, asr #16
  4073b6:	d8e9      	bhi.n	40738c <__mdiff+0x6c>
  4073b8:	42af      	cmp	r7, r5
  4073ba:	d917      	bls.n	4073ec <__mdiff+0xcc>
  4073bc:	46a4      	mov	ip, r4
  4073be:	46ae      	mov	lr, r5
  4073c0:	f85e 2b04 	ldr.w	r2, [lr], #4
  4073c4:	fa13 f382 	uxtah	r3, r3, r2
  4073c8:	1419      	asrs	r1, r3, #16
  4073ca:	eb01 4112 	add.w	r1, r1, r2, lsr #16
  4073ce:	b29b      	uxth	r3, r3
  4073d0:	ea43 4201 	orr.w	r2, r3, r1, lsl #16
  4073d4:	4577      	cmp	r7, lr
  4073d6:	f84c 2b04 	str.w	r2, [ip], #4
  4073da:	ea4f 4321 	mov.w	r3, r1, asr #16
  4073de:	d8ef      	bhi.n	4073c0 <__mdiff+0xa0>
  4073e0:	43ed      	mvns	r5, r5
  4073e2:	442f      	add	r7, r5
  4073e4:	f027 0703 	bic.w	r7, r7, #3
  4073e8:	3704      	adds	r7, #4
  4073ea:	443c      	add	r4, r7
  4073ec:	3c04      	subs	r4, #4
  4073ee:	b922      	cbnz	r2, 4073fa <__mdiff+0xda>
  4073f0:	f854 3d04 	ldr.w	r3, [r4, #-4]!
  4073f4:	3e01      	subs	r6, #1
  4073f6:	2b00      	cmp	r3, #0
  4073f8:	d0fa      	beq.n	4073f0 <__mdiff+0xd0>
  4073fa:	6106      	str	r6, [r0, #16]
  4073fc:	e8bd 81f0 	ldmia.w	sp!, {r4, r5, r6, r7, r8, pc}
  407400:	2100      	movs	r1, #0
  407402:	f7ff fd73 	bl	406eec <_Balloc>
  407406:	2201      	movs	r2, #1
  407408:	2300      	movs	r3, #0
  40740a:	6102      	str	r2, [r0, #16]
  40740c:	6143      	str	r3, [r0, #20]
  40740e:	e8bd 81f0 	ldmia.w	sp!, {r4, r5, r6, r7, r8, pc}
  407412:	4674      	mov	r4, lr
  407414:	e7ab      	b.n	40736e <__mdiff+0x4e>
  407416:	4633      	mov	r3, r6
  407418:	f106 0414 	add.w	r4, r6, #20
  40741c:	f102 0514 	add.w	r5, r2, #20
  407420:	4616      	mov	r6, r2
  407422:	2701      	movs	r7, #1
  407424:	4698      	mov	r8, r3
  407426:	e7a2      	b.n	40736e <__mdiff+0x4e>

00407428 <__d2b>:
  407428:	e92d 41f0 	stmdb	sp!, {r4, r5, r6, r7, r8, lr}
  40742c:	b082      	sub	sp, #8
  40742e:	2101      	movs	r1, #1
  407430:	461c      	mov	r4, r3
  407432:	f3c3 570a 	ubfx	r7, r3, #20, #11
  407436:	4615      	mov	r5, r2
  407438:	9e08      	ldr	r6, [sp, #32]
  40743a:	f7ff fd57 	bl	406eec <_Balloc>
  40743e:	f3c4 0413 	ubfx	r4, r4, #0, #20
  407442:	4680      	mov	r8, r0
  407444:	b10f      	cbz	r7, 40744a <__d2b+0x22>
  407446:	f444 1480 	orr.w	r4, r4, #1048576	; 0x100000
  40744a:	9401      	str	r4, [sp, #4]
  40744c:	b31d      	cbz	r5, 407496 <__d2b+0x6e>
  40744e:	a802      	add	r0, sp, #8
  407450:	f840 5d08 	str.w	r5, [r0, #-8]!
  407454:	f7ff fdda 	bl	40700c <__lo0bits>
  407458:	2800      	cmp	r0, #0
  40745a:	d134      	bne.n	4074c6 <__d2b+0x9e>
  40745c:	e89d 000c 	ldmia.w	sp, {r2, r3}
  407460:	f8c8 2014 	str.w	r2, [r8, #20]
  407464:	2b00      	cmp	r3, #0
  407466:	bf0c      	ite	eq
  407468:	2101      	moveq	r1, #1
  40746a:	2102      	movne	r1, #2
  40746c:	f8c8 3018 	str.w	r3, [r8, #24]
  407470:	f8c8 1010 	str.w	r1, [r8, #16]
  407474:	b9df      	cbnz	r7, 4074ae <__d2b+0x86>
  407476:	eb08 0381 	add.w	r3, r8, r1, lsl #2
  40747a:	f2a0 4032 	subw	r0, r0, #1074	; 0x432
  40747e:	6030      	str	r0, [r6, #0]
  407480:	6918      	ldr	r0, [r3, #16]
  407482:	f7ff fda3 	bl	406fcc <__hi0bits>
  407486:	9b09      	ldr	r3, [sp, #36]	; 0x24
  407488:	ebc0 1041 	rsb	r0, r0, r1, lsl #5
  40748c:	6018      	str	r0, [r3, #0]
  40748e:	4640      	mov	r0, r8
  407490:	b002      	add	sp, #8
  407492:	e8bd 81f0 	ldmia.w	sp!, {r4, r5, r6, r7, r8, pc}
  407496:	a801      	add	r0, sp, #4
  407498:	f7ff fdb8 	bl	40700c <__lo0bits>
  40749c:	9b01      	ldr	r3, [sp, #4]
  40749e:	f8c8 3014 	str.w	r3, [r8, #20]
  4074a2:	2101      	movs	r1, #1
  4074a4:	3020      	adds	r0, #32
  4074a6:	f8c8 1010 	str.w	r1, [r8, #16]
  4074aa:	2f00      	cmp	r7, #0
  4074ac:	d0e3      	beq.n	407476 <__d2b+0x4e>
  4074ae:	9b09      	ldr	r3, [sp, #36]	; 0x24
  4074b0:	f2a7 4733 	subw	r7, r7, #1075	; 0x433
  4074b4:	4407      	add	r7, r0
  4074b6:	f1c0 0035 	rsb	r0, r0, #53	; 0x35
  4074ba:	6037      	str	r7, [r6, #0]
  4074bc:	6018      	str	r0, [r3, #0]
  4074be:	4640      	mov	r0, r8
  4074c0:	b002      	add	sp, #8
  4074c2:	e8bd 81f0 	ldmia.w	sp!, {r4, r5, r6, r7, r8, pc}
  4074c6:	e89d 000a 	ldmia.w	sp, {r1, r3}
  4074ca:	f1c0 0220 	rsb	r2, r0, #32
  4074ce:	fa03 f202 	lsl.w	r2, r3, r2
  4074d2:	430a      	orrs	r2, r1
  4074d4:	40c3      	lsrs	r3, r0
  4074d6:	9301      	str	r3, [sp, #4]
  4074d8:	f8c8 2014 	str.w	r2, [r8, #20]
  4074dc:	e7c2      	b.n	407464 <__d2b+0x3c>
  4074de:	bf00      	nop

004074e0 <_realloc_r>:
  4074e0:	2900      	cmp	r1, #0
  4074e2:	f000 8095 	beq.w	407610 <_realloc_r+0x130>
  4074e6:	e92d 4ff0 	stmdb	sp!, {r4, r5, r6, r7, r8, r9, sl, fp, lr}
  4074ea:	460d      	mov	r5, r1
  4074ec:	4616      	mov	r6, r2
  4074ee:	b083      	sub	sp, #12
  4074f0:	4680      	mov	r8, r0
  4074f2:	f106 070b 	add.w	r7, r6, #11
  4074f6:	f7fc ff7d 	bl	4043f4 <__malloc_lock>
  4074fa:	f855 ec04 	ldr.w	lr, [r5, #-4]
  4074fe:	2f16      	cmp	r7, #22
  407500:	f02e 0403 	bic.w	r4, lr, #3
  407504:	f1a5 0908 	sub.w	r9, r5, #8
  407508:	d83c      	bhi.n	407584 <_realloc_r+0xa4>
  40750a:	2210      	movs	r2, #16
  40750c:	4617      	mov	r7, r2
  40750e:	42be      	cmp	r6, r7
  407510:	d83d      	bhi.n	40758e <_realloc_r+0xae>
  407512:	4294      	cmp	r4, r2
  407514:	da43      	bge.n	40759e <_realloc_r+0xbe>
  407516:	4bc4      	ldr	r3, [pc, #784]	; (407828 <_realloc_r+0x348>)
  407518:	6899      	ldr	r1, [r3, #8]
  40751a:	eb09 0004 	add.w	r0, r9, r4
  40751e:	4288      	cmp	r0, r1
  407520:	f000 80b4 	beq.w	40768c <_realloc_r+0x1ac>
  407524:	6843      	ldr	r3, [r0, #4]
  407526:	f023 0101 	bic.w	r1, r3, #1
  40752a:	4401      	add	r1, r0
  40752c:	6849      	ldr	r1, [r1, #4]
  40752e:	07c9      	lsls	r1, r1, #31
  407530:	d54c      	bpl.n	4075cc <_realloc_r+0xec>
  407532:	f01e 0f01 	tst.w	lr, #1
  407536:	f000 809b 	beq.w	407670 <_realloc_r+0x190>
  40753a:	4631      	mov	r1, r6
  40753c:	4640      	mov	r0, r8
  40753e:	f7fc fc5b 	bl	403df8 <_malloc_r>
  407542:	4606      	mov	r6, r0
  407544:	2800      	cmp	r0, #0
  407546:	d03a      	beq.n	4075be <_realloc_r+0xde>
  407548:	f855 3c04 	ldr.w	r3, [r5, #-4]
  40754c:	f023 0301 	bic.w	r3, r3, #1
  407550:	444b      	add	r3, r9
  407552:	f1a0 0208 	sub.w	r2, r0, #8
  407556:	429a      	cmp	r2, r3
  407558:	f000 8121 	beq.w	40779e <_realloc_r+0x2be>
  40755c:	1f22      	subs	r2, r4, #4
  40755e:	2a24      	cmp	r2, #36	; 0x24
  407560:	f200 8107 	bhi.w	407772 <_realloc_r+0x292>
  407564:	2a13      	cmp	r2, #19
  407566:	f200 80db 	bhi.w	407720 <_realloc_r+0x240>
  40756a:	4603      	mov	r3, r0
  40756c:	462a      	mov	r2, r5
  40756e:	6811      	ldr	r1, [r2, #0]
  407570:	6019      	str	r1, [r3, #0]
  407572:	6851      	ldr	r1, [r2, #4]
  407574:	6059      	str	r1, [r3, #4]
  407576:	6892      	ldr	r2, [r2, #8]
  407578:	609a      	str	r2, [r3, #8]
  40757a:	4629      	mov	r1, r5
  40757c:	4640      	mov	r0, r8
  40757e:	f7ff fa53 	bl	406a28 <_free_r>
  407582:	e01c      	b.n	4075be <_realloc_r+0xde>
  407584:	f027 0707 	bic.w	r7, r7, #7
  407588:	2f00      	cmp	r7, #0
  40758a:	463a      	mov	r2, r7
  40758c:	dabf      	bge.n	40750e <_realloc_r+0x2e>
  40758e:	2600      	movs	r6, #0
  407590:	230c      	movs	r3, #12
  407592:	4630      	mov	r0, r6
  407594:	f8c8 3000 	str.w	r3, [r8]
  407598:	b003      	add	sp, #12
  40759a:	e8bd 8ff0 	ldmia.w	sp!, {r4, r5, r6, r7, r8, r9, sl, fp, pc}
  40759e:	462e      	mov	r6, r5
  4075a0:	1be3      	subs	r3, r4, r7
  4075a2:	2b0f      	cmp	r3, #15
  4075a4:	d81e      	bhi.n	4075e4 <_realloc_r+0x104>
  4075a6:	f8d9 3004 	ldr.w	r3, [r9, #4]
  4075aa:	f003 0301 	and.w	r3, r3, #1
  4075ae:	4323      	orrs	r3, r4
  4075b0:	444c      	add	r4, r9
  4075b2:	f8c9 3004 	str.w	r3, [r9, #4]
  4075b6:	6863      	ldr	r3, [r4, #4]
  4075b8:	f043 0301 	orr.w	r3, r3, #1
  4075bc:	6063      	str	r3, [r4, #4]
  4075be:	4640      	mov	r0, r8
  4075c0:	f7fc ff1e 	bl	404400 <__malloc_unlock>
  4075c4:	4630      	mov	r0, r6
  4075c6:	b003      	add	sp, #12
  4075c8:	e8bd 8ff0 	ldmia.w	sp!, {r4, r5, r6, r7, r8, r9, sl, fp, pc}
  4075cc:	f023 0303 	bic.w	r3, r3, #3
  4075d0:	18e1      	adds	r1, r4, r3
  4075d2:	4291      	cmp	r1, r2
  4075d4:	db1f      	blt.n	407616 <_realloc_r+0x136>
  4075d6:	68c3      	ldr	r3, [r0, #12]
  4075d8:	6882      	ldr	r2, [r0, #8]
  4075da:	462e      	mov	r6, r5
  4075dc:	60d3      	str	r3, [r2, #12]
  4075de:	460c      	mov	r4, r1
  4075e0:	609a      	str	r2, [r3, #8]
  4075e2:	e7dd      	b.n	4075a0 <_realloc_r+0xc0>
  4075e4:	f8d9 2004 	ldr.w	r2, [r9, #4]
  4075e8:	eb09 0107 	add.w	r1, r9, r7
  4075ec:	f002 0201 	and.w	r2, r2, #1
  4075f0:	444c      	add	r4, r9
  4075f2:	f043 0301 	orr.w	r3, r3, #1
  4075f6:	4317      	orrs	r7, r2
  4075f8:	f8c9 7004 	str.w	r7, [r9, #4]
  4075fc:	604b      	str	r3, [r1, #4]
  4075fe:	6863      	ldr	r3, [r4, #4]
  407600:	f043 0301 	orr.w	r3, r3, #1
  407604:	3108      	adds	r1, #8
  407606:	6063      	str	r3, [r4, #4]
  407608:	4640      	mov	r0, r8
  40760a:	f7ff fa0d 	bl	406a28 <_free_r>
  40760e:	e7d6      	b.n	4075be <_realloc_r+0xde>
  407610:	4611      	mov	r1, r2
  407612:	f7fc bbf1 	b.w	403df8 <_malloc_r>
  407616:	f01e 0f01 	tst.w	lr, #1
  40761a:	d18e      	bne.n	40753a <_realloc_r+0x5a>
  40761c:	f855 1c08 	ldr.w	r1, [r5, #-8]
  407620:	eba9 0a01 	sub.w	sl, r9, r1
  407624:	f8da 1004 	ldr.w	r1, [sl, #4]
  407628:	f021 0103 	bic.w	r1, r1, #3
  40762c:	440b      	add	r3, r1
  40762e:	4423      	add	r3, r4
  407630:	4293      	cmp	r3, r2
  407632:	db25      	blt.n	407680 <_realloc_r+0x1a0>
  407634:	68c2      	ldr	r2, [r0, #12]
  407636:	6881      	ldr	r1, [r0, #8]
  407638:	4656      	mov	r6, sl
  40763a:	60ca      	str	r2, [r1, #12]
  40763c:	6091      	str	r1, [r2, #8]
  40763e:	f8da 100c 	ldr.w	r1, [sl, #12]
  407642:	f856 0f08 	ldr.w	r0, [r6, #8]!
  407646:	1f22      	subs	r2, r4, #4
  407648:	2a24      	cmp	r2, #36	; 0x24
  40764a:	60c1      	str	r1, [r0, #12]
  40764c:	6088      	str	r0, [r1, #8]
  40764e:	f200 8094 	bhi.w	40777a <_realloc_r+0x29a>
  407652:	2a13      	cmp	r2, #19
  407654:	d96f      	bls.n	407736 <_realloc_r+0x256>
  407656:	6829      	ldr	r1, [r5, #0]
  407658:	f8ca 1008 	str.w	r1, [sl, #8]
  40765c:	6869      	ldr	r1, [r5, #4]
  40765e:	f8ca 100c 	str.w	r1, [sl, #12]
  407662:	2a1b      	cmp	r2, #27
  407664:	f200 80a2 	bhi.w	4077ac <_realloc_r+0x2cc>
  407668:	3508      	adds	r5, #8
  40766a:	f10a 0210 	add.w	r2, sl, #16
  40766e:	e063      	b.n	407738 <_realloc_r+0x258>
  407670:	f855 3c08 	ldr.w	r3, [r5, #-8]
  407674:	eba9 0a03 	sub.w	sl, r9, r3
  407678:	f8da 1004 	ldr.w	r1, [sl, #4]
  40767c:	f021 0103 	bic.w	r1, r1, #3
  407680:	1863      	adds	r3, r4, r1
  407682:	4293      	cmp	r3, r2
  407684:	f6ff af59 	blt.w	40753a <_realloc_r+0x5a>
  407688:	4656      	mov	r6, sl
  40768a:	e7d8      	b.n	40763e <_realloc_r+0x15e>
  40768c:	6841      	ldr	r1, [r0, #4]
  40768e:	f021 0b03 	bic.w	fp, r1, #3
  407692:	44a3      	add	fp, r4
  407694:	f107 0010 	add.w	r0, r7, #16
  407698:	4583      	cmp	fp, r0
  40769a:	da56      	bge.n	40774a <_realloc_r+0x26a>
  40769c:	f01e 0f01 	tst.w	lr, #1
  4076a0:	f47f af4b 	bne.w	40753a <_realloc_r+0x5a>
  4076a4:	f855 1c08 	ldr.w	r1, [r5, #-8]
  4076a8:	eba9 0a01 	sub.w	sl, r9, r1
  4076ac:	f8da 1004 	ldr.w	r1, [sl, #4]
  4076b0:	f021 0103 	bic.w	r1, r1, #3
  4076b4:	448b      	add	fp, r1
  4076b6:	4558      	cmp	r0, fp
  4076b8:	dce2      	bgt.n	407680 <_realloc_r+0x1a0>
  4076ba:	4656      	mov	r6, sl
  4076bc:	f8da 100c 	ldr.w	r1, [sl, #12]
  4076c0:	f856 0f08 	ldr.w	r0, [r6, #8]!
  4076c4:	1f22      	subs	r2, r4, #4
  4076c6:	2a24      	cmp	r2, #36	; 0x24
  4076c8:	60c1      	str	r1, [r0, #12]
  4076ca:	6088      	str	r0, [r1, #8]
  4076cc:	f200 808f 	bhi.w	4077ee <_realloc_r+0x30e>
  4076d0:	2a13      	cmp	r2, #19
  4076d2:	f240 808a 	bls.w	4077ea <_realloc_r+0x30a>
  4076d6:	6829      	ldr	r1, [r5, #0]
  4076d8:	f8ca 1008 	str.w	r1, [sl, #8]
  4076dc:	6869      	ldr	r1, [r5, #4]
  4076de:	f8ca 100c 	str.w	r1, [sl, #12]
  4076e2:	2a1b      	cmp	r2, #27
  4076e4:	f200 808a 	bhi.w	4077fc <_realloc_r+0x31c>
  4076e8:	3508      	adds	r5, #8
  4076ea:	f10a 0210 	add.w	r2, sl, #16
  4076ee:	6829      	ldr	r1, [r5, #0]
  4076f0:	6011      	str	r1, [r2, #0]
  4076f2:	6869      	ldr	r1, [r5, #4]
  4076f4:	6051      	str	r1, [r2, #4]
  4076f6:	68a9      	ldr	r1, [r5, #8]
  4076f8:	6091      	str	r1, [r2, #8]
  4076fa:	eb0a 0107 	add.w	r1, sl, r7
  4076fe:	ebab 0207 	sub.w	r2, fp, r7
  407702:	f042 0201 	orr.w	r2, r2, #1
  407706:	6099      	str	r1, [r3, #8]
  407708:	604a      	str	r2, [r1, #4]
  40770a:	f8da 3004 	ldr.w	r3, [sl, #4]
  40770e:	f003 0301 	and.w	r3, r3, #1
  407712:	431f      	orrs	r7, r3
  407714:	4640      	mov	r0, r8
  407716:	f8ca 7004 	str.w	r7, [sl, #4]
  40771a:	f7fc fe71 	bl	404400 <__malloc_unlock>
  40771e:	e751      	b.n	4075c4 <_realloc_r+0xe4>
  407720:	682b      	ldr	r3, [r5, #0]
  407722:	6003      	str	r3, [r0, #0]
  407724:	686b      	ldr	r3, [r5, #4]
  407726:	6043      	str	r3, [r0, #4]
  407728:	2a1b      	cmp	r2, #27
  40772a:	d82d      	bhi.n	407788 <_realloc_r+0x2a8>
  40772c:	f100 0308 	add.w	r3, r0, #8
  407730:	f105 0208 	add.w	r2, r5, #8
  407734:	e71b      	b.n	40756e <_realloc_r+0x8e>
  407736:	4632      	mov	r2, r6
  407738:	6829      	ldr	r1, [r5, #0]
  40773a:	6011      	str	r1, [r2, #0]
  40773c:	6869      	ldr	r1, [r5, #4]
  40773e:	6051      	str	r1, [r2, #4]
  407740:	68a9      	ldr	r1, [r5, #8]
  407742:	6091      	str	r1, [r2, #8]
  407744:	461c      	mov	r4, r3
  407746:	46d1      	mov	r9, sl
  407748:	e72a      	b.n	4075a0 <_realloc_r+0xc0>
  40774a:	eb09 0107 	add.w	r1, r9, r7
  40774e:	ebab 0b07 	sub.w	fp, fp, r7
  407752:	f04b 0201 	orr.w	r2, fp, #1
  407756:	6099      	str	r1, [r3, #8]
  407758:	604a      	str	r2, [r1, #4]
  40775a:	f855 3c04 	ldr.w	r3, [r5, #-4]
  40775e:	f003 0301 	and.w	r3, r3, #1
  407762:	431f      	orrs	r7, r3
  407764:	4640      	mov	r0, r8
  407766:	f845 7c04 	str.w	r7, [r5, #-4]
  40776a:	f7fc fe49 	bl	404400 <__malloc_unlock>
  40776e:	462e      	mov	r6, r5
  407770:	e728      	b.n	4075c4 <_realloc_r+0xe4>
  407772:	4629      	mov	r1, r5
  407774:	f7ff fb56 	bl	406e24 <memmove>
  407778:	e6ff      	b.n	40757a <_realloc_r+0x9a>
  40777a:	4629      	mov	r1, r5
  40777c:	4630      	mov	r0, r6
  40777e:	461c      	mov	r4, r3
  407780:	46d1      	mov	r9, sl
  407782:	f7ff fb4f 	bl	406e24 <memmove>
  407786:	e70b      	b.n	4075a0 <_realloc_r+0xc0>
  407788:	68ab      	ldr	r3, [r5, #8]
  40778a:	6083      	str	r3, [r0, #8]
  40778c:	68eb      	ldr	r3, [r5, #12]
  40778e:	60c3      	str	r3, [r0, #12]
  407790:	2a24      	cmp	r2, #36	; 0x24
  407792:	d017      	beq.n	4077c4 <_realloc_r+0x2e4>
  407794:	f100 0310 	add.w	r3, r0, #16
  407798:	f105 0210 	add.w	r2, r5, #16
  40779c:	e6e7      	b.n	40756e <_realloc_r+0x8e>
  40779e:	f850 3c04 	ldr.w	r3, [r0, #-4]
  4077a2:	f023 0303 	bic.w	r3, r3, #3
  4077a6:	441c      	add	r4, r3
  4077a8:	462e      	mov	r6, r5
  4077aa:	e6f9      	b.n	4075a0 <_realloc_r+0xc0>
  4077ac:	68a9      	ldr	r1, [r5, #8]
  4077ae:	f8ca 1010 	str.w	r1, [sl, #16]
  4077b2:	68e9      	ldr	r1, [r5, #12]
  4077b4:	f8ca 1014 	str.w	r1, [sl, #20]
  4077b8:	2a24      	cmp	r2, #36	; 0x24
  4077ba:	d00c      	beq.n	4077d6 <_realloc_r+0x2f6>
  4077bc:	3510      	adds	r5, #16
  4077be:	f10a 0218 	add.w	r2, sl, #24
  4077c2:	e7b9      	b.n	407738 <_realloc_r+0x258>
  4077c4:	692b      	ldr	r3, [r5, #16]
  4077c6:	6103      	str	r3, [r0, #16]
  4077c8:	696b      	ldr	r3, [r5, #20]
  4077ca:	6143      	str	r3, [r0, #20]
  4077cc:	f105 0218 	add.w	r2, r5, #24
  4077d0:	f100 0318 	add.w	r3, r0, #24
  4077d4:	e6cb      	b.n	40756e <_realloc_r+0x8e>
  4077d6:	692a      	ldr	r2, [r5, #16]
  4077d8:	f8ca 2018 	str.w	r2, [sl, #24]
  4077dc:	696a      	ldr	r2, [r5, #20]
  4077de:	f8ca 201c 	str.w	r2, [sl, #28]
  4077e2:	3518      	adds	r5, #24
  4077e4:	f10a 0220 	add.w	r2, sl, #32
  4077e8:	e7a6      	b.n	407738 <_realloc_r+0x258>
  4077ea:	4632      	mov	r2, r6
  4077ec:	e77f      	b.n	4076ee <_realloc_r+0x20e>
  4077ee:	4629      	mov	r1, r5
  4077f0:	4630      	mov	r0, r6
  4077f2:	9301      	str	r3, [sp, #4]
  4077f4:	f7ff fb16 	bl	406e24 <memmove>
  4077f8:	9b01      	ldr	r3, [sp, #4]
  4077fa:	e77e      	b.n	4076fa <_realloc_r+0x21a>
  4077fc:	68a9      	ldr	r1, [r5, #8]
  4077fe:	f8ca 1010 	str.w	r1, [sl, #16]
  407802:	68e9      	ldr	r1, [r5, #12]
  407804:	f8ca 1014 	str.w	r1, [sl, #20]
  407808:	2a24      	cmp	r2, #36	; 0x24
  40780a:	d003      	beq.n	407814 <_realloc_r+0x334>
  40780c:	3510      	adds	r5, #16
  40780e:	f10a 0218 	add.w	r2, sl, #24
  407812:	e76c      	b.n	4076ee <_realloc_r+0x20e>
  407814:	692a      	ldr	r2, [r5, #16]
  407816:	f8ca 2018 	str.w	r2, [sl, #24]
  40781a:	696a      	ldr	r2, [r5, #20]
  40781c:	f8ca 201c 	str.w	r2, [sl, #28]
  407820:	3518      	adds	r5, #24
  407822:	f10a 0220 	add.w	r2, sl, #32
  407826:	e762      	b.n	4076ee <_realloc_r+0x20e>
  407828:	20000888 	.word	0x20000888

0040782c <__ssprint_r>:
  40782c:	e92d 4ff0 	stmdb	sp!, {r4, r5, r6, r7, r8, r9, sl, fp, lr}
  407830:	6893      	ldr	r3, [r2, #8]
  407832:	b083      	sub	sp, #12
  407834:	4690      	mov	r8, r2
  407836:	2b00      	cmp	r3, #0
  407838:	d070      	beq.n	40791c <__ssprint_r+0xf0>
  40783a:	4682      	mov	sl, r0
  40783c:	460c      	mov	r4, r1
  40783e:	6817      	ldr	r7, [r2, #0]
  407840:	688d      	ldr	r5, [r1, #8]
  407842:	6808      	ldr	r0, [r1, #0]
  407844:	e042      	b.n	4078cc <__ssprint_r+0xa0>
  407846:	89a3      	ldrh	r3, [r4, #12]
  407848:	f413 6f90 	tst.w	r3, #1152	; 0x480
  40784c:	d02e      	beq.n	4078ac <__ssprint_r+0x80>
  40784e:	6965      	ldr	r5, [r4, #20]
  407850:	6921      	ldr	r1, [r4, #16]
  407852:	eb05 0545 	add.w	r5, r5, r5, lsl #1
  407856:	eba0 0b01 	sub.w	fp, r0, r1
  40785a:	eb05 75d5 	add.w	r5, r5, r5, lsr #31
  40785e:	f10b 0001 	add.w	r0, fp, #1
  407862:	106d      	asrs	r5, r5, #1
  407864:	4430      	add	r0, r6
  407866:	42a8      	cmp	r0, r5
  407868:	462a      	mov	r2, r5
  40786a:	bf84      	itt	hi
  40786c:	4605      	movhi	r5, r0
  40786e:	462a      	movhi	r2, r5
  407870:	055b      	lsls	r3, r3, #21
  407872:	d538      	bpl.n	4078e6 <__ssprint_r+0xba>
  407874:	4611      	mov	r1, r2
  407876:	4650      	mov	r0, sl
  407878:	f7fc fabe 	bl	403df8 <_malloc_r>
  40787c:	2800      	cmp	r0, #0
  40787e:	d03c      	beq.n	4078fa <__ssprint_r+0xce>
  407880:	465a      	mov	r2, fp
  407882:	6921      	ldr	r1, [r4, #16]
  407884:	9001      	str	r0, [sp, #4]
  407886:	f7ff fa33 	bl	406cf0 <memcpy>
  40788a:	89a2      	ldrh	r2, [r4, #12]
  40788c:	9b01      	ldr	r3, [sp, #4]
  40788e:	f422 6290 	bic.w	r2, r2, #1152	; 0x480
  407892:	f042 0280 	orr.w	r2, r2, #128	; 0x80
  407896:	81a2      	strh	r2, [r4, #12]
  407898:	eba5 020b 	sub.w	r2, r5, fp
  40789c:	eb03 000b 	add.w	r0, r3, fp
  4078a0:	6165      	str	r5, [r4, #20]
  4078a2:	6123      	str	r3, [r4, #16]
  4078a4:	6020      	str	r0, [r4, #0]
  4078a6:	60a2      	str	r2, [r4, #8]
  4078a8:	4635      	mov	r5, r6
  4078aa:	46b3      	mov	fp, r6
  4078ac:	465a      	mov	r2, fp
  4078ae:	4649      	mov	r1, r9
  4078b0:	f7ff fab8 	bl	406e24 <memmove>
  4078b4:	f8d8 3008 	ldr.w	r3, [r8, #8]
  4078b8:	68a2      	ldr	r2, [r4, #8]
  4078ba:	6820      	ldr	r0, [r4, #0]
  4078bc:	1b55      	subs	r5, r2, r5
  4078be:	4458      	add	r0, fp
  4078c0:	1b9e      	subs	r6, r3, r6
  4078c2:	60a5      	str	r5, [r4, #8]
  4078c4:	6020      	str	r0, [r4, #0]
  4078c6:	f8c8 6008 	str.w	r6, [r8, #8]
  4078ca:	b33e      	cbz	r6, 40791c <__ssprint_r+0xf0>
  4078cc:	687e      	ldr	r6, [r7, #4]
  4078ce:	463b      	mov	r3, r7
  4078d0:	3708      	adds	r7, #8
  4078d2:	2e00      	cmp	r6, #0
  4078d4:	d0fa      	beq.n	4078cc <__ssprint_r+0xa0>
  4078d6:	42ae      	cmp	r6, r5
  4078d8:	f8d3 9000 	ldr.w	r9, [r3]
  4078dc:	46ab      	mov	fp, r5
  4078de:	d2b2      	bcs.n	407846 <__ssprint_r+0x1a>
  4078e0:	4635      	mov	r5, r6
  4078e2:	46b3      	mov	fp, r6
  4078e4:	e7e2      	b.n	4078ac <__ssprint_r+0x80>
  4078e6:	4650      	mov	r0, sl
  4078e8:	f7ff fdfa 	bl	4074e0 <_realloc_r>
  4078ec:	4603      	mov	r3, r0
  4078ee:	2800      	cmp	r0, #0
  4078f0:	d1d2      	bne.n	407898 <__ssprint_r+0x6c>
  4078f2:	6921      	ldr	r1, [r4, #16]
  4078f4:	4650      	mov	r0, sl
  4078f6:	f7ff f897 	bl	406a28 <_free_r>
  4078fa:	230c      	movs	r3, #12
  4078fc:	f8ca 3000 	str.w	r3, [sl]
  407900:	89a3      	ldrh	r3, [r4, #12]
  407902:	2200      	movs	r2, #0
  407904:	f043 0340 	orr.w	r3, r3, #64	; 0x40
  407908:	f04f 30ff 	mov.w	r0, #4294967295
  40790c:	81a3      	strh	r3, [r4, #12]
  40790e:	f8c8 2008 	str.w	r2, [r8, #8]
  407912:	f8c8 2004 	str.w	r2, [r8, #4]
  407916:	b003      	add	sp, #12
  407918:	e8bd 8ff0 	ldmia.w	sp!, {r4, r5, r6, r7, r8, r9, sl, fp, pc}
  40791c:	2000      	movs	r0, #0
  40791e:	f8c8 0004 	str.w	r0, [r8, #4]
  407922:	b003      	add	sp, #12
  407924:	e8bd 8ff0 	ldmia.w	sp!, {r4, r5, r6, r7, r8, r9, sl, fp, pc}

00407928 <__ascii_wctomb>:
  407928:	b121      	cbz	r1, 407934 <__ascii_wctomb+0xc>
  40792a:	2aff      	cmp	r2, #255	; 0xff
  40792c:	d804      	bhi.n	407938 <__ascii_wctomb+0x10>
  40792e:	700a      	strb	r2, [r1, #0]
  407930:	2001      	movs	r0, #1
  407932:	4770      	bx	lr
  407934:	4608      	mov	r0, r1
  407936:	4770      	bx	lr
  407938:	238a      	movs	r3, #138	; 0x8a
  40793a:	6003      	str	r3, [r0, #0]
  40793c:	f04f 30ff 	mov.w	r0, #4294967295
  407940:	4770      	bx	lr
  407942:	bf00      	nop

00407944 <__register_exitproc>:
  407944:	e92d 43f8 	stmdb	sp!, {r3, r4, r5, r6, r7, r8, r9, lr}
  407948:	4d2c      	ldr	r5, [pc, #176]	; (4079fc <__register_exitproc+0xb8>)
  40794a:	4606      	mov	r6, r0
  40794c:	6828      	ldr	r0, [r5, #0]
  40794e:	4698      	mov	r8, r3
  407950:	460f      	mov	r7, r1
  407952:	4691      	mov	r9, r2
  407954:	f7ff f95c 	bl	406c10 <__retarget_lock_acquire_recursive>
  407958:	4b29      	ldr	r3, [pc, #164]	; (407a00 <__register_exitproc+0xbc>)
  40795a:	681c      	ldr	r4, [r3, #0]
  40795c:	f8d4 3148 	ldr.w	r3, [r4, #328]	; 0x148
  407960:	2b00      	cmp	r3, #0
  407962:	d03e      	beq.n	4079e2 <__register_exitproc+0x9e>
  407964:	685a      	ldr	r2, [r3, #4]
  407966:	2a1f      	cmp	r2, #31
  407968:	dc1c      	bgt.n	4079a4 <__register_exitproc+0x60>
  40796a:	f102 0e01 	add.w	lr, r2, #1
  40796e:	b176      	cbz	r6, 40798e <__register_exitproc+0x4a>
  407970:	eb03 0182 	add.w	r1, r3, r2, lsl #2
  407974:	2401      	movs	r4, #1
  407976:	f8c1 9088 	str.w	r9, [r1, #136]	; 0x88
  40797a:	f8d3 0188 	ldr.w	r0, [r3, #392]	; 0x188
  40797e:	4094      	lsls	r4, r2
  407980:	4320      	orrs	r0, r4
  407982:	2e02      	cmp	r6, #2
  407984:	f8c3 0188 	str.w	r0, [r3, #392]	; 0x188
  407988:	f8c1 8108 	str.w	r8, [r1, #264]	; 0x108
  40798c:	d023      	beq.n	4079d6 <__register_exitproc+0x92>
  40798e:	3202      	adds	r2, #2
  407990:	f8c3 e004 	str.w	lr, [r3, #4]
  407994:	6828      	ldr	r0, [r5, #0]
  407996:	f843 7022 	str.w	r7, [r3, r2, lsl #2]
  40799a:	f7ff f93b 	bl	406c14 <__retarget_lock_release_recursive>
  40799e:	2000      	movs	r0, #0
  4079a0:	e8bd 83f8 	ldmia.w	sp!, {r3, r4, r5, r6, r7, r8, r9, pc}
  4079a4:	4b17      	ldr	r3, [pc, #92]	; (407a04 <__register_exitproc+0xc0>)
  4079a6:	b30b      	cbz	r3, 4079ec <__register_exitproc+0xa8>
  4079a8:	f44f 70c8 	mov.w	r0, #400	; 0x190
  4079ac:	f7fc fa14 	bl	403dd8 <malloc>
  4079b0:	4603      	mov	r3, r0
  4079b2:	b1d8      	cbz	r0, 4079ec <__register_exitproc+0xa8>
  4079b4:	f8d4 2148 	ldr.w	r2, [r4, #328]	; 0x148
  4079b8:	6002      	str	r2, [r0, #0]
  4079ba:	2100      	movs	r1, #0
  4079bc:	6041      	str	r1, [r0, #4]
  4079be:	460a      	mov	r2, r1
  4079c0:	f8c4 0148 	str.w	r0, [r4, #328]	; 0x148
  4079c4:	f04f 0e01 	mov.w	lr, #1
  4079c8:	f8c0 1188 	str.w	r1, [r0, #392]	; 0x188
  4079cc:	f8c0 118c 	str.w	r1, [r0, #396]	; 0x18c
  4079d0:	2e00      	cmp	r6, #0
  4079d2:	d0dc      	beq.n	40798e <__register_exitproc+0x4a>
  4079d4:	e7cc      	b.n	407970 <__register_exitproc+0x2c>
  4079d6:	f8d3 118c 	ldr.w	r1, [r3, #396]	; 0x18c
  4079da:	430c      	orrs	r4, r1
  4079dc:	f8c3 418c 	str.w	r4, [r3, #396]	; 0x18c
  4079e0:	e7d5      	b.n	40798e <__register_exitproc+0x4a>
  4079e2:	f504 73a6 	add.w	r3, r4, #332	; 0x14c
  4079e6:	f8c4 3148 	str.w	r3, [r4, #328]	; 0x148
  4079ea:	e7bb      	b.n	407964 <__register_exitproc+0x20>
  4079ec:	6828      	ldr	r0, [r5, #0]
  4079ee:	f7ff f911 	bl	406c14 <__retarget_lock_release_recursive>
  4079f2:	f04f 30ff 	mov.w	r0, #4294967295
  4079f6:	e8bd 83f8 	ldmia.w	sp!, {r3, r4, r5, r6, r7, r8, r9, pc}
  4079fa:	bf00      	nop
  4079fc:	20000c98 	.word	0x20000c98
  407a00:	00407cb4 	.word	0x00407cb4
  407a04:	00403dd9 	.word	0x00403dd9

00407a08 <_calloc_r>:
  407a08:	b510      	push	{r4, lr}
  407a0a:	fb02 f101 	mul.w	r1, r2, r1
  407a0e:	f7fc f9f3 	bl	403df8 <_malloc_r>
  407a12:	4604      	mov	r4, r0
  407a14:	b1d8      	cbz	r0, 407a4e <_calloc_r+0x46>
  407a16:	f850 2c04 	ldr.w	r2, [r0, #-4]
  407a1a:	f022 0203 	bic.w	r2, r2, #3
  407a1e:	3a04      	subs	r2, #4
  407a20:	2a24      	cmp	r2, #36	; 0x24
  407a22:	d818      	bhi.n	407a56 <_calloc_r+0x4e>
  407a24:	2a13      	cmp	r2, #19
  407a26:	d914      	bls.n	407a52 <_calloc_r+0x4a>
  407a28:	2300      	movs	r3, #0
  407a2a:	2a1b      	cmp	r2, #27
  407a2c:	6003      	str	r3, [r0, #0]
  407a2e:	6043      	str	r3, [r0, #4]
  407a30:	d916      	bls.n	407a60 <_calloc_r+0x58>
  407a32:	2a24      	cmp	r2, #36	; 0x24
  407a34:	6083      	str	r3, [r0, #8]
  407a36:	60c3      	str	r3, [r0, #12]
  407a38:	bf11      	iteee	ne
  407a3a:	f100 0210 	addne.w	r2, r0, #16
  407a3e:	6103      	streq	r3, [r0, #16]
  407a40:	6143      	streq	r3, [r0, #20]
  407a42:	f100 0218 	addeq.w	r2, r0, #24
  407a46:	2300      	movs	r3, #0
  407a48:	6013      	str	r3, [r2, #0]
  407a4a:	6053      	str	r3, [r2, #4]
  407a4c:	6093      	str	r3, [r2, #8]
  407a4e:	4620      	mov	r0, r4
  407a50:	bd10      	pop	{r4, pc}
  407a52:	4602      	mov	r2, r0
  407a54:	e7f7      	b.n	407a46 <_calloc_r+0x3e>
  407a56:	2100      	movs	r1, #0
  407a58:	f7fc fc7e 	bl	404358 <memset>
  407a5c:	4620      	mov	r0, r4
  407a5e:	bd10      	pop	{r4, pc}
  407a60:	f100 0208 	add.w	r2, r0, #8
  407a64:	e7ef      	b.n	407a46 <_calloc_r+0x3e>
  407a66:	bf00      	nop

00407a68 <__gedf2>:
  407a68:	f04f 3cff 	mov.w	ip, #4294967295
  407a6c:	e006      	b.n	407a7c <__cmpdf2+0x4>
  407a6e:	bf00      	nop

00407a70 <__ledf2>:
  407a70:	f04f 0c01 	mov.w	ip, #1
  407a74:	e002      	b.n	407a7c <__cmpdf2+0x4>
  407a76:	bf00      	nop

00407a78 <__cmpdf2>:
  407a78:	f04f 0c01 	mov.w	ip, #1
  407a7c:	f84d cd04 	str.w	ip, [sp, #-4]!
  407a80:	ea4f 0c41 	mov.w	ip, r1, lsl #1
  407a84:	ea7f 5c6c 	mvns.w	ip, ip, asr #21
  407a88:	ea4f 0c43 	mov.w	ip, r3, lsl #1
  407a8c:	bf18      	it	ne
  407a8e:	ea7f 5c6c 	mvnsne.w	ip, ip, asr #21
  407a92:	d01b      	beq.n	407acc <__cmpdf2+0x54>
  407a94:	b001      	add	sp, #4
  407a96:	ea50 0c41 	orrs.w	ip, r0, r1, lsl #1
  407a9a:	bf0c      	ite	eq
  407a9c:	ea52 0c43 	orrseq.w	ip, r2, r3, lsl #1
  407aa0:	ea91 0f03 	teqne	r1, r3
  407aa4:	bf02      	ittt	eq
  407aa6:	ea90 0f02 	teqeq	r0, r2
  407aaa:	2000      	moveq	r0, #0
  407aac:	4770      	bxeq	lr
  407aae:	f110 0f00 	cmn.w	r0, #0
  407ab2:	ea91 0f03 	teq	r1, r3
  407ab6:	bf58      	it	pl
  407ab8:	4299      	cmppl	r1, r3
  407aba:	bf08      	it	eq
  407abc:	4290      	cmpeq	r0, r2
  407abe:	bf2c      	ite	cs
  407ac0:	17d8      	asrcs	r0, r3, #31
  407ac2:	ea6f 70e3 	mvncc.w	r0, r3, asr #31
  407ac6:	f040 0001 	orr.w	r0, r0, #1
  407aca:	4770      	bx	lr
  407acc:	ea4f 0c41 	mov.w	ip, r1, lsl #1
  407ad0:	ea7f 5c6c 	mvns.w	ip, ip, asr #21
  407ad4:	d102      	bne.n	407adc <__cmpdf2+0x64>
  407ad6:	ea50 3c01 	orrs.w	ip, r0, r1, lsl #12
  407ada:	d107      	bne.n	407aec <__cmpdf2+0x74>
  407adc:	ea4f 0c43 	mov.w	ip, r3, lsl #1
  407ae0:	ea7f 5c6c 	mvns.w	ip, ip, asr #21
  407ae4:	d1d6      	bne.n	407a94 <__cmpdf2+0x1c>
  407ae6:	ea52 3c03 	orrs.w	ip, r2, r3, lsl #12
  407aea:	d0d3      	beq.n	407a94 <__cmpdf2+0x1c>
  407aec:	f85d 0b04 	ldr.w	r0, [sp], #4
  407af0:	4770      	bx	lr
  407af2:	bf00      	nop

00407af4 <__aeabi_cdrcmple>:
  407af4:	4684      	mov	ip, r0
  407af6:	4610      	mov	r0, r2
  407af8:	4662      	mov	r2, ip
  407afa:	468c      	mov	ip, r1
  407afc:	4619      	mov	r1, r3
  407afe:	4663      	mov	r3, ip
  407b00:	e000      	b.n	407b04 <__aeabi_cdcmpeq>
  407b02:	bf00      	nop

00407b04 <__aeabi_cdcmpeq>:
  407b04:	b501      	push	{r0, lr}
  407b06:	f7ff ffb7 	bl	407a78 <__cmpdf2>
  407b0a:	2800      	cmp	r0, #0
  407b0c:	bf48      	it	mi
  407b0e:	f110 0f00 	cmnmi.w	r0, #0
  407b12:	bd01      	pop	{r0, pc}

00407b14 <__aeabi_dcmpeq>:
  407b14:	f84d ed08 	str.w	lr, [sp, #-8]!
  407b18:	f7ff fff4 	bl	407b04 <__aeabi_cdcmpeq>
  407b1c:	bf0c      	ite	eq
  407b1e:	2001      	moveq	r0, #1
  407b20:	2000      	movne	r0, #0
  407b22:	f85d fb08 	ldr.w	pc, [sp], #8
  407b26:	bf00      	nop

00407b28 <__aeabi_dcmplt>:
  407b28:	f84d ed08 	str.w	lr, [sp, #-8]!
  407b2c:	f7ff ffea 	bl	407b04 <__aeabi_cdcmpeq>
  407b30:	bf34      	ite	cc
  407b32:	2001      	movcc	r0, #1
  407b34:	2000      	movcs	r0, #0
  407b36:	f85d fb08 	ldr.w	pc, [sp], #8
  407b3a:	bf00      	nop

00407b3c <__aeabi_dcmple>:
  407b3c:	f84d ed08 	str.w	lr, [sp, #-8]!
  407b40:	f7ff ffe0 	bl	407b04 <__aeabi_cdcmpeq>
  407b44:	bf94      	ite	ls
  407b46:	2001      	movls	r0, #1
  407b48:	2000      	movhi	r0, #0
  407b4a:	f85d fb08 	ldr.w	pc, [sp], #8
  407b4e:	bf00      	nop

00407b50 <__aeabi_dcmpge>:
  407b50:	f84d ed08 	str.w	lr, [sp, #-8]!
  407b54:	f7ff ffce 	bl	407af4 <__aeabi_cdrcmple>
  407b58:	bf94      	ite	ls
  407b5a:	2001      	movls	r0, #1
  407b5c:	2000      	movhi	r0, #0
  407b5e:	f85d fb08 	ldr.w	pc, [sp], #8
  407b62:	bf00      	nop

00407b64 <__aeabi_dcmpgt>:
  407b64:	f84d ed08 	str.w	lr, [sp, #-8]!
  407b68:	f7ff ffc4 	bl	407af4 <__aeabi_cdrcmple>
  407b6c:	bf34      	ite	cc
  407b6e:	2001      	movcc	r0, #1
  407b70:	2000      	movcs	r0, #0
  407b72:	f85d fb08 	ldr.w	pc, [sp], #8
  407b76:	bf00      	nop

00407b78 <__aeabi_dcmpun>:
  407b78:	ea4f 0c41 	mov.w	ip, r1, lsl #1
  407b7c:	ea7f 5c6c 	mvns.w	ip, ip, asr #21
  407b80:	d102      	bne.n	407b88 <__aeabi_dcmpun+0x10>
  407b82:	ea50 3c01 	orrs.w	ip, r0, r1, lsl #12
  407b86:	d10a      	bne.n	407b9e <__aeabi_dcmpun+0x26>
  407b88:	ea4f 0c43 	mov.w	ip, r3, lsl #1
  407b8c:	ea7f 5c6c 	mvns.w	ip, ip, asr #21
  407b90:	d102      	bne.n	407b98 <__aeabi_dcmpun+0x20>
  407b92:	ea52 3c03 	orrs.w	ip, r2, r3, lsl #12
  407b96:	d102      	bne.n	407b9e <__aeabi_dcmpun+0x26>
  407b98:	f04f 0000 	mov.w	r0, #0
  407b9c:	4770      	bx	lr
  407b9e:	f04f 0001 	mov.w	r0, #1
  407ba2:	4770      	bx	lr

00407ba4 <__aeabi_d2iz>:
  407ba4:	ea4f 0241 	mov.w	r2, r1, lsl #1
  407ba8:	f512 1200 	adds.w	r2, r2, #2097152	; 0x200000
  407bac:	d215      	bcs.n	407bda <__aeabi_d2iz+0x36>
  407bae:	d511      	bpl.n	407bd4 <__aeabi_d2iz+0x30>
  407bb0:	f46f 7378 	mvn.w	r3, #992	; 0x3e0
  407bb4:	ebb3 5262 	subs.w	r2, r3, r2, asr #21
  407bb8:	d912      	bls.n	407be0 <__aeabi_d2iz+0x3c>
  407bba:	ea4f 23c1 	mov.w	r3, r1, lsl #11
  407bbe:	f043 4300 	orr.w	r3, r3, #2147483648	; 0x80000000
  407bc2:	ea43 5350 	orr.w	r3, r3, r0, lsr #21
  407bc6:	f011 4f00 	tst.w	r1, #2147483648	; 0x80000000
  407bca:	fa23 f002 	lsr.w	r0, r3, r2
  407bce:	bf18      	it	ne
  407bd0:	4240      	negne	r0, r0
  407bd2:	4770      	bx	lr
  407bd4:	f04f 0000 	mov.w	r0, #0
  407bd8:	4770      	bx	lr
  407bda:	ea50 3001 	orrs.w	r0, r0, r1, lsl #12
  407bde:	d105      	bne.n	407bec <__aeabi_d2iz+0x48>
  407be0:	f011 4000 	ands.w	r0, r1, #2147483648	; 0x80000000
  407be4:	bf08      	it	eq
  407be6:	f06f 4000 	mvneq.w	r0, #2147483648	; 0x80000000
  407bea:	4770      	bx	lr
  407bec:	f04f 0000 	mov.w	r0, #0
  407bf0:	4770      	bx	lr
  407bf2:	bf00      	nop
  407bf4:	00000000 	.word	0x00000000
  407bf8:	0000000d 	.word	0x0000000d
  407bfc:	00000000 	.word	0x00000000
  407c00:	0000000e 	.word	0x0000000e
  407c04:	00000007 	.word	0x00000007
  407c08:	000007c7 	.word	0x000007c7

00407c0c <mmc_trans_multipliers>:
  407c0c:	00000000 0000000a 0000000c 0000000d     ................
  407c1c:	0000000f 00000014 0000001a 0000001e     ................
  407c2c:	00000023 00000028 0000002d 00000034     #...(...-...4...
  407c3c:	00000037 0000003c 00000046 00000050     7...<...F...P...

00407c4c <sd_mmc_trans_units>:
  407c4c:	0000000a 00000064 000003e8 00002710     ....d........'..
	...

00407c68 <sd_trans_multipliers>:
  407c68:	00000000 0000000a 0000000c 0000000d     ................
  407c78:	0000000f 00000014 00000019 0000001e     ................
  407c88:	00000023 00000028 0000002d 00000032     #...(...-...2...
  407c98:	00000037 0000003c 00000046 00000050     7...<...F...P...
  407ca8:	726f6353 25203a65 00000064              Score: %d...

00407cb4 <_global_impure_ptr>:
  407cb4:	20000460 00464e49 00666e69 004e414e     `.. INF.inf.NAN.
  407cc4:	006e616e 33323130 37363534 42413938     nan.0123456789AB
  407cd4:	46454443 00000000 33323130 37363534     CDEF....01234567
  407ce4:	62613938 66656463 00000000 6c756e28     89abcdef....(nul
  407cf4:	0000296c 00000030                       l)..0...

00407cfc <blanks.7223>:
  407cfc:	20202020 20202020 20202020 20202020                     

00407d0c <zeroes.7224>:
  407d0c:	30303030 30303030 30303030 30303030     0000000000000000
  407d1c:	69666e49 7974696e 00000000 004e614e     Infinity....NaN.
  407d2c:	00000043 49534f50 00000058 0000002e     C...POSIX.......
  407d3c:	00000000                                ....

00407d40 <__mprec_bigtens>:
  407d40:	37e08000 4341c379 b5056e17 4693b8b5     ...7y.AC.n.....F
  407d50:	e93ff9f5 4d384f03 f9301d32 5a827748     ..?..O8M2.0.Hw.Z
  407d60:	7f73bf3c 75154fdd                       <.s..O.u

00407d68 <__mprec_tens>:
  407d68:	00000000 3ff00000 00000000 40240000     .......?......$@
  407d78:	00000000 40590000 00000000 408f4000     ......Y@.....@.@
  407d88:	00000000 40c38800 00000000 40f86a00     .......@.....j.@
  407d98:	00000000 412e8480 00000000 416312d0     .......A......cA
  407da8:	00000000 4197d784 00000000 41cdcd65     .......A....e..A
  407db8:	20000000 4202a05f e8000000 42374876     ... _..B....vH7B
  407dc8:	a2000000 426d1a94 e5400000 42a2309c     ......mB..@..0.B
  407dd8:	1e900000 42d6bcc4 26340000 430c6bf5     .......B..4&.k.C
  407de8:	37e08000 4341c379 85d8a000 43763457     ...7y.AC....W4vC
  407df8:	674ec800 43abc16d 60913d00 43e158e4     ..Ngm..C.=.`.X.C
  407e08:	78b58c40 4415af1d d6e2ef50 444b1ae4     @..x...DP.....KD
  407e18:	064dd592 4480f0cf c7e14af6 44b52d02     ..M....D.J...-.D
  407e28:	79d99db4 44ea7843                       ...yCx.D

00407e30 <p05.6055>:
  407e30:	00000005 00000019 0000007d              ........}...

00407e3c <_ctype_>:
  407e3c:	20202000 20202020 28282020 20282828     .         ((((( 
  407e4c:	20202020 20202020 20202020 20202020                     
  407e5c:	10108820 10101010 10101010 10101010      ...............
  407e6c:	04040410 04040404 10040404 10101010     ................
  407e7c:	41411010 41414141 01010101 01010101     ..AAAAAA........
  407e8c:	01010101 01010101 01010101 10101010     ................
  407e9c:	42421010 42424242 02020202 02020202     ..BBBBBB........
  407eac:	02020202 02020202 02020202 10101010     ................
  407ebc:	00000020 00000000 00000000 00000000      ...............
	...

00407f40 <_init>:
  407f40:	b5f8      	push	{r3, r4, r5, r6, r7, lr}
  407f42:	bf00      	nop
  407f44:	bcf8      	pop	{r3, r4, r5, r6, r7}
  407f46:	bc08      	pop	{r3}
  407f48:	469e      	mov	lr, r3
  407f4a:	4770      	bx	lr

00407f4c <__init_array_start>:
  407f4c:	004059b9 	.word	0x004059b9

00407f50 <__frame_dummy_init_array_entry>:
  407f50:	004000f1                                ..@.

00407f54 <_fini>:
  407f54:	b5f8      	push	{r3, r4, r5, r6, r7, lr}
  407f56:	bf00      	nop
  407f58:	bcf8      	pop	{r3, r4, r5, r6, r7}
  407f5a:	bc08      	pop	{r3}
  407f5c:	469e      	mov	lr, r3
  407f5e:	4770      	bx	lr

00407f60 <__fini_array_start>:
  407f60:	004000cd 	.word	0x004000cd

Disassembly of section .relocate:

20000000 <portable_delay_cycles>:
RAMFUNC
void portable_delay_cycles(unsigned long n)
{
	UNUSED(n);

	__asm (
20000000:	f3bf 8f5f 	dmb	sy
20000004:	3801      	subs	r0, #1
20000006:	d1fb      	bne.n	20000000 <portable_delay_cycles>
20000008:	4770      	bx	lr
	...

2000000c <Font08px_123>:
2000000c:	1003 826c                                   ..l.

20000010 <Font08px_124>:
20000010:	fe01 0000                                   ....

20000014 <Font08px_125>:
20000014:	8203 106c                                   ..l.

20000018 <Font08px_126>:
20000018:	1005 1008 1020 0000                         .... ...

20000020 <Font08px_32>:
20000020:	0008 0000 0000 0000 0000 0000               ............

2000002c <Font08px_33>:
2000002c:	9908 3c7e 2424 3c3c 0018 0000               ..~<$$<<....

20000038 <Font08px_34>:
20000038:	0408 66bd 3e3c bc65 0004 0000               ...f<>e.....

20000044 <Font08px_35>:
20000044:	1808 1818 0018 0000 0000 0000               ............

20000050 <Font08px_36>:
20000050:	0008 0000 1800 1818 0018 0000               ............

2000005c <Font08px_37>:
2000005c:	4605 1026 c4c8 0000                         .F&.....

20000064 <Font08px_38>:
20000064:	6c05 ac92 a040 0000                         .l..@...

2000006c <Font08px_39>:
2000006c:	0601 0000                                   ....

20000070 <Font08px_40>:
20000070:	3803 8244                                   .8D.

20000074 <Font08px_41>:
20000074:	8203 3844                                   ..D8

20000078 <Font08px_42>:
20000078:	2803 2810                                   .(.(

2000007c <Font08px_43>:
2000007c:	1003 1038                                   ..8.

20000080 <Font08px_44>:
20000080:	c001 0000                                   ....

20000084 <Font08px_45>:
20000084:	1003 1010                                   ....

20000088 <Font08px_46>:
20000088:	8001 0000                                   ....

2000008c <Font08px_47>:
2000008c:	c003 0638                                   ..8.

20000090 <Font08px_58>:
20000090:	4401 0000                                   .D..

20000094 <Font08px_59>:
20000094:	c401 0000                                   ....

20000098 <Font08px_60>:
20000098:	1004 4428 0082 0000                         ..(D....

200000a0 <Font08px_61>:
200000a0:	2804 2828 0028 0000                         .((((...

200000a8 <Font08px_62>:
200000a8:	8204 2844 0010 0000                         ..D(....

200000b0 <Font08px_63>:
200000b0:	0405 a202 0c12 0000                         ........

200000b8 <Font08px_64>:
200000b8:	3808 9244 aaaa 24ba 0018 0000               .8D....$....

200000c4 <Font08px_91>:
200000c4:	fe03 8282                                   ....

200000c8 <Font08px_92>:
200000c8:	0603 c038                                   ..8.

200000cc <Font08px_93>:
200000cc:	8203 fe82                                   ....

200000d0 <Font08px_94>:
200000d0:	0403 0402                                   ....

200000d4 <Font08px_95>:
200000d4:	8003 8080                                   ....

200000d8 <Font08px_96>:
200000d8:	0202 0004                                   ....

200000dc <Font08px_N0>:
200000dc:	7c05 92a2 7c8a 0000                         .|...|..

200000e4 <Font08px_N1>:
200000e4:	0005 fe84 0080 0000                         ........

200000ec <Font08px_N2>:
200000ec:	8405 a2c2 8c92 0000                         ........

200000f4 <Font08px_N3>:
200000f4:	4405 9282 6c92 0000                         .D...l..

200000fc <Font08px_N4>:
200000fc:	3005 2428 20fe 0000                         .0($. ..

20000104 <Font08px_N5>:
20000104:	5e05 8a8a 728a 0000                         .^...r..

2000010c <Font08px_N6>:
2000010c:	7c05 9292 6492 0000                         .|...d..

20000114 <Font08px_N7>:
20000114:	0205 f202 060a 0000                         ........

2000011c <Font08px_N8>:
2000011c:	6c05 9292 6c92 0000                         .l...l..

20000124 <Font08px_N9>:
20000124:	4c05 9292 7c92 0000                         .L...|..

2000012c <Font08px_UA>:
2000012c:	f805 1214 f814 0000                         ........

20000134 <Font08px_UB>:
20000134:	fe04 9292 006c 0000                         ....l...

2000013c <Font08px_UC>:
2000013c:	7c04 8282 0044 0000                         .|..D...

20000144 <Font08px_UD>:
20000144:	fe04 8282 007c 0000                         ....|...

2000014c <Font08px_UE>:
2000014c:	fe04 9292 0082 0000                         ........

20000154 <Font08px_UF>:
20000154:	fe04 1212 0002 0000                         ........

2000015c <Font08px_UG>:
2000015c:	7c05 9282 f492 0000                         .|......

20000164 <Font08px_UH>:
20000164:	fe04 1010 00fe 0000                         ........

2000016c <Font08px_UI>:
2000016c:	8203 82fe                                   ....

20000170 <Font08px_UJ>:
20000170:	4004 8080 007e 0000                         .@..~...

20000178 <Font08px_UK>:
20000178:	fe05 2810 8244 0000                         ...(D...

20000180 <Font08px_UL>:
20000180:	fe04 8080 0080 0000                         ........

20000188 <Font08px_UM>:
20000188:	fe05 0804 fe04 0000                         ........

20000190 <Font08px_UN>:
20000190:	fe05 1804 fe60 0000                         ....`...

20000198 <Font08px_UO>:
20000198:	7c04 8282 007c 0000                         .|..|...

200001a0 <Font08px_UP>:
200001a0:	fe04 1212 000c 0000                         ........

200001a8 <Font08px_UQ>:
200001a8:	7c05 a282 bc42 0000                         .|..B...

200001b0 <Font08px_UR>:
200001b0:	fe04 3212 00cc 0000                         ...2....

200001b8 <Font08px_US>:
200001b8:	4c04 9292 0064 0000                         .L..d...

200001c0 <Font08px_UT>:
200001c0:	0205 fe02 0202 0000                         ........

200001c8 <Font08px_UU>:
200001c8:	7e04 8080 007e 0000                         .~..~...

200001d0 <Font08px_UV>:
200001d0:	0e05 c030 0e30 0000                         ..0.0...

200001d8 <Font08px_UW>:
200001d8:	3e05 38c0 3ec0 0000                         .>.8.>..

200001e0 <Font08px_UX>:
200001e0:	c605 1028 c628 0000                         ..(.(...

200001e8 <Font08px_UY>:
200001e8:	0605 f008 0608 0000                         ........

200001f0 <Font08px_UZ>:
200001f0:	c205 92a2 868a 0000                         ........

200001f8 <Font08px_la>:
200001f8:	7004 8888 00f8 0000                         .p......

20000200 <Font08px_lb>:
20000200:	fe04 8888 0070 0000                         ....p...

20000208 <Font08px_lc>:
20000208:	7004 8888 0088 0000                         .p......

20000210 <Font08px_ld>:
20000210:	7004 8888 00fe 0000                         .p......

20000218 <Font08px_le>:
20000218:	7004 a8a8 0030 0000                         .p..0...

20000220 <Font08px_lf>:
20000220:	fc03 0212                                   ....

20000224 <Font08px_lg>:
20000224:	1004 a8a8 0078 0000                         ....x...

2000022c <Font08px_lh>:
2000022c:	fe04 0810 00f0 0000                         ........

20000234 <Font08px_li>:
20000234:	fa01 0000                                   ....

20000238 <Font08px_lj>:
20000238:	8002 007a                                   ..z.

2000023c <Font08px_lk>:
2000023c:	fe04 5020 0088 0000                         .. P....

20000244 <Font08px_ll>:
20000244:	fe01 0000                                   ....

20000248 <Font08px_lm>:
20000248:	f805 f008 f008 0000                         ........

20000250 <Font08px_ln>:
20000250:	f804 0810 00f0 0000                         ........

20000258 <Font08px_lo>:
20000258:	7004 8888 0070 0000                         .p..p...

20000260 <Font08px_lp>:
20000260:	f804 2828 0010 0000                         ..((....

20000268 <Font08px_lq>:
20000268:	1004 2828 00f8 0000                         ..((....

20000270 <Font08px_lr>:
20000270:	f803 0810                                   ....

20000274 <Font08px_ls>:
20000274:	9004 a8a8 0048 0000                         ....H...

2000027c <Font08px_lt>:
2000027c:	0803 887c                                   ..|.

20000280 <Font08px_lu>:
20000280:	7804 8080 00f8 0000                         .x......

20000288 <Font08px_lv>:
20000288:	1805 8060 1860 0000                         ..`.`...

20000290 <Font08px_lw>:
20000290:	3805 30c0 38c0 0000                         .8.0.8..

20000298 <Font08px_lx>:
20000298:	8805 2050 8850 0000                         ..P P...

200002a0 <Font08px_ly>:
200002a0:	1804 a0a0 0078 0000                         ....x...

200002a8 <Font08px_lz>:
200002a8:	c803 98a8                                   ....

200002ac <font_table>:
200002ac:	0020 2000 002c 2000 0038 2000 0044 2000      .. ,.. 8.. D.. 
200002bc:	0050 2000 005c 2000 0064 2000 006c 2000     P.. \.. d.. l.. 
200002cc:	0070 2000 0074 2000 0078 2000 007c 2000     p.. t.. x.. |.. 
200002dc:	0080 2000 0084 2000 0088 2000 008c 2000     ... ... ... ... 
200002ec:	00dc 2000 00e4 2000 00ec 2000 00f4 2000     ... ... ... ... 
200002fc:	00fc 2000 0104 2000 010c 2000 0114 2000     ... ... ... ... 
2000030c:	011c 2000 0124 2000 0090 2000 0094 2000     ... $.. ... ... 
2000031c:	0098 2000 00a0 2000 00a8 2000 00b0 2000     ... ... ... ... 
2000032c:	00b8 2000 012c 2000 0134 2000 013c 2000     ... ,.. 4.. <.. 
2000033c:	0144 2000 014c 2000 0154 2000 015c 2000     D.. L.. T.. \.. 
2000034c:	0164 2000 016c 2000 0170 2000 0178 2000     d.. l.. p.. x.. 
2000035c:	0180 2000 0188 2000 0190 2000 0198 2000     ... ... ... ... 
2000036c:	01a0 2000 01a8 2000 01b0 2000 01b8 2000     ... ... ... ... 
2000037c:	01c0 2000 01c8 2000 01d0 2000 01d8 2000     ... ... ... ... 
2000038c:	01e0 2000 01e8 2000 01f0 2000 00c4 2000     ... ... ... ... 
2000039c:	00c8 2000 00cc 2000 00d0 2000 00d4 2000     ... ... ... ... 
200003ac:	00d8 2000 01f8 2000 0200 2000 0208 2000     ... ... ... ... 
200003bc:	0210 2000 0218 2000 0220 2000 0224 2000     ... ...  .. $.. 
200003cc:	022c 2000 0234 2000 0238 2000 023c 2000     ,.. 4.. 8.. <.. 
200003dc:	0244 2000 0248 2000 0250 2000 0258 2000     D.. H.. P.. X.. 
200003ec:	0260 2000 0268 2000 0270 2000 0274 2000     `.. h.. p.. t.. 
200003fc:	027c 2000 0280 2000 0288 2000 0290 2000     |.. ... ... ... 
2000040c:	0298 2000 02a0 2000 02a8 2000 000c 2000     ... ... ... ... 
2000041c:	0010 2000 0014 2000 0018 2000               ... ... ... 

20000428 <sd_mmc_cards>:
	...
20000430:	004c 0000 0000 0000 0000 0000 0000 0000     L...............
	...

2000044c <sd_mmc_spi_devices>:
2000044c:	0001 0000                                   ....

20000450 <SystemCoreClock>:
20000450:	0900 003d                                   ..=.

20000454 <aliens_at_top>:
20000454:	0001 0000                                   ....

20000458 <_impure_ptr>:
20000458:	0460 2000 0000 0000                         `.. ....

20000460 <impure_data>:
20000460:	0000 0000 074c 2000 07b4 2000 081c 2000     ....L.. ... ... 
	...
20000508:	0001 0000 0000 0000 330e abcd 1234 e66d     .........3..4.m.
20000518:	deec 0005 000b 0000 0000 0000 0000 0000     ................
	...

20000888 <__malloc_av_>:
	...
20000890:	0888 2000 0888 2000 0890 2000 0890 2000     ... ... ... ... 
200008a0:	0898 2000 0898 2000 08a0 2000 08a0 2000     ... ... ... ... 
200008b0:	08a8 2000 08a8 2000 08b0 2000 08b0 2000     ... ... ... ... 
200008c0:	08b8 2000 08b8 2000 08c0 2000 08c0 2000     ... ... ... ... 
200008d0:	08c8 2000 08c8 2000 08d0 2000 08d0 2000     ... ... ... ... 
200008e0:	08d8 2000 08d8 2000 08e0 2000 08e0 2000     ... ... ... ... 
200008f0:	08e8 2000 08e8 2000 08f0 2000 08f0 2000     ... ... ... ... 
20000900:	08f8 2000 08f8 2000 0900 2000 0900 2000     ... ... ... ... 
20000910:	0908 2000 0908 2000 0910 2000 0910 2000     ... ... ... ... 
20000920:	0918 2000 0918 2000 0920 2000 0920 2000     ... ...  ..  .. 
20000930:	0928 2000 0928 2000 0930 2000 0930 2000     (.. (.. 0.. 0.. 
20000940:	0938 2000 0938 2000 0940 2000 0940 2000     8.. 8.. @.. @.. 
20000950:	0948 2000 0948 2000 0950 2000 0950 2000     H.. H.. P.. P.. 
20000960:	0958 2000 0958 2000 0960 2000 0960 2000     X.. X.. `.. `.. 
20000970:	0968 2000 0968 2000 0970 2000 0970 2000     h.. h.. p.. p.. 
20000980:	0978 2000 0978 2000 0980 2000 0980 2000     x.. x.. ... ... 
20000990:	0988 2000 0988 2000 0990 2000 0990 2000     ... ... ... ... 
200009a0:	0998 2000 0998 2000 09a0 2000 09a0 2000     ... ... ... ... 
200009b0:	09a8 2000 09a8 2000 09b0 2000 09b0 2000     ... ... ... ... 
200009c0:	09b8 2000 09b8 2000 09c0 2000 09c0 2000     ... ... ... ... 
200009d0:	09c8 2000 09c8 2000 09d0 2000 09d0 2000     ... ... ... ... 
200009e0:	09d8 2000 09d8 2000 09e0 2000 09e0 2000     ... ... ... ... 
200009f0:	09e8 2000 09e8 2000 09f0 2000 09f0 2000     ... ... ... ... 
20000a00:	09f8 2000 09f8 2000 0a00 2000 0a00 2000     ... ... ... ... 
20000a10:	0a08 2000 0a08 2000 0a10 2000 0a10 2000     ... ... ... ... 
20000a20:	0a18 2000 0a18 2000 0a20 2000 0a20 2000     ... ...  ..  .. 
20000a30:	0a28 2000 0a28 2000 0a30 2000 0a30 2000     (.. (.. 0.. 0.. 
20000a40:	0a38 2000 0a38 2000 0a40 2000 0a40 2000     8.. 8.. @.. @.. 
20000a50:	0a48 2000 0a48 2000 0a50 2000 0a50 2000     H.. H.. P.. P.. 
20000a60:	0a58 2000 0a58 2000 0a60 2000 0a60 2000     X.. X.. `.. `.. 
20000a70:	0a68 2000 0a68 2000 0a70 2000 0a70 2000     h.. h.. p.. p.. 
20000a80:	0a78 2000 0a78 2000 0a80 2000 0a80 2000     x.. x.. ... ... 
20000a90:	0a88 2000 0a88 2000 0a90 2000 0a90 2000     ... ... ... ... 
20000aa0:	0a98 2000 0a98 2000 0aa0 2000 0aa0 2000     ... ... ... ... 
20000ab0:	0aa8 2000 0aa8 2000 0ab0 2000 0ab0 2000     ... ... ... ... 
20000ac0:	0ab8 2000 0ab8 2000 0ac0 2000 0ac0 2000     ... ... ... ... 
20000ad0:	0ac8 2000 0ac8 2000 0ad0 2000 0ad0 2000     ... ... ... ... 
20000ae0:	0ad8 2000 0ad8 2000 0ae0 2000 0ae0 2000     ... ... ... ... 
20000af0:	0ae8 2000 0ae8 2000 0af0 2000 0af0 2000     ... ... ... ... 
20000b00:	0af8 2000 0af8 2000 0b00 2000 0b00 2000     ... ... ... ... 
20000b10:	0b08 2000 0b08 2000 0b10 2000 0b10 2000     ... ... ... ... 
20000b20:	0b18 2000 0b18 2000 0b20 2000 0b20 2000     ... ...  ..  .. 
20000b30:	0b28 2000 0b28 2000 0b30 2000 0b30 2000     (.. (.. 0.. 0.. 
20000b40:	0b38 2000 0b38 2000 0b40 2000 0b40 2000     8.. 8.. @.. @.. 
20000b50:	0b48 2000 0b48 2000 0b50 2000 0b50 2000     H.. H.. P.. P.. 
20000b60:	0b58 2000 0b58 2000 0b60 2000 0b60 2000     X.. X.. `.. `.. 
20000b70:	0b68 2000 0b68 2000 0b70 2000 0b70 2000     h.. h.. p.. p.. 
20000b80:	0b78 2000 0b78 2000 0b80 2000 0b80 2000     x.. x.. ... ... 
20000b90:	0b88 2000 0b88 2000 0b90 2000 0b90 2000     ... ... ... ... 
20000ba0:	0b98 2000 0b98 2000 0ba0 2000 0ba0 2000     ... ... ... ... 
20000bb0:	0ba8 2000 0ba8 2000 0bb0 2000 0bb0 2000     ... ... ... ... 
20000bc0:	0bb8 2000 0bb8 2000 0bc0 2000 0bc0 2000     ... ... ... ... 
20000bd0:	0bc8 2000 0bc8 2000 0bd0 2000 0bd0 2000     ... ... ... ... 
20000be0:	0bd8 2000 0bd8 2000 0be0 2000 0be0 2000     ... ... ... ... 
20000bf0:	0be8 2000 0be8 2000 0bf0 2000 0bf0 2000     ... ... ... ... 
20000c00:	0bf8 2000 0bf8 2000 0c00 2000 0c00 2000     ... ... ... ... 
20000c10:	0c08 2000 0c08 2000 0c10 2000 0c10 2000     ... ... ... ... 
20000c20:	0c18 2000 0c18 2000 0c20 2000 0c20 2000     ... ...  ..  .. 
20000c30:	0c28 2000 0c28 2000 0c30 2000 0c30 2000     (.. (.. 0.. 0.. 
20000c40:	0c38 2000 0c38 2000 0c40 2000 0c40 2000     8.. 8.. @.. @.. 
20000c50:	0c48 2000 0c48 2000 0c50 2000 0c50 2000     H.. H.. P.. P.. 
20000c60:	0c58 2000 0c58 2000 0c60 2000 0c60 2000     X.. X.. `.. `.. 
20000c70:	0c68 2000 0c68 2000 0c70 2000 0c70 2000     h.. h.. p.. p.. 
20000c80:	0c78 2000 0c78 2000 0c80 2000 0c80 2000     x.. x.. ... ... 

20000c90 <__malloc_sbrk_base>:
20000c90:	ffff ffff                                   ....

20000c94 <__malloc_trim_threshold>:
20000c94:	0000 0002                                   ....

20000c98 <__atexit_recursive_mutex>:
20000c98:	11b0 2000                                   ... 

20000c9c <__global_locale>:
20000c9c:	0043 0000 0000 0000 0000 0000 0000 0000     C...............
	...
20000cbc:	0043 0000 0000 0000 0000 0000 0000 0000     C...............
	...
20000cdc:	0043 0000 0000 0000 0000 0000 0000 0000     C...............
	...
20000cfc:	0043 0000 0000 0000 0000 0000 0000 0000     C...............
	...
20000d1c:	0043 0000 0000 0000 0000 0000 0000 0000     C...............
	...
20000d3c:	0043 0000 0000 0000 0000 0000 0000 0000     C...............
	...
20000d5c:	0043 0000 0000 0000 0000 0000 0000 0000     C...............
	...
20000d7c:	7929 0040 6c19 0040 0000 0000 7e3c 0040     )y@..l@.....<~@.
20000d8c:	7d38 0040 7cd8 0040 7cd8 0040 7cd8 0040     8}@..|@..|@..|@.
20000d9c:	7cd8 0040 7cd8 0040 7cd8 0040 7cd8 0040     .|@..|@..|@..|@.
20000dac:	7cd8 0040 7cd8 0040 ffff ffff ffff ffff     .|@..|@.........
20000dbc:	ffff ffff ffff 0000 0001 5341 4943 0049     ..........ASCII.
	...
20000de4:	0000 5341 4943 0049 0000 0000 0000 0000     ..ASCII.........
	...
